ARM GAS  C:\Users\pearlstl\AppData\Local\Temp\cc5dErme.s 			page 1


   1              		.syntax unified
   2              		.cpu cortex-m4
   3              		.eabi_attribute 27, 1
   4              		.fpu fpv4-sp-d16
   5              		.eabi_attribute 20, 1
   6              		.eabi_attribute 21, 1
   7              		.eabi_attribute 23, 3
   8              		.eabi_attribute 24, 1
   9              		.eabi_attribute 25, 1
  10              		.eabi_attribute 26, 1
  11              		.eabi_attribute 30, 2
  12              		.eabi_attribute 34, 1
  13              		.eabi_attribute 18, 4
  14              		.thumb
  15              		.syntax unified
  16              		.file	"lv_theme_material.c"
  17              		.text
  18              	.Ltext0:
  19              		.cfi_sections	.debug_frame
  20              		.section	.text.lv_theme_material_init,"ax",%progbits
  21              		.align	2
  22              		.global	lv_theme_material_init
  23              		.thumb
  24              		.thumb_func
  25              		.type	lv_theme_material_init, %function
  26              	lv_theme_material_init:
  27              	.LFB61:
  28              		.file 1 "..\\..\\..\\lvgl\\version_6.1.2\\lvgl\\src\\lv_themes\\lv_theme_material.c"
   1:..\..\..\lvgl\version_6.1.2\lvgl\src\lv_themes/lv_theme_material.c **** /**
   2:..\..\..\lvgl\version_6.1.2\lvgl\src\lv_themes/lv_theme_material.c ****  * @file lv_theme_material.c
   3:..\..\..\lvgl\version_6.1.2\lvgl\src\lv_themes/lv_theme_material.c ****  *
   4:..\..\..\lvgl\version_6.1.2\lvgl\src\lv_themes/lv_theme_material.c ****  */
   5:..\..\..\lvgl\version_6.1.2\lvgl\src\lv_themes/lv_theme_material.c **** 
   6:..\..\..\lvgl\version_6.1.2\lvgl\src\lv_themes/lv_theme_material.c **** /*********************
   7:..\..\..\lvgl\version_6.1.2\lvgl\src\lv_themes/lv_theme_material.c ****  *      INCLUDES
   8:..\..\..\lvgl\version_6.1.2\lvgl\src\lv_themes/lv_theme_material.c ****  *********************/
   9:..\..\..\lvgl\version_6.1.2\lvgl\src\lv_themes/lv_theme_material.c **** #include "lv_theme.h"
  10:..\..\..\lvgl\version_6.1.2\lvgl\src\lv_themes/lv_theme_material.c **** 
  11:..\..\..\lvgl\version_6.1.2\lvgl\src\lv_themes/lv_theme_material.c **** #if LV_USE_THEME_MATERIAL
  12:..\..\..\lvgl\version_6.1.2\lvgl\src\lv_themes/lv_theme_material.c **** 
  13:..\..\..\lvgl\version_6.1.2\lvgl\src\lv_themes/lv_theme_material.c **** /*********************
  14:..\..\..\lvgl\version_6.1.2\lvgl\src\lv_themes/lv_theme_material.c ****  *      DEFINES
  15:..\..\..\lvgl\version_6.1.2\lvgl\src\lv_themes/lv_theme_material.c ****  *********************/
  16:..\..\..\lvgl\version_6.1.2\lvgl\src\lv_themes/lv_theme_material.c **** #define DEF_RADIUS 4
  17:..\..\..\lvgl\version_6.1.2\lvgl\src\lv_themes/lv_theme_material.c **** #define DEF_SHADOW_COLOR lv_color_hex3(0xaaa)
  18:..\..\..\lvgl\version_6.1.2\lvgl\src\lv_themes/lv_theme_material.c **** 
  19:..\..\..\lvgl\version_6.1.2\lvgl\src\lv_themes/lv_theme_material.c **** /**********************
  20:..\..\..\lvgl\version_6.1.2\lvgl\src\lv_themes/lv_theme_material.c ****  *      TYPEDEFS
  21:..\..\..\lvgl\version_6.1.2\lvgl\src\lv_themes/lv_theme_material.c ****  **********************/
  22:..\..\..\lvgl\version_6.1.2\lvgl\src\lv_themes/lv_theme_material.c **** 
  23:..\..\..\lvgl\version_6.1.2\lvgl\src\lv_themes/lv_theme_material.c **** /**********************
  24:..\..\..\lvgl\version_6.1.2\lvgl\src\lv_themes/lv_theme_material.c ****  *  STATIC PROTOTYPES
  25:..\..\..\lvgl\version_6.1.2\lvgl\src\lv_themes/lv_theme_material.c ****  **********************/
  26:..\..\..\lvgl\version_6.1.2\lvgl\src\lv_themes/lv_theme_material.c **** 
  27:..\..\..\lvgl\version_6.1.2\lvgl\src\lv_themes/lv_theme_material.c **** /**********************
  28:..\..\..\lvgl\version_6.1.2\lvgl\src\lv_themes/lv_theme_material.c ****  *  STATIC VARIABLES
  29:..\..\..\lvgl\version_6.1.2\lvgl\src\lv_themes/lv_theme_material.c ****  **********************/
ARM GAS  C:\Users\pearlstl\AppData\Local\Temp\cc5dErme.s 			page 2


  30:..\..\..\lvgl\version_6.1.2\lvgl\src\lv_themes/lv_theme_material.c **** static lv_theme_t theme;
  31:..\..\..\lvgl\version_6.1.2\lvgl\src\lv_themes/lv_theme_material.c **** static lv_style_t def;
  32:..\..\..\lvgl\version_6.1.2\lvgl\src\lv_themes/lv_theme_material.c **** 
  33:..\..\..\lvgl\version_6.1.2\lvgl\src\lv_themes/lv_theme_material.c **** /*Static style definitions*/
  34:..\..\..\lvgl\version_6.1.2\lvgl\src\lv_themes/lv_theme_material.c **** static lv_style_t sb;
  35:..\..\..\lvgl\version_6.1.2\lvgl\src\lv_themes/lv_theme_material.c **** 
  36:..\..\..\lvgl\version_6.1.2\lvgl\src\lv_themes/lv_theme_material.c **** /*Saved input parameters*/
  37:..\..\..\lvgl\version_6.1.2\lvgl\src\lv_themes/lv_theme_material.c **** static uint16_t _hue;
  38:..\..\..\lvgl\version_6.1.2\lvgl\src\lv_themes/lv_theme_material.c **** static lv_font_t * _font;
  39:..\..\..\lvgl\version_6.1.2\lvgl\src\lv_themes/lv_theme_material.c **** 
  40:..\..\..\lvgl\version_6.1.2\lvgl\src\lv_themes/lv_theme_material.c **** /**********************
  41:..\..\..\lvgl\version_6.1.2\lvgl\src\lv_themes/lv_theme_material.c ****  *      MACROS
  42:..\..\..\lvgl\version_6.1.2\lvgl\src\lv_themes/lv_theme_material.c ****  **********************/
  43:..\..\..\lvgl\version_6.1.2\lvgl\src\lv_themes/lv_theme_material.c **** 
  44:..\..\..\lvgl\version_6.1.2\lvgl\src\lv_themes/lv_theme_material.c **** /**********************
  45:..\..\..\lvgl\version_6.1.2\lvgl\src\lv_themes/lv_theme_material.c ****  *   STATIC FUNCTIONS
  46:..\..\..\lvgl\version_6.1.2\lvgl\src\lv_themes/lv_theme_material.c ****  **********************/
  47:..\..\..\lvgl\version_6.1.2\lvgl\src\lv_themes/lv_theme_material.c **** 
  48:..\..\..\lvgl\version_6.1.2\lvgl\src\lv_themes/lv_theme_material.c **** static void basic_init(void)
  49:..\..\..\lvgl\version_6.1.2\lvgl\src\lv_themes/lv_theme_material.c **** {
  50:..\..\..\lvgl\version_6.1.2\lvgl\src\lv_themes/lv_theme_material.c ****     static lv_style_t bg, panel, scr;
  51:..\..\..\lvgl\version_6.1.2\lvgl\src\lv_themes/lv_theme_material.c **** 
  52:..\..\..\lvgl\version_6.1.2\lvgl\src\lv_themes/lv_theme_material.c ****     lv_style_copy(&def, &lv_style_plain); /*Initialize the default style*/
  53:..\..\..\lvgl\version_6.1.2\lvgl\src\lv_themes/lv_theme_material.c ****     def.text.font   = _font;
  54:..\..\..\lvgl\version_6.1.2\lvgl\src\lv_themes/lv_theme_material.c ****     def.body.radius = DEF_RADIUS;
  55:..\..\..\lvgl\version_6.1.2\lvgl\src\lv_themes/lv_theme_material.c **** 
  56:..\..\..\lvgl\version_6.1.2\lvgl\src\lv_themes/lv_theme_material.c ****     lv_style_copy(&bg, &def);
  57:..\..\..\lvgl\version_6.1.2\lvgl\src\lv_themes/lv_theme_material.c ****     bg.body.main_color = lv_color_hex(0xf0f0f0);
  58:..\..\..\lvgl\version_6.1.2\lvgl\src\lv_themes/lv_theme_material.c ****     bg.body.grad_color = bg.body.main_color;
  59:..\..\..\lvgl\version_6.1.2\lvgl\src\lv_themes/lv_theme_material.c ****     bg.body.radius     = 0;
  60:..\..\..\lvgl\version_6.1.2\lvgl\src\lv_themes/lv_theme_material.c **** 
  61:..\..\..\lvgl\version_6.1.2\lvgl\src\lv_themes/lv_theme_material.c ****     lv_style_copy(&scr, &bg);
  62:..\..\..\lvgl\version_6.1.2\lvgl\src\lv_themes/lv_theme_material.c ****     scr.body.padding.bottom = 0;
  63:..\..\..\lvgl\version_6.1.2\lvgl\src\lv_themes/lv_theme_material.c ****     scr.body.padding.top    = 0;
  64:..\..\..\lvgl\version_6.1.2\lvgl\src\lv_themes/lv_theme_material.c ****     scr.body.padding.left   = 0;
  65:..\..\..\lvgl\version_6.1.2\lvgl\src\lv_themes/lv_theme_material.c ****     scr.body.padding.right  = 0;
  66:..\..\..\lvgl\version_6.1.2\lvgl\src\lv_themes/lv_theme_material.c **** 
  67:..\..\..\lvgl\version_6.1.2\lvgl\src\lv_themes/lv_theme_material.c ****     lv_style_copy(&panel, &def);
  68:..\..\..\lvgl\version_6.1.2\lvgl\src\lv_themes/lv_theme_material.c ****     panel.body.radius         = DEF_RADIUS;
  69:..\..\..\lvgl\version_6.1.2\lvgl\src\lv_themes/lv_theme_material.c ****     panel.body.main_color     = LV_COLOR_WHITE;
  70:..\..\..\lvgl\version_6.1.2\lvgl\src\lv_themes/lv_theme_material.c ****     panel.body.grad_color     = LV_COLOR_WHITE;
  71:..\..\..\lvgl\version_6.1.2\lvgl\src\lv_themes/lv_theme_material.c ****     panel.body.border.width   = 1;
  72:..\..\..\lvgl\version_6.1.2\lvgl\src\lv_themes/lv_theme_material.c ****     panel.body.border.color   = lv_color_hex3(0xbbb);
  73:..\..\..\lvgl\version_6.1.2\lvgl\src\lv_themes/lv_theme_material.c ****     panel.body.border.opa     = LV_OPA_COVER;
  74:..\..\..\lvgl\version_6.1.2\lvgl\src\lv_themes/lv_theme_material.c ****     panel.body.shadow.color   = DEF_SHADOW_COLOR;
  75:..\..\..\lvgl\version_6.1.2\lvgl\src\lv_themes/lv_theme_material.c ****     panel.body.shadow.type    = LV_SHADOW_BOTTOM;
  76:..\..\..\lvgl\version_6.1.2\lvgl\src\lv_themes/lv_theme_material.c ****     panel.body.shadow.width   = 4;
  77:..\..\..\lvgl\version_6.1.2\lvgl\src\lv_themes/lv_theme_material.c ****     panel.body.padding.left   = LV_DPI / 8;
  78:..\..\..\lvgl\version_6.1.2\lvgl\src\lv_themes/lv_theme_material.c ****     panel.body.padding.right  = LV_DPI / 8;
  79:..\..\..\lvgl\version_6.1.2\lvgl\src\lv_themes/lv_theme_material.c ****     panel.body.padding.top    = LV_DPI / 8;
  80:..\..\..\lvgl\version_6.1.2\lvgl\src\lv_themes/lv_theme_material.c ****     panel.body.padding.bottom = LV_DPI / 8;
  81:..\..\..\lvgl\version_6.1.2\lvgl\src\lv_themes/lv_theme_material.c ****     panel.body.padding.inner  = LV_DPI / 12;
  82:..\..\..\lvgl\version_6.1.2\lvgl\src\lv_themes/lv_theme_material.c ****     panel.text.color          = lv_color_hex3(0x333);
  83:..\..\..\lvgl\version_6.1.2\lvgl\src\lv_themes/lv_theme_material.c ****     panel.image.color         = lv_color_hex3(0x333);
  84:..\..\..\lvgl\version_6.1.2\lvgl\src\lv_themes/lv_theme_material.c **** 
  85:..\..\..\lvgl\version_6.1.2\lvgl\src\lv_themes/lv_theme_material.c ****     lv_style_copy(&sb, &def);
  86:..\..\..\lvgl\version_6.1.2\lvgl\src\lv_themes/lv_theme_material.c ****     sb.body.main_color     = LV_COLOR_BLACK;
ARM GAS  C:\Users\pearlstl\AppData\Local\Temp\cc5dErme.s 			page 3


  87:..\..\..\lvgl\version_6.1.2\lvgl\src\lv_themes/lv_theme_material.c ****     sb.body.grad_color     = LV_COLOR_BLACK;
  88:..\..\..\lvgl\version_6.1.2\lvgl\src\lv_themes/lv_theme_material.c ****     sb.body.opa            = LV_OPA_40;
  89:..\..\..\lvgl\version_6.1.2\lvgl\src\lv_themes/lv_theme_material.c ****     sb.body.padding.right  = LV_DPI / 25;
  90:..\..\..\lvgl\version_6.1.2\lvgl\src\lv_themes/lv_theme_material.c ****     sb.body.padding.bottom = LV_DPI / 25;
  91:..\..\..\lvgl\version_6.1.2\lvgl\src\lv_themes/lv_theme_material.c **** 
  92:..\..\..\lvgl\version_6.1.2\lvgl\src\lv_themes/lv_theme_material.c ****     theme.style.bg    = &bg;
  93:..\..\..\lvgl\version_6.1.2\lvgl\src\lv_themes/lv_theme_material.c ****     theme.style.scr   = &scr;
  94:..\..\..\lvgl\version_6.1.2\lvgl\src\lv_themes/lv_theme_material.c ****     theme.style.panel = &panel;
  95:..\..\..\lvgl\version_6.1.2\lvgl\src\lv_themes/lv_theme_material.c **** }
  96:..\..\..\lvgl\version_6.1.2\lvgl\src\lv_themes/lv_theme_material.c **** 
  97:..\..\..\lvgl\version_6.1.2\lvgl\src\lv_themes/lv_theme_material.c **** static void cont_init(void)
  98:..\..\..\lvgl\version_6.1.2\lvgl\src\lv_themes/lv_theme_material.c **** {
  99:..\..\..\lvgl\version_6.1.2\lvgl\src\lv_themes/lv_theme_material.c **** #if LV_USE_CONT != 0
 100:..\..\..\lvgl\version_6.1.2\lvgl\src\lv_themes/lv_theme_material.c **** 
 101:..\..\..\lvgl\version_6.1.2\lvgl\src\lv_themes/lv_theme_material.c ****     theme.style.cont = theme.style.panel;
 102:..\..\..\lvgl\version_6.1.2\lvgl\src\lv_themes/lv_theme_material.c **** #endif
 103:..\..\..\lvgl\version_6.1.2\lvgl\src\lv_themes/lv_theme_material.c **** }
 104:..\..\..\lvgl\version_6.1.2\lvgl\src\lv_themes/lv_theme_material.c **** 
 105:..\..\..\lvgl\version_6.1.2\lvgl\src\lv_themes/lv_theme_material.c **** static void btn_init(void)
 106:..\..\..\lvgl\version_6.1.2\lvgl\src\lv_themes/lv_theme_material.c **** {
 107:..\..\..\lvgl\version_6.1.2\lvgl\src\lv_themes/lv_theme_material.c **** #if LV_USE_BTN != 0
 108:..\..\..\lvgl\version_6.1.2\lvgl\src\lv_themes/lv_theme_material.c ****     static lv_style_t rel, pr, tgl_rel, tgl_pr, ina;
 109:..\..\..\lvgl\version_6.1.2\lvgl\src\lv_themes/lv_theme_material.c **** 
 110:..\..\..\lvgl\version_6.1.2\lvgl\src\lv_themes/lv_theme_material.c ****     lv_style_copy(&rel, &def);
 111:..\..\..\lvgl\version_6.1.2\lvgl\src\lv_themes/lv_theme_material.c ****     rel.body.main_color     = lv_color_hsv_to_rgb(_hue, 90, 70);
 112:..\..\..\lvgl\version_6.1.2\lvgl\src\lv_themes/lv_theme_material.c ****     rel.body.grad_color     = rel.body.main_color;
 113:..\..\..\lvgl\version_6.1.2\lvgl\src\lv_themes/lv_theme_material.c ****     rel.body.radius         = DEF_RADIUS;
 114:..\..\..\lvgl\version_6.1.2\lvgl\src\lv_themes/lv_theme_material.c ****     rel.body.padding.left   = LV_DPI / 6;
 115:..\..\..\lvgl\version_6.1.2\lvgl\src\lv_themes/lv_theme_material.c ****     rel.body.padding.right  = LV_DPI / 6;
 116:..\..\..\lvgl\version_6.1.2\lvgl\src\lv_themes/lv_theme_material.c ****     rel.body.padding.top    = LV_DPI / 8;
 117:..\..\..\lvgl\version_6.1.2\lvgl\src\lv_themes/lv_theme_material.c ****     rel.body.padding.bottom = LV_DPI / 8;
 118:..\..\..\lvgl\version_6.1.2\lvgl\src\lv_themes/lv_theme_material.c ****     rel.body.padding.inner  = LV_DPI / 10;
 119:..\..\..\lvgl\version_6.1.2\lvgl\src\lv_themes/lv_theme_material.c ****     rel.body.shadow.color   = DEF_SHADOW_COLOR;
 120:..\..\..\lvgl\version_6.1.2\lvgl\src\lv_themes/lv_theme_material.c ****     rel.body.shadow.type    = LV_SHADOW_BOTTOM;
 121:..\..\..\lvgl\version_6.1.2\lvgl\src\lv_themes/lv_theme_material.c ****     rel.body.shadow.width   = 6;
 122:..\..\..\lvgl\version_6.1.2\lvgl\src\lv_themes/lv_theme_material.c ****     rel.text.color          = lv_color_hsv_to_rgb(_hue, 5, 95);
 123:..\..\..\lvgl\version_6.1.2\lvgl\src\lv_themes/lv_theme_material.c ****     rel.image.color         = lv_color_hsv_to_rgb(_hue, 5, 95);
 124:..\..\..\lvgl\version_6.1.2\lvgl\src\lv_themes/lv_theme_material.c **** 
 125:..\..\..\lvgl\version_6.1.2\lvgl\src\lv_themes/lv_theme_material.c ****     lv_style_copy(&pr, &rel);
 126:..\..\..\lvgl\version_6.1.2\lvgl\src\lv_themes/lv_theme_material.c ****     pr.body.main_color   = lv_color_hsv_to_rgb(_hue, 90, 60);
 127:..\..\..\lvgl\version_6.1.2\lvgl\src\lv_themes/lv_theme_material.c ****     pr.body.grad_color   = pr.body.main_color;
 128:..\..\..\lvgl\version_6.1.2\lvgl\src\lv_themes/lv_theme_material.c ****     pr.body.shadow.width = 4;
 129:..\..\..\lvgl\version_6.1.2\lvgl\src\lv_themes/lv_theme_material.c **** 
 130:..\..\..\lvgl\version_6.1.2\lvgl\src\lv_themes/lv_theme_material.c ****     lv_style_copy(&tgl_rel, &rel);
 131:..\..\..\lvgl\version_6.1.2\lvgl\src\lv_themes/lv_theme_material.c ****     tgl_rel.body.main_color   = lv_color_hsv_to_rgb(_hue, 95, 50);
 132:..\..\..\lvgl\version_6.1.2\lvgl\src\lv_themes/lv_theme_material.c ****     tgl_rel.body.grad_color   = tgl_rel.body.main_color;
 133:..\..\..\lvgl\version_6.1.2\lvgl\src\lv_themes/lv_theme_material.c ****     tgl_rel.body.shadow.width = 4;
 134:..\..\..\lvgl\version_6.1.2\lvgl\src\lv_themes/lv_theme_material.c **** 
 135:..\..\..\lvgl\version_6.1.2\lvgl\src\lv_themes/lv_theme_material.c ****     lv_style_copy(&tgl_pr, &tgl_rel);
 136:..\..\..\lvgl\version_6.1.2\lvgl\src\lv_themes/lv_theme_material.c ****     tgl_pr.body.main_color   = lv_color_hsv_to_rgb(_hue, 95, 40);
 137:..\..\..\lvgl\version_6.1.2\lvgl\src\lv_themes/lv_theme_material.c ****     tgl_pr.body.grad_color   = tgl_pr.body.main_color;
 138:..\..\..\lvgl\version_6.1.2\lvgl\src\lv_themes/lv_theme_material.c ****     tgl_pr.body.shadow.width = 2;
 139:..\..\..\lvgl\version_6.1.2\lvgl\src\lv_themes/lv_theme_material.c **** 
 140:..\..\..\lvgl\version_6.1.2\lvgl\src\lv_themes/lv_theme_material.c ****     lv_style_copy(&ina, &rel);
 141:..\..\..\lvgl\version_6.1.2\lvgl\src\lv_themes/lv_theme_material.c ****     ina.body.main_color   = lv_color_hex3(0xccc);
 142:..\..\..\lvgl\version_6.1.2\lvgl\src\lv_themes/lv_theme_material.c ****     ina.body.grad_color   = ina.body.main_color;
 143:..\..\..\lvgl\version_6.1.2\lvgl\src\lv_themes/lv_theme_material.c ****     ina.body.shadow.width = 0;
ARM GAS  C:\Users\pearlstl\AppData\Local\Temp\cc5dErme.s 			page 4


 144:..\..\..\lvgl\version_6.1.2\lvgl\src\lv_themes/lv_theme_material.c ****     ina.text.color        = lv_color_hsv_to_rgb(_hue, 95, 5);
 145:..\..\..\lvgl\version_6.1.2\lvgl\src\lv_themes/lv_theme_material.c ****     ina.image.color       = lv_color_hsv_to_rgb(_hue, 95, 5);
 146:..\..\..\lvgl\version_6.1.2\lvgl\src\lv_themes/lv_theme_material.c **** 
 147:..\..\..\lvgl\version_6.1.2\lvgl\src\lv_themes/lv_theme_material.c ****     theme.style.btn.rel     = &rel;
 148:..\..\..\lvgl\version_6.1.2\lvgl\src\lv_themes/lv_theme_material.c ****     theme.style.btn.pr      = &pr;
 149:..\..\..\lvgl\version_6.1.2\lvgl\src\lv_themes/lv_theme_material.c ****     theme.style.btn.tgl_rel = &tgl_rel;
 150:..\..\..\lvgl\version_6.1.2\lvgl\src\lv_themes/lv_theme_material.c ****     theme.style.btn.tgl_pr  = &tgl_pr;
 151:..\..\..\lvgl\version_6.1.2\lvgl\src\lv_themes/lv_theme_material.c ****     theme.style.btn.ina     = &ina;
 152:..\..\..\lvgl\version_6.1.2\lvgl\src\lv_themes/lv_theme_material.c **** #endif
 153:..\..\..\lvgl\version_6.1.2\lvgl\src\lv_themes/lv_theme_material.c **** }
 154:..\..\..\lvgl\version_6.1.2\lvgl\src\lv_themes/lv_theme_material.c **** 
 155:..\..\..\lvgl\version_6.1.2\lvgl\src\lv_themes/lv_theme_material.c **** static void label_init(void)
 156:..\..\..\lvgl\version_6.1.2\lvgl\src\lv_themes/lv_theme_material.c **** {
 157:..\..\..\lvgl\version_6.1.2\lvgl\src\lv_themes/lv_theme_material.c **** #if LV_USE_LABEL != 0
 158:..\..\..\lvgl\version_6.1.2\lvgl\src\lv_themes/lv_theme_material.c ****     static lv_style_t prim, sec, hint;
 159:..\..\..\lvgl\version_6.1.2\lvgl\src\lv_themes/lv_theme_material.c **** 
 160:..\..\..\lvgl\version_6.1.2\lvgl\src\lv_themes/lv_theme_material.c ****     lv_style_copy(&prim, &def);
 161:..\..\..\lvgl\version_6.1.2\lvgl\src\lv_themes/lv_theme_material.c ****     prim.text.font  = _font;
 162:..\..\..\lvgl\version_6.1.2\lvgl\src\lv_themes/lv_theme_material.c ****     prim.text.color = lv_color_hsv_to_rgb(_hue, 80, 10);
 163:..\..\..\lvgl\version_6.1.2\lvgl\src\lv_themes/lv_theme_material.c **** 
 164:..\..\..\lvgl\version_6.1.2\lvgl\src\lv_themes/lv_theme_material.c ****     lv_style_copy(&sec, &prim);
 165:..\..\..\lvgl\version_6.1.2\lvgl\src\lv_themes/lv_theme_material.c ****     sec.text.color = lv_color_hsv_to_rgb(_hue, 80, 75);
 166:..\..\..\lvgl\version_6.1.2\lvgl\src\lv_themes/lv_theme_material.c **** 
 167:..\..\..\lvgl\version_6.1.2\lvgl\src\lv_themes/lv_theme_material.c ****     lv_style_copy(&hint, &prim);
 168:..\..\..\lvgl\version_6.1.2\lvgl\src\lv_themes/lv_theme_material.c ****     hint.text.color = lv_color_hsv_to_rgb(_hue, 40, 90);
 169:..\..\..\lvgl\version_6.1.2\lvgl\src\lv_themes/lv_theme_material.c **** 
 170:..\..\..\lvgl\version_6.1.2\lvgl\src\lv_themes/lv_theme_material.c ****     theme.style.label.prim = &prim;
 171:..\..\..\lvgl\version_6.1.2\lvgl\src\lv_themes/lv_theme_material.c ****     theme.style.label.sec  = &sec;
 172:..\..\..\lvgl\version_6.1.2\lvgl\src\lv_themes/lv_theme_material.c ****     theme.style.label.hint = &hint;
 173:..\..\..\lvgl\version_6.1.2\lvgl\src\lv_themes/lv_theme_material.c **** #endif
 174:..\..\..\lvgl\version_6.1.2\lvgl\src\lv_themes/lv_theme_material.c **** }
 175:..\..\..\lvgl\version_6.1.2\lvgl\src\lv_themes/lv_theme_material.c **** 
 176:..\..\..\lvgl\version_6.1.2\lvgl\src\lv_themes/lv_theme_material.c **** static void img_init(void)
 177:..\..\..\lvgl\version_6.1.2\lvgl\src\lv_themes/lv_theme_material.c **** {
 178:..\..\..\lvgl\version_6.1.2\lvgl\src\lv_themes/lv_theme_material.c **** #if LV_USE_IMG != 0
 179:..\..\..\lvgl\version_6.1.2\lvgl\src\lv_themes/lv_theme_material.c ****     static lv_style_t img_light, img_dark;
 180:..\..\..\lvgl\version_6.1.2\lvgl\src\lv_themes/lv_theme_material.c ****     lv_style_copy(&img_light, &def);
 181:..\..\..\lvgl\version_6.1.2\lvgl\src\lv_themes/lv_theme_material.c ****     img_light.image.color   = lv_color_hsv_to_rgb(_hue, 15, 85);
 182:..\..\..\lvgl\version_6.1.2\lvgl\src\lv_themes/lv_theme_material.c ****     img_light.image.intense = LV_OPA_80;
 183:..\..\..\lvgl\version_6.1.2\lvgl\src\lv_themes/lv_theme_material.c **** 
 184:..\..\..\lvgl\version_6.1.2\lvgl\src\lv_themes/lv_theme_material.c ****     lv_style_copy(&img_dark, &def);
 185:..\..\..\lvgl\version_6.1.2\lvgl\src\lv_themes/lv_theme_material.c ****     img_light.image.color   = lv_color_hsv_to_rgb(_hue, 85, 65);
 186:..\..\..\lvgl\version_6.1.2\lvgl\src\lv_themes/lv_theme_material.c ****     img_light.image.intense = LV_OPA_80;
 187:..\..\..\lvgl\version_6.1.2\lvgl\src\lv_themes/lv_theme_material.c **** 
 188:..\..\..\lvgl\version_6.1.2\lvgl\src\lv_themes/lv_theme_material.c ****     theme.style.img.light = &def;
 189:..\..\..\lvgl\version_6.1.2\lvgl\src\lv_themes/lv_theme_material.c ****     theme.style.img.dark  = &def;
 190:..\..\..\lvgl\version_6.1.2\lvgl\src\lv_themes/lv_theme_material.c **** #endif
 191:..\..\..\lvgl\version_6.1.2\lvgl\src\lv_themes/lv_theme_material.c **** }
 192:..\..\..\lvgl\version_6.1.2\lvgl\src\lv_themes/lv_theme_material.c **** 
 193:..\..\..\lvgl\version_6.1.2\lvgl\src\lv_themes/lv_theme_material.c **** static void line_init(void)
 194:..\..\..\lvgl\version_6.1.2\lvgl\src\lv_themes/lv_theme_material.c **** {
 195:..\..\..\lvgl\version_6.1.2\lvgl\src\lv_themes/lv_theme_material.c **** #if LV_USE_LINE != 0
 196:..\..\..\lvgl\version_6.1.2\lvgl\src\lv_themes/lv_theme_material.c **** 
 197:..\..\..\lvgl\version_6.1.2\lvgl\src\lv_themes/lv_theme_material.c ****     theme.style.line.decor = &def;
 198:..\..\..\lvgl\version_6.1.2\lvgl\src\lv_themes/lv_theme_material.c **** #endif
 199:..\..\..\lvgl\version_6.1.2\lvgl\src\lv_themes/lv_theme_material.c **** }
 200:..\..\..\lvgl\version_6.1.2\lvgl\src\lv_themes/lv_theme_material.c **** 
ARM GAS  C:\Users\pearlstl\AppData\Local\Temp\cc5dErme.s 			page 5


 201:..\..\..\lvgl\version_6.1.2\lvgl\src\lv_themes/lv_theme_material.c **** static void led_init(void)
 202:..\..\..\lvgl\version_6.1.2\lvgl\src\lv_themes/lv_theme_material.c **** {
 203:..\..\..\lvgl\version_6.1.2\lvgl\src\lv_themes/lv_theme_material.c **** #if LV_USE_LED != 0
 204:..\..\..\lvgl\version_6.1.2\lvgl\src\lv_themes/lv_theme_material.c ****     static lv_style_t led;
 205:..\..\..\lvgl\version_6.1.2\lvgl\src\lv_themes/lv_theme_material.c ****     lv_style_copy(&led, &def);
 206:..\..\..\lvgl\version_6.1.2\lvgl\src\lv_themes/lv_theme_material.c ****     led.body.shadow.width = LV_DPI / 10;
 207:..\..\..\lvgl\version_6.1.2\lvgl\src\lv_themes/lv_theme_material.c ****     led.body.radius       = LV_RADIUS_CIRCLE;
 208:..\..\..\lvgl\version_6.1.2\lvgl\src\lv_themes/lv_theme_material.c ****     led.body.border.width = LV_DPI / 30;
 209:..\..\..\lvgl\version_6.1.2\lvgl\src\lv_themes/lv_theme_material.c ****     led.body.border.opa   = LV_OPA_30;
 210:..\..\..\lvgl\version_6.1.2\lvgl\src\lv_themes/lv_theme_material.c ****     led.body.main_color   = lv_color_hsv_to_rgb(_hue, 100, 100);
 211:..\..\..\lvgl\version_6.1.2\lvgl\src\lv_themes/lv_theme_material.c ****     led.body.grad_color   = lv_color_hsv_to_rgb(_hue, 100, 100);
 212:..\..\..\lvgl\version_6.1.2\lvgl\src\lv_themes/lv_theme_material.c ****     led.body.border.color = lv_color_hsv_to_rgb(_hue, 60, 60);
 213:..\..\..\lvgl\version_6.1.2\lvgl\src\lv_themes/lv_theme_material.c ****     led.body.shadow.color = lv_color_hsv_to_rgb(_hue, 100, 100);
 214:..\..\..\lvgl\version_6.1.2\lvgl\src\lv_themes/lv_theme_material.c **** 
 215:..\..\..\lvgl\version_6.1.2\lvgl\src\lv_themes/lv_theme_material.c ****     theme.style.led = &led;
 216:..\..\..\lvgl\version_6.1.2\lvgl\src\lv_themes/lv_theme_material.c **** #endif
 217:..\..\..\lvgl\version_6.1.2\lvgl\src\lv_themes/lv_theme_material.c **** }
 218:..\..\..\lvgl\version_6.1.2\lvgl\src\lv_themes/lv_theme_material.c **** 
 219:..\..\..\lvgl\version_6.1.2\lvgl\src\lv_themes/lv_theme_material.c **** static void bar_init(void)
 220:..\..\..\lvgl\version_6.1.2\lvgl\src\lv_themes/lv_theme_material.c **** {
 221:..\..\..\lvgl\version_6.1.2\lvgl\src\lv_themes/lv_theme_material.c **** #if LV_USE_BAR
 222:..\..\..\lvgl\version_6.1.2\lvgl\src\lv_themes/lv_theme_material.c ****     static lv_style_t bar_bg, bar_indic;
 223:..\..\..\lvgl\version_6.1.2\lvgl\src\lv_themes/lv_theme_material.c **** 
 224:..\..\..\lvgl\version_6.1.2\lvgl\src\lv_themes/lv_theme_material.c ****     lv_style_copy(&bar_bg, &def);
 225:..\..\..\lvgl\version_6.1.2\lvgl\src\lv_themes/lv_theme_material.c ****     bar_bg.body.main_color     = lv_color_hsv_to_rgb(_hue, 15, 95);
 226:..\..\..\lvgl\version_6.1.2\lvgl\src\lv_themes/lv_theme_material.c ****     bar_bg.body.grad_color     = bar_bg.body.main_color;
 227:..\..\..\lvgl\version_6.1.2\lvgl\src\lv_themes/lv_theme_material.c ****     bar_bg.body.radius         = 3;
 228:..\..\..\lvgl\version_6.1.2\lvgl\src\lv_themes/lv_theme_material.c ****     bar_bg.body.border.width   = 0;
 229:..\..\..\lvgl\version_6.1.2\lvgl\src\lv_themes/lv_theme_material.c ****     bar_bg.body.padding.left   = LV_DPI / 16;
 230:..\..\..\lvgl\version_6.1.2\lvgl\src\lv_themes/lv_theme_material.c ****     bar_bg.body.padding.right  = LV_DPI / 16;
 231:..\..\..\lvgl\version_6.1.2\lvgl\src\lv_themes/lv_theme_material.c ****     bar_bg.body.padding.top    = LV_DPI / 16;
 232:..\..\..\lvgl\version_6.1.2\lvgl\src\lv_themes/lv_theme_material.c ****     bar_bg.body.padding.bottom = LV_DPI / 16;
 233:..\..\..\lvgl\version_6.1.2\lvgl\src\lv_themes/lv_theme_material.c **** 
 234:..\..\..\lvgl\version_6.1.2\lvgl\src\lv_themes/lv_theme_material.c ****     lv_style_copy(&bar_indic, &bar_bg);
 235:..\..\..\lvgl\version_6.1.2\lvgl\src\lv_themes/lv_theme_material.c ****     bar_indic.body.main_color     = lv_color_hsv_to_rgb(_hue, 85, 70);
 236:..\..\..\lvgl\version_6.1.2\lvgl\src\lv_themes/lv_theme_material.c ****     bar_indic.body.grad_color     = bar_indic.body.main_color;
 237:..\..\..\lvgl\version_6.1.2\lvgl\src\lv_themes/lv_theme_material.c ****     bar_indic.body.padding.left   = 0;
 238:..\..\..\lvgl\version_6.1.2\lvgl\src\lv_themes/lv_theme_material.c ****     bar_indic.body.padding.right  = 0;
 239:..\..\..\lvgl\version_6.1.2\lvgl\src\lv_themes/lv_theme_material.c ****     bar_indic.body.padding.top    = 0;
 240:..\..\..\lvgl\version_6.1.2\lvgl\src\lv_themes/lv_theme_material.c ****     bar_indic.body.padding.bottom = 0;
 241:..\..\..\lvgl\version_6.1.2\lvgl\src\lv_themes/lv_theme_material.c **** 
 242:..\..\..\lvgl\version_6.1.2\lvgl\src\lv_themes/lv_theme_material.c ****     theme.style.bar.bg    = &bar_bg;
 243:..\..\..\lvgl\version_6.1.2\lvgl\src\lv_themes/lv_theme_material.c ****     theme.style.bar.indic = &bar_indic;
 244:..\..\..\lvgl\version_6.1.2\lvgl\src\lv_themes/lv_theme_material.c **** #endif
 245:..\..\..\lvgl\version_6.1.2\lvgl\src\lv_themes/lv_theme_material.c **** }
 246:..\..\..\lvgl\version_6.1.2\lvgl\src\lv_themes/lv_theme_material.c **** 
 247:..\..\..\lvgl\version_6.1.2\lvgl\src\lv_themes/lv_theme_material.c **** static void slider_init(void)
 248:..\..\..\lvgl\version_6.1.2\lvgl\src\lv_themes/lv_theme_material.c **** {
 249:..\..\..\lvgl\version_6.1.2\lvgl\src\lv_themes/lv_theme_material.c **** #if LV_USE_SLIDER != 0
 250:..\..\..\lvgl\version_6.1.2\lvgl\src\lv_themes/lv_theme_material.c ****     static lv_style_t knob;
 251:..\..\..\lvgl\version_6.1.2\lvgl\src\lv_themes/lv_theme_material.c **** 
 252:..\..\..\lvgl\version_6.1.2\lvgl\src\lv_themes/lv_theme_material.c ****     lv_style_copy(&knob, &def);
 253:..\..\..\lvgl\version_6.1.2\lvgl\src\lv_themes/lv_theme_material.c ****     knob.body.radius       = LV_RADIUS_CIRCLE;
 254:..\..\..\lvgl\version_6.1.2\lvgl\src\lv_themes/lv_theme_material.c ****     knob.body.border.width = 0;
 255:..\..\..\lvgl\version_6.1.2\lvgl\src\lv_themes/lv_theme_material.c ****     knob.body.main_color   = theme.style.bar.indic->body.main_color;
 256:..\..\..\lvgl\version_6.1.2\lvgl\src\lv_themes/lv_theme_material.c ****     knob.body.grad_color   = knob.body.main_color;
 257:..\..\..\lvgl\version_6.1.2\lvgl\src\lv_themes/lv_theme_material.c **** 
ARM GAS  C:\Users\pearlstl\AppData\Local\Temp\cc5dErme.s 			page 6


 258:..\..\..\lvgl\version_6.1.2\lvgl\src\lv_themes/lv_theme_material.c ****     theme.style.slider.bg    = theme.style.bar.bg;
 259:..\..\..\lvgl\version_6.1.2\lvgl\src\lv_themes/lv_theme_material.c ****     theme.style.slider.indic = theme.style.bar.indic;
 260:..\..\..\lvgl\version_6.1.2\lvgl\src\lv_themes/lv_theme_material.c ****     theme.style.slider.knob  = &knob;
 261:..\..\..\lvgl\version_6.1.2\lvgl\src\lv_themes/lv_theme_material.c **** #endif
 262:..\..\..\lvgl\version_6.1.2\lvgl\src\lv_themes/lv_theme_material.c **** }
 263:..\..\..\lvgl\version_6.1.2\lvgl\src\lv_themes/lv_theme_material.c **** 
 264:..\..\..\lvgl\version_6.1.2\lvgl\src\lv_themes/lv_theme_material.c **** static void sw_init(void)
 265:..\..\..\lvgl\version_6.1.2\lvgl\src\lv_themes/lv_theme_material.c **** {
 266:..\..\..\lvgl\version_6.1.2\lvgl\src\lv_themes/lv_theme_material.c **** #if LV_USE_SW != 0
 267:..\..\..\lvgl\version_6.1.2\lvgl\src\lv_themes/lv_theme_material.c ****     static lv_style_t sw_bg, sw_indic, sw_knob_off, sw_knob_on;
 268:..\..\..\lvgl\version_6.1.2\lvgl\src\lv_themes/lv_theme_material.c ****     lv_style_copy(&sw_bg, theme.style.slider.bg);
 269:..\..\..\lvgl\version_6.1.2\lvgl\src\lv_themes/lv_theme_material.c ****     sw_bg.body.radius = LV_RADIUS_CIRCLE;
 270:..\..\..\lvgl\version_6.1.2\lvgl\src\lv_themes/lv_theme_material.c **** 
 271:..\..\..\lvgl\version_6.1.2\lvgl\src\lv_themes/lv_theme_material.c ****     lv_style_copy(&sw_indic, theme.style.slider.bg);
 272:..\..\..\lvgl\version_6.1.2\lvgl\src\lv_themes/lv_theme_material.c ****     sw_indic.body.radius = LV_RADIUS_CIRCLE;
 273:..\..\..\lvgl\version_6.1.2\lvgl\src\lv_themes/lv_theme_material.c **** 
 274:..\..\..\lvgl\version_6.1.2\lvgl\src\lv_themes/lv_theme_material.c ****     lv_style_copy(&sw_knob_on, theme.style.slider.knob);
 275:..\..\..\lvgl\version_6.1.2\lvgl\src\lv_themes/lv_theme_material.c ****     sw_knob_on.body.shadow.width = 3;
 276:..\..\..\lvgl\version_6.1.2\lvgl\src\lv_themes/lv_theme_material.c ****     sw_knob_on.body.shadow.type  = LV_SHADOW_BOTTOM;
 277:..\..\..\lvgl\version_6.1.2\lvgl\src\lv_themes/lv_theme_material.c ****     sw_knob_on.body.shadow.color = DEF_SHADOW_COLOR;
 278:..\..\..\lvgl\version_6.1.2\lvgl\src\lv_themes/lv_theme_material.c **** 
 279:..\..\..\lvgl\version_6.1.2\lvgl\src\lv_themes/lv_theme_material.c ****     lv_style_copy(&sw_knob_off, &sw_knob_on);
 280:..\..\..\lvgl\version_6.1.2\lvgl\src\lv_themes/lv_theme_material.c ****     sw_knob_off.body.main_color   = lv_color_hex(0xfafafa);
 281:..\..\..\lvgl\version_6.1.2\lvgl\src\lv_themes/lv_theme_material.c ****     sw_knob_off.body.grad_color   = sw_knob_off.body.main_color;
 282:..\..\..\lvgl\version_6.1.2\lvgl\src\lv_themes/lv_theme_material.c ****     sw_knob_off.body.border.width = 1;
 283:..\..\..\lvgl\version_6.1.2\lvgl\src\lv_themes/lv_theme_material.c ****     sw_knob_off.body.border.color = lv_color_hex3(0x999);
 284:..\..\..\lvgl\version_6.1.2\lvgl\src\lv_themes/lv_theme_material.c ****     sw_knob_off.body.border.opa   = LV_OPA_COVER;
 285:..\..\..\lvgl\version_6.1.2\lvgl\src\lv_themes/lv_theme_material.c **** 
 286:..\..\..\lvgl\version_6.1.2\lvgl\src\lv_themes/lv_theme_material.c ****     theme.style.sw.bg       = &sw_bg;
 287:..\..\..\lvgl\version_6.1.2\lvgl\src\lv_themes/lv_theme_material.c ****     theme.style.sw.indic    = &sw_indic;
 288:..\..\..\lvgl\version_6.1.2\lvgl\src\lv_themes/lv_theme_material.c ****     theme.style.sw.knob_off = &sw_knob_off;
 289:..\..\..\lvgl\version_6.1.2\lvgl\src\lv_themes/lv_theme_material.c ****     theme.style.sw.knob_on  = &sw_knob_on;
 290:..\..\..\lvgl\version_6.1.2\lvgl\src\lv_themes/lv_theme_material.c **** #endif
 291:..\..\..\lvgl\version_6.1.2\lvgl\src\lv_themes/lv_theme_material.c **** }
 292:..\..\..\lvgl\version_6.1.2\lvgl\src\lv_themes/lv_theme_material.c **** 
 293:..\..\..\lvgl\version_6.1.2\lvgl\src\lv_themes/lv_theme_material.c **** static void lmeter_init(void)
 294:..\..\..\lvgl\version_6.1.2\lvgl\src\lv_themes/lv_theme_material.c **** {
 295:..\..\..\lvgl\version_6.1.2\lvgl\src\lv_themes/lv_theme_material.c **** #if LV_USE_LMETER != 0
 296:..\..\..\lvgl\version_6.1.2\lvgl\src\lv_themes/lv_theme_material.c ****     static lv_style_t lmeter;
 297:..\..\..\lvgl\version_6.1.2\lvgl\src\lv_themes/lv_theme_material.c ****     lv_style_copy(&lmeter, &def);
 298:..\..\..\lvgl\version_6.1.2\lvgl\src\lv_themes/lv_theme_material.c ****     lmeter.body.main_color   = lv_color_hsv_to_rgb(_hue, 75, 90);
 299:..\..\..\lvgl\version_6.1.2\lvgl\src\lv_themes/lv_theme_material.c ****     lmeter.body.grad_color   = lmeter.body.main_color;
 300:..\..\..\lvgl\version_6.1.2\lvgl\src\lv_themes/lv_theme_material.c ****     lmeter.body.padding.left = LV_DPI / 10; /*Scale line length*/
 301:..\..\..\lvgl\version_6.1.2\lvgl\src\lv_themes/lv_theme_material.c ****     lmeter.line.color        = lv_color_hex3(0x999);
 302:..\..\..\lvgl\version_6.1.2\lvgl\src\lv_themes/lv_theme_material.c ****     lmeter.line.width        = 2;
 303:..\..\..\lvgl\version_6.1.2\lvgl\src\lv_themes/lv_theme_material.c **** 
 304:..\..\..\lvgl\version_6.1.2\lvgl\src\lv_themes/lv_theme_material.c ****     theme.style.lmeter = &lmeter;
 305:..\..\..\lvgl\version_6.1.2\lvgl\src\lv_themes/lv_theme_material.c **** #endif
 306:..\..\..\lvgl\version_6.1.2\lvgl\src\lv_themes/lv_theme_material.c **** }
 307:..\..\..\lvgl\version_6.1.2\lvgl\src\lv_themes/lv_theme_material.c **** 
 308:..\..\..\lvgl\version_6.1.2\lvgl\src\lv_themes/lv_theme_material.c **** static void gauge_init(void)
 309:..\..\..\lvgl\version_6.1.2\lvgl\src\lv_themes/lv_theme_material.c **** {
 310:..\..\..\lvgl\version_6.1.2\lvgl\src\lv_themes/lv_theme_material.c **** #if LV_USE_GAUGE != 0
 311:..\..\..\lvgl\version_6.1.2\lvgl\src\lv_themes/lv_theme_material.c **** 
 312:..\..\..\lvgl\version_6.1.2\lvgl\src\lv_themes/lv_theme_material.c ****     static lv_style_t gauge;
 313:..\..\..\lvgl\version_6.1.2\lvgl\src\lv_themes/lv_theme_material.c ****     lv_style_copy(&gauge, &def);
 314:..\..\..\lvgl\version_6.1.2\lvgl\src\lv_themes/lv_theme_material.c ****     gauge.body.main_color    = lv_color_hsv_to_rgb(_hue, 10, 60);
ARM GAS  C:\Users\pearlstl\AppData\Local\Temp\cc5dErme.s 			page 7


 315:..\..\..\lvgl\version_6.1.2\lvgl\src\lv_themes/lv_theme_material.c ****     gauge.body.grad_color    = gauge.body.main_color;
 316:..\..\..\lvgl\version_6.1.2\lvgl\src\lv_themes/lv_theme_material.c ****     gauge.body.padding.left  = LV_DPI / 16; /*Scale line length*/
 317:..\..\..\lvgl\version_6.1.2\lvgl\src\lv_themes/lv_theme_material.c ****     gauge.body.padding.inner = LV_DPI / 8;
 318:..\..\..\lvgl\version_6.1.2\lvgl\src\lv_themes/lv_theme_material.c ****     gauge.body.border.color  = lv_color_hex3(0x999);
 319:..\..\..\lvgl\version_6.1.2\lvgl\src\lv_themes/lv_theme_material.c ****     gauge.text.color         = lv_color_hex3(0x333);
 320:..\..\..\lvgl\version_6.1.2\lvgl\src\lv_themes/lv_theme_material.c ****     gauge.line.width         = 3;
 321:..\..\..\lvgl\version_6.1.2\lvgl\src\lv_themes/lv_theme_material.c ****     gauge.line.color         = lv_color_hsv_to_rgb(_hue, 95, 70);
 322:..\..\..\lvgl\version_6.1.2\lvgl\src\lv_themes/lv_theme_material.c **** 
 323:..\..\..\lvgl\version_6.1.2\lvgl\src\lv_themes/lv_theme_material.c ****     theme.style.gauge = &gauge;
 324:..\..\..\lvgl\version_6.1.2\lvgl\src\lv_themes/lv_theme_material.c **** #endif
 325:..\..\..\lvgl\version_6.1.2\lvgl\src\lv_themes/lv_theme_material.c **** }
 326:..\..\..\lvgl\version_6.1.2\lvgl\src\lv_themes/lv_theme_material.c **** 
 327:..\..\..\lvgl\version_6.1.2\lvgl\src\lv_themes/lv_theme_material.c **** static void arc_init(void)
 328:..\..\..\lvgl\version_6.1.2\lvgl\src\lv_themes/lv_theme_material.c **** {
 329:..\..\..\lvgl\version_6.1.2\lvgl\src\lv_themes/lv_theme_material.c **** #if LV_USE_ARC != 0
 330:..\..\..\lvgl\version_6.1.2\lvgl\src\lv_themes/lv_theme_material.c **** 
 331:..\..\..\lvgl\version_6.1.2\lvgl\src\lv_themes/lv_theme_material.c ****     static lv_style_t arc;
 332:..\..\..\lvgl\version_6.1.2\lvgl\src\lv_themes/lv_theme_material.c ****     lv_style_copy(&arc, &def);
 333:..\..\..\lvgl\version_6.1.2\lvgl\src\lv_themes/lv_theme_material.c ****     arc.line.width = 10;
 334:..\..\..\lvgl\version_6.1.2\lvgl\src\lv_themes/lv_theme_material.c ****     arc.line.color = lv_color_hsv_to_rgb(_hue, 90, 90);
 335:..\..\..\lvgl\version_6.1.2\lvgl\src\lv_themes/lv_theme_material.c **** 
 336:..\..\..\lvgl\version_6.1.2\lvgl\src\lv_themes/lv_theme_material.c ****     /*For prelaoder*/
 337:..\..\..\lvgl\version_6.1.2\lvgl\src\lv_themes/lv_theme_material.c ****     arc.body.border.width   = 10;
 338:..\..\..\lvgl\version_6.1.2\lvgl\src\lv_themes/lv_theme_material.c ****     arc.body.border.color   = lv_color_hsv_to_rgb(_hue, 30, 90);
 339:..\..\..\lvgl\version_6.1.2\lvgl\src\lv_themes/lv_theme_material.c ****     arc.body.padding.left   = 0;
 340:..\..\..\lvgl\version_6.1.2\lvgl\src\lv_themes/lv_theme_material.c ****     arc.body.padding.right  = 0;
 341:..\..\..\lvgl\version_6.1.2\lvgl\src\lv_themes/lv_theme_material.c ****     arc.body.padding.top    = 0;
 342:..\..\..\lvgl\version_6.1.2\lvgl\src\lv_themes/lv_theme_material.c ****     arc.body.padding.bottom = 0;
 343:..\..\..\lvgl\version_6.1.2\lvgl\src\lv_themes/lv_theme_material.c **** 
 344:..\..\..\lvgl\version_6.1.2\lvgl\src\lv_themes/lv_theme_material.c ****     theme.style.arc = &arc;
 345:..\..\..\lvgl\version_6.1.2\lvgl\src\lv_themes/lv_theme_material.c **** #endif
 346:..\..\..\lvgl\version_6.1.2\lvgl\src\lv_themes/lv_theme_material.c **** }
 347:..\..\..\lvgl\version_6.1.2\lvgl\src\lv_themes/lv_theme_material.c **** 
 348:..\..\..\lvgl\version_6.1.2\lvgl\src\lv_themes/lv_theme_material.c **** static void preload_init(void)
 349:..\..\..\lvgl\version_6.1.2\lvgl\src\lv_themes/lv_theme_material.c **** {
 350:..\..\..\lvgl\version_6.1.2\lvgl\src\lv_themes/lv_theme_material.c **** #if LV_USE_PRELOAD != 0
 351:..\..\..\lvgl\version_6.1.2\lvgl\src\lv_themes/lv_theme_material.c **** 
 352:..\..\..\lvgl\version_6.1.2\lvgl\src\lv_themes/lv_theme_material.c ****     theme.style.preload = theme.style.arc;
 353:..\..\..\lvgl\version_6.1.2\lvgl\src\lv_themes/lv_theme_material.c **** #endif
 354:..\..\..\lvgl\version_6.1.2\lvgl\src\lv_themes/lv_theme_material.c **** }
 355:..\..\..\lvgl\version_6.1.2\lvgl\src\lv_themes/lv_theme_material.c **** 
 356:..\..\..\lvgl\version_6.1.2\lvgl\src\lv_themes/lv_theme_material.c **** static void chart_init(void)
 357:..\..\..\lvgl\version_6.1.2\lvgl\src\lv_themes/lv_theme_material.c **** {
 358:..\..\..\lvgl\version_6.1.2\lvgl\src\lv_themes/lv_theme_material.c **** #if LV_USE_CHART
 359:..\..\..\lvgl\version_6.1.2\lvgl\src\lv_themes/lv_theme_material.c ****     theme.style.chart = theme.style.panel;
 360:..\..\..\lvgl\version_6.1.2\lvgl\src\lv_themes/lv_theme_material.c **** #endif
 361:..\..\..\lvgl\version_6.1.2\lvgl\src\lv_themes/lv_theme_material.c **** }
 362:..\..\..\lvgl\version_6.1.2\lvgl\src\lv_themes/lv_theme_material.c **** 
 363:..\..\..\lvgl\version_6.1.2\lvgl\src\lv_themes/lv_theme_material.c **** static void calendar_init(void)
 364:..\..\..\lvgl\version_6.1.2\lvgl\src\lv_themes/lv_theme_material.c **** {
 365:..\..\..\lvgl\version_6.1.2\lvgl\src\lv_themes/lv_theme_material.c **** #if LV_USE_CALENDAR
 366:..\..\..\lvgl\version_6.1.2\lvgl\src\lv_themes/lv_theme_material.c ****     static lv_style_t ina_days;
 367:..\..\..\lvgl\version_6.1.2\lvgl\src\lv_themes/lv_theme_material.c ****     lv_style_copy(&ina_days, &def);
 368:..\..\..\lvgl\version_6.1.2\lvgl\src\lv_themes/lv_theme_material.c ****     ina_days.text.color = lv_color_hsv_to_rgb(_hue, 0, 70);
 369:..\..\..\lvgl\version_6.1.2\lvgl\src\lv_themes/lv_theme_material.c **** 
 370:..\..\..\lvgl\version_6.1.2\lvgl\src\lv_themes/lv_theme_material.c ****     static lv_style_t high_days;
 371:..\..\..\lvgl\version_6.1.2\lvgl\src\lv_themes/lv_theme_material.c ****     lv_style_copy(&high_days, &def);
ARM GAS  C:\Users\pearlstl\AppData\Local\Temp\cc5dErme.s 			page 8


 372:..\..\..\lvgl\version_6.1.2\lvgl\src\lv_themes/lv_theme_material.c ****     high_days.text.color = lv_color_hsv_to_rgb(_hue, 80, 90);
 373:..\..\..\lvgl\version_6.1.2\lvgl\src\lv_themes/lv_theme_material.c **** 
 374:..\..\..\lvgl\version_6.1.2\lvgl\src\lv_themes/lv_theme_material.c ****     static lv_style_t week_box;
 375:..\..\..\lvgl\version_6.1.2\lvgl\src\lv_themes/lv_theme_material.c ****     lv_style_copy(&week_box, &def);
 376:..\..\..\lvgl\version_6.1.2\lvgl\src\lv_themes/lv_theme_material.c ****     week_box.body.main_color     = lv_color_hsv_to_rgb(_hue, 40, 100);
 377:..\..\..\lvgl\version_6.1.2\lvgl\src\lv_themes/lv_theme_material.c ****     week_box.body.grad_color     = lv_color_hsv_to_rgb(_hue, 40, 100);
 378:..\..\..\lvgl\version_6.1.2\lvgl\src\lv_themes/lv_theme_material.c ****     week_box.body.padding.top    = LV_DPI / 20;
 379:..\..\..\lvgl\version_6.1.2\lvgl\src\lv_themes/lv_theme_material.c ****     week_box.body.padding.bottom = LV_DPI / 20;
 380:..\..\..\lvgl\version_6.1.2\lvgl\src\lv_themes/lv_theme_material.c ****     week_box.body.padding.left   = theme.style.panel->body.padding.left;
 381:..\..\..\lvgl\version_6.1.2\lvgl\src\lv_themes/lv_theme_material.c ****     week_box.body.padding.right  = theme.style.panel->body.padding.right;
 382:..\..\..\lvgl\version_6.1.2\lvgl\src\lv_themes/lv_theme_material.c ****     week_box.body.border.color   = theme.style.panel->body.border.color;
 383:..\..\..\lvgl\version_6.1.2\lvgl\src\lv_themes/lv_theme_material.c ****     week_box.body.border.width   = theme.style.panel->body.border.width;
 384:..\..\..\lvgl\version_6.1.2\lvgl\src\lv_themes/lv_theme_material.c ****     week_box.body.border.part    = LV_BORDER_LEFT | LV_BORDER_RIGHT;
 385:..\..\..\lvgl\version_6.1.2\lvgl\src\lv_themes/lv_theme_material.c ****     week_box.body.radius         = 0;
 386:..\..\..\lvgl\version_6.1.2\lvgl\src\lv_themes/lv_theme_material.c **** 
 387:..\..\..\lvgl\version_6.1.2\lvgl\src\lv_themes/lv_theme_material.c ****     static lv_style_t today_box;
 388:..\..\..\lvgl\version_6.1.2\lvgl\src\lv_themes/lv_theme_material.c ****     lv_style_copy(&today_box, &def);
 389:..\..\..\lvgl\version_6.1.2\lvgl\src\lv_themes/lv_theme_material.c ****     today_box.body.main_color     = LV_COLOR_WHITE;
 390:..\..\..\lvgl\version_6.1.2\lvgl\src\lv_themes/lv_theme_material.c ****     today_box.body.grad_color     = LV_COLOR_WHITE;
 391:..\..\..\lvgl\version_6.1.2\lvgl\src\lv_themes/lv_theme_material.c ****     today_box.body.padding.top    = LV_DPI / 20;
 392:..\..\..\lvgl\version_6.1.2\lvgl\src\lv_themes/lv_theme_material.c ****     today_box.body.padding.bottom = LV_DPI / 20;
 393:..\..\..\lvgl\version_6.1.2\lvgl\src\lv_themes/lv_theme_material.c ****     today_box.body.radius         = 0;
 394:..\..\..\lvgl\version_6.1.2\lvgl\src\lv_themes/lv_theme_material.c **** 
 395:..\..\..\lvgl\version_6.1.2\lvgl\src\lv_themes/lv_theme_material.c ****     theme.style.calendar.bg               = theme.style.panel;
 396:..\..\..\lvgl\version_6.1.2\lvgl\src\lv_themes/lv_theme_material.c ****     theme.style.calendar.header           = &lv_style_transp;
 397:..\..\..\lvgl\version_6.1.2\lvgl\src\lv_themes/lv_theme_material.c ****     theme.style.calendar.inactive_days    = &ina_days;
 398:..\..\..\lvgl\version_6.1.2\lvgl\src\lv_themes/lv_theme_material.c ****     theme.style.calendar.highlighted_days = &high_days;
 399:..\..\..\lvgl\version_6.1.2\lvgl\src\lv_themes/lv_theme_material.c ****     theme.style.calendar.week_box         = &week_box;
 400:..\..\..\lvgl\version_6.1.2\lvgl\src\lv_themes/lv_theme_material.c ****     theme.style.calendar.today_box        = &today_box;
 401:..\..\..\lvgl\version_6.1.2\lvgl\src\lv_themes/lv_theme_material.c **** #endif
 402:..\..\..\lvgl\version_6.1.2\lvgl\src\lv_themes/lv_theme_material.c **** }
 403:..\..\..\lvgl\version_6.1.2\lvgl\src\lv_themes/lv_theme_material.c **** 
 404:..\..\..\lvgl\version_6.1.2\lvgl\src\lv_themes/lv_theme_material.c **** static void cb_init(void)
 405:..\..\..\lvgl\version_6.1.2\lvgl\src\lv_themes/lv_theme_material.c **** {
 406:..\..\..\lvgl\version_6.1.2\lvgl\src\lv_themes/lv_theme_material.c **** #if LV_USE_CB != 0
 407:..\..\..\lvgl\version_6.1.2\lvgl\src\lv_themes/lv_theme_material.c ****     static lv_style_t rel, pr, tgl_rel, tgl_pr, ina;
 408:..\..\..\lvgl\version_6.1.2\lvgl\src\lv_themes/lv_theme_material.c ****     lv_style_copy(&rel, theme.style.panel);
 409:..\..\..\lvgl\version_6.1.2\lvgl\src\lv_themes/lv_theme_material.c ****     rel.body.shadow.type  = LV_SHADOW_BOTTOM;
 410:..\..\..\lvgl\version_6.1.2\lvgl\src\lv_themes/lv_theme_material.c ****     rel.body.shadow.width = 3;
 411:..\..\..\lvgl\version_6.1.2\lvgl\src\lv_themes/lv_theme_material.c **** 
 412:..\..\..\lvgl\version_6.1.2\lvgl\src\lv_themes/lv_theme_material.c ****     lv_style_copy(&pr, &rel);
 413:..\..\..\lvgl\version_6.1.2\lvgl\src\lv_themes/lv_theme_material.c ****     pr.body.main_color   = lv_color_hex3(0xccc);
 414:..\..\..\lvgl\version_6.1.2\lvgl\src\lv_themes/lv_theme_material.c ****     pr.body.grad_color   = pr.body.main_color;
 415:..\..\..\lvgl\version_6.1.2\lvgl\src\lv_themes/lv_theme_material.c ****     pr.body.shadow.width = 0;
 416:..\..\..\lvgl\version_6.1.2\lvgl\src\lv_themes/lv_theme_material.c **** 
 417:..\..\..\lvgl\version_6.1.2\lvgl\src\lv_themes/lv_theme_material.c ****     lv_style_copy(&tgl_rel, &rel);
 418:..\..\..\lvgl\version_6.1.2\lvgl\src\lv_themes/lv_theme_material.c ****     tgl_rel.body.main_color   = lv_color_hsv_to_rgb(_hue, 75, 85);
 419:..\..\..\lvgl\version_6.1.2\lvgl\src\lv_themes/lv_theme_material.c ****     tgl_rel.body.grad_color   = tgl_rel.body.main_color;
 420:..\..\..\lvgl\version_6.1.2\lvgl\src\lv_themes/lv_theme_material.c ****     tgl_rel.body.shadow.type  = LV_SHADOW_FULL;
 421:..\..\..\lvgl\version_6.1.2\lvgl\src\lv_themes/lv_theme_material.c ****     tgl_rel.body.shadow.width = 0;
 422:..\..\..\lvgl\version_6.1.2\lvgl\src\lv_themes/lv_theme_material.c **** 
 423:..\..\..\lvgl\version_6.1.2\lvgl\src\lv_themes/lv_theme_material.c ****     lv_style_copy(&tgl_pr, &tgl_rel);
 424:..\..\..\lvgl\version_6.1.2\lvgl\src\lv_themes/lv_theme_material.c ****     tgl_pr.body.main_color   = lv_color_hsv_to_rgb(_hue, 75, 65);
 425:..\..\..\lvgl\version_6.1.2\lvgl\src\lv_themes/lv_theme_material.c ****     tgl_pr.body.grad_color   = tgl_pr.body.main_color;
 426:..\..\..\lvgl\version_6.1.2\lvgl\src\lv_themes/lv_theme_material.c ****     tgl_pr.body.shadow.width = 0;
 427:..\..\..\lvgl\version_6.1.2\lvgl\src\lv_themes/lv_theme_material.c **** 
 428:..\..\..\lvgl\version_6.1.2\lvgl\src\lv_themes/lv_theme_material.c ****     lv_style_copy(&ina, theme.style.btn.ina);
ARM GAS  C:\Users\pearlstl\AppData\Local\Temp\cc5dErme.s 			page 9


 429:..\..\..\lvgl\version_6.1.2\lvgl\src\lv_themes/lv_theme_material.c **** 
 430:..\..\..\lvgl\version_6.1.2\lvgl\src\lv_themes/lv_theme_material.c ****     theme.style.cb.bg          = &lv_style_transp;
 431:..\..\..\lvgl\version_6.1.2\lvgl\src\lv_themes/lv_theme_material.c ****     theme.style.cb.box.rel     = &rel;
 432:..\..\..\lvgl\version_6.1.2\lvgl\src\lv_themes/lv_theme_material.c ****     theme.style.cb.box.pr      = &pr;
 433:..\..\..\lvgl\version_6.1.2\lvgl\src\lv_themes/lv_theme_material.c ****     theme.style.cb.box.tgl_rel = &tgl_rel;
 434:..\..\..\lvgl\version_6.1.2\lvgl\src\lv_themes/lv_theme_material.c ****     theme.style.cb.box.tgl_pr  = &tgl_pr;
 435:..\..\..\lvgl\version_6.1.2\lvgl\src\lv_themes/lv_theme_material.c ****     theme.style.cb.box.ina     = &ina;
 436:..\..\..\lvgl\version_6.1.2\lvgl\src\lv_themes/lv_theme_material.c **** #endif
 437:..\..\..\lvgl\version_6.1.2\lvgl\src\lv_themes/lv_theme_material.c **** }
 438:..\..\..\lvgl\version_6.1.2\lvgl\src\lv_themes/lv_theme_material.c **** 
 439:..\..\..\lvgl\version_6.1.2\lvgl\src\lv_themes/lv_theme_material.c **** static void btnm_init(void)
 440:..\..\..\lvgl\version_6.1.2\lvgl\src\lv_themes/lv_theme_material.c **** {
 441:..\..\..\lvgl\version_6.1.2\lvgl\src\lv_themes/lv_theme_material.c **** #if LV_USE_BTNM
 442:..\..\..\lvgl\version_6.1.2\lvgl\src\lv_themes/lv_theme_material.c ****     static lv_style_t bg, rel, pr, tgl_rel, tgl_pr, ina;
 443:..\..\..\lvgl\version_6.1.2\lvgl\src\lv_themes/lv_theme_material.c **** 
 444:..\..\..\lvgl\version_6.1.2\lvgl\src\lv_themes/lv_theme_material.c ****     lv_style_copy(&bg, theme.style.panel);
 445:..\..\..\lvgl\version_6.1.2\lvgl\src\lv_themes/lv_theme_material.c ****     bg.body.padding.left   = 0;
 446:..\..\..\lvgl\version_6.1.2\lvgl\src\lv_themes/lv_theme_material.c ****     bg.body.padding.right  = 0;
 447:..\..\..\lvgl\version_6.1.2\lvgl\src\lv_themes/lv_theme_material.c ****     bg.body.padding.top    = 0;
 448:..\..\..\lvgl\version_6.1.2\lvgl\src\lv_themes/lv_theme_material.c ****     bg.body.padding.bottom = 0;
 449:..\..\..\lvgl\version_6.1.2\lvgl\src\lv_themes/lv_theme_material.c ****     bg.body.padding.inner  = 0;
 450:..\..\..\lvgl\version_6.1.2\lvgl\src\lv_themes/lv_theme_material.c ****     bg.text.color          = lv_color_hex3(0x555);
 451:..\..\..\lvgl\version_6.1.2\lvgl\src\lv_themes/lv_theme_material.c **** 
 452:..\..\..\lvgl\version_6.1.2\lvgl\src\lv_themes/lv_theme_material.c ****     lv_style_copy(&rel, theme.style.panel);
 453:..\..\..\lvgl\version_6.1.2\lvgl\src\lv_themes/lv_theme_material.c ****     rel.body.border.part  = LV_BORDER_FULL | LV_BORDER_INTERNAL;
 454:..\..\..\lvgl\version_6.1.2\lvgl\src\lv_themes/lv_theme_material.c ****     rel.body.border.width = 1;
 455:..\..\..\lvgl\version_6.1.2\lvgl\src\lv_themes/lv_theme_material.c ****     rel.body.border.color = lv_color_hex3(0xbbb);
 456:..\..\..\lvgl\version_6.1.2\lvgl\src\lv_themes/lv_theme_material.c ****     rel.body.opa          = LV_OPA_TRANSP;
 457:..\..\..\lvgl\version_6.1.2\lvgl\src\lv_themes/lv_theme_material.c ****     rel.body.shadow.width = 0;
 458:..\..\..\lvgl\version_6.1.2\lvgl\src\lv_themes/lv_theme_material.c **** 
 459:..\..\..\lvgl\version_6.1.2\lvgl\src\lv_themes/lv_theme_material.c ****     lv_style_copy(&pr, &rel);
 460:..\..\..\lvgl\version_6.1.2\lvgl\src\lv_themes/lv_theme_material.c ****     pr.glass             = 0;
 461:..\..\..\lvgl\version_6.1.2\lvgl\src\lv_themes/lv_theme_material.c ****     pr.body.main_color   = lv_color_hex3(0xddd);
 462:..\..\..\lvgl\version_6.1.2\lvgl\src\lv_themes/lv_theme_material.c ****     pr.body.grad_color   = pr.body.main_color;
 463:..\..\..\lvgl\version_6.1.2\lvgl\src\lv_themes/lv_theme_material.c ****     pr.body.border.width = 0;
 464:..\..\..\lvgl\version_6.1.2\lvgl\src\lv_themes/lv_theme_material.c ****     pr.body.opa          = LV_OPA_COVER;
 465:..\..\..\lvgl\version_6.1.2\lvgl\src\lv_themes/lv_theme_material.c **** 
 466:..\..\..\lvgl\version_6.1.2\lvgl\src\lv_themes/lv_theme_material.c ****     lv_style_copy(&tgl_rel, &pr);
 467:..\..\..\lvgl\version_6.1.2\lvgl\src\lv_themes/lv_theme_material.c ****     tgl_rel.body.main_color = lv_color_hsv_to_rgb(_hue, 90, 70);
 468:..\..\..\lvgl\version_6.1.2\lvgl\src\lv_themes/lv_theme_material.c ****     tgl_rel.body.grad_color = tgl_rel.body.main_color;
 469:..\..\..\lvgl\version_6.1.2\lvgl\src\lv_themes/lv_theme_material.c ****     tgl_rel.text.color      = lv_color_hsv_to_rgb(_hue, 5, 95);
 470:..\..\..\lvgl\version_6.1.2\lvgl\src\lv_themes/lv_theme_material.c **** 
 471:..\..\..\lvgl\version_6.1.2\lvgl\src\lv_themes/lv_theme_material.c ****     lv_style_copy(&tgl_pr, &tgl_rel);
 472:..\..\..\lvgl\version_6.1.2\lvgl\src\lv_themes/lv_theme_material.c ****     tgl_pr.body.main_color   = lv_color_hsv_to_rgb(_hue, 95, 65);
 473:..\..\..\lvgl\version_6.1.2\lvgl\src\lv_themes/lv_theme_material.c ****     tgl_pr.body.grad_color   = tgl_pr.body.main_color;
 474:..\..\..\lvgl\version_6.1.2\lvgl\src\lv_themes/lv_theme_material.c ****     tgl_pr.body.border.width = 0;
 475:..\..\..\lvgl\version_6.1.2\lvgl\src\lv_themes/lv_theme_material.c **** 
 476:..\..\..\lvgl\version_6.1.2\lvgl\src\lv_themes/lv_theme_material.c ****     lv_style_copy(&ina, &pr);
 477:..\..\..\lvgl\version_6.1.2\lvgl\src\lv_themes/lv_theme_material.c ****     ina.body.main_color = lv_color_hex3(0xccc);
 478:..\..\..\lvgl\version_6.1.2\lvgl\src\lv_themes/lv_theme_material.c ****     ina.body.grad_color = ina.body.main_color;
 479:..\..\..\lvgl\version_6.1.2\lvgl\src\lv_themes/lv_theme_material.c **** 
 480:..\..\..\lvgl\version_6.1.2\lvgl\src\lv_themes/lv_theme_material.c ****     theme.style.btnm.bg          = &bg;
 481:..\..\..\lvgl\version_6.1.2\lvgl\src\lv_themes/lv_theme_material.c ****     theme.style.btnm.btn.rel     = &rel;
 482:..\..\..\lvgl\version_6.1.2\lvgl\src\lv_themes/lv_theme_material.c ****     theme.style.btnm.btn.pr      = &pr;
 483:..\..\..\lvgl\version_6.1.2\lvgl\src\lv_themes/lv_theme_material.c ****     theme.style.btnm.btn.tgl_rel = &tgl_rel;
 484:..\..\..\lvgl\version_6.1.2\lvgl\src\lv_themes/lv_theme_material.c ****     theme.style.btnm.btn.tgl_pr  = &tgl_pr;
 485:..\..\..\lvgl\version_6.1.2\lvgl\src\lv_themes/lv_theme_material.c ****     theme.style.btnm.btn.ina     = &def;
ARM GAS  C:\Users\pearlstl\AppData\Local\Temp\cc5dErme.s 			page 10


 486:..\..\..\lvgl\version_6.1.2\lvgl\src\lv_themes/lv_theme_material.c **** #endif
 487:..\..\..\lvgl\version_6.1.2\lvgl\src\lv_themes/lv_theme_material.c **** }
 488:..\..\..\lvgl\version_6.1.2\lvgl\src\lv_themes/lv_theme_material.c **** 
 489:..\..\..\lvgl\version_6.1.2\lvgl\src\lv_themes/lv_theme_material.c **** static void kb_init(void)
 490:..\..\..\lvgl\version_6.1.2\lvgl\src\lv_themes/lv_theme_material.c **** {
 491:..\..\..\lvgl\version_6.1.2\lvgl\src\lv_themes/lv_theme_material.c **** #if LV_USE_KB
 492:..\..\..\lvgl\version_6.1.2\lvgl\src\lv_themes/lv_theme_material.c **** 
 493:..\..\..\lvgl\version_6.1.2\lvgl\src\lv_themes/lv_theme_material.c ****     static lv_style_t rel;
 494:..\..\..\lvgl\version_6.1.2\lvgl\src\lv_themes/lv_theme_material.c ****     lv_style_copy(&rel, &lv_style_transp);
 495:..\..\..\lvgl\version_6.1.2\lvgl\src\lv_themes/lv_theme_material.c ****     rel.text.font = _font;
 496:..\..\..\lvgl\version_6.1.2\lvgl\src\lv_themes/lv_theme_material.c **** 
 497:..\..\..\lvgl\version_6.1.2\lvgl\src\lv_themes/lv_theme_material.c ****     theme.style.kb.bg          = theme.style.btnm.bg;
 498:..\..\..\lvgl\version_6.1.2\lvgl\src\lv_themes/lv_theme_material.c ****     theme.style.kb.btn.rel     = &rel;
 499:..\..\..\lvgl\version_6.1.2\lvgl\src\lv_themes/lv_theme_material.c ****     theme.style.kb.btn.pr      = theme.style.btnm.btn.pr;
 500:..\..\..\lvgl\version_6.1.2\lvgl\src\lv_themes/lv_theme_material.c ****     theme.style.kb.btn.tgl_rel = theme.style.btnm.btn.tgl_rel;
 501:..\..\..\lvgl\version_6.1.2\lvgl\src\lv_themes/lv_theme_material.c ****     theme.style.kb.btn.tgl_pr  = theme.style.btnm.btn.tgl_pr;
 502:..\..\..\lvgl\version_6.1.2\lvgl\src\lv_themes/lv_theme_material.c ****     theme.style.kb.btn.ina     = theme.style.btnm.btn.ina;
 503:..\..\..\lvgl\version_6.1.2\lvgl\src\lv_themes/lv_theme_material.c **** #endif
 504:..\..\..\lvgl\version_6.1.2\lvgl\src\lv_themes/lv_theme_material.c **** }
 505:..\..\..\lvgl\version_6.1.2\lvgl\src\lv_themes/lv_theme_material.c **** 
 506:..\..\..\lvgl\version_6.1.2\lvgl\src\lv_themes/lv_theme_material.c **** static void mbox_init(void)
 507:..\..\..\lvgl\version_6.1.2\lvgl\src\lv_themes/lv_theme_material.c **** {
 508:..\..\..\lvgl\version_6.1.2\lvgl\src\lv_themes/lv_theme_material.c **** #if LV_USE_MBOX
 509:..\..\..\lvgl\version_6.1.2\lvgl\src\lv_themes/lv_theme_material.c ****     static lv_style_t pr, rel;
 510:..\..\..\lvgl\version_6.1.2\lvgl\src\lv_themes/lv_theme_material.c **** 
 511:..\..\..\lvgl\version_6.1.2\lvgl\src\lv_themes/lv_theme_material.c ****     lv_style_copy(&rel, &lv_style_transp);
 512:..\..\..\lvgl\version_6.1.2\lvgl\src\lv_themes/lv_theme_material.c ****     rel.glass      = 0;
 513:..\..\..\lvgl\version_6.1.2\lvgl\src\lv_themes/lv_theme_material.c ****     rel.text.font  = _font;
 514:..\..\..\lvgl\version_6.1.2\lvgl\src\lv_themes/lv_theme_material.c ****     rel.text.color = lv_color_hsv_to_rgb(_hue, 85, 75);
 515:..\..\..\lvgl\version_6.1.2\lvgl\src\lv_themes/lv_theme_material.c **** 
 516:..\..\..\lvgl\version_6.1.2\lvgl\src\lv_themes/lv_theme_material.c ****     lv_style_copy(&pr, theme.style.btnm.btn.pr);
 517:..\..\..\lvgl\version_6.1.2\lvgl\src\lv_themes/lv_theme_material.c ****     pr.text.color = lv_color_hsv_to_rgb(_hue, 85, 60);
 518:..\..\..\lvgl\version_6.1.2\lvgl\src\lv_themes/lv_theme_material.c **** 
 519:..\..\..\lvgl\version_6.1.2\lvgl\src\lv_themes/lv_theme_material.c ****     theme.style.mbox.bg      = theme.style.panel;
 520:..\..\..\lvgl\version_6.1.2\lvgl\src\lv_themes/lv_theme_material.c ****     theme.style.mbox.btn.bg  = &lv_style_transp;
 521:..\..\..\lvgl\version_6.1.2\lvgl\src\lv_themes/lv_theme_material.c ****     theme.style.mbox.btn.rel = &rel;
 522:..\..\..\lvgl\version_6.1.2\lvgl\src\lv_themes/lv_theme_material.c ****     theme.style.mbox.btn.pr  = &pr;
 523:..\..\..\lvgl\version_6.1.2\lvgl\src\lv_themes/lv_theme_material.c **** #endif
 524:..\..\..\lvgl\version_6.1.2\lvgl\src\lv_themes/lv_theme_material.c **** }
 525:..\..\..\lvgl\version_6.1.2\lvgl\src\lv_themes/lv_theme_material.c **** 
 526:..\..\..\lvgl\version_6.1.2\lvgl\src\lv_themes/lv_theme_material.c **** static void page_init(void)
 527:..\..\..\lvgl\version_6.1.2\lvgl\src\lv_themes/lv_theme_material.c **** {
 528:..\..\..\lvgl\version_6.1.2\lvgl\src\lv_themes/lv_theme_material.c **** #if LV_USE_PAGE
 529:..\..\..\lvgl\version_6.1.2\lvgl\src\lv_themes/lv_theme_material.c **** 
 530:..\..\..\lvgl\version_6.1.2\lvgl\src\lv_themes/lv_theme_material.c ****     theme.style.page.bg   = theme.style.panel;
 531:..\..\..\lvgl\version_6.1.2\lvgl\src\lv_themes/lv_theme_material.c ****     theme.style.page.scrl = &lv_style_transp;
 532:..\..\..\lvgl\version_6.1.2\lvgl\src\lv_themes/lv_theme_material.c ****     theme.style.page.sb   = &sb;
 533:..\..\..\lvgl\version_6.1.2\lvgl\src\lv_themes/lv_theme_material.c **** #endif
 534:..\..\..\lvgl\version_6.1.2\lvgl\src\lv_themes/lv_theme_material.c **** }
 535:..\..\..\lvgl\version_6.1.2\lvgl\src\lv_themes/lv_theme_material.c **** 
 536:..\..\..\lvgl\version_6.1.2\lvgl\src\lv_themes/lv_theme_material.c **** static void ta_init(void)
 537:..\..\..\lvgl\version_6.1.2\lvgl\src\lv_themes/lv_theme_material.c **** {
 538:..\..\..\lvgl\version_6.1.2\lvgl\src\lv_themes/lv_theme_material.c **** #if LV_USE_TA
 539:..\..\..\lvgl\version_6.1.2\lvgl\src\lv_themes/lv_theme_material.c ****     static lv_style_t oneline;
 540:..\..\..\lvgl\version_6.1.2\lvgl\src\lv_themes/lv_theme_material.c **** 
 541:..\..\..\lvgl\version_6.1.2\lvgl\src\lv_themes/lv_theme_material.c ****     lv_style_copy(&oneline, &def);
 542:..\..\..\lvgl\version_6.1.2\lvgl\src\lv_themes/lv_theme_material.c ****     oneline.body.opa          = LV_OPA_TRANSP;
ARM GAS  C:\Users\pearlstl\AppData\Local\Temp\cc5dErme.s 			page 11


 543:..\..\..\lvgl\version_6.1.2\lvgl\src\lv_themes/lv_theme_material.c ****     oneline.body.radius       = 0;
 544:..\..\..\lvgl\version_6.1.2\lvgl\src\lv_themes/lv_theme_material.c ****     oneline.body.border.part  = LV_BORDER_BOTTOM;
 545:..\..\..\lvgl\version_6.1.2\lvgl\src\lv_themes/lv_theme_material.c ****     oneline.body.border.width = 3;
 546:..\..\..\lvgl\version_6.1.2\lvgl\src\lv_themes/lv_theme_material.c ****     oneline.body.border.color = lv_color_hex3(0x333);
 547:..\..\..\lvgl\version_6.1.2\lvgl\src\lv_themes/lv_theme_material.c ****     oneline.body.border.opa   = LV_OPA_COVER;
 548:..\..\..\lvgl\version_6.1.2\lvgl\src\lv_themes/lv_theme_material.c ****     oneline.text.color        = lv_color_hex3(0x333);
 549:..\..\..\lvgl\version_6.1.2\lvgl\src\lv_themes/lv_theme_material.c **** 
 550:..\..\..\lvgl\version_6.1.2\lvgl\src\lv_themes/lv_theme_material.c ****     theme.style.ta.area    = theme.style.panel;
 551:..\..\..\lvgl\version_6.1.2\lvgl\src\lv_themes/lv_theme_material.c ****     theme.style.ta.oneline = &oneline;
 552:..\..\..\lvgl\version_6.1.2\lvgl\src\lv_themes/lv_theme_material.c ****     theme.style.ta.cursor  = NULL; /*Let library to calculate the cursor's style*/
 553:..\..\..\lvgl\version_6.1.2\lvgl\src\lv_themes/lv_theme_material.c ****     theme.style.ta.sb      = &sb;
 554:..\..\..\lvgl\version_6.1.2\lvgl\src\lv_themes/lv_theme_material.c **** #endif
 555:..\..\..\lvgl\version_6.1.2\lvgl\src\lv_themes/lv_theme_material.c **** }
 556:..\..\..\lvgl\version_6.1.2\lvgl\src\lv_themes/lv_theme_material.c **** 
 557:..\..\..\lvgl\version_6.1.2\lvgl\src\lv_themes/lv_theme_material.c **** static void spinbox_init(void)
 558:..\..\..\lvgl\version_6.1.2\lvgl\src\lv_themes/lv_theme_material.c **** {
 559:..\..\..\lvgl\version_6.1.2\lvgl\src\lv_themes/lv_theme_material.c **** #if LV_USE_SPINBOX
 560:..\..\..\lvgl\version_6.1.2\lvgl\src\lv_themes/lv_theme_material.c ****     theme.style.spinbox.bg     = theme.style.panel;
 561:..\..\..\lvgl\version_6.1.2\lvgl\src\lv_themes/lv_theme_material.c ****     theme.style.spinbox.cursor = theme.style.ta.cursor;
 562:..\..\..\lvgl\version_6.1.2\lvgl\src\lv_themes/lv_theme_material.c ****     theme.style.spinbox.sb     = theme.style.ta.sb;
 563:..\..\..\lvgl\version_6.1.2\lvgl\src\lv_themes/lv_theme_material.c **** #endif
 564:..\..\..\lvgl\version_6.1.2\lvgl\src\lv_themes/lv_theme_material.c **** }
 565:..\..\..\lvgl\version_6.1.2\lvgl\src\lv_themes/lv_theme_material.c **** 
 566:..\..\..\lvgl\version_6.1.2\lvgl\src\lv_themes/lv_theme_material.c **** static void list_init(void)
 567:..\..\..\lvgl\version_6.1.2\lvgl\src\lv_themes/lv_theme_material.c **** {
 568:..\..\..\lvgl\version_6.1.2\lvgl\src\lv_themes/lv_theme_material.c **** #if LV_USE_LIST != 0
 569:..\..\..\lvgl\version_6.1.2\lvgl\src\lv_themes/lv_theme_material.c **** 
 570:..\..\..\lvgl\version_6.1.2\lvgl\src\lv_themes/lv_theme_material.c ****     static lv_style_t list_bg, rel, pr, tgl_rel, tgl_pr, ina;
 571:..\..\..\lvgl\version_6.1.2\lvgl\src\lv_themes/lv_theme_material.c **** 
 572:..\..\..\lvgl\version_6.1.2\lvgl\src\lv_themes/lv_theme_material.c ****     lv_style_copy(&list_bg, theme.style.panel);
 573:..\..\..\lvgl\version_6.1.2\lvgl\src\lv_themes/lv_theme_material.c ****     list_bg.body.padding.left   = 0;
 574:..\..\..\lvgl\version_6.1.2\lvgl\src\lv_themes/lv_theme_material.c ****     list_bg.body.padding.right  = 0;
 575:..\..\..\lvgl\version_6.1.2\lvgl\src\lv_themes/lv_theme_material.c ****     list_bg.body.padding.top    = 0;
 576:..\..\..\lvgl\version_6.1.2\lvgl\src\lv_themes/lv_theme_material.c ****     list_bg.body.padding.bottom = 0;
 577:..\..\..\lvgl\version_6.1.2\lvgl\src\lv_themes/lv_theme_material.c ****     list_bg.body.padding.inner  = 0;
 578:..\..\..\lvgl\version_6.1.2\lvgl\src\lv_themes/lv_theme_material.c **** 
 579:..\..\..\lvgl\version_6.1.2\lvgl\src\lv_themes/lv_theme_material.c ****     lv_style_copy(&rel, &lv_style_transp);
 580:..\..\..\lvgl\version_6.1.2\lvgl\src\lv_themes/lv_theme_material.c ****     rel.body.padding.left   = LV_DPI / 8;
 581:..\..\..\lvgl\version_6.1.2\lvgl\src\lv_themes/lv_theme_material.c ****     rel.body.padding.right  = LV_DPI / 8;
 582:..\..\..\lvgl\version_6.1.2\lvgl\src\lv_themes/lv_theme_material.c ****     rel.body.padding.top    = LV_DPI / 6;
 583:..\..\..\lvgl\version_6.1.2\lvgl\src\lv_themes/lv_theme_material.c ****     rel.body.padding.bottom = LV_DPI / 6;
 584:..\..\..\lvgl\version_6.1.2\lvgl\src\lv_themes/lv_theme_material.c ****     rel.body.radius         = 10;
 585:..\..\..\lvgl\version_6.1.2\lvgl\src\lv_themes/lv_theme_material.c ****     rel.body.border.color   = lv_color_hex3(0xbbb);
 586:..\..\..\lvgl\version_6.1.2\lvgl\src\lv_themes/lv_theme_material.c ****     rel.body.border.width   = 1;
 587:..\..\..\lvgl\version_6.1.2\lvgl\src\lv_themes/lv_theme_material.c ****     rel.body.border.part    = LV_BORDER_BOTTOM;
 588:..\..\..\lvgl\version_6.1.2\lvgl\src\lv_themes/lv_theme_material.c **** 
 589:..\..\..\lvgl\version_6.1.2\lvgl\src\lv_themes/lv_theme_material.c ****     lv_style_copy(&pr, &rel);
 590:..\..\..\lvgl\version_6.1.2\lvgl\src\lv_themes/lv_theme_material.c ****     pr.glass             = 0;
 591:..\..\..\lvgl\version_6.1.2\lvgl\src\lv_themes/lv_theme_material.c ****     pr.body.main_color   = lv_color_hex3(0xddd);
 592:..\..\..\lvgl\version_6.1.2\lvgl\src\lv_themes/lv_theme_material.c ****     pr.body.grad_color   = pr.body.main_color;
 593:..\..\..\lvgl\version_6.1.2\lvgl\src\lv_themes/lv_theme_material.c ****     pr.body.border.width = 0;
 594:..\..\..\lvgl\version_6.1.2\lvgl\src\lv_themes/lv_theme_material.c ****     pr.body.opa          = LV_OPA_COVER;
 595:..\..\..\lvgl\version_6.1.2\lvgl\src\lv_themes/lv_theme_material.c ****     pr.body.radius       = DEF_RADIUS;
 596:..\..\..\lvgl\version_6.1.2\lvgl\src\lv_themes/lv_theme_material.c ****     pr.text.font         = _font;
 597:..\..\..\lvgl\version_6.1.2\lvgl\src\lv_themes/lv_theme_material.c **** 
 598:..\..\..\lvgl\version_6.1.2\lvgl\src\lv_themes/lv_theme_material.c ****     lv_style_copy(&tgl_rel, &pr);
 599:..\..\..\lvgl\version_6.1.2\lvgl\src\lv_themes/lv_theme_material.c ****     tgl_rel.body.main_color = lv_color_hsv_to_rgb(_hue, 90, 70);
ARM GAS  C:\Users\pearlstl\AppData\Local\Temp\cc5dErme.s 			page 12


 600:..\..\..\lvgl\version_6.1.2\lvgl\src\lv_themes/lv_theme_material.c ****     tgl_rel.body.grad_color = tgl_rel.body.main_color;
 601:..\..\..\lvgl\version_6.1.2\lvgl\src\lv_themes/lv_theme_material.c ****     tgl_rel.text.color      = lv_color_hsv_to_rgb(_hue, 5, 95);
 602:..\..\..\lvgl\version_6.1.2\lvgl\src\lv_themes/lv_theme_material.c **** 
 603:..\..\..\lvgl\version_6.1.2\lvgl\src\lv_themes/lv_theme_material.c ****     lv_style_copy(&tgl_pr, &tgl_rel);
 604:..\..\..\lvgl\version_6.1.2\lvgl\src\lv_themes/lv_theme_material.c ****     tgl_pr.body.main_color   = lv_color_hsv_to_rgb(_hue, 90, 60);
 605:..\..\..\lvgl\version_6.1.2\lvgl\src\lv_themes/lv_theme_material.c ****     tgl_pr.body.grad_color   = tgl_pr.body.main_color;
 606:..\..\..\lvgl\version_6.1.2\lvgl\src\lv_themes/lv_theme_material.c ****     tgl_pr.body.border.width = 0;
 607:..\..\..\lvgl\version_6.1.2\lvgl\src\lv_themes/lv_theme_material.c **** 
 608:..\..\..\lvgl\version_6.1.2\lvgl\src\lv_themes/lv_theme_material.c ****     lv_style_copy(&ina, &pr);
 609:..\..\..\lvgl\version_6.1.2\lvgl\src\lv_themes/lv_theme_material.c ****     ina.body.main_color = lv_color_hex3(0xccc);
 610:..\..\..\lvgl\version_6.1.2\lvgl\src\lv_themes/lv_theme_material.c ****     ina.body.grad_color = ina.body.main_color;
 611:..\..\..\lvgl\version_6.1.2\lvgl\src\lv_themes/lv_theme_material.c **** 
 612:..\..\..\lvgl\version_6.1.2\lvgl\src\lv_themes/lv_theme_material.c ****     theme.style.list.sb          = &sb;
 613:..\..\..\lvgl\version_6.1.2\lvgl\src\lv_themes/lv_theme_material.c ****     theme.style.list.bg          = &list_bg;
 614:..\..\..\lvgl\version_6.1.2\lvgl\src\lv_themes/lv_theme_material.c ****     theme.style.list.scrl        = &lv_style_transp_tight;
 615:..\..\..\lvgl\version_6.1.2\lvgl\src\lv_themes/lv_theme_material.c ****     theme.style.list.btn.rel     = &rel;
 616:..\..\..\lvgl\version_6.1.2\lvgl\src\lv_themes/lv_theme_material.c ****     theme.style.list.btn.pr      = &pr;
 617:..\..\..\lvgl\version_6.1.2\lvgl\src\lv_themes/lv_theme_material.c ****     theme.style.list.btn.tgl_rel = &tgl_rel;
 618:..\..\..\lvgl\version_6.1.2\lvgl\src\lv_themes/lv_theme_material.c ****     theme.style.list.btn.tgl_pr  = &tgl_pr;
 619:..\..\..\lvgl\version_6.1.2\lvgl\src\lv_themes/lv_theme_material.c ****     theme.style.list.btn.ina     = &ina;
 620:..\..\..\lvgl\version_6.1.2\lvgl\src\lv_themes/lv_theme_material.c **** #endif
 621:..\..\..\lvgl\version_6.1.2\lvgl\src\lv_themes/lv_theme_material.c **** }
 622:..\..\..\lvgl\version_6.1.2\lvgl\src\lv_themes/lv_theme_material.c **** 
 623:..\..\..\lvgl\version_6.1.2\lvgl\src\lv_themes/lv_theme_material.c **** static void ddlist_init(void)
 624:..\..\..\lvgl\version_6.1.2\lvgl\src\lv_themes/lv_theme_material.c **** {
 625:..\..\..\lvgl\version_6.1.2\lvgl\src\lv_themes/lv_theme_material.c **** #if LV_USE_DDLIST != 0
 626:..\..\..\lvgl\version_6.1.2\lvgl\src\lv_themes/lv_theme_material.c ****     static lv_style_t bg, sel;
 627:..\..\..\lvgl\version_6.1.2\lvgl\src\lv_themes/lv_theme_material.c ****     lv_style_copy(&bg, theme.style.panel);
 628:..\..\..\lvgl\version_6.1.2\lvgl\src\lv_themes/lv_theme_material.c ****     bg.body.padding.left   = LV_DPI / 6;
 629:..\..\..\lvgl\version_6.1.2\lvgl\src\lv_themes/lv_theme_material.c ****     bg.body.padding.right  = LV_DPI / 6;
 630:..\..\..\lvgl\version_6.1.2\lvgl\src\lv_themes/lv_theme_material.c ****     bg.body.padding.top    = LV_DPI / 6;
 631:..\..\..\lvgl\version_6.1.2\lvgl\src\lv_themes/lv_theme_material.c ****     bg.body.padding.bottom = LV_DPI / 6;
 632:..\..\..\lvgl\version_6.1.2\lvgl\src\lv_themes/lv_theme_material.c ****     bg.text.line_space     = LV_DPI / 8;
 633:..\..\..\lvgl\version_6.1.2\lvgl\src\lv_themes/lv_theme_material.c **** 
 634:..\..\..\lvgl\version_6.1.2\lvgl\src\lv_themes/lv_theme_material.c ****     lv_style_copy(&sel, &bg);
 635:..\..\..\lvgl\version_6.1.2\lvgl\src\lv_themes/lv_theme_material.c ****     sel.body.main_color   = lv_color_hsv_to_rgb(_hue, 90, 70);
 636:..\..\..\lvgl\version_6.1.2\lvgl\src\lv_themes/lv_theme_material.c ****     sel.body.grad_color   = sel.body.main_color;
 637:..\..\..\lvgl\version_6.1.2\lvgl\src\lv_themes/lv_theme_material.c ****     sel.body.border.width = 0;
 638:..\..\..\lvgl\version_6.1.2\lvgl\src\lv_themes/lv_theme_material.c ****     sel.body.shadow.width = 0;
 639:..\..\..\lvgl\version_6.1.2\lvgl\src\lv_themes/lv_theme_material.c ****     sel.text.color        = lv_color_hsv_to_rgb(_hue, 5, 95);
 640:..\..\..\lvgl\version_6.1.2\lvgl\src\lv_themes/lv_theme_material.c **** 
 641:..\..\..\lvgl\version_6.1.2\lvgl\src\lv_themes/lv_theme_material.c ****     theme.style.ddlist.bg  = &bg;
 642:..\..\..\lvgl\version_6.1.2\lvgl\src\lv_themes/lv_theme_material.c ****     theme.style.ddlist.sel = &sel;
 643:..\..\..\lvgl\version_6.1.2\lvgl\src\lv_themes/lv_theme_material.c ****     theme.style.ddlist.sb  = &sb;
 644:..\..\..\lvgl\version_6.1.2\lvgl\src\lv_themes/lv_theme_material.c **** #endif
 645:..\..\..\lvgl\version_6.1.2\lvgl\src\lv_themes/lv_theme_material.c **** }
 646:..\..\..\lvgl\version_6.1.2\lvgl\src\lv_themes/lv_theme_material.c **** 
 647:..\..\..\lvgl\version_6.1.2\lvgl\src\lv_themes/lv_theme_material.c **** static void roller_init(void)
 648:..\..\..\lvgl\version_6.1.2\lvgl\src\lv_themes/lv_theme_material.c **** {
 649:..\..\..\lvgl\version_6.1.2\lvgl\src\lv_themes/lv_theme_material.c **** #if LV_USE_ROLLER != 0
 650:..\..\..\lvgl\version_6.1.2\lvgl\src\lv_themes/lv_theme_material.c ****     static lv_style_t roller_bg, roller_sel;
 651:..\..\..\lvgl\version_6.1.2\lvgl\src\lv_themes/lv_theme_material.c **** 
 652:..\..\..\lvgl\version_6.1.2\lvgl\src\lv_themes/lv_theme_material.c ****     lv_style_copy(&roller_bg, &lv_style_transp);
 653:..\..\..\lvgl\version_6.1.2\lvgl\src\lv_themes/lv_theme_material.c ****     roller_bg.body.padding.left   = LV_DPI / 6;
 654:..\..\..\lvgl\version_6.1.2\lvgl\src\lv_themes/lv_theme_material.c ****     roller_bg.body.padding.right  = LV_DPI / 6;
 655:..\..\..\lvgl\version_6.1.2\lvgl\src\lv_themes/lv_theme_material.c ****     roller_bg.body.padding.top    = LV_DPI / 6;
 656:..\..\..\lvgl\version_6.1.2\lvgl\src\lv_themes/lv_theme_material.c ****     roller_bg.body.padding.bottom = LV_DPI / 6;
ARM GAS  C:\Users\pearlstl\AppData\Local\Temp\cc5dErme.s 			page 13


 657:..\..\..\lvgl\version_6.1.2\lvgl\src\lv_themes/lv_theme_material.c ****     roller_bg.text.line_space     = LV_DPI / 8;
 658:..\..\..\lvgl\version_6.1.2\lvgl\src\lv_themes/lv_theme_material.c ****     roller_bg.text.font           = _font;
 659:..\..\..\lvgl\version_6.1.2\lvgl\src\lv_themes/lv_theme_material.c ****     roller_bg.glass               = 0;
 660:..\..\..\lvgl\version_6.1.2\lvgl\src\lv_themes/lv_theme_material.c **** 
 661:..\..\..\lvgl\version_6.1.2\lvgl\src\lv_themes/lv_theme_material.c ****     lv_style_copy(&roller_sel, &roller_bg);
 662:..\..\..\lvgl\version_6.1.2\lvgl\src\lv_themes/lv_theme_material.c ****     roller_sel.text.color = lv_color_hsv_to_rgb(_hue, 90, 70);
 663:..\..\..\lvgl\version_6.1.2\lvgl\src\lv_themes/lv_theme_material.c **** 
 664:..\..\..\lvgl\version_6.1.2\lvgl\src\lv_themes/lv_theme_material.c ****     theme.style.roller.bg  = &roller_bg;
 665:..\..\..\lvgl\version_6.1.2\lvgl\src\lv_themes/lv_theme_material.c ****     theme.style.roller.sel = &roller_sel;
 666:..\..\..\lvgl\version_6.1.2\lvgl\src\lv_themes/lv_theme_material.c **** #endif
 667:..\..\..\lvgl\version_6.1.2\lvgl\src\lv_themes/lv_theme_material.c **** }
 668:..\..\..\lvgl\version_6.1.2\lvgl\src\lv_themes/lv_theme_material.c **** 
 669:..\..\..\lvgl\version_6.1.2\lvgl\src\lv_themes/lv_theme_material.c **** static void tabview_init(void)
 670:..\..\..\lvgl\version_6.1.2\lvgl\src\lv_themes/lv_theme_material.c **** {
 671:..\..\..\lvgl\version_6.1.2\lvgl\src\lv_themes/lv_theme_material.c **** #if LV_USE_TABVIEW != 0
 672:..\..\..\lvgl\version_6.1.2\lvgl\src\lv_themes/lv_theme_material.c ****     static lv_style_t indic, btn_bg, rel, pr, tgl_rel, tgl_pr;
 673:..\..\..\lvgl\version_6.1.2\lvgl\src\lv_themes/lv_theme_material.c **** 
 674:..\..\..\lvgl\version_6.1.2\lvgl\src\lv_themes/lv_theme_material.c ****     lv_style_copy(&indic, &def);
 675:..\..\..\lvgl\version_6.1.2\lvgl\src\lv_themes/lv_theme_material.c ****     indic.body.main_color    = lv_color_hsv_to_rgb(_hue, 90, 70);
 676:..\..\..\lvgl\version_6.1.2\lvgl\src\lv_themes/lv_theme_material.c ****     indic.body.grad_color    = indic.body.main_color;
 677:..\..\..\lvgl\version_6.1.2\lvgl\src\lv_themes/lv_theme_material.c ****     indic.body.radius        = 0;
 678:..\..\..\lvgl\version_6.1.2\lvgl\src\lv_themes/lv_theme_material.c ****     indic.body.border.width  = 0;
 679:..\..\..\lvgl\version_6.1.2\lvgl\src\lv_themes/lv_theme_material.c ****     indic.body.padding.inner = LV_DPI / 20;
 680:..\..\..\lvgl\version_6.1.2\lvgl\src\lv_themes/lv_theme_material.c **** 
 681:..\..\..\lvgl\version_6.1.2\lvgl\src\lv_themes/lv_theme_material.c ****     lv_style_copy(&btn_bg, &def);
 682:..\..\..\lvgl\version_6.1.2\lvgl\src\lv_themes/lv_theme_material.c ****     btn_bg.body.main_color     = lv_color_hex3(0xccc);
 683:..\..\..\lvgl\version_6.1.2\lvgl\src\lv_themes/lv_theme_material.c ****     btn_bg.body.grad_color     = btn_bg.body.main_color;
 684:..\..\..\lvgl\version_6.1.2\lvgl\src\lv_themes/lv_theme_material.c ****     btn_bg.body.radius         = 0;
 685:..\..\..\lvgl\version_6.1.2\lvgl\src\lv_themes/lv_theme_material.c ****     btn_bg.body.border.width   = 1;
 686:..\..\..\lvgl\version_6.1.2\lvgl\src\lv_themes/lv_theme_material.c ****     btn_bg.body.border.color   = lv_color_hex3(0x888);
 687:..\..\..\lvgl\version_6.1.2\lvgl\src\lv_themes/lv_theme_material.c ****     btn_bg.body.border.part    = LV_BORDER_BOTTOM;
 688:..\..\..\lvgl\version_6.1.2\lvgl\src\lv_themes/lv_theme_material.c ****     btn_bg.body.border.opa     = LV_OPA_COVER;
 689:..\..\..\lvgl\version_6.1.2\lvgl\src\lv_themes/lv_theme_material.c ****     btn_bg.body.shadow.width   = 5;
 690:..\..\..\lvgl\version_6.1.2\lvgl\src\lv_themes/lv_theme_material.c ****     btn_bg.body.shadow.color   = DEF_SHADOW_COLOR;
 691:..\..\..\lvgl\version_6.1.2\lvgl\src\lv_themes/lv_theme_material.c ****     btn_bg.body.shadow.type    = LV_SHADOW_BOTTOM;
 692:..\..\..\lvgl\version_6.1.2\lvgl\src\lv_themes/lv_theme_material.c ****     btn_bg.body.padding.inner  = 0;
 693:..\..\..\lvgl\version_6.1.2\lvgl\src\lv_themes/lv_theme_material.c ****     btn_bg.body.padding.left   = 0;
 694:..\..\..\lvgl\version_6.1.2\lvgl\src\lv_themes/lv_theme_material.c ****     btn_bg.body.padding.right  = 0;
 695:..\..\..\lvgl\version_6.1.2\lvgl\src\lv_themes/lv_theme_material.c ****     btn_bg.body.padding.top    = 0;
 696:..\..\..\lvgl\version_6.1.2\lvgl\src\lv_themes/lv_theme_material.c ****     btn_bg.body.padding.bottom = 0;
 697:..\..\..\lvgl\version_6.1.2\lvgl\src\lv_themes/lv_theme_material.c ****     btn_bg.text.color          = lv_color_hex3(0x333);
 698:..\..\..\lvgl\version_6.1.2\lvgl\src\lv_themes/lv_theme_material.c **** 
 699:..\..\..\lvgl\version_6.1.2\lvgl\src\lv_themes/lv_theme_material.c ****     lv_style_copy(&rel, &lv_style_transp);
 700:..\..\..\lvgl\version_6.1.2\lvgl\src\lv_themes/lv_theme_material.c ****     rel.body.padding.top    = LV_DPI / 8;
 701:..\..\..\lvgl\version_6.1.2\lvgl\src\lv_themes/lv_theme_material.c ****     rel.body.padding.bottom = LV_DPI / 8;
 702:..\..\..\lvgl\version_6.1.2\lvgl\src\lv_themes/lv_theme_material.c ****     rel.text.font           = _font;
 703:..\..\..\lvgl\version_6.1.2\lvgl\src\lv_themes/lv_theme_material.c **** 
 704:..\..\..\lvgl\version_6.1.2\lvgl\src\lv_themes/lv_theme_material.c ****     lv_style_copy(&pr, &def);
 705:..\..\..\lvgl\version_6.1.2\lvgl\src\lv_themes/lv_theme_material.c ****     pr.body.main_color   = lv_color_hex3(0xbbb);
 706:..\..\..\lvgl\version_6.1.2\lvgl\src\lv_themes/lv_theme_material.c ****     pr.body.grad_color   = pr.body.main_color;
 707:..\..\..\lvgl\version_6.1.2\lvgl\src\lv_themes/lv_theme_material.c ****     pr.body.border.width = 0;
 708:..\..\..\lvgl\version_6.1.2\lvgl\src\lv_themes/lv_theme_material.c ****     pr.body.opa          = LV_OPA_COVER;
 709:..\..\..\lvgl\version_6.1.2\lvgl\src\lv_themes/lv_theme_material.c ****     pr.body.radius       = 0;
 710:..\..\..\lvgl\version_6.1.2\lvgl\src\lv_themes/lv_theme_material.c ****     pr.body.border.width = 1;
 711:..\..\..\lvgl\version_6.1.2\lvgl\src\lv_themes/lv_theme_material.c ****     pr.body.border.color = lv_color_hex3(0x888);
 712:..\..\..\lvgl\version_6.1.2\lvgl\src\lv_themes/lv_theme_material.c ****     pr.body.border.part  = LV_BORDER_BOTTOM;
 713:..\..\..\lvgl\version_6.1.2\lvgl\src\lv_themes/lv_theme_material.c ****     pr.body.border.opa   = LV_OPA_COVER;
ARM GAS  C:\Users\pearlstl\AppData\Local\Temp\cc5dErme.s 			page 14


 714:..\..\..\lvgl\version_6.1.2\lvgl\src\lv_themes/lv_theme_material.c ****     pr.text.color        = lv_color_hex3(0x111);
 715:..\..\..\lvgl\version_6.1.2\lvgl\src\lv_themes/lv_theme_material.c **** 
 716:..\..\..\lvgl\version_6.1.2\lvgl\src\lv_themes/lv_theme_material.c ****     lv_style_copy(&tgl_rel, &lv_style_transp);
 717:..\..\..\lvgl\version_6.1.2\lvgl\src\lv_themes/lv_theme_material.c ****     tgl_rel.glass      = 0;
 718:..\..\..\lvgl\version_6.1.2\lvgl\src\lv_themes/lv_theme_material.c ****     tgl_rel.text.font  = _font;
 719:..\..\..\lvgl\version_6.1.2\lvgl\src\lv_themes/lv_theme_material.c ****     tgl_rel.text.color = lv_color_hsv_to_rgb(_hue, 90, 70);
 720:..\..\..\lvgl\version_6.1.2\lvgl\src\lv_themes/lv_theme_material.c **** 
 721:..\..\..\lvgl\version_6.1.2\lvgl\src\lv_themes/lv_theme_material.c ****     lv_style_copy(&tgl_pr, &def);
 722:..\..\..\lvgl\version_6.1.2\lvgl\src\lv_themes/lv_theme_material.c ****     tgl_pr.body.main_color   = lv_color_hsv_to_rgb(_hue, 15, 85);
 723:..\..\..\lvgl\version_6.1.2\lvgl\src\lv_themes/lv_theme_material.c ****     tgl_pr.body.grad_color   = tgl_pr.body.main_color;
 724:..\..\..\lvgl\version_6.1.2\lvgl\src\lv_themes/lv_theme_material.c ****     tgl_pr.body.border.width = 0;
 725:..\..\..\lvgl\version_6.1.2\lvgl\src\lv_themes/lv_theme_material.c ****     tgl_pr.body.opa          = LV_OPA_COVER;
 726:..\..\..\lvgl\version_6.1.2\lvgl\src\lv_themes/lv_theme_material.c ****     tgl_pr.body.radius       = 0;
 727:..\..\..\lvgl\version_6.1.2\lvgl\src\lv_themes/lv_theme_material.c ****     tgl_pr.text.color        = lv_color_hsv_to_rgb(_hue, 90, 60);
 728:..\..\..\lvgl\version_6.1.2\lvgl\src\lv_themes/lv_theme_material.c **** 
 729:..\..\..\lvgl\version_6.1.2\lvgl\src\lv_themes/lv_theme_material.c ****     theme.style.tabview.bg          = theme.style.bg;
 730:..\..\..\lvgl\version_6.1.2\lvgl\src\lv_themes/lv_theme_material.c ****     theme.style.tabview.indic       = &indic;
 731:..\..\..\lvgl\version_6.1.2\lvgl\src\lv_themes/lv_theme_material.c ****     theme.style.tabview.btn.bg      = &btn_bg;
 732:..\..\..\lvgl\version_6.1.2\lvgl\src\lv_themes/lv_theme_material.c ****     theme.style.tabview.btn.rel     = &rel;
 733:..\..\..\lvgl\version_6.1.2\lvgl\src\lv_themes/lv_theme_material.c ****     theme.style.tabview.btn.pr      = &pr;
 734:..\..\..\lvgl\version_6.1.2\lvgl\src\lv_themes/lv_theme_material.c ****     theme.style.tabview.btn.tgl_rel = &tgl_rel;
 735:..\..\..\lvgl\version_6.1.2\lvgl\src\lv_themes/lv_theme_material.c ****     theme.style.tabview.btn.tgl_pr  = &tgl_pr;
 736:..\..\..\lvgl\version_6.1.2\lvgl\src\lv_themes/lv_theme_material.c **** #endif
 737:..\..\..\lvgl\version_6.1.2\lvgl\src\lv_themes/lv_theme_material.c **** }
 738:..\..\..\lvgl\version_6.1.2\lvgl\src\lv_themes/lv_theme_material.c **** 
 739:..\..\..\lvgl\version_6.1.2\lvgl\src\lv_themes/lv_theme_material.c **** static void tileview_init(void)
 740:..\..\..\lvgl\version_6.1.2\lvgl\src\lv_themes/lv_theme_material.c **** {
 741:..\..\..\lvgl\version_6.1.2\lvgl\src\lv_themes/lv_theme_material.c **** #if LV_USE_TILEVIEW != 0
 742:..\..\..\lvgl\version_6.1.2\lvgl\src\lv_themes/lv_theme_material.c ****     theme.style.tileview.bg   = &lv_style_transp_tight;
 743:..\..\..\lvgl\version_6.1.2\lvgl\src\lv_themes/lv_theme_material.c ****     theme.style.tileview.scrl = &lv_style_transp_tight;
 744:..\..\..\lvgl\version_6.1.2\lvgl\src\lv_themes/lv_theme_material.c ****     theme.style.tileview.sb   = theme.style.page.sb;
 745:..\..\..\lvgl\version_6.1.2\lvgl\src\lv_themes/lv_theme_material.c **** #endif
 746:..\..\..\lvgl\version_6.1.2\lvgl\src\lv_themes/lv_theme_material.c **** }
 747:..\..\..\lvgl\version_6.1.2\lvgl\src\lv_themes/lv_theme_material.c **** 
 748:..\..\..\lvgl\version_6.1.2\lvgl\src\lv_themes/lv_theme_material.c **** static void table_init(void)
 749:..\..\..\lvgl\version_6.1.2\lvgl\src\lv_themes/lv_theme_material.c **** {
 750:..\..\..\lvgl\version_6.1.2\lvgl\src\lv_themes/lv_theme_material.c **** #if LV_USE_TABLE != 0
 751:..\..\..\lvgl\version_6.1.2\lvgl\src\lv_themes/lv_theme_material.c ****     static lv_style_t cell;
 752:..\..\..\lvgl\version_6.1.2\lvgl\src\lv_themes/lv_theme_material.c ****     lv_style_copy(&cell, theme.style.panel);
 753:..\..\..\lvgl\version_6.1.2\lvgl\src\lv_themes/lv_theme_material.c ****     cell.body.radius         = 0;
 754:..\..\..\lvgl\version_6.1.2\lvgl\src\lv_themes/lv_theme_material.c ****     cell.body.border.width   = 1;
 755:..\..\..\lvgl\version_6.1.2\lvgl\src\lv_themes/lv_theme_material.c ****     cell.body.padding.left   = LV_DPI / 12;
 756:..\..\..\lvgl\version_6.1.2\lvgl\src\lv_themes/lv_theme_material.c ****     cell.body.padding.right  = LV_DPI / 12;
 757:..\..\..\lvgl\version_6.1.2\lvgl\src\lv_themes/lv_theme_material.c ****     cell.body.padding.top    = LV_DPI / 12;
 758:..\..\..\lvgl\version_6.1.2\lvgl\src\lv_themes/lv_theme_material.c ****     cell.body.padding.bottom = LV_DPI / 12;
 759:..\..\..\lvgl\version_6.1.2\lvgl\src\lv_themes/lv_theme_material.c **** 
 760:..\..\..\lvgl\version_6.1.2\lvgl\src\lv_themes/lv_theme_material.c ****     theme.style.table.bg   = &lv_style_transp_tight;
 761:..\..\..\lvgl\version_6.1.2\lvgl\src\lv_themes/lv_theme_material.c ****     theme.style.table.cell = &cell;
 762:..\..\..\lvgl\version_6.1.2\lvgl\src\lv_themes/lv_theme_material.c **** #endif
 763:..\..\..\lvgl\version_6.1.2\lvgl\src\lv_themes/lv_theme_material.c **** }
 764:..\..\..\lvgl\version_6.1.2\lvgl\src\lv_themes/lv_theme_material.c **** 
 765:..\..\..\lvgl\version_6.1.2\lvgl\src\lv_themes/lv_theme_material.c **** static void win_init(void)
 766:..\..\..\lvgl\version_6.1.2\lvgl\src\lv_themes/lv_theme_material.c **** {
 767:..\..\..\lvgl\version_6.1.2\lvgl\src\lv_themes/lv_theme_material.c **** #if LV_USE_WIN != 0
 768:..\..\..\lvgl\version_6.1.2\lvgl\src\lv_themes/lv_theme_material.c ****     static lv_style_t header, pr;
 769:..\..\..\lvgl\version_6.1.2\lvgl\src\lv_themes/lv_theme_material.c **** 
 770:..\..\..\lvgl\version_6.1.2\lvgl\src\lv_themes/lv_theme_material.c ****     lv_style_copy(&header, &def);
ARM GAS  C:\Users\pearlstl\AppData\Local\Temp\cc5dErme.s 			page 15


 771:..\..\..\lvgl\version_6.1.2\lvgl\src\lv_themes/lv_theme_material.c ****     header.body.main_color     = lv_color_hex3(0xccc);
 772:..\..\..\lvgl\version_6.1.2\lvgl\src\lv_themes/lv_theme_material.c ****     header.body.grad_color     = header.body.main_color;
 773:..\..\..\lvgl\version_6.1.2\lvgl\src\lv_themes/lv_theme_material.c ****     header.body.radius         = 0;
 774:..\..\..\lvgl\version_6.1.2\lvgl\src\lv_themes/lv_theme_material.c ****     header.body.border.width   = 1;
 775:..\..\..\lvgl\version_6.1.2\lvgl\src\lv_themes/lv_theme_material.c ****     header.body.border.color   = lv_color_hex3(0xbbb);
 776:..\..\..\lvgl\version_6.1.2\lvgl\src\lv_themes/lv_theme_material.c ****     header.body.border.part    = LV_BORDER_BOTTOM;
 777:..\..\..\lvgl\version_6.1.2\lvgl\src\lv_themes/lv_theme_material.c ****     header.body.border.opa     = LV_OPA_COVER;
 778:..\..\..\lvgl\version_6.1.2\lvgl\src\lv_themes/lv_theme_material.c ****     header.body.padding.inner  = 0;
 779:..\..\..\lvgl\version_6.1.2\lvgl\src\lv_themes/lv_theme_material.c ****     header.body.padding.left   = 0;
 780:..\..\..\lvgl\version_6.1.2\lvgl\src\lv_themes/lv_theme_material.c ****     header.body.padding.right  = 0;
 781:..\..\..\lvgl\version_6.1.2\lvgl\src\lv_themes/lv_theme_material.c ****     header.body.padding.top    = 0;
 782:..\..\..\lvgl\version_6.1.2\lvgl\src\lv_themes/lv_theme_material.c ****     header.body.padding.bottom = 0;
 783:..\..\..\lvgl\version_6.1.2\lvgl\src\lv_themes/lv_theme_material.c ****     header.text.color          = lv_color_hex3(0x333);
 784:..\..\..\lvgl\version_6.1.2\lvgl\src\lv_themes/lv_theme_material.c ****     header.image.color         = lv_color_hex3(0x333);
 785:..\..\..\lvgl\version_6.1.2\lvgl\src\lv_themes/lv_theme_material.c **** 
 786:..\..\..\lvgl\version_6.1.2\lvgl\src\lv_themes/lv_theme_material.c ****     lv_style_copy(&pr, &def);
 787:..\..\..\lvgl\version_6.1.2\lvgl\src\lv_themes/lv_theme_material.c ****     pr.body.main_color   = lv_color_hex3(0xbbb);
 788:..\..\..\lvgl\version_6.1.2\lvgl\src\lv_themes/lv_theme_material.c ****     pr.body.grad_color   = pr.body.main_color;
 789:..\..\..\lvgl\version_6.1.2\lvgl\src\lv_themes/lv_theme_material.c ****     pr.body.border.width = 0;
 790:..\..\..\lvgl\version_6.1.2\lvgl\src\lv_themes/lv_theme_material.c ****     pr.body.opa          = LV_OPA_COVER;
 791:..\..\..\lvgl\version_6.1.2\lvgl\src\lv_themes/lv_theme_material.c ****     pr.body.radius       = 0;
 792:..\..\..\lvgl\version_6.1.2\lvgl\src\lv_themes/lv_theme_material.c ****     pr.text.color        = lv_color_hex3(0x111);
 793:..\..\..\lvgl\version_6.1.2\lvgl\src\lv_themes/lv_theme_material.c ****     pr.image.color       = lv_color_hex3(0x111);
 794:..\..\..\lvgl\version_6.1.2\lvgl\src\lv_themes/lv_theme_material.c **** 
 795:..\..\..\lvgl\version_6.1.2\lvgl\src\lv_themes/lv_theme_material.c ****     theme.style.win.bg      = theme.style.panel;
 796:..\..\..\lvgl\version_6.1.2\lvgl\src\lv_themes/lv_theme_material.c ****     theme.style.win.sb      = &sb;
 797:..\..\..\lvgl\version_6.1.2\lvgl\src\lv_themes/lv_theme_material.c ****     theme.style.win.header  = &header;
 798:..\..\..\lvgl\version_6.1.2\lvgl\src\lv_themes/lv_theme_material.c ****     theme.style.win.content = &lv_style_transp;
 799:..\..\..\lvgl\version_6.1.2\lvgl\src\lv_themes/lv_theme_material.c ****     theme.style.win.btn.rel = &lv_style_transp;
 800:..\..\..\lvgl\version_6.1.2\lvgl\src\lv_themes/lv_theme_material.c ****     theme.style.win.btn.pr  = &pr;
 801:..\..\..\lvgl\version_6.1.2\lvgl\src\lv_themes/lv_theme_material.c **** #endif
 802:..\..\..\lvgl\version_6.1.2\lvgl\src\lv_themes/lv_theme_material.c **** }
 803:..\..\..\lvgl\version_6.1.2\lvgl\src\lv_themes/lv_theme_material.c **** 
 804:..\..\..\lvgl\version_6.1.2\lvgl\src\lv_themes/lv_theme_material.c **** #if LV_USE_GROUP
 805:..\..\..\lvgl\version_6.1.2\lvgl\src\lv_themes/lv_theme_material.c **** 
 806:..\..\..\lvgl\version_6.1.2\lvgl\src\lv_themes/lv_theme_material.c **** static void style_mod(lv_group_t * group, lv_style_t * style)
 807:..\..\..\lvgl\version_6.1.2\lvgl\src\lv_themes/lv_theme_material.c **** {
 808:..\..\..\lvgl\version_6.1.2\lvgl\src\lv_themes/lv_theme_material.c ****     (void)group; /*Unused*/
 809:..\..\..\lvgl\version_6.1.2\lvgl\src\lv_themes/lv_theme_material.c **** #if LV_COLOR_DEPTH != 1
 810:..\..\..\lvgl\version_6.1.2\lvgl\src\lv_themes/lv_theme_material.c ****     uint16_t hue2 = (_hue + 60) % 360;
 811:..\..\..\lvgl\version_6.1.2\lvgl\src\lv_themes/lv_theme_material.c **** 
 812:..\..\..\lvgl\version_6.1.2\lvgl\src\lv_themes/lv_theme_material.c ****     /*Make the style to be a little bit orange*/
 813:..\..\..\lvgl\version_6.1.2\lvgl\src\lv_themes/lv_theme_material.c ****     style->body.border.opa   = LV_OPA_COVER;
 814:..\..\..\lvgl\version_6.1.2\lvgl\src\lv_themes/lv_theme_material.c ****     style->body.border.color = lv_color_hsv_to_rgb(hue2, 90, 70);
 815:..\..\..\lvgl\version_6.1.2\lvgl\src\lv_themes/lv_theme_material.c **** 
 816:..\..\..\lvgl\version_6.1.2\lvgl\src\lv_themes/lv_theme_material.c ****     /*If not empty or has border then emphasis the border*/
 817:..\..\..\lvgl\version_6.1.2\lvgl\src\lv_themes/lv_theme_material.c ****     if(style->body.opa != LV_OPA_TRANSP || style->body.border.width != 0) style->body.border.width 
 818:..\..\..\lvgl\version_6.1.2\lvgl\src\lv_themes/lv_theme_material.c **** 
 819:..\..\..\lvgl\version_6.1.2\lvgl\src\lv_themes/lv_theme_material.c ****     style->body.main_color   = lv_color_mix(style->body.main_color, lv_color_hsv_to_rgb(hue2, 90, 7
 820:..\..\..\lvgl\version_6.1.2\lvgl\src\lv_themes/lv_theme_material.c ****     style->body.grad_color   = lv_color_mix(style->body.grad_color, lv_color_hsv_to_rgb(hue2, 90, 7
 821:..\..\..\lvgl\version_6.1.2\lvgl\src\lv_themes/lv_theme_material.c ****     style->body.shadow.color = lv_color_mix(style->body.shadow.color, lv_color_hsv_to_rgb(hue2, 90,
 822:..\..\..\lvgl\version_6.1.2\lvgl\src\lv_themes/lv_theme_material.c **** 
 823:..\..\..\lvgl\version_6.1.2\lvgl\src\lv_themes/lv_theme_material.c ****     style->text.color = lv_color_mix(style->text.color, lv_color_hsv_to_rgb(hue2, 90, 70), LV_OPA_7
 824:..\..\..\lvgl\version_6.1.2\lvgl\src\lv_themes/lv_theme_material.c **** #else
 825:..\..\..\lvgl\version_6.1.2\lvgl\src\lv_themes/lv_theme_material.c ****     style->body.border.opa   = LV_OPA_COVER;
 826:..\..\..\lvgl\version_6.1.2\lvgl\src\lv_themes/lv_theme_material.c ****     style->body.border.color = LV_COLOR_BLACK;
 827:..\..\..\lvgl\version_6.1.2\lvgl\src\lv_themes/lv_theme_material.c ****     style->body.border.width = 2;
ARM GAS  C:\Users\pearlstl\AppData\Local\Temp\cc5dErme.s 			page 16


 828:..\..\..\lvgl\version_6.1.2\lvgl\src\lv_themes/lv_theme_material.c **** #endif
 829:..\..\..\lvgl\version_6.1.2\lvgl\src\lv_themes/lv_theme_material.c **** }
 830:..\..\..\lvgl\version_6.1.2\lvgl\src\lv_themes/lv_theme_material.c **** 
 831:..\..\..\lvgl\version_6.1.2\lvgl\src\lv_themes/lv_theme_material.c **** static void style_mod_edit(lv_group_t * group, lv_style_t * style)
 832:..\..\..\lvgl\version_6.1.2\lvgl\src\lv_themes/lv_theme_material.c **** {
 833:..\..\..\lvgl\version_6.1.2\lvgl\src\lv_themes/lv_theme_material.c ****     (void)group; /*Unused*/
 834:..\..\..\lvgl\version_6.1.2\lvgl\src\lv_themes/lv_theme_material.c **** #if LV_COLOR_DEPTH != 1
 835:..\..\..\lvgl\version_6.1.2\lvgl\src\lv_themes/lv_theme_material.c ****     uint16_t hue2 = (_hue + 300) % 360;
 836:..\..\..\lvgl\version_6.1.2\lvgl\src\lv_themes/lv_theme_material.c **** 
 837:..\..\..\lvgl\version_6.1.2\lvgl\src\lv_themes/lv_theme_material.c ****     /*Make the style to be a little bit orange*/
 838:..\..\..\lvgl\version_6.1.2\lvgl\src\lv_themes/lv_theme_material.c ****     style->body.border.opa   = LV_OPA_COVER;
 839:..\..\..\lvgl\version_6.1.2\lvgl\src\lv_themes/lv_theme_material.c ****     style->body.border.color = LV_COLOR_GREEN;
 840:..\..\..\lvgl\version_6.1.2\lvgl\src\lv_themes/lv_theme_material.c **** 
 841:..\..\..\lvgl\version_6.1.2\lvgl\src\lv_themes/lv_theme_material.c ****     /*If not empty or has border then emphasis the border*/
 842:..\..\..\lvgl\version_6.1.2\lvgl\src\lv_themes/lv_theme_material.c ****     if(style->body.opa != LV_OPA_TRANSP || style->body.border.width != 0) style->body.border.width 
 843:..\..\..\lvgl\version_6.1.2\lvgl\src\lv_themes/lv_theme_material.c **** 
 844:..\..\..\lvgl\version_6.1.2\lvgl\src\lv_themes/lv_theme_material.c **** 
 845:..\..\..\lvgl\version_6.1.2\lvgl\src\lv_themes/lv_theme_material.c ****     style->body.main_color   = lv_color_mix(style->body.main_color, lv_color_hsv_to_rgb(hue2, 90, 7
 846:..\..\..\lvgl\version_6.1.2\lvgl\src\lv_themes/lv_theme_material.c ****     style->body.grad_color   = lv_color_mix(style->body.grad_color, lv_color_hsv_to_rgb(hue2, 90, 7
 847:..\..\..\lvgl\version_6.1.2\lvgl\src\lv_themes/lv_theme_material.c ****     style->body.shadow.color = lv_color_mix(style->body.shadow.color, lv_color_hsv_to_rgb(hue2, 90,
 848:..\..\..\lvgl\version_6.1.2\lvgl\src\lv_themes/lv_theme_material.c **** 
 849:..\..\..\lvgl\version_6.1.2\lvgl\src\lv_themes/lv_theme_material.c ****     style->text.color = lv_color_mix(style->text.color, lv_color_hsv_to_rgb(hue2, 90, 70), LV_OPA_7
 850:..\..\..\lvgl\version_6.1.2\lvgl\src\lv_themes/lv_theme_material.c **** #else
 851:..\..\..\lvgl\version_6.1.2\lvgl\src\lv_themes/lv_theme_material.c ****     style->body.border.opa   = LV_OPA_COVER;
 852:..\..\..\lvgl\version_6.1.2\lvgl\src\lv_themes/lv_theme_material.c ****     style->body.border.color = LV_COLOR_BLACK;
 853:..\..\..\lvgl\version_6.1.2\lvgl\src\lv_themes/lv_theme_material.c ****     style->body.border.width = 3;
 854:..\..\..\lvgl\version_6.1.2\lvgl\src\lv_themes/lv_theme_material.c **** #endif
 855:..\..\..\lvgl\version_6.1.2\lvgl\src\lv_themes/lv_theme_material.c **** }
 856:..\..\..\lvgl\version_6.1.2\lvgl\src\lv_themes/lv_theme_material.c **** 
 857:..\..\..\lvgl\version_6.1.2\lvgl\src\lv_themes/lv_theme_material.c **** #endif /*LV_USE_GROUP*/
 858:..\..\..\lvgl\version_6.1.2\lvgl\src\lv_themes/lv_theme_material.c **** 
 859:..\..\..\lvgl\version_6.1.2\lvgl\src\lv_themes/lv_theme_material.c **** /**********************
 860:..\..\..\lvgl\version_6.1.2\lvgl\src\lv_themes/lv_theme_material.c ****  *   GLOBAL FUNCTIONS
 861:..\..\..\lvgl\version_6.1.2\lvgl\src\lv_themes/lv_theme_material.c ****  **********************/
 862:..\..\..\lvgl\version_6.1.2\lvgl\src\lv_themes/lv_theme_material.c **** 
 863:..\..\..\lvgl\version_6.1.2\lvgl\src\lv_themes/lv_theme_material.c **** /**
 864:..\..\..\lvgl\version_6.1.2\lvgl\src\lv_themes/lv_theme_material.c ****  * Initialize the material theme
 865:..\..\..\lvgl\version_6.1.2\lvgl\src\lv_themes/lv_theme_material.c ****  * @param hue [0..360] hue value from HSV color space to define the theme's base color
 866:..\..\..\lvgl\version_6.1.2\lvgl\src\lv_themes/lv_theme_material.c ****  * @param font pointer to a font (NULL to use the default)
 867:..\..\..\lvgl\version_6.1.2\lvgl\src\lv_themes/lv_theme_material.c ****  * @return pointer to the initialized theme
 868:..\..\..\lvgl\version_6.1.2\lvgl\src\lv_themes/lv_theme_material.c ****  */
 869:..\..\..\lvgl\version_6.1.2\lvgl\src\lv_themes/lv_theme_material.c **** lv_theme_t * lv_theme_material_init(uint16_t hue, lv_font_t * font)
 870:..\..\..\lvgl\version_6.1.2\lvgl\src\lv_themes/lv_theme_material.c **** {
  29              		.loc 1 870 0
  30              		.cfi_startproc
  31              		@ args = 0, pretend = 0, frame = 8
  32              		@ frame_needed = 0, uses_anonymous_args = 0
  33              	.LVL0:
  34 0000 2DE9F04F 		push	{r4, r5, r6, r7, r8, r9, r10, fp, lr}
  35              		.cfi_def_cfa_offset 36
  36              		.cfi_offset 4, -36
  37              		.cfi_offset 5, -32
  38              		.cfi_offset 6, -28
  39              		.cfi_offset 7, -24
  40              		.cfi_offset 8, -20
  41              		.cfi_offset 9, -16
  42              		.cfi_offset 10, -12
ARM GAS  C:\Users\pearlstl\AppData\Local\Temp\cc5dErme.s 			page 17


  43              		.cfi_offset 11, -8
  44              		.cfi_offset 14, -4
 871:..\..\..\lvgl\version_6.1.2\lvgl\src\lv_themes/lv_theme_material.c ****     if(font == NULL) font = LV_FONT_DEFAULT;
  45              		.loc 1 871 0
  46 0004 F14B     		ldr	r3, .L7
 872:..\..\..\lvgl\version_6.1.2\lvgl\src\lv_themes/lv_theme_material.c **** 
 873:..\..\..\lvgl\version_6.1.2\lvgl\src\lv_themes/lv_theme_material.c ****     _hue  = hue;
  47              		.loc 1 873 0
  48 0006 F24A     		ldr	r2, .L7+4
 871:..\..\..\lvgl\version_6.1.2\lvgl\src\lv_themes/lv_theme_material.c ****     if(font == NULL) font = LV_FONT_DEFAULT;
  49              		.loc 1 871 0
  50 0008 0029     		cmp	r1, #0
  51 000a 08BF     		it	eq
  52 000c 1946     		moveq	r1, r3
  53              	.LVL1:
 874:..\..\..\lvgl\version_6.1.2\lvgl\src\lv_themes/lv_theme_material.c ****     _font = font;
  54              		.loc 1 874 0
  55 000e C2F8AC11 		str	r1, [r2, #428]
  56              	.LVL2:
 875:..\..\..\lvgl\version_6.1.2\lvgl\src\lv_themes/lv_theme_material.c **** 
 876:..\..\..\lvgl\version_6.1.2\lvgl\src\lv_themes/lv_theme_material.c ****     /*For backward compatibility initialize all theme elements with a default style */
 877:..\..\..\lvgl\version_6.1.2\lvgl\src\lv_themes/lv_theme_material.c ****     uint16_t i;
 878:..\..\..\lvgl\version_6.1.2\lvgl\src\lv_themes/lv_theme_material.c ****     lv_style_t ** style_p = (lv_style_t **)&theme.style;
  57              		.loc 1 878 0
  58 0012 1346     		mov	r3, r2
 873:..\..\..\lvgl\version_6.1.2\lvgl\src\lv_themes/lv_theme_material.c ****     _font = font;
  59              		.loc 1 873 0
  60 0014 A2F8A801 		strh	r0, [r2, #424]	@ movhi
  61 0018 02F5D877 		add	r7, r2, #432
 870:..\..\..\lvgl\version_6.1.2\lvgl\src\lv_themes/lv_theme_material.c ****     if(font == NULL) font = LV_FONT_DEFAULT;
  62              		.loc 1 870 0
  63 001c 83B0     		sub	sp, sp, #12
  64              		.cfi_def_cfa_offset 48
  65 001e 02F5D472 		add	r2, r2, #424
  66              	.LVL3:
  67              	.L3:
 879:..\..\..\lvgl\version_6.1.2\lvgl\src\lv_themes/lv_theme_material.c ****     for(i = 0; i < LV_THEME_STYLE_COUNT; i++) {
 880:..\..\..\lvgl\version_6.1.2\lvgl\src\lv_themes/lv_theme_material.c ****         *style_p = &def;
  68              		.loc 1 880 0 discriminator 3
  69 0022 43F8047B 		str	r7, [r3], #4
  70              	.LVL4:
  71 0026 EA4C     		ldr	r4, .L7+4
 879:..\..\..\lvgl\version_6.1.2\lvgl\src\lv_themes/lv_theme_material.c ****     for(i = 0; i < LV_THEME_STYLE_COUNT; i++) {
  72              		.loc 1 879 0 discriminator 3
  73 0028 9342     		cmp	r3, r2
  74              		.loc 1 880 0 discriminator 3
  75 002a 04F5D876 		add	r6, r4, #432
 879:..\..\..\lvgl\version_6.1.2\lvgl\src\lv_themes/lv_theme_material.c ****     for(i = 0; i < LV_THEME_STYLE_COUNT; i++) {
  76              		.loc 1 879 0 discriminator 3
  77 002e F8D1     		bne	.L3
  78              	.LBB154:
  79              	.LBB155:
  52:..\..\..\lvgl\version_6.1.2\lvgl\src\lv_themes/lv_theme_material.c ****     def.text.font   = _font;
  80              		.loc 1 52 0
  81 0030 3046     		mov	r0, r6
  82              	.LVL5:
  83 0032 E849     		ldr	r1, .L7+8
ARM GAS  C:\Users\pearlstl\AppData\Local\Temp\cc5dErme.s 			page 18


  84              	.LVL6:
  85              	.LBE155:
  86              	.LBE154:
  87              	.LBB160:
  88              	.LBB161:
 579:..\..\..\lvgl\version_6.1.2\lvgl\src\lv_themes/lv_theme_material.c ****     rel.body.padding.left   = LV_DPI / 8;
  89              		.loc 1 579 0
  90 0034 E84D     		ldr	r5, .L7+12
  91              	.LBE161:
  92              	.LBE160:
  93              	.LBB169:
  94              	.LBB156:
  52:..\..\..\lvgl\version_6.1.2\lvgl\src\lv_themes/lv_theme_material.c ****     def.text.font   = _font;
  95              		.loc 1 52 0
  96 0036 FFF7FEFF 		bl	lv_style_copy
  97              	.LVL7:
  56:..\..\..\lvgl\version_6.1.2\lvgl\src\lv_themes/lv_theme_material.c ****     bg.body.main_color = lv_color_hex(0xf0f0f0);
  98              		.loc 1 56 0
  99 003a 04F50079 		add	r9, r4, #512
  53:..\..\..\lvgl\version_6.1.2\lvgl\src\lv_themes/lv_theme_material.c ****     def.body.radius = DEF_RADIUS;
 100              		.loc 1 53 0
 101 003e D4F8AC31 		ldr	r3, [r4, #428]
 102 0042 C4F8E431 		str	r3, [r4, #484]
  56:..\..\..\lvgl\version_6.1.2\lvgl\src\lv_themes/lv_theme_material.c ****     bg.body.main_color = lv_color_hex(0xf0f0f0);
 103              		.loc 1 56 0
 104 0046 4846     		mov	r0, r9
 105 0048 3146     		mov	r1, r6
  54:..\..\..\lvgl\version_6.1.2\lvgl\src\lv_themes/lv_theme_material.c **** 
 106              		.loc 1 54 0
 107 004a 4FF00403 		mov	r3, #4	@ movhi
  57:..\..\..\lvgl\version_6.1.2\lvgl\src\lv_themes/lv_theme_material.c ****     bg.body.grad_color = bg.body.main_color;
 108              		.loc 1 57 0
 109 004e 4FF0FF0B 		mov	fp, #255
  54:..\..\..\lvgl\version_6.1.2\lvgl\src\lv_themes/lv_theme_material.c **** 
 110              		.loc 1 54 0
 111 0052 A4F8BC31 		strh	r3, [r4, #444]	@ movhi
  56:..\..\..\lvgl\version_6.1.2\lvgl\src\lv_themes/lv_theme_material.c ****     bg.body.main_color = lv_color_hex(0xf0f0f0);
 112              		.loc 1 56 0
 113 0056 FFF7FEFF 		bl	lv_style_copy
 114              	.LVL8:
  57:..\..\..\lvgl\version_6.1.2\lvgl\src\lv_themes/lv_theme_material.c ****     bg.body.grad_color = bg.body.main_color;
 115              		.loc 1 57 0
 116 005a F023     		movs	r3, #240
 117 005c 84F80432 		strb	r3, [r4, #516]
 118 0060 84F80532 		strb	r3, [r4, #517]
 119 0064 84F80632 		strb	r3, [r4, #518]
 120 0068 84F807B2 		strb	fp, [r4, #519]
  61:..\..\..\lvgl\version_6.1.2\lvgl\src\lv_themes/lv_theme_material.c ****     scr.body.padding.bottom = 0;
 121              		.loc 1 61 0
 122 006c 04F51473 		add	r3, r4, #592
  59:..\..\..\lvgl\version_6.1.2\lvgl\src\lv_themes/lv_theme_material.c **** 
 123              		.loc 1 59 0
 124 0070 4FF00008 		mov	r8, #0
  58:..\..\..\lvgl\version_6.1.2\lvgl\src\lv_themes/lv_theme_material.c ****     bg.body.radius     = 0;
 125              		.loc 1 58 0
 126 0074 D4F80422 		ldr	r2, [r4, #516]
 127 0078 C4F80822 		str	r2, [r4, #520]
ARM GAS  C:\Users\pearlstl\AppData\Local\Temp\cc5dErme.s 			page 19


  61:..\..\..\lvgl\version_6.1.2\lvgl\src\lv_themes/lv_theme_material.c ****     scr.body.padding.bottom = 0;
 128              		.loc 1 61 0
 129 007c 1846     		mov	r0, r3
 130 007e 4946     		mov	r1, r9
 131 0080 0093     		str	r3, [sp]
  59:..\..\..\lvgl\version_6.1.2\lvgl\src\lv_themes/lv_theme_material.c **** 
 132              		.loc 1 59 0
 133 0082 A4F80C82 		strh	r8, [r4, #524]	@ movhi
  61:..\..\..\lvgl\version_6.1.2\lvgl\src\lv_themes/lv_theme_material.c ****     scr.body.padding.bottom = 0;
 134              		.loc 1 61 0
 135 0086 FFF7FEFF 		bl	lv_style_copy
 136              	.LVL9:
  67:..\..\..\lvgl\version_6.1.2\lvgl\src\lv_themes/lv_theme_material.c ****     panel.body.radius         = DEF_RADIUS;
 137              		.loc 1 67 0
 138 008a 04F52870 		add	r0, r4, #672
 139 008e 3146     		mov	r1, r6
  62:..\..\..\lvgl\version_6.1.2\lvgl\src\lv_themes/lv_theme_material.c ****     scr.body.padding.top    = 0;
 140              		.loc 1 62 0
 141 0090 A4F87282 		strh	r8, [r4, #626]	@ movhi
  63:..\..\..\lvgl\version_6.1.2\lvgl\src\lv_themes/lv_theme_material.c ****     scr.body.padding.left   = 0;
 142              		.loc 1 63 0
 143 0094 A4F87082 		strh	r8, [r4, #624]	@ movhi
  64:..\..\..\lvgl\version_6.1.2\lvgl\src\lv_themes/lv_theme_material.c ****     scr.body.padding.right  = 0;
 144              		.loc 1 64 0
 145 0098 A4F87482 		strh	r8, [r4, #628]	@ movhi
  65:..\..\..\lvgl\version_6.1.2\lvgl\src\lv_themes/lv_theme_material.c **** 
 146              		.loc 1 65 0
 147 009c A4F87682 		strh	r8, [r4, #630]	@ movhi
  67:..\..\..\lvgl\version_6.1.2\lvgl\src\lv_themes/lv_theme_material.c ****     panel.body.radius         = DEF_RADIUS;
 148              		.loc 1 67 0
 149 00a0 FFF7FEFF 		bl	lv_style_copy
 150              	.LVL10:
  68:..\..\..\lvgl\version_6.1.2\lvgl\src\lv_themes/lv_theme_material.c ****     panel.body.main_color     = LV_COLOR_WHITE;
 151              		.loc 1 68 0
 152 00a4 4FF00403 		mov	r3, #4	@ movhi
 153 00a8 A4F8AC32 		strh	r3, [r4, #684]	@ movhi
  76:..\..\..\lvgl\version_6.1.2\lvgl\src\lv_themes/lv_theme_material.c ****     panel.body.padding.left   = LV_DPI / 8;
 154              		.loc 1 76 0
 155 00ac A4F8BC32 		strh	r3, [r4, #700]	@ movhi
  71:..\..\..\lvgl\version_6.1.2\lvgl\src\lv_themes/lv_theme_material.c ****     panel.body.border.color   = lv_color_hex3(0xbbb);
 156              		.loc 1 71 0
 157 00b0 4FF00103 		mov	r3, #1	@ movhi
 158 00b4 A4F8B432 		strh	r3, [r4, #692]	@ movhi
  72:..\..\..\lvgl\version_6.1.2\lvgl\src\lv_themes/lv_theme_material.c ****     panel.body.border.opa     = LV_OPA_COVER;
 159              		.loc 1 72 0
 160 00b8 6FF04403 		mvn	r3, #68
 161 00bc 84F8B032 		strb	r3, [r4, #688]
 162 00c0 84F8B132 		strb	r3, [r4, #689]
 163 00c4 84F8B232 		strb	r3, [r4, #690]
  74:..\..\..\lvgl\version_6.1.2\lvgl\src\lv_themes/lv_theme_material.c ****     panel.body.shadow.type    = LV_SHADOW_BOTTOM;
 164              		.loc 1 74 0
 165 00c8 6FF05503 		mvn	r3, #85
 166 00cc 84F8B832 		strb	r3, [r4, #696]
 167 00d0 84F8B932 		strb	r3, [r4, #697]
 168 00d4 84F8BA32 		strb	r3, [r4, #698]
  77:..\..\..\lvgl\version_6.1.2\lvgl\src\lv_themes/lv_theme_material.c ****     panel.body.padding.right  = LV_DPI / 8;
 169              		.loc 1 77 0
ARM GAS  C:\Users\pearlstl\AppData\Local\Temp\cc5dErme.s 			page 20


 170 00d8 4FF01203 		mov	r3, #18	@ movhi
 171 00dc A4F8C432 		strh	r3, [r4, #708]	@ movhi
  78:..\..\..\lvgl\version_6.1.2\lvgl\src\lv_themes/lv_theme_material.c ****     panel.body.padding.top    = LV_DPI / 8;
 172              		.loc 1 78 0
 173 00e0 A4F8C632 		strh	r3, [r4, #710]	@ movhi
  79:..\..\..\lvgl\version_6.1.2\lvgl\src\lv_themes/lv_theme_material.c ****     panel.body.padding.bottom = LV_DPI / 8;
 174              		.loc 1 79 0
 175 00e4 A4F8C032 		strh	r3, [r4, #704]	@ movhi
  80:..\..\..\lvgl\version_6.1.2\lvgl\src\lv_themes/lv_theme_material.c ****     panel.body.padding.inner  = LV_DPI / 12;
 176              		.loc 1 80 0
 177 00e8 A4F8C232 		strh	r3, [r4, #706]	@ movhi
  81:..\..\..\lvgl\version_6.1.2\lvgl\src\lv_themes/lv_theme_material.c ****     panel.text.color          = lv_color_hex3(0x333);
 178              		.loc 1 81 0
 179 00ec 4FF00C03 		mov	r3, #12	@ movhi
  85:..\..\..\lvgl\version_6.1.2\lvgl\src\lv_themes/lv_theme_material.c ****     sb.body.main_color     = LV_COLOR_BLACK;
 180              		.loc 1 85 0
 181 00f0 04F53C70 		add	r0, r4, #752
 182 00f4 3146     		mov	r1, r6
  81:..\..\..\lvgl\version_6.1.2\lvgl\src\lv_themes/lv_theme_material.c ****     panel.text.color          = lv_color_hex3(0x333);
 183              		.loc 1 81 0
 184 00f6 A4F8C832 		strh	r3, [r4, #712]	@ movhi
  82:..\..\..\lvgl\version_6.1.2\lvgl\src\lv_themes/lv_theme_material.c ****     panel.image.color         = lv_color_hex3(0x333);
 185              		.loc 1 82 0
 186 00fa 4FF03303 		mov	r3, #51
 187 00fe 84F8CC32 		strb	r3, [r4, #716]
 188 0102 84F8CD32 		strb	r3, [r4, #717]
 189 0106 84F8CE32 		strb	r3, [r4, #718]
  83:..\..\..\lvgl\version_6.1.2\lvgl\src\lv_themes/lv_theme_material.c **** 
 190              		.loc 1 83 0
 191 010a 84F8E032 		strb	r3, [r4, #736]
 192 010e 84F8E132 		strb	r3, [r4, #737]
  69:..\..\..\lvgl\version_6.1.2\lvgl\src\lv_themes/lv_theme_material.c ****     panel.body.grad_color     = LV_COLOR_WHITE;
 193              		.loc 1 69 0
 194 0112 84F8A4B2 		strb	fp, [r4, #676]
 195 0116 84F8A5B2 		strb	fp, [r4, #677]
 196 011a 84F8A6B2 		strb	fp, [r4, #678]
 197 011e 84F8A7B2 		strb	fp, [r4, #679]
  70:..\..\..\lvgl\version_6.1.2\lvgl\src\lv_themes/lv_theme_material.c ****     panel.body.border.width   = 1;
 198              		.loc 1 70 0
 199 0122 84F8A8B2 		strb	fp, [r4, #680]
 200 0126 84F8A9B2 		strb	fp, [r4, #681]
 201 012a 84F8AAB2 		strb	fp, [r4, #682]
 202 012e 84F8ABB2 		strb	fp, [r4, #683]
  72:..\..\..\lvgl\version_6.1.2\lvgl\src\lv_themes/lv_theme_material.c ****     panel.body.border.opa     = LV_OPA_COVER;
 203              		.loc 1 72 0
 204 0132 84F8B3B2 		strb	fp, [r4, #691]
  73:..\..\..\lvgl\version_6.1.2\lvgl\src\lv_themes/lv_theme_material.c ****     panel.body.shadow.color   = DEF_SHADOW_COLOR;
 205              		.loc 1 73 0
 206 0136 84F8B7B2 		strb	fp, [r4, #695]
  74:..\..\..\lvgl\version_6.1.2\lvgl\src\lv_themes/lv_theme_material.c ****     panel.body.shadow.type    = LV_SHADOW_BOTTOM;
 207              		.loc 1 74 0
 208 013a 84F8BBB2 		strb	fp, [r4, #699]
  75:..\..\..\lvgl\version_6.1.2\lvgl\src\lv_themes/lv_theme_material.c ****     panel.body.shadow.width   = 4;
 209              		.loc 1 75 0
 210 013e 84F8BE82 		strb	r8, [r4, #702]
  82:..\..\..\lvgl\version_6.1.2\lvgl\src\lv_themes/lv_theme_material.c ****     panel.image.color         = lv_color_hex3(0x333);
 211              		.loc 1 82 0
ARM GAS  C:\Users\pearlstl\AppData\Local\Temp\cc5dErme.s 			page 21


 212 0142 84F8CFB2 		strb	fp, [r4, #719]
  83:..\..\..\lvgl\version_6.1.2\lvgl\src\lv_themes/lv_theme_material.c **** 
 213              		.loc 1 83 0
 214 0146 84F8E232 		strb	r3, [r4, #738]
 215 014a 84F8E3B2 		strb	fp, [r4, #739]
  85:..\..\..\lvgl\version_6.1.2\lvgl\src\lv_themes/lv_theme_material.c ****     sb.body.main_color     = LV_COLOR_BLACK;
 216              		.loc 1 85 0
 217 014e FFF7FEFF 		bl	lv_style_copy
 218              	.LVL11:
 219              	.LBE156:
 220              	.LBE169:
 221              	.LBB170:
 222              	.LBB171:
 110:..\..\..\lvgl\version_6.1.2\lvgl\src\lv_themes/lv_theme_material.c ****     rel.body.main_color     = lv_color_hsv_to_rgb(_hue, 90, 70);
 223              		.loc 1 110 0
 224 0152 04F55070 		add	r0, r4, #832
 225              	.LBE171:
 226              	.LBE170:
 227              	.LBB176:
 228              	.LBB157:
  93:..\..\..\lvgl\version_6.1.2\lvgl\src\lv_themes/lv_theme_material.c ****     theme.style.panel = &panel;
 229              		.loc 1 93 0
 230 0156 009B     		ldr	r3, [sp]
 231 0158 2360     		str	r3, [r4]
  89:..\..\..\lvgl\version_6.1.2\lvgl\src\lv_themes/lv_theme_material.c ****     sb.body.padding.bottom = LV_DPI / 25;
 232              		.loc 1 89 0
 233 015a 4FF0060A 		mov	r10, #6
  94:..\..\..\lvgl\version_6.1.2\lvgl\src\lv_themes/lv_theme_material.c **** }
 234              		.loc 1 94 0
 235 015e A0F1A003 		sub	r3, r0, #160
  88:..\..\..\lvgl\version_6.1.2\lvgl\src\lv_themes/lv_theme_material.c ****     sb.body.padding.right  = LV_DPI / 25;
 236              		.loc 1 88 0
 237 0162 6622     		movs	r2, #102
 238              	.LBE157:
 239              	.LBE176:
 240              	.LBB177:
 241              	.LBB172:
 110:..\..\..\lvgl\version_6.1.2\lvgl\src\lv_themes/lv_theme_material.c ****     rel.body.main_color     = lv_color_hsv_to_rgb(_hue, 90, 70);
 242              		.loc 1 110 0
 243 0164 3146     		mov	r1, r6
 244              	.LBE172:
 245              	.LBE177:
 246              	.LBB178:
 247              	.LBB158:
  94:..\..\..\lvgl\version_6.1.2\lvgl\src\lv_themes/lv_theme_material.c **** }
 248              		.loc 1 94 0
 249 0166 A360     		str	r3, [r4, #8]
 250              	.LBE158:
 251              	.LBE178:
 252              	.LBB179:
 253              	.LBB180:
 101:..\..\..\lvgl\version_6.1.2\lvgl\src\lv_themes/lv_theme_material.c **** #endif
 254              		.loc 1 101 0
 255 0168 E360     		str	r3, [r4, #12]
 256              	.LBE180:
 257              	.LBE179:
 258              	.LBB181:
ARM GAS  C:\Users\pearlstl\AppData\Local\Temp\cc5dErme.s 			page 22


 259              	.LBB159:
  92:..\..\..\lvgl\version_6.1.2\lvgl\src\lv_themes/lv_theme_material.c ****     theme.style.scr   = &scr;
 260              		.loc 1 92 0
 261 016a C4F80490 		str	r9, [r4, #4]
  88:..\..\..\lvgl\version_6.1.2\lvgl\src\lv_themes/lv_theme_material.c ****     sb.body.padding.right  = LV_DPI / 25;
 262              		.loc 1 88 0
 263 016e 84F8FE22 		strb	r2, [r4, #766]
  89:..\..\..\lvgl\version_6.1.2\lvgl\src\lv_themes/lv_theme_material.c ****     sb.body.padding.bottom = LV_DPI / 25;
 264              		.loc 1 89 0
 265 0172 A4F816A3 		strh	r10, [r4, #790]	@ movhi
  90:..\..\..\lvgl\version_6.1.2\lvgl\src\lv_themes/lv_theme_material.c **** 
 266              		.loc 1 90 0
 267 0176 A4F812A3 		strh	r10, [r4, #786]	@ movhi
  86:..\..\..\lvgl\version_6.1.2\lvgl\src\lv_themes/lv_theme_material.c ****     sb.body.grad_color     = LV_COLOR_BLACK;
 268              		.loc 1 86 0
 269 017a 84F8F482 		strb	r8, [r4, #756]
 270 017e 84F8F582 		strb	r8, [r4, #757]
 271 0182 84F8F682 		strb	r8, [r4, #758]
 272 0186 84F8F7B2 		strb	fp, [r4, #759]
  87:..\..\..\lvgl\version_6.1.2\lvgl\src\lv_themes/lv_theme_material.c ****     sb.body.opa            = LV_OPA_40;
 273              		.loc 1 87 0
 274 018a 84F8F882 		strb	r8, [r4, #760]
 275 018e 84F8F982 		strb	r8, [r4, #761]
 276 0192 84F8FA82 		strb	r8, [r4, #762]
 277 0196 84F8FBB2 		strb	fp, [r4, #763]
 278              	.LBE159:
 279              	.LBE181:
 280              	.LBB182:
 281              	.LBB173:
 110:..\..\..\lvgl\version_6.1.2\lvgl\src\lv_themes/lv_theme_material.c ****     rel.body.main_color     = lv_color_hsv_to_rgb(_hue, 90, 70);
 282              		.loc 1 110 0
 283 019a FFF7FEFF 		bl	lv_style_copy
 284              	.LVL12:
 111:..\..\..\lvgl\version_6.1.2\lvgl\src\lv_themes/lv_theme_material.c ****     rel.body.grad_color     = rel.body.main_color;
 285              		.loc 1 111 0
 286 019e 4622     		movs	r2, #70
 287 01a0 5A21     		movs	r1, #90
 288 01a2 B4F8A801 		ldrh	r0, [r4, #424]
 289 01a6 FFF7FEFF 		bl	lv_color_hsv_to_rgb
 290              	.LVL13:
 113:..\..\..\lvgl\version_6.1.2\lvgl\src\lv_themes/lv_theme_material.c ****     rel.body.padding.left   = LV_DPI / 6;
 291              		.loc 1 113 0
 292 01aa 4FF00403 		mov	r3, #4	@ movhi
 293 01ae A4F84C33 		strh	r3, [r4, #844]	@ movhi
 116:..\..\..\lvgl\version_6.1.2\lvgl\src\lv_themes/lv_theme_material.c ****     rel.body.padding.bottom = LV_DPI / 8;
 294              		.loc 1 116 0
 295 01b2 4FF01203 		mov	r3, #18	@ movhi
 296 01b6 A4F86033 		strh	r3, [r4, #864]	@ movhi
 117:..\..\..\lvgl\version_6.1.2\lvgl\src\lv_themes/lv_theme_material.c ****     rel.body.padding.inner  = LV_DPI / 10;
 297              		.loc 1 117 0
 298 01ba A4F86233 		strh	r3, [r4, #866]	@ movhi
 119:..\..\..\lvgl\version_6.1.2\lvgl\src\lv_themes/lv_theme_material.c ****     rel.body.shadow.type    = LV_SHADOW_BOTTOM;
 299              		.loc 1 119 0
 300 01be 6FF05503 		mvn	r3, #85
 301 01c2 84F85833 		strb	r3, [r4, #856]
 302 01c6 84F85933 		strb	r3, [r4, #857]
 303 01ca 84F85A33 		strb	r3, [r4, #858]
ARM GAS  C:\Users\pearlstl\AppData\Local\Temp\cc5dErme.s 			page 23


 114:..\..\..\lvgl\version_6.1.2\lvgl\src\lv_themes/lv_theme_material.c ****     rel.body.padding.right  = LV_DPI / 6;
 304              		.loc 1 114 0
 305 01ce 4FF01903 		mov	r3, #25	@ movhi
 111:..\..\..\lvgl\version_6.1.2\lvgl\src\lv_themes/lv_theme_material.c ****     rel.body.grad_color     = rel.body.main_color;
 306              		.loc 1 111 0
 307 01d2 C4F84403 		str	r0, [r4, #836]
 112:..\..\..\lvgl\version_6.1.2\lvgl\src\lv_themes/lv_theme_material.c ****     rel.body.radius         = DEF_RADIUS;
 308              		.loc 1 112 0
 309 01d6 C4F84803 		str	r0, [r4, #840]
 114:..\..\..\lvgl\version_6.1.2\lvgl\src\lv_themes/lv_theme_material.c ****     rel.body.padding.right  = LV_DPI / 6;
 310              		.loc 1 114 0
 311 01da A4F86433 		strh	r3, [r4, #868]	@ movhi
 115:..\..\..\lvgl\version_6.1.2\lvgl\src\lv_themes/lv_theme_material.c ****     rel.body.padding.top    = LV_DPI / 8;
 312              		.loc 1 115 0
 313 01de A4F86633 		strh	r3, [r4, #870]	@ movhi
 122:..\..\..\lvgl\version_6.1.2\lvgl\src\lv_themes/lv_theme_material.c ****     rel.image.color         = lv_color_hsv_to_rgb(_hue, 5, 95);
 314              		.loc 1 122 0
 315 01e2 5F22     		movs	r2, #95
 118:..\..\..\lvgl\version_6.1.2\lvgl\src\lv_themes/lv_theme_material.c ****     rel.body.shadow.color   = DEF_SHADOW_COLOR;
 316              		.loc 1 118 0
 317 01e4 4FF00F03 		mov	r3, #15	@ movhi
 122:..\..\..\lvgl\version_6.1.2\lvgl\src\lv_themes/lv_theme_material.c ****     rel.image.color         = lv_color_hsv_to_rgb(_hue, 5, 95);
 318              		.loc 1 122 0
 319 01e8 0521     		movs	r1, #5
 320 01ea B4F8A801 		ldrh	r0, [r4, #424]
 118:..\..\..\lvgl\version_6.1.2\lvgl\src\lv_themes/lv_theme_material.c ****     rel.body.shadow.color   = DEF_SHADOW_COLOR;
 321              		.loc 1 118 0
 322 01ee A4F86833 		strh	r3, [r4, #872]	@ movhi
 121:..\..\..\lvgl\version_6.1.2\lvgl\src\lv_themes/lv_theme_material.c ****     rel.text.color          = lv_color_hsv_to_rgb(_hue, 5, 95);
 323              		.loc 1 121 0
 324 01f2 A4F85CA3 		strh	r10, [r4, #860]	@ movhi
 119:..\..\..\lvgl\version_6.1.2\lvgl\src\lv_themes/lv_theme_material.c ****     rel.body.shadow.type    = LV_SHADOW_BOTTOM;
 325              		.loc 1 119 0
 326 01f6 84F85BB3 		strb	fp, [r4, #859]
 120:..\..\..\lvgl\version_6.1.2\lvgl\src\lv_themes/lv_theme_material.c ****     rel.body.shadow.width   = 6;
 327              		.loc 1 120 0
 328 01fa 84F85E83 		strb	r8, [r4, #862]
 122:..\..\..\lvgl\version_6.1.2\lvgl\src\lv_themes/lv_theme_material.c ****     rel.image.color         = lv_color_hsv_to_rgb(_hue, 5, 95);
 329              		.loc 1 122 0
 330 01fe FFF7FEFF 		bl	lv_color_hsv_to_rgb
 331              	.LVL14:
 123:..\..\..\lvgl\version_6.1.2\lvgl\src\lv_themes/lv_theme_material.c **** 
 332              		.loc 1 123 0
 333 0202 5F22     		movs	r2, #95
 122:..\..\..\lvgl\version_6.1.2\lvgl\src\lv_themes/lv_theme_material.c ****     rel.image.color         = lv_color_hsv_to_rgb(_hue, 5, 95);
 334              		.loc 1 122 0
 335 0204 C4F86C03 		str	r0, [r4, #876]
 123:..\..\..\lvgl\version_6.1.2\lvgl\src\lv_themes/lv_theme_material.c **** 
 336              		.loc 1 123 0
 337 0208 0521     		movs	r1, #5
 338 020a B4F8A801 		ldrh	r0, [r4, #424]
 339 020e FFF7FEFF 		bl	lv_color_hsv_to_rgb
 340              	.LVL15:
 125:..\..\..\lvgl\version_6.1.2\lvgl\src\lv_themes/lv_theme_material.c ****     pr.body.main_color   = lv_color_hsv_to_rgb(_hue, 90, 60);
 341              		.loc 1 125 0
 342 0212 04F55071 		add	r1, r4, #832
 123:..\..\..\lvgl\version_6.1.2\lvgl\src\lv_themes/lv_theme_material.c **** 
ARM GAS  C:\Users\pearlstl\AppData\Local\Temp\cc5dErme.s 			page 24


 343              		.loc 1 123 0
 344 0216 C4F88003 		str	r0, [r4, #896]
 125:..\..\..\lvgl\version_6.1.2\lvgl\src\lv_themes/lv_theme_material.c ****     pr.body.main_color   = lv_color_hsv_to_rgb(_hue, 90, 60);
 345              		.loc 1 125 0
 346 021a 01F15000 		add	r0, r1, #80
 347 021e FFF7FEFF 		bl	lv_style_copy
 348              	.LVL16:
 126:..\..\..\lvgl\version_6.1.2\lvgl\src\lv_themes/lv_theme_material.c ****     pr.body.grad_color   = pr.body.main_color;
 349              		.loc 1 126 0
 350 0222 3C22     		movs	r2, #60
 351 0224 5A21     		movs	r1, #90
 352 0226 B4F8A801 		ldrh	r0, [r4, #424]
 353 022a FFF7FEFF 		bl	lv_color_hsv_to_rgb
 354              	.LVL17:
 130:..\..\..\lvgl\version_6.1.2\lvgl\src\lv_themes/lv_theme_material.c ****     tgl_rel.body.main_color   = lv_color_hsv_to_rgb(_hue, 95, 50);
 355              		.loc 1 130 0
 356 022e 04F5787A 		add	r10, r4, #992
 128:..\..\..\lvgl\version_6.1.2\lvgl\src\lv_themes/lv_theme_material.c **** 
 357              		.loc 1 128 0
 358 0232 4FF00403 		mov	r3, #4	@ movhi
 126:..\..\..\lvgl\version_6.1.2\lvgl\src\lv_themes/lv_theme_material.c ****     pr.body.grad_color   = pr.body.main_color;
 359              		.loc 1 126 0
 360 0236 C4F89403 		str	r0, [r4, #916]
 127:..\..\..\lvgl\version_6.1.2\lvgl\src\lv_themes/lv_theme_material.c ****     pr.body.shadow.width = 4;
 361              		.loc 1 127 0
 362 023a C4F89803 		str	r0, [r4, #920]
 130:..\..\..\lvgl\version_6.1.2\lvgl\src\lv_themes/lv_theme_material.c ****     tgl_rel.body.main_color   = lv_color_hsv_to_rgb(_hue, 95, 50);
 363              		.loc 1 130 0
 364 023e 04F55071 		add	r1, r4, #832
 365 0242 5046     		mov	r0, r10
 128:..\..\..\lvgl\version_6.1.2\lvgl\src\lv_themes/lv_theme_material.c **** 
 366              		.loc 1 128 0
 367 0244 A4F8AC33 		strh	r3, [r4, #940]	@ movhi
 130:..\..\..\lvgl\version_6.1.2\lvgl\src\lv_themes/lv_theme_material.c ****     tgl_rel.body.main_color   = lv_color_hsv_to_rgb(_hue, 95, 50);
 368              		.loc 1 130 0
 369 0248 FFF7FEFF 		bl	lv_style_copy
 370              	.LVL18:
 131:..\..\..\lvgl\version_6.1.2\lvgl\src\lv_themes/lv_theme_material.c ****     tgl_rel.body.grad_color   = tgl_rel.body.main_color;
 371              		.loc 1 131 0
 372 024c 3222     		movs	r2, #50
 373 024e 5F21     		movs	r1, #95
 374 0250 B4F8A801 		ldrh	r0, [r4, #424]
 375 0254 FFF7FEFF 		bl	lv_color_hsv_to_rgb
 376              	.LVL19:
 135:..\..\..\lvgl\version_6.1.2\lvgl\src\lv_themes/lv_theme_material.c ****     tgl_pr.body.main_color   = lv_color_hsv_to_rgb(_hue, 95, 40);
 377              		.loc 1 135 0
 378 0258 04F58663 		add	r3, r4, #1072
 131:..\..\..\lvgl\version_6.1.2\lvgl\src\lv_themes/lv_theme_material.c ****     tgl_rel.body.grad_color   = tgl_rel.body.main_color;
 379              		.loc 1 131 0
 380 025c C4F8E403 		str	r0, [r4, #996]
 132:..\..\..\lvgl\version_6.1.2\lvgl\src\lv_themes/lv_theme_material.c ****     tgl_rel.body.shadow.width = 4;
 381              		.loc 1 132 0
 382 0260 C4F8E803 		str	r0, [r4, #1000]
 135:..\..\..\lvgl\version_6.1.2\lvgl\src\lv_themes/lv_theme_material.c ****     tgl_pr.body.main_color   = lv_color_hsv_to_rgb(_hue, 95, 40);
 383              		.loc 1 135 0
 384 0264 5146     		mov	r1, r10
 385 0266 1846     		mov	r0, r3
ARM GAS  C:\Users\pearlstl\AppData\Local\Temp\cc5dErme.s 			page 25


 386 0268 0093     		str	r3, [sp]
 133:..\..\..\lvgl\version_6.1.2\lvgl\src\lv_themes/lv_theme_material.c **** 
 387              		.loc 1 133 0
 388 026a 4FF00403 		mov	r3, #4	@ movhi
 389 026e A4F8FC33 		strh	r3, [r4, #1020]	@ movhi
 135:..\..\..\lvgl\version_6.1.2\lvgl\src\lv_themes/lv_theme_material.c ****     tgl_pr.body.main_color   = lv_color_hsv_to_rgb(_hue, 95, 40);
 390              		.loc 1 135 0
 391 0272 FFF7FEFF 		bl	lv_style_copy
 392              	.LVL20:
 136:..\..\..\lvgl\version_6.1.2\lvgl\src\lv_themes/lv_theme_material.c ****     tgl_pr.body.grad_color   = tgl_pr.body.main_color;
 393              		.loc 1 136 0
 394 0276 2822     		movs	r2, #40
 395 0278 5F21     		movs	r1, #95
 396 027a B4F8A801 		ldrh	r0, [r4, #424]
 397 027e FFF7FEFF 		bl	lv_color_hsv_to_rgb
 398              	.LVL21:
 140:..\..\..\lvgl\version_6.1.2\lvgl\src\lv_themes/lv_theme_material.c ****     ina.body.main_color   = lv_color_hex3(0xccc);
 399              		.loc 1 140 0
 400 0282 04F55071 		add	r1, r4, #832
 136:..\..\..\lvgl\version_6.1.2\lvgl\src\lv_themes/lv_theme_material.c ****     tgl_pr.body.grad_color   = tgl_pr.body.main_color;
 401              		.loc 1 136 0
 402 0286 C4F83404 		str	r0, [r4, #1076]
 137:..\..\..\lvgl\version_6.1.2\lvgl\src\lv_themes/lv_theme_material.c ****     tgl_pr.body.shadow.width = 2;
 403              		.loc 1 137 0
 404 028a C4F83804 		str	r0, [r4, #1080]
 138:..\..\..\lvgl\version_6.1.2\lvgl\src\lv_themes/lv_theme_material.c **** 
 405              		.loc 1 138 0
 406 028e 4FF00203 		mov	r3, #2	@ movhi
 140:..\..\..\lvgl\version_6.1.2\lvgl\src\lv_themes/lv_theme_material.c ****     ina.body.main_color   = lv_color_hex3(0xccc);
 407              		.loc 1 140 0
 408 0292 01F5A070 		add	r0, r1, #320
 138:..\..\..\lvgl\version_6.1.2\lvgl\src\lv_themes/lv_theme_material.c **** 
 409              		.loc 1 138 0
 410 0296 A4F84C34 		strh	r3, [r4, #1100]	@ movhi
 140:..\..\..\lvgl\version_6.1.2\lvgl\src\lv_themes/lv_theme_material.c ****     ina.body.main_color   = lv_color_hex3(0xccc);
 411              		.loc 1 140 0
 412 029a FFF7FEFF 		bl	lv_style_copy
 413              	.LVL22:
 141:..\..\..\lvgl\version_6.1.2\lvgl\src\lv_themes/lv_theme_material.c ****     ina.body.grad_color   = ina.body.main_color;
 414              		.loc 1 141 0
 415 029e 6FF03303 		mvn	r3, #51
 416 02a2 84F887B4 		strb	fp, [r4, #1159]
 417 02a6 84F88434 		strb	r3, [r4, #1156]
 418 02aa 84F88534 		strb	r3, [r4, #1157]
 419 02ae 84F88634 		strb	r3, [r4, #1158]
 142:..\..\..\lvgl\version_6.1.2\lvgl\src\lv_themes/lv_theme_material.c ****     ina.body.shadow.width = 0;
 420              		.loc 1 142 0
 421 02b2 D4F88434 		ldr	r3, [r4, #1156]
 144:..\..\..\lvgl\version_6.1.2\lvgl\src\lv_themes/lv_theme_material.c ****     ina.image.color       = lv_color_hsv_to_rgb(_hue, 95, 5);
 422              		.loc 1 144 0
 423 02b6 B4F8A801 		ldrh	r0, [r4, #424]
 142:..\..\..\lvgl\version_6.1.2\lvgl\src\lv_themes/lv_theme_material.c ****     ina.body.shadow.width = 0;
 424              		.loc 1 142 0
 425 02ba C4F88834 		str	r3, [r4, #1160]
 144:..\..\..\lvgl\version_6.1.2\lvgl\src\lv_themes/lv_theme_material.c ****     ina.image.color       = lv_color_hsv_to_rgb(_hue, 95, 5);
 426              		.loc 1 144 0
 427 02be 0522     		movs	r2, #5
ARM GAS  C:\Users\pearlstl\AppData\Local\Temp\cc5dErme.s 			page 26


 428 02c0 5F21     		movs	r1, #95
 143:..\..\..\lvgl\version_6.1.2\lvgl\src\lv_themes/lv_theme_material.c ****     ina.text.color        = lv_color_hsv_to_rgb(_hue, 95, 5);
 429              		.loc 1 143 0
 430 02c2 A4F89C84 		strh	r8, [r4, #1180]	@ movhi
 144:..\..\..\lvgl\version_6.1.2\lvgl\src\lv_themes/lv_theme_material.c ****     ina.image.color       = lv_color_hsv_to_rgb(_hue, 95, 5);
 431              		.loc 1 144 0
 432 02c6 FFF7FEFF 		bl	lv_color_hsv_to_rgb
 433              	.LVL23:
 434              	.LBE173:
 435              	.LBE182:
 436              	.LBB183:
 437              	.LBB184:
 160:..\..\..\lvgl\version_6.1.2\lvgl\src\lv_themes/lv_theme_material.c ****     prim.text.font  = _font;
 438              		.loc 1 160 0
 439 02ca 04F59A69 		add	r9, r4, #1232
 440              	.LBE184:
 441              	.LBE183:
 442              	.LBB188:
 443              	.LBB174:
 145:..\..\..\lvgl\version_6.1.2\lvgl\src\lv_themes/lv_theme_material.c **** 
 444              		.loc 1 145 0
 445 02ce 0522     		movs	r2, #5
 144:..\..\..\lvgl\version_6.1.2\lvgl\src\lv_themes/lv_theme_material.c ****     ina.image.color       = lv_color_hsv_to_rgb(_hue, 95, 5);
 446              		.loc 1 144 0
 447 02d0 C4F8AC04 		str	r0, [r4, #1196]
 145:..\..\..\lvgl\version_6.1.2\lvgl\src\lv_themes/lv_theme_material.c **** 
 448              		.loc 1 145 0
 449 02d4 5F21     		movs	r1, #95
 450 02d6 B4F8A801 		ldrh	r0, [r4, #424]
 451 02da FFF7FEFF 		bl	lv_color_hsv_to_rgb
 452              	.LVL24:
 148:..\..\..\lvgl\version_6.1.2\lvgl\src\lv_themes/lv_theme_material.c ****     theme.style.btn.tgl_rel = &tgl_rel;
 453              		.loc 1 148 0
 454 02de A9F5A073 		sub	r3, r9, #320
 455 02e2 6361     		str	r3, [r4, #20]
 147:..\..\..\lvgl\version_6.1.2\lvgl\src\lv_themes/lv_theme_material.c ****     theme.style.btn.pr      = &pr;
 456              		.loc 1 147 0
 457 02e4 A9F5C873 		sub	r3, r9, #400
 458 02e8 2361     		str	r3, [r4, #16]
 150:..\..\..\lvgl\version_6.1.2\lvgl\src\lv_themes/lv_theme_material.c ****     theme.style.btn.ina     = &ina;
 459              		.loc 1 150 0
 460 02ea 009B     		ldr	r3, [sp]
 145:..\..\..\lvgl\version_6.1.2\lvgl\src\lv_themes/lv_theme_material.c **** 
 461              		.loc 1 145 0
 462 02ec C4F8C004 		str	r0, [r4, #1216]
 463              	.LBE174:
 464              	.LBE188:
 465              	.LBB189:
 466              	.LBB185:
 160:..\..\..\lvgl\version_6.1.2\lvgl\src\lv_themes/lv_theme_material.c ****     prim.text.font  = _font;
 467              		.loc 1 160 0
 468 02f0 3146     		mov	r1, r6
 469 02f2 4846     		mov	r0, r9
 470              	.LBE185:
 471              	.LBE189:
 472              	.LBB190:
 473              	.LBB175:
ARM GAS  C:\Users\pearlstl\AppData\Local\Temp\cc5dErme.s 			page 27


 150:..\..\..\lvgl\version_6.1.2\lvgl\src\lv_themes/lv_theme_material.c ****     theme.style.btn.ina     = &ina;
 474              		.loc 1 150 0
 475 02f4 E361     		str	r3, [r4, #28]
 151:..\..\..\lvgl\version_6.1.2\lvgl\src\lv_themes/lv_theme_material.c **** #endif
 476              		.loc 1 151 0
 477 02f6 A9F15003 		sub	r3, r9, #80
 149:..\..\..\lvgl\version_6.1.2\lvgl\src\lv_themes/lv_theme_material.c ****     theme.style.btn.tgl_pr  = &tgl_pr;
 478              		.loc 1 149 0
 479 02fa C4F818A0 		str	r10, [r4, #24]
 151:..\..\..\lvgl\version_6.1.2\lvgl\src\lv_themes/lv_theme_material.c **** #endif
 480              		.loc 1 151 0
 481 02fe 2362     		str	r3, [r4, #32]
 482              	.LBE175:
 483              	.LBE190:
 484              	.LBB191:
 485              	.LBB186:
 160:..\..\..\lvgl\version_6.1.2\lvgl\src\lv_themes/lv_theme_material.c ****     prim.text.font  = _font;
 486              		.loc 1 160 0
 487 0300 FFF7FEFF 		bl	lv_style_copy
 488              	.LVL25:
 161:..\..\..\lvgl\version_6.1.2\lvgl\src\lv_themes/lv_theme_material.c ****     prim.text.color = lv_color_hsv_to_rgb(_hue, 80, 10);
 489              		.loc 1 161 0
 490 0304 D4F8AC31 		ldr	r3, [r4, #428]
 162:..\..\..\lvgl\version_6.1.2\lvgl\src\lv_themes/lv_theme_material.c **** 
 491              		.loc 1 162 0
 492 0308 B4F8A801 		ldrh	r0, [r4, #424]
 161:..\..\..\lvgl\version_6.1.2\lvgl\src\lv_themes/lv_theme_material.c ****     prim.text.color = lv_color_hsv_to_rgb(_hue, 80, 10);
 493              		.loc 1 161 0
 494 030c C4F80435 		str	r3, [r4, #1284]
 162:..\..\..\lvgl\version_6.1.2\lvgl\src\lv_themes/lv_theme_material.c **** 
 495              		.loc 1 162 0
 496 0310 0A22     		movs	r2, #10
 497 0312 5021     		movs	r1, #80
 498 0314 FFF7FEFF 		bl	lv_color_hsv_to_rgb
 499              	.LVL26:
 164:..\..\..\lvgl\version_6.1.2\lvgl\src\lv_themes/lv_theme_material.c ****     sec.text.color = lv_color_hsv_to_rgb(_hue, 80, 75);
 500              		.loc 1 164 0
 501 0318 04F5A463 		add	r3, r4, #1312
 162:..\..\..\lvgl\version_6.1.2\lvgl\src\lv_themes/lv_theme_material.c **** 
 502              		.loc 1 162 0
 503 031c C4F8FC04 		str	r0, [r4, #1276]
 164:..\..\..\lvgl\version_6.1.2\lvgl\src\lv_themes/lv_theme_material.c ****     sec.text.color = lv_color_hsv_to_rgb(_hue, 80, 75);
 504              		.loc 1 164 0
 505 0320 4946     		mov	r1, r9
 506 0322 1846     		mov	r0, r3
 507 0324 0093     		str	r3, [sp]
 508 0326 FFF7FEFF 		bl	lv_style_copy
 509              	.LVL27:
 165:..\..\..\lvgl\version_6.1.2\lvgl\src\lv_themes/lv_theme_material.c **** 
 510              		.loc 1 165 0
 511 032a 4B22     		movs	r2, #75
 512 032c 5021     		movs	r1, #80
 513 032e B4F8A801 		ldrh	r0, [r4, #424]
 514 0332 FFF7FEFF 		bl	lv_color_hsv_to_rgb
 515              	.LVL28:
 167:..\..\..\lvgl\version_6.1.2\lvgl\src\lv_themes/lv_theme_material.c ****     hint.text.color = lv_color_hsv_to_rgb(_hue, 40, 90);
 516              		.loc 1 167 0
ARM GAS  C:\Users\pearlstl\AppData\Local\Temp\cc5dErme.s 			page 28


 517 0336 04F5AE6A 		add	r10, r4, #1392
 165:..\..\..\lvgl\version_6.1.2\lvgl\src\lv_themes/lv_theme_material.c **** 
 518              		.loc 1 165 0
 519 033a C4F84C05 		str	r0, [r4, #1356]
 167:..\..\..\lvgl\version_6.1.2\lvgl\src\lv_themes/lv_theme_material.c ****     hint.text.color = lv_color_hsv_to_rgb(_hue, 40, 90);
 520              		.loc 1 167 0
 521 033e 4946     		mov	r1, r9
 522 0340 5046     		mov	r0, r10
 523 0342 FFF7FEFF 		bl	lv_style_copy
 524              	.LVL29:
 168:..\..\..\lvgl\version_6.1.2\lvgl\src\lv_themes/lv_theme_material.c **** 
 525              		.loc 1 168 0
 526 0346 5A22     		movs	r2, #90
 527 0348 2821     		movs	r1, #40
 528 034a B4F8A801 		ldrh	r0, [r4, #424]
 529 034e FFF7FEFF 		bl	lv_color_hsv_to_rgb
 530              	.LVL30:
 171:..\..\..\lvgl\version_6.1.2\lvgl\src\lv_themes/lv_theme_material.c ****     theme.style.label.hint = &hint;
 531              		.loc 1 171 0
 532 0352 009B     		ldr	r3, [sp]
 168:..\..\..\lvgl\version_6.1.2\lvgl\src\lv_themes/lv_theme_material.c **** 
 533              		.loc 1 168 0
 534 0354 C4F89C05 		str	r0, [r4, #1436]
 535              	.LBE186:
 536              	.LBE191:
 537              	.LBB192:
 538              	.LBB193:
 180:..\..\..\lvgl\version_6.1.2\lvgl\src\lv_themes/lv_theme_material.c ****     img_light.image.color   = lv_color_hsv_to_rgb(_hue, 15, 85);
 539              		.loc 1 180 0
 540 0358 3146     		mov	r1, r6
 541 035a 04F5B860 		add	r0, r4, #1472
 542              	.LBE193:
 543              	.LBE192:
 544              	.LBB197:
 545              	.LBB187:
 171:..\..\..\lvgl\version_6.1.2\lvgl\src\lv_themes/lv_theme_material.c ****     theme.style.label.hint = &hint;
 546              		.loc 1 171 0
 547 035e E363     		str	r3, [r4, #60]
 170:..\..\..\lvgl\version_6.1.2\lvgl\src\lv_themes/lv_theme_material.c ****     theme.style.label.sec  = &sec;
 548              		.loc 1 170 0
 549 0360 C4F83890 		str	r9, [r4, #56]
 172:..\..\..\lvgl\version_6.1.2\lvgl\src\lv_themes/lv_theme_material.c **** #endif
 550              		.loc 1 172 0
 551 0364 C4F840A0 		str	r10, [r4, #64]
 552              	.LBE187:
 553              	.LBE197:
 554              	.LBB198:
 555              	.LBB194:
 180:..\..\..\lvgl\version_6.1.2\lvgl\src\lv_themes/lv_theme_material.c ****     img_light.image.color   = lv_color_hsv_to_rgb(_hue, 15, 85);
 556              		.loc 1 180 0
 557 0368 FFF7FEFF 		bl	lv_style_copy
 558              	.LVL31:
 181:..\..\..\lvgl\version_6.1.2\lvgl\src\lv_themes/lv_theme_material.c ****     img_light.image.intense = LV_OPA_80;
 559              		.loc 1 181 0
 560 036c 5522     		movs	r2, #85
 561 036e 0F21     		movs	r1, #15
 562 0370 B4F8A801 		ldrh	r0, [r4, #424]
ARM GAS  C:\Users\pearlstl\AppData\Local\Temp\cc5dErme.s 			page 29


 563 0374 FFF7FEFF 		bl	lv_color_hsv_to_rgb
 564              	.LVL32:
 182:..\..\..\lvgl\version_6.1.2\lvgl\src\lv_themes/lv_theme_material.c **** 
 565              		.loc 1 182 0
 566 0378 6FF03303 		mvn	r3, #51
 184:..\..\..\lvgl\version_6.1.2\lvgl\src\lv_themes/lv_theme_material.c ****     img_light.image.color   = lv_color_hsv_to_rgb(_hue, 85, 65);
 567              		.loc 1 184 0
 568 037c 3146     		mov	r1, r6
 181:..\..\..\lvgl\version_6.1.2\lvgl\src\lv_themes/lv_theme_material.c ****     img_light.image.intense = LV_OPA_80;
 569              		.loc 1 181 0
 570 037e C4F80006 		str	r0, [r4, #1536]
 184:..\..\..\lvgl\version_6.1.2\lvgl\src\lv_themes/lv_theme_material.c ****     img_light.image.color   = lv_color_hsv_to_rgb(_hue, 85, 65);
 571              		.loc 1 184 0
 572 0382 04F5C260 		add	r0, r4, #1552
 182:..\..\..\lvgl\version_6.1.2\lvgl\src\lv_themes/lv_theme_material.c **** 
 573              		.loc 1 182 0
 574 0386 84F80436 		strb	r3, [r4, #1540]
 184:..\..\..\lvgl\version_6.1.2\lvgl\src\lv_themes/lv_theme_material.c ****     img_light.image.color   = lv_color_hsv_to_rgb(_hue, 85, 65);
 575              		.loc 1 184 0
 576 038a FFF7FEFF 		bl	lv_style_copy
 577              	.LVL33:
 185:..\..\..\lvgl\version_6.1.2\lvgl\src\lv_themes/lv_theme_material.c ****     img_light.image.intense = LV_OPA_80;
 578              		.loc 1 185 0
 579 038e 4122     		movs	r2, #65
 580 0390 5521     		movs	r1, #85
 581 0392 B4F8A801 		ldrh	r0, [r4, #424]
 582 0396 FFF7FEFF 		bl	lv_color_hsv_to_rgb
 583              	.LVL34:
 584              	.LBE194:
 585              	.LBE198:
 586              	.LBB199:
 587              	.LBB200:
 205:..\..\..\lvgl\version_6.1.2\lvgl\src\lv_themes/lv_theme_material.c ****     led.body.shadow.width = LV_DPI / 10;
 588              		.loc 1 205 0
 589 039a 04F5CC6A 		add	r10, r4, #1632
 590              	.LBE200:
 591              	.LBE199:
 592              	.LBB205:
 593              	.LBB195:
 185:..\..\..\lvgl\version_6.1.2\lvgl\src\lv_themes/lv_theme_material.c ****     img_light.image.intense = LV_OPA_80;
 594              		.loc 1 185 0
 595 039e C4F80006 		str	r0, [r4, #1536]
 596              	.LBE195:
 597              	.LBE205:
 598              	.LBB206:
 599              	.LBB201:
 205:..\..\..\lvgl\version_6.1.2\lvgl\src\lv_themes/lv_theme_material.c ****     led.body.shadow.width = LV_DPI / 10;
 600              		.loc 1 205 0
 601 03a2 3146     		mov	r1, r6
 602 03a4 5046     		mov	r0, r10
 603              	.LBE201:
 604              	.LBE206:
 605              	.LBB207:
 606              	.LBB196:
 186:..\..\..\lvgl\version_6.1.2\lvgl\src\lv_themes/lv_theme_material.c **** 
 607              		.loc 1 186 0
 608 03a6 6FF03303 		mvn	r3, #51
ARM GAS  C:\Users\pearlstl\AppData\Local\Temp\cc5dErme.s 			page 30


 609 03aa 84F80436 		strb	r3, [r4, #1540]
 188:..\..\..\lvgl\version_6.1.2\lvgl\src\lv_themes/lv_theme_material.c ****     theme.style.img.dark  = &def;
 610              		.loc 1 188 0
 611 03ae 6664     		str	r6, [r4, #68]
 189:..\..\..\lvgl\version_6.1.2\lvgl\src\lv_themes/lv_theme_material.c **** #endif
 612              		.loc 1 189 0
 613 03b0 A664     		str	r6, [r4, #72]
 614              	.LBE196:
 615              	.LBE207:
 616              	.LBB208:
 617              	.LBB209:
 197:..\..\..\lvgl\version_6.1.2\lvgl\src\lv_themes/lv_theme_material.c **** #endif
 618              		.loc 1 197 0
 619 03b2 E664     		str	r6, [r4, #76]
 620              	.LBE209:
 621              	.LBE208:
 622              	.LBB210:
 623              	.LBB202:
 205:..\..\..\lvgl\version_6.1.2\lvgl\src\lv_themes/lv_theme_material.c ****     led.body.shadow.width = LV_DPI / 10;
 624              		.loc 1 205 0
 625 03b4 FFF7FEFF 		bl	lv_style_copy
 626              	.LVL35:
 206:..\..\..\lvgl\version_6.1.2\lvgl\src\lv_themes/lv_theme_material.c ****     led.body.radius       = LV_RADIUS_CIRCLE;
 627              		.loc 1 206 0
 628 03b8 4FF00F0E 		mov	lr, #15	@ movhi
 210:..\..\..\lvgl\version_6.1.2\lvgl\src\lv_themes/lv_theme_material.c ****     led.body.grad_color   = lv_color_hsv_to_rgb(_hue, 100, 100);
 629              		.loc 1 210 0
 630 03bc 6422     		movs	r2, #100
 206:..\..\..\lvgl\version_6.1.2\lvgl\src\lv_themes/lv_theme_material.c ****     led.body.radius       = LV_RADIUS_CIRCLE;
 631              		.loc 1 206 0
 632 03be A4F87CE6 		strh	lr, [r4, #1660]	@ movhi
 207:..\..\..\lvgl\version_6.1.2\lvgl\src\lv_themes/lv_theme_material.c ****     led.body.border.width = LV_DPI / 30;
 633              		.loc 1 207 0
 634 03c2 47F6184E 		movw	lr, 31768	@ movhi
 209:..\..\..\lvgl\version_6.1.2\lvgl\src\lv_themes/lv_theme_material.c ****     led.body.main_color   = lv_color_hsv_to_rgb(_hue, 100, 100);
 635              		.loc 1 209 0
 636 03c6 4C23     		movs	r3, #76
 637 03c8 08E0     		b	.L8
 638              	.L9:
 639 03ca 00BF     		.align	2
 640              	.L7:
 641 03cc 00000000 		.word	lv_font_roboto_16
 642 03d0 00000000 		.word	.LANCHOR0
 643 03d4 00000000 		.word	lv_style_plain
 644 03d8 F8100000 		.word	.LANCHOR1
 645              	.L8:
 210:..\..\..\lvgl\version_6.1.2\lvgl\src\lv_themes/lv_theme_material.c ****     led.body.grad_color   = lv_color_hsv_to_rgb(_hue, 100, 100);
 646              		.loc 1 210 0
 647 03dc 1146     		mov	r1, r2
 207:..\..\..\lvgl\version_6.1.2\lvgl\src\lv_themes/lv_theme_material.c ****     led.body.border.width = LV_DPI / 30;
 648              		.loc 1 207 0
 649 03de A4F86CE6 		strh	lr, [r4, #1644]	@ movhi
 210:..\..\..\lvgl\version_6.1.2\lvgl\src\lv_themes/lv_theme_material.c ****     led.body.grad_color   = lv_color_hsv_to_rgb(_hue, 100, 100);
 650              		.loc 1 210 0
 651 03e2 B4F8A801 		ldrh	r0, [r4, #424]
 209:..\..\..\lvgl\version_6.1.2\lvgl\src\lv_themes/lv_theme_material.c ****     led.body.main_color   = lv_color_hsv_to_rgb(_hue, 100, 100);
 652              		.loc 1 209 0
ARM GAS  C:\Users\pearlstl\AppData\Local\Temp\cc5dErme.s 			page 31


 653 03e6 84F87736 		strb	r3, [r4, #1655]
 208:..\..\..\lvgl\version_6.1.2\lvgl\src\lv_themes/lv_theme_material.c ****     led.body.border.opa   = LV_OPA_30;
 654              		.loc 1 208 0
 655 03ea 4FF0050E 		mov	lr, #5	@ movhi
 656 03ee A4F874E6 		strh	lr, [r4, #1652]	@ movhi
 210:..\..\..\lvgl\version_6.1.2\lvgl\src\lv_themes/lv_theme_material.c ****     led.body.grad_color   = lv_color_hsv_to_rgb(_hue, 100, 100);
 657              		.loc 1 210 0
 658 03f2 FFF7FEFF 		bl	lv_color_hsv_to_rgb
 659              	.LVL36:
 211:..\..\..\lvgl\version_6.1.2\lvgl\src\lv_themes/lv_theme_material.c ****     led.body.border.color = lv_color_hsv_to_rgb(_hue, 60, 60);
 660              		.loc 1 211 0
 661 03f6 6422     		movs	r2, #100
 210:..\..\..\lvgl\version_6.1.2\lvgl\src\lv_themes/lv_theme_material.c ****     led.body.grad_color   = lv_color_hsv_to_rgb(_hue, 100, 100);
 662              		.loc 1 210 0
 663 03f8 C4F86406 		str	r0, [r4, #1636]
 211:..\..\..\lvgl\version_6.1.2\lvgl\src\lv_themes/lv_theme_material.c ****     led.body.border.color = lv_color_hsv_to_rgb(_hue, 60, 60);
 664              		.loc 1 211 0
 665 03fc 1146     		mov	r1, r2
 666 03fe B4F8A801 		ldrh	r0, [r4, #424]
 667 0402 FFF7FEFF 		bl	lv_color_hsv_to_rgb
 668              	.LVL37:
 212:..\..\..\lvgl\version_6.1.2\lvgl\src\lv_themes/lv_theme_material.c ****     led.body.shadow.color = lv_color_hsv_to_rgb(_hue, 100, 100);
 669              		.loc 1 212 0
 670 0406 3C22     		movs	r2, #60
 211:..\..\..\lvgl\version_6.1.2\lvgl\src\lv_themes/lv_theme_material.c ****     led.body.border.color = lv_color_hsv_to_rgb(_hue, 60, 60);
 671              		.loc 1 211 0
 672 0408 C4F86806 		str	r0, [r4, #1640]
 212:..\..\..\lvgl\version_6.1.2\lvgl\src\lv_themes/lv_theme_material.c ****     led.body.shadow.color = lv_color_hsv_to_rgb(_hue, 100, 100);
 673              		.loc 1 212 0
 674 040c 1146     		mov	r1, r2
 675 040e B4F8A801 		ldrh	r0, [r4, #424]
 676 0412 FFF7FEFF 		bl	lv_color_hsv_to_rgb
 677              	.LVL38:
 213:..\..\..\lvgl\version_6.1.2\lvgl\src\lv_themes/lv_theme_material.c **** 
 678              		.loc 1 213 0
 679 0416 6422     		movs	r2, #100
 680 0418 1146     		mov	r1, r2
 212:..\..\..\lvgl\version_6.1.2\lvgl\src\lv_themes/lv_theme_material.c ****     led.body.shadow.color = lv_color_hsv_to_rgb(_hue, 100, 100);
 681              		.loc 1 212 0
 682 041a C4F87006 		str	r0, [r4, #1648]
 213:..\..\..\lvgl\version_6.1.2\lvgl\src\lv_themes/lv_theme_material.c **** 
 683              		.loc 1 213 0
 684 041e B4F8A801 		ldrh	r0, [r4, #424]
 685 0422 FFF7FEFF 		bl	lv_color_hsv_to_rgb
 686              	.LVL39:
 687              	.LBE202:
 688              	.LBE210:
 689              	.LBB211:
 690              	.LBB212:
 224:..\..\..\lvgl\version_6.1.2\lvgl\src\lv_themes/lv_theme_material.c ****     bar_bg.body.main_color     = lv_color_hsv_to_rgb(_hue, 15, 95);
 691              		.loc 1 224 0
 692 0426 04F5D669 		add	r9, r4, #1712
 693              	.LBE212:
 694              	.LBE211:
 695              	.LBB217:
 696              	.LBB203:
 213:..\..\..\lvgl\version_6.1.2\lvgl\src\lv_themes/lv_theme_material.c **** 
ARM GAS  C:\Users\pearlstl\AppData\Local\Temp\cc5dErme.s 			page 32


 697              		.loc 1 213 0
 698 042a C4F87806 		str	r0, [r4, #1656]
 699              	.LBE203:
 700              	.LBE217:
 701              	.LBB218:
 702              	.LBB213:
 224:..\..\..\lvgl\version_6.1.2\lvgl\src\lv_themes/lv_theme_material.c ****     bar_bg.body.main_color     = lv_color_hsv_to_rgb(_hue, 15, 95);
 703              		.loc 1 224 0
 704 042e 3146     		mov	r1, r6
 705 0430 4846     		mov	r0, r9
 706              	.LBE213:
 707              	.LBE218:
 708              	.LBB219:
 709              	.LBB204:
 215:..\..\..\lvgl\version_6.1.2\lvgl\src\lv_themes/lv_theme_material.c **** #endif
 710              		.loc 1 215 0
 711 0432 C4F850A0 		str	r10, [r4, #80]
 712              	.LBE204:
 713              	.LBE219:
 714              	.LBB220:
 715              	.LBB214:
 224:..\..\..\lvgl\version_6.1.2\lvgl\src\lv_themes/lv_theme_material.c ****     bar_bg.body.main_color     = lv_color_hsv_to_rgb(_hue, 15, 95);
 716              		.loc 1 224 0
 717 0436 FFF7FEFF 		bl	lv_style_copy
 718              	.LVL40:
 225:..\..\..\lvgl\version_6.1.2\lvgl\src\lv_themes/lv_theme_material.c ****     bar_bg.body.grad_color     = bar_bg.body.main_color;
 719              		.loc 1 225 0
 720 043a 5F22     		movs	r2, #95
 721 043c 0F21     		movs	r1, #15
 722 043e B4F8A801 		ldrh	r0, [r4, #424]
 723 0442 FFF7FEFF 		bl	lv_color_hsv_to_rgb
 724              	.LVL41:
 234:..\..\..\lvgl\version_6.1.2\lvgl\src\lv_themes/lv_theme_material.c ****     bar_indic.body.main_color     = lv_color_hsv_to_rgb(_hue, 85, 70);
 725              		.loc 1 234 0
 726 0446 04F5E063 		add	r3, r4, #1792
 225:..\..\..\lvgl\version_6.1.2\lvgl\src\lv_themes/lv_theme_material.c ****     bar_bg.body.grad_color     = bar_bg.body.main_color;
 727              		.loc 1 225 0
 728 044a C4F8B406 		str	r0, [r4, #1716]
 226:..\..\..\lvgl\version_6.1.2\lvgl\src\lv_themes/lv_theme_material.c ****     bar_bg.body.radius         = 3;
 729              		.loc 1 226 0
 730 044e C4F8B806 		str	r0, [r4, #1720]
 234:..\..\..\lvgl\version_6.1.2\lvgl\src\lv_themes/lv_theme_material.c ****     bar_indic.body.main_color     = lv_color_hsv_to_rgb(_hue, 85, 70);
 731              		.loc 1 234 0
 732 0452 0093     		str	r3, [sp]
 733 0454 1846     		mov	r0, r3
 227:..\..\..\lvgl\version_6.1.2\lvgl\src\lv_themes/lv_theme_material.c ****     bar_bg.body.border.width   = 0;
 734              		.loc 1 227 0
 735 0456 4FF00303 		mov	r3, #3	@ movhi
 234:..\..\..\lvgl\version_6.1.2\lvgl\src\lv_themes/lv_theme_material.c ****     bar_indic.body.main_color     = lv_color_hsv_to_rgb(_hue, 85, 70);
 736              		.loc 1 234 0
 737 045a 4946     		mov	r1, r9
 227:..\..\..\lvgl\version_6.1.2\lvgl\src\lv_themes/lv_theme_material.c ****     bar_bg.body.border.width   = 0;
 738              		.loc 1 227 0
 739 045c A4F8BC36 		strh	r3, [r4, #1724]	@ movhi
 229:..\..\..\lvgl\version_6.1.2\lvgl\src\lv_themes/lv_theme_material.c ****     bar_bg.body.padding.right  = LV_DPI / 16;
 740              		.loc 1 229 0
 741 0460 4FF00903 		mov	r3, #9	@ movhi
ARM GAS  C:\Users\pearlstl\AppData\Local\Temp\cc5dErme.s 			page 33


 742 0464 A4F8D436 		strh	r3, [r4, #1748]	@ movhi
 230:..\..\..\lvgl\version_6.1.2\lvgl\src\lv_themes/lv_theme_material.c ****     bar_bg.body.padding.top    = LV_DPI / 16;
 743              		.loc 1 230 0
 744 0468 A4F8D636 		strh	r3, [r4, #1750]	@ movhi
 231:..\..\..\lvgl\version_6.1.2\lvgl\src\lv_themes/lv_theme_material.c ****     bar_bg.body.padding.bottom = LV_DPI / 16;
 745              		.loc 1 231 0
 746 046c A4F8D036 		strh	r3, [r4, #1744]	@ movhi
 232:..\..\..\lvgl\version_6.1.2\lvgl\src\lv_themes/lv_theme_material.c **** 
 747              		.loc 1 232 0
 748 0470 A4F8D236 		strh	r3, [r4, #1746]	@ movhi
 228:..\..\..\lvgl\version_6.1.2\lvgl\src\lv_themes/lv_theme_material.c ****     bar_bg.body.padding.left   = LV_DPI / 16;
 749              		.loc 1 228 0
 750 0474 A4F8C486 		strh	r8, [r4, #1732]	@ movhi
 234:..\..\..\lvgl\version_6.1.2\lvgl\src\lv_themes/lv_theme_material.c ****     bar_indic.body.main_color     = lv_color_hsv_to_rgb(_hue, 85, 70);
 751              		.loc 1 234 0
 752 0478 FFF7FEFF 		bl	lv_style_copy
 753              	.LVL42:
 235:..\..\..\lvgl\version_6.1.2\lvgl\src\lv_themes/lv_theme_material.c ****     bar_indic.body.grad_color     = bar_indic.body.main_color;
 754              		.loc 1 235 0
 755 047c 4622     		movs	r2, #70
 756 047e 5521     		movs	r1, #85
 757 0480 B4F8A801 		ldrh	r0, [r4, #424]
 758 0484 FFF7FEFF 		bl	lv_color_hsv_to_rgb
 759              	.LVL43:
 760              	.LBE214:
 761              	.LBE220:
 762              	.LBB221:
 763              	.LBB222:
 252:..\..\..\lvgl\version_6.1.2\lvgl\src\lv_themes/lv_theme_material.c ****     knob.body.radius       = LV_RADIUS_CIRCLE;
 764              		.loc 1 252 0
 765 0488 04F5EA6A 		add	r10, r4, #1872
 766              	.LBE222:
 767              	.LBE221:
 768              	.LBB228:
 769              	.LBB215:
 243:..\..\..\lvgl\version_6.1.2\lvgl\src\lv_themes/lv_theme_material.c **** #endif
 770              		.loc 1 243 0
 771 048c 009B     		ldr	r3, [sp]
 235:..\..\..\lvgl\version_6.1.2\lvgl\src\lv_themes/lv_theme_material.c ****     bar_indic.body.grad_color     = bar_indic.body.main_color;
 772              		.loc 1 235 0
 773 048e C4F80407 		str	r0, [r4, #1796]
 236:..\..\..\lvgl\version_6.1.2\lvgl\src\lv_themes/lv_theme_material.c ****     bar_indic.body.padding.left   = 0;
 774              		.loc 1 236 0
 775 0492 C4F80807 		str	r0, [r4, #1800]
 776              	.LBE215:
 777              	.LBE228:
 778              	.LBB229:
 779              	.LBB223:
 252:..\..\..\lvgl\version_6.1.2\lvgl\src\lv_themes/lv_theme_material.c ****     knob.body.radius       = LV_RADIUS_CIRCLE;
 780              		.loc 1 252 0
 781 0496 3146     		mov	r1, r6
 782 0498 5046     		mov	r0, r10
 783              	.LBE223:
 784              	.LBE229:
 785              	.LBB230:
 786              	.LBB216:
 242:..\..\..\lvgl\version_6.1.2\lvgl\src\lv_themes/lv_theme_material.c ****     theme.style.bar.indic = &bar_indic;
ARM GAS  C:\Users\pearlstl\AppData\Local\Temp\cc5dErme.s 			page 34


 787              		.loc 1 242 0
 788 049a C4F85490 		str	r9, [r4, #84]
 243:..\..\..\lvgl\version_6.1.2\lvgl\src\lv_themes/lv_theme_material.c **** #endif
 789              		.loc 1 243 0
 790 049e A365     		str	r3, [r4, #88]
 237:..\..\..\lvgl\version_6.1.2\lvgl\src\lv_themes/lv_theme_material.c ****     bar_indic.body.padding.right  = 0;
 791              		.loc 1 237 0
 792 04a0 A4F82487 		strh	r8, [r4, #1828]	@ movhi
 238:..\..\..\lvgl\version_6.1.2\lvgl\src\lv_themes/lv_theme_material.c ****     bar_indic.body.padding.top    = 0;
 793              		.loc 1 238 0
 794 04a4 A4F82687 		strh	r8, [r4, #1830]	@ movhi
 239:..\..\..\lvgl\version_6.1.2\lvgl\src\lv_themes/lv_theme_material.c ****     bar_indic.body.padding.bottom = 0;
 795              		.loc 1 239 0
 796 04a8 A4F82087 		strh	r8, [r4, #1824]	@ movhi
 240:..\..\..\lvgl\version_6.1.2\lvgl\src\lv_themes/lv_theme_material.c **** 
 797              		.loc 1 240 0
 798 04ac A4F82287 		strh	r8, [r4, #1826]	@ movhi
 799              	.LBE216:
 800              	.LBE230:
 801              	.LBB231:
 802              	.LBB224:
 252:..\..\..\lvgl\version_6.1.2\lvgl\src\lv_themes/lv_theme_material.c ****     knob.body.radius       = LV_RADIUS_CIRCLE;
 803              		.loc 1 252 0
 804 04b0 FFF7FEFF 		bl	lv_style_copy
 805              	.LVL44:
 255:..\..\..\lvgl\version_6.1.2\lvgl\src\lv_themes/lv_theme_material.c ****     knob.body.grad_color   = knob.body.main_color;
 806              		.loc 1 255 0
 807 04b4 A26D     		ldr	r2, [r4, #88]
 258:..\..\..\lvgl\version_6.1.2\lvgl\src\lv_themes/lv_theme_material.c ****     theme.style.slider.indic = theme.style.bar.indic;
 808              		.loc 1 258 0
 809 04b6 636D     		ldr	r3, [r4, #84]
 255:..\..\..\lvgl\version_6.1.2\lvgl\src\lv_themes/lv_theme_material.c ****     knob.body.grad_color   = knob.body.main_color;
 810              		.loc 1 255 0
 811 04b8 D2F804E0 		ldr	lr, [r2, #4]
 812 04bc C4F854E7 		str	lr, [r4, #1876]
 813              	.LBE224:
 814              	.LBE231:
 815              	.LBB232:
 816              	.LBB233:
 268:..\..\..\lvgl\version_6.1.2\lvgl\src\lv_themes/lv_theme_material.c ****     sw_bg.body.radius = LV_RADIUS_CIRCLE;
 817              		.loc 1 268 0
 818 04c0 04F5F469 		add	r9, r4, #1952
 819              	.LBE233:
 820              	.LBE232:
 821              	.LBB239:
 822              	.LBB225:
 253:..\..\..\lvgl\version_6.1.2\lvgl\src\lv_themes/lv_theme_material.c ****     knob.body.border.width = 0;
 823              		.loc 1 253 0
 824 04c4 47F61841 		movw	r1, 31768	@ movhi
 825 04c8 A4F85C17 		strh	r1, [r4, #1884]	@ movhi
 826              	.LBE225:
 827              	.LBE239:
 828              	.LBB240:
 829              	.LBB234:
 268:..\..\..\lvgl\version_6.1.2\lvgl\src\lv_themes/lv_theme_material.c ****     sw_bg.body.radius = LV_RADIUS_CIRCLE;
 830              		.loc 1 268 0
 831 04cc 4846     		mov	r0, r9
ARM GAS  C:\Users\pearlstl\AppData\Local\Temp\cc5dErme.s 			page 35


 832 04ce 1946     		mov	r1, r3
 833              	.LBE234:
 834              	.LBE240:
 835              	.LBB241:
 836              	.LBB226:
 256:..\..\..\lvgl\version_6.1.2\lvgl\src\lv_themes/lv_theme_material.c **** 
 837              		.loc 1 256 0
 838 04d0 C4F858E7 		str	lr, [r4, #1880]
 259:..\..\..\lvgl\version_6.1.2\lvgl\src\lv_themes/lv_theme_material.c ****     theme.style.slider.knob  = &knob;
 839              		.loc 1 259 0
 840 04d4 2266     		str	r2, [r4, #96]
 260:..\..\..\lvgl\version_6.1.2\lvgl\src\lv_themes/lv_theme_material.c **** #endif
 841              		.loc 1 260 0
 842 04d6 C4F864A0 		str	r10, [r4, #100]
 258:..\..\..\lvgl\version_6.1.2\lvgl\src\lv_themes/lv_theme_material.c ****     theme.style.slider.indic = theme.style.bar.indic;
 843              		.loc 1 258 0
 844 04da E365     		str	r3, [r4, #92]
 845              	.LBE226:
 846              	.LBE241:
 847              	.LBB242:
 848              	.LBB235:
 274:..\..\..\lvgl\version_6.1.2\lvgl\src\lv_themes/lv_theme_material.c ****     sw_knob_on.body.shadow.width = 3;
 849              		.loc 1 274 0
 850 04dc 04F5046A 		add	r10, r4, #2112
 851              	.LBE235:
 852              	.LBE242:
 853              	.LBB243:
 854              	.LBB227:
 254:..\..\..\lvgl\version_6.1.2\lvgl\src\lv_themes/lv_theme_material.c ****     knob.body.main_color   = theme.style.bar.indic->body.main_color;
 855              		.loc 1 254 0
 856 04e0 A4F86487 		strh	r8, [r4, #1892]	@ movhi
 857              	.LBE227:
 858              	.LBE243:
 859              	.LBB244:
 860              	.LBB236:
 268:..\..\..\lvgl\version_6.1.2\lvgl\src\lv_themes/lv_theme_material.c ****     sw_bg.body.radius = LV_RADIUS_CIRCLE;
 861              		.loc 1 268 0
 862 04e4 FFF7FEFF 		bl	lv_style_copy
 863              	.LVL45:
 271:..\..\..\lvgl\version_6.1.2\lvgl\src\lv_themes/lv_theme_material.c ****     sw_indic.body.radius = LV_RADIUS_CIRCLE;
 864              		.loc 1 271 0
 865 04e8 04F5FE60 		add	r0, r4, #2032
 866 04ec E16D     		ldr	r1, [r4, #92]
 269:..\..\..\lvgl\version_6.1.2\lvgl\src\lv_themes/lv_theme_material.c **** 
 867              		.loc 1 269 0
 868 04ee 47F61843 		movw	r3, 31768	@ movhi
 869 04f2 A4F8AC37 		strh	r3, [r4, #1964]	@ movhi
 271:..\..\..\lvgl\version_6.1.2\lvgl\src\lv_themes/lv_theme_material.c ****     sw_indic.body.radius = LV_RADIUS_CIRCLE;
 870              		.loc 1 271 0
 871 04f6 FFF7FEFF 		bl	lv_style_copy
 872              	.LVL46:
 274:..\..\..\lvgl\version_6.1.2\lvgl\src\lv_themes/lv_theme_material.c ****     sw_knob_on.body.shadow.width = 3;
 873              		.loc 1 274 0
 874 04fa 5046     		mov	r0, r10
 875 04fc 616E     		ldr	r1, [r4, #100]
 272:..\..\..\lvgl\version_6.1.2\lvgl\src\lv_themes/lv_theme_material.c **** 
 876              		.loc 1 272 0
ARM GAS  C:\Users\pearlstl\AppData\Local\Temp\cc5dErme.s 			page 36


 877 04fe 47F61843 		movw	r3, 31768	@ movhi
 878 0502 A4F8FC37 		strh	r3, [r4, #2044]	@ movhi
 274:..\..\..\lvgl\version_6.1.2\lvgl\src\lv_themes/lv_theme_material.c ****     sw_knob_on.body.shadow.width = 3;
 879              		.loc 1 274 0
 880 0506 FFF7FEFF 		bl	lv_style_copy
 881              	.LVL47:
 275:..\..\..\lvgl\version_6.1.2\lvgl\src\lv_themes/lv_theme_material.c ****     sw_knob_on.body.shadow.type  = LV_SHADOW_BOTTOM;
 882              		.loc 1 275 0
 883 050a 4FF00303 		mov	r3, #3	@ movhi
 279:..\..\..\lvgl\version_6.1.2\lvgl\src\lv_themes/lv_theme_material.c ****     sw_knob_off.body.main_color   = lv_color_hex(0xfafafa);
 884              		.loc 1 279 0
 885 050e 5146     		mov	r1, r10
 886 0510 0AF15000 		add	r0, r10, #80
 275:..\..\..\lvgl\version_6.1.2\lvgl\src\lv_themes/lv_theme_material.c ****     sw_knob_on.body.shadow.type  = LV_SHADOW_BOTTOM;
 887              		.loc 1 275 0
 888 0514 A4F85C38 		strh	r3, [r4, #2140]	@ movhi
 277:..\..\..\lvgl\version_6.1.2\lvgl\src\lv_themes/lv_theme_material.c **** 
 889              		.loc 1 277 0
 890 0518 6FF05503 		mvn	r3, #85
 891 051c 84F85838 		strb	r3, [r4, #2136]
 892 0520 84F85938 		strb	r3, [r4, #2137]
 893 0524 84F85A38 		strb	r3, [r4, #2138]
 276:..\..\..\lvgl\version_6.1.2\lvgl\src\lv_themes/lv_theme_material.c ****     sw_knob_on.body.shadow.color = DEF_SHADOW_COLOR;
 894              		.loc 1 276 0
 895 0528 84F85E88 		strb	r8, [r4, #2142]
 277:..\..\..\lvgl\version_6.1.2\lvgl\src\lv_themes/lv_theme_material.c **** 
 896              		.loc 1 277 0
 897 052c 84F85BB8 		strb	fp, [r4, #2139]
 279:..\..\..\lvgl\version_6.1.2\lvgl\src\lv_themes/lv_theme_material.c ****     sw_knob_off.body.main_color   = lv_color_hex(0xfafafa);
 898              		.loc 1 279 0
 899 0530 FFF7FEFF 		bl	lv_style_copy
 900              	.LVL48:
 280:..\..\..\lvgl\version_6.1.2\lvgl\src\lv_themes/lv_theme_material.c ****     sw_knob_off.body.grad_color   = sw_knob_off.body.main_color;
 901              		.loc 1 280 0
 902 0534 FA23     		movs	r3, #250
 903 0536 84F89438 		strb	r3, [r4, #2196]
 904 053a 84F89538 		strb	r3, [r4, #2197]
 905 053e 84F89638 		strb	r3, [r4, #2198]
 906              	.LBE236:
 907              	.LBE244:
 908              	.LBB245:
 909              	.LBB246:
 297:..\..\..\lvgl\version_6.1.2\lvgl\src\lv_themes/lv_theme_material.c ****     lmeter.body.main_color   = lv_color_hsv_to_rgb(_hue, 75, 90);
 910              		.loc 1 297 0
 911 0542 04F50E63 		add	r3, r4, #2272
 912 0546 1846     		mov	r0, r3
 913 0548 0093     		str	r3, [sp]
 914              	.LBE246:
 915              	.LBE245:
 916              	.LBB251:
 917              	.LBB237:
 282:..\..\..\lvgl\version_6.1.2\lvgl\src\lv_themes/lv_theme_material.c ****     sw_knob_off.body.border.color = lv_color_hex3(0x999);
 918              		.loc 1 282 0
 919 054a 4FF00103 		mov	r3, #1	@ movhi
 280:..\..\..\lvgl\version_6.1.2\lvgl\src\lv_themes/lv_theme_material.c ****     sw_knob_off.body.grad_color   = sw_knob_off.body.main_color;
 920              		.loc 1 280 0
 921 054e 84F897B8 		strb	fp, [r4, #2199]
ARM GAS  C:\Users\pearlstl\AppData\Local\Temp\cc5dErme.s 			page 37


 282:..\..\..\lvgl\version_6.1.2\lvgl\src\lv_themes/lv_theme_material.c ****     sw_knob_off.body.border.color = lv_color_hex3(0x999);
 922              		.loc 1 282 0
 923 0552 A4F8A438 		strh	r3, [r4, #2212]	@ movhi
 287:..\..\..\lvgl\version_6.1.2\lvgl\src\lv_themes/lv_theme_material.c ****     theme.style.sw.knob_off = &sw_knob_off;
 924              		.loc 1 287 0
 925 0556 A0F1F003 		sub	r3, r0, #240
 281:..\..\..\lvgl\version_6.1.2\lvgl\src\lv_themes/lv_theme_material.c ****     sw_knob_off.body.border.width = 1;
 926              		.loc 1 281 0
 927 055a D4F89428 		ldr	r2, [r4, #2196]
 286:..\..\..\lvgl\version_6.1.2\lvgl\src\lv_themes/lv_theme_material.c ****     theme.style.sw.indic    = &sw_indic;
 928              		.loc 1 286 0
 929 055e C4F87890 		str	r9, [r4, #120]
 930              	.LBE237:
 931              	.LBE251:
 932              	.LBB252:
 933              	.LBB247:
 297:..\..\..\lvgl\version_6.1.2\lvgl\src\lv_themes/lv_theme_material.c ****     lmeter.body.main_color   = lv_color_hsv_to_rgb(_hue, 75, 90);
 934              		.loc 1 297 0
 935 0562 3146     		mov	r1, r6
 936              	.LBE247:
 937              	.LBE252:
 938              	.LBB253:
 939              	.LBB238:
 283:..\..\..\lvgl\version_6.1.2\lvgl\src\lv_themes/lv_theme_material.c ****     sw_knob_off.body.border.opa   = LV_OPA_COVER;
 940              		.loc 1 283 0
 941 0564 4FF09909 		mov	r9, #153
 287:..\..\..\lvgl\version_6.1.2\lvgl\src\lv_themes/lv_theme_material.c ****     theme.style.sw.knob_off = &sw_knob_off;
 942              		.loc 1 287 0
 943 0568 E367     		str	r3, [r4, #124]
 288:..\..\..\lvgl\version_6.1.2\lvgl\src\lv_themes/lv_theme_material.c ****     theme.style.sw.knob_on  = &sw_knob_on;
 944              		.loc 1 288 0
 945 056a A0F15003 		sub	r3, r0, #80
 946 056e C4F88030 		str	r3, [r4, #128]
 289:..\..\..\lvgl\version_6.1.2\lvgl\src\lv_themes/lv_theme_material.c **** #endif
 947              		.loc 1 289 0
 948 0572 C4F884A0 		str	r10, [r4, #132]
 281:..\..\..\lvgl\version_6.1.2\lvgl\src\lv_themes/lv_theme_material.c ****     sw_knob_off.body.border.width = 1;
 949              		.loc 1 281 0
 950 0576 C4F89828 		str	r2, [r4, #2200]
 283:..\..\..\lvgl\version_6.1.2\lvgl\src\lv_themes/lv_theme_material.c ****     sw_knob_off.body.border.opa   = LV_OPA_COVER;
 951              		.loc 1 283 0
 952 057a 84F8A098 		strb	r9, [r4, #2208]
 953 057e 84F8A198 		strb	r9, [r4, #2209]
 954 0582 84F8A298 		strb	r9, [r4, #2210]
 955 0586 84F8A3B8 		strb	fp, [r4, #2211]
 284:..\..\..\lvgl\version_6.1.2\lvgl\src\lv_themes/lv_theme_material.c **** 
 956              		.loc 1 284 0
 957 058a 84F8A7B8 		strb	fp, [r4, #2215]
 958              	.LBE238:
 959              	.LBE253:
 960              	.LBB254:
 961              	.LBB248:
 297:..\..\..\lvgl\version_6.1.2\lvgl\src\lv_themes/lv_theme_material.c ****     lmeter.body.main_color   = lv_color_hsv_to_rgb(_hue, 75, 90);
 962              		.loc 1 297 0
 963 058e FFF7FEFF 		bl	lv_style_copy
 964              	.LVL49:
 298:..\..\..\lvgl\version_6.1.2\lvgl\src\lv_themes/lv_theme_material.c ****     lmeter.body.grad_color   = lmeter.body.main_color;
ARM GAS  C:\Users\pearlstl\AppData\Local\Temp\cc5dErme.s 			page 38


 965              		.loc 1 298 0
 966 0592 5A22     		movs	r2, #90
 967 0594 4B21     		movs	r1, #75
 968 0596 B4F8A801 		ldrh	r0, [r4, #424]
 969 059a FFF7FEFF 		bl	lv_color_hsv_to_rgb
 970              	.LVL50:
 302:..\..\..\lvgl\version_6.1.2\lvgl\src\lv_themes/lv_theme_material.c **** 
 971              		.loc 1 302 0
 972 059e 4FF00203 		mov	r3, #2	@ movhi
 973              	.LBE248:
 974              	.LBE254:
 975              	.LBB255:
 976              	.LBB256:
 313:..\..\..\lvgl\version_6.1.2\lvgl\src\lv_themes/lv_theme_material.c ****     gauge.body.main_color    = lv_color_hsv_to_rgb(_hue, 10, 60);
 977              		.loc 1 313 0
 978 05a2 04F5136A 		add	r10, r4, #2352
 979              	.LBE256:
 980              	.LBE255:
 981              	.LBB261:
 982              	.LBB249:
 302:..\..\..\lvgl\version_6.1.2\lvgl\src\lv_themes/lv_theme_material.c **** 
 983              		.loc 1 302 0
 984 05a6 A4F82C39 		strh	r3, [r4, #2348]	@ movhi
 300:..\..\..\lvgl\version_6.1.2\lvgl\src\lv_themes/lv_theme_material.c ****     lmeter.line.color        = lv_color_hex3(0x999);
 985              		.loc 1 300 0
 986 05aa 4FF00F03 		mov	r3, #15	@ movhi
 298:..\..\..\lvgl\version_6.1.2\lvgl\src\lv_themes/lv_theme_material.c ****     lmeter.body.grad_color   = lmeter.body.main_color;
 987              		.loc 1 298 0
 988 05ae C4F8E408 		str	r0, [r4, #2276]
 299:..\..\..\lvgl\version_6.1.2\lvgl\src\lv_themes/lv_theme_material.c ****     lmeter.body.padding.left = LV_DPI / 10; /*Scale line length*/
 989              		.loc 1 299 0
 990 05b2 C4F8E808 		str	r0, [r4, #2280]
 991              	.LBE249:
 992              	.LBE261:
 993              	.LBB262:
 994              	.LBB257:
 313:..\..\..\lvgl\version_6.1.2\lvgl\src\lv_themes/lv_theme_material.c ****     gauge.body.main_color    = lv_color_hsv_to_rgb(_hue, 10, 60);
 995              		.loc 1 313 0
 996 05b6 3146     		mov	r1, r6
 997 05b8 5046     		mov	r0, r10
 998              	.LBE257:
 999              	.LBE262:
 1000              	.LBB263:
 1001              	.LBB250:
 300:..\..\..\lvgl\version_6.1.2\lvgl\src\lv_themes/lv_theme_material.c ****     lmeter.line.color        = lv_color_hex3(0x999);
 1002              		.loc 1 300 0
 1003 05ba A4F80439 		strh	r3, [r4, #2308]	@ movhi
 304:..\..\..\lvgl\version_6.1.2\lvgl\src\lv_themes/lv_theme_material.c **** #endif
 1004              		.loc 1 304 0
 1005 05be 009B     		ldr	r3, [sp]
 1006 05c0 A366     		str	r3, [r4, #104]
 301:..\..\..\lvgl\version_6.1.2\lvgl\src\lv_themes/lv_theme_material.c ****     lmeter.line.width        = 2;
 1007              		.loc 1 301 0
 1008 05c2 84F82899 		strb	r9, [r4, #2344]
 1009 05c6 84F82999 		strb	r9, [r4, #2345]
 1010 05ca 84F82A99 		strb	r9, [r4, #2346]
 1011 05ce 84F82BB9 		strb	fp, [r4, #2347]
ARM GAS  C:\Users\pearlstl\AppData\Local\Temp\cc5dErme.s 			page 39


 1012              	.LBE250:
 1013              	.LBE263:
 1014              	.LBB264:
 1015              	.LBB258:
 313:..\..\..\lvgl\version_6.1.2\lvgl\src\lv_themes/lv_theme_material.c ****     gauge.body.main_color    = lv_color_hsv_to_rgb(_hue, 10, 60);
 1016              		.loc 1 313 0
 1017 05d2 FFF7FEFF 		bl	lv_style_copy
 1018              	.LVL51:
 314:..\..\..\lvgl\version_6.1.2\lvgl\src\lv_themes/lv_theme_material.c ****     gauge.body.grad_color    = gauge.body.main_color;
 1019              		.loc 1 314 0
 1020 05d6 3C22     		movs	r2, #60
 1021 05d8 0A21     		movs	r1, #10
 1022 05da B4F8A801 		ldrh	r0, [r4, #424]
 1023 05de FFF7FEFF 		bl	lv_color_hsv_to_rgb
 1024              	.LVL52:
 316:..\..\..\lvgl\version_6.1.2\lvgl\src\lv_themes/lv_theme_material.c ****     gauge.body.padding.inner = LV_DPI / 8;
 1025              		.loc 1 316 0
 1026 05e2 4FF00903 		mov	r3, #9	@ movhi
 1027 05e6 A4F85439 		strh	r3, [r4, #2388]	@ movhi
 317:..\..\..\lvgl\version_6.1.2\lvgl\src\lv_themes/lv_theme_material.c ****     gauge.body.border.color  = lv_color_hex3(0x999);
 1028              		.loc 1 317 0
 1029 05ea 4FF01203 		mov	r3, #18	@ movhi
 1030 05ee A4F85839 		strh	r3, [r4, #2392]	@ movhi
 319:..\..\..\lvgl\version_6.1.2\lvgl\src\lv_themes/lv_theme_material.c ****     gauge.line.width         = 3;
 1031              		.loc 1 319 0
 1032 05f2 4FF03303 		mov	r3, #51
 314:..\..\..\lvgl\version_6.1.2\lvgl\src\lv_themes/lv_theme_material.c ****     gauge.body.grad_color    = gauge.body.main_color;
 1033              		.loc 1 314 0
 1034 05f6 C4F83409 		str	r0, [r4, #2356]
 315:..\..\..\lvgl\version_6.1.2\lvgl\src\lv_themes/lv_theme_material.c ****     gauge.body.padding.left  = LV_DPI / 16; /*Scale line length*/
 1035              		.loc 1 315 0
 1036 05fa C4F83809 		str	r0, [r4, #2360]
 319:..\..\..\lvgl\version_6.1.2\lvgl\src\lv_themes/lv_theme_material.c ****     gauge.line.width         = 3;
 1037              		.loc 1 319 0
 1038 05fe 84F85C39 		strb	r3, [r4, #2396]
 1039 0602 84F85D39 		strb	r3, [r4, #2397]
 1040 0606 84F85E39 		strb	r3, [r4, #2398]
 321:..\..\..\lvgl\version_6.1.2\lvgl\src\lv_themes/lv_theme_material.c **** 
 1041              		.loc 1 321 0
 1042 060a 4622     		movs	r2, #70
 320:..\..\..\lvgl\version_6.1.2\lvgl\src\lv_themes/lv_theme_material.c ****     gauge.line.color         = lv_color_hsv_to_rgb(_hue, 95, 70);
 1043              		.loc 1 320 0
 1044 060c 4FF00303 		mov	r3, #3	@ movhi
 321:..\..\..\lvgl\version_6.1.2\lvgl\src\lv_themes/lv_theme_material.c **** 
 1045              		.loc 1 321 0
 1046 0610 5F21     		movs	r1, #95
 1047 0612 B4F8A801 		ldrh	r0, [r4, #424]
 318:..\..\..\lvgl\version_6.1.2\lvgl\src\lv_themes/lv_theme_material.c ****     gauge.text.color         = lv_color_hex3(0x333);
 1048              		.loc 1 318 0
 1049 0616 84F84099 		strb	r9, [r4, #2368]
 1050 061a 84F84199 		strb	r9, [r4, #2369]
 1051 061e 84F84299 		strb	r9, [r4, #2370]
 320:..\..\..\lvgl\version_6.1.2\lvgl\src\lv_themes/lv_theme_material.c ****     gauge.line.color         = lv_color_hsv_to_rgb(_hue, 95, 70);
 1052              		.loc 1 320 0
 1053 0622 A4F87C39 		strh	r3, [r4, #2428]	@ movhi
 318:..\..\..\lvgl\version_6.1.2\lvgl\src\lv_themes/lv_theme_material.c ****     gauge.text.color         = lv_color_hex3(0x333);
 1054              		.loc 1 318 0
ARM GAS  C:\Users\pearlstl\AppData\Local\Temp\cc5dErme.s 			page 40


 1055 0626 84F843B9 		strb	fp, [r4, #2371]
 319:..\..\..\lvgl\version_6.1.2\lvgl\src\lv_themes/lv_theme_material.c ****     gauge.line.width         = 3;
 1056              		.loc 1 319 0
 1057 062a 84F85FB9 		strb	fp, [r4, #2399]
 321:..\..\..\lvgl\version_6.1.2\lvgl\src\lv_themes/lv_theme_material.c **** 
 1058              		.loc 1 321 0
 1059 062e FFF7FEFF 		bl	lv_color_hsv_to_rgb
 1060              	.LVL53:
 1061              	.LBE258:
 1062              	.LBE264:
 1063              	.LBB265:
 1064              	.LBB266:
 332:..\..\..\lvgl\version_6.1.2\lvgl\src\lv_themes/lv_theme_material.c ****     arc.line.width = 10;
 1065              		.loc 1 332 0
 1066 0632 04F51863 		add	r3, r4, #2432
 1067              	.LBE266:
 1068              	.LBE265:
 1069              	.LBB273:
 1070              	.LBB274:
 359:..\..\..\lvgl\version_6.1.2\lvgl\src\lv_themes/lv_theme_material.c **** #endif
 1071              		.loc 1 359 0
 1072 0636 A268     		ldr	r2, [r4, #8]
 1073              	.LBE274:
 1074              	.LBE273:
 1075              	.LBB276:
 1076              	.LBB259:
 321:..\..\..\lvgl\version_6.1.2\lvgl\src\lv_themes/lv_theme_material.c **** 
 1077              		.loc 1 321 0
 1078 0638 C4F87809 		str	r0, [r4, #2424]
 1079              	.LBE259:
 1080              	.LBE276:
 1081              	.LBB277:
 1082              	.LBB267:
 332:..\..\..\lvgl\version_6.1.2\lvgl\src\lv_themes/lv_theme_material.c ****     arc.line.width = 10;
 1083              		.loc 1 332 0
 1084 063c 3146     		mov	r1, r6
 1085 063e 1846     		mov	r0, r3
 1086              	.LBE267:
 1087              	.LBE277:
 1088              	.LBB278:
 1089              	.LBB260:
 323:..\..\..\lvgl\version_6.1.2\lvgl\src\lv_themes/lv_theme_material.c **** #endif
 1090              		.loc 1 323 0
 1091 0640 C4F86CA0 		str	r10, [r4, #108]
 1092              	.LBE260:
 1093              	.LBE278:
 1094              	.LBB279:
 1095              	.LBB268:
 332:..\..\..\lvgl\version_6.1.2\lvgl\src\lv_themes/lv_theme_material.c ****     arc.line.width = 10;
 1096              		.loc 1 332 0
 1097 0644 0093     		str	r3, [sp]
 1098              	.LBE268:
 1099              	.LBE279:
 1100              	.LBB280:
 1101              	.LBB275:
 359:..\..\..\lvgl\version_6.1.2\lvgl\src\lv_themes/lv_theme_material.c **** #endif
 1102              		.loc 1 359 0
ARM GAS  C:\Users\pearlstl\AppData\Local\Temp\cc5dErme.s 			page 41


 1103 0646 C4F88820 		str	r2, [r4, #136]
 1104              	.LBE275:
 1105              	.LBE280:
 1106              	.LBB281:
 1107              	.LBB269:
 332:..\..\..\lvgl\version_6.1.2\lvgl\src\lv_themes/lv_theme_material.c ****     arc.line.width = 10;
 1108              		.loc 1 332 0
 1109 064a FFF7FEFF 		bl	lv_style_copy
 1110              	.LVL54:
 334:..\..\..\lvgl\version_6.1.2\lvgl\src\lv_themes/lv_theme_material.c **** 
 1111              		.loc 1 334 0
 1112 064e 5A22     		movs	r2, #90
 1113 0650 1146     		mov	r1, r2
 333:..\..\..\lvgl\version_6.1.2\lvgl\src\lv_themes/lv_theme_material.c ****     arc.line.color = lv_color_hsv_to_rgb(_hue, 90, 90);
 1114              		.loc 1 333 0
 1115 0652 4FF00A03 		mov	r3, #10	@ movhi
 334:..\..\..\lvgl\version_6.1.2\lvgl\src\lv_themes/lv_theme_material.c **** 
 1116              		.loc 1 334 0
 1117 0656 B4F8A801 		ldrh	r0, [r4, #424]
 333:..\..\..\lvgl\version_6.1.2\lvgl\src\lv_themes/lv_theme_material.c ****     arc.line.color = lv_color_hsv_to_rgb(_hue, 90, 90);
 1118              		.loc 1 333 0
 1119 065a A4F8CC39 		strh	r3, [r4, #2508]	@ movhi
 334:..\..\..\lvgl\version_6.1.2\lvgl\src\lv_themes/lv_theme_material.c **** 
 1120              		.loc 1 334 0
 1121 065e FFF7FEFF 		bl	lv_color_hsv_to_rgb
 1122              	.LVL55:
 338:..\..\..\lvgl\version_6.1.2\lvgl\src\lv_themes/lv_theme_material.c ****     arc.body.padding.left   = 0;
 1123              		.loc 1 338 0
 1124 0662 5A22     		movs	r2, #90
 334:..\..\..\lvgl\version_6.1.2\lvgl\src\lv_themes/lv_theme_material.c **** 
 1125              		.loc 1 334 0
 1126 0664 C4F8C809 		str	r0, [r4, #2504]
 337:..\..\..\lvgl\version_6.1.2\lvgl\src\lv_themes/lv_theme_material.c ****     arc.body.border.color   = lv_color_hsv_to_rgb(_hue, 30, 90);
 1127              		.loc 1 337 0
 1128 0668 4FF00A03 		mov	r3, #10	@ movhi
 338:..\..\..\lvgl\version_6.1.2\lvgl\src\lv_themes/lv_theme_material.c ****     arc.body.padding.left   = 0;
 1129              		.loc 1 338 0
 1130 066c 1E21     		movs	r1, #30
 1131 066e B4F8A801 		ldrh	r0, [r4, #424]
 337:..\..\..\lvgl\version_6.1.2\lvgl\src\lv_themes/lv_theme_material.c ****     arc.body.border.color   = lv_color_hsv_to_rgb(_hue, 30, 90);
 1132              		.loc 1 337 0
 1133 0672 A4F89439 		strh	r3, [r4, #2452]	@ movhi
 338:..\..\..\lvgl\version_6.1.2\lvgl\src\lv_themes/lv_theme_material.c ****     arc.body.padding.left   = 0;
 1134              		.loc 1 338 0
 1135 0676 FFF7FEFF 		bl	lv_color_hsv_to_rgb
 1136              	.LVL56:
 1137              	.LBE269:
 1138              	.LBE281:
 1139              	.LBB282:
 1140              	.LBB283:
 367:..\..\..\lvgl\version_6.1.2\lvgl\src\lv_themes/lv_theme_material.c ****     ina_days.text.color = lv_color_hsv_to_rgb(_hue, 0, 70);
 1141              		.loc 1 367 0
 1142 067a 04F51D69 		add	r9, r4, #2512
 1143              	.LBE283:
 1144              	.LBE282:
 1145              	.LBB288:
 1146              	.LBB270:
ARM GAS  C:\Users\pearlstl\AppData\Local\Temp\cc5dErme.s 			page 42


 344:..\..\..\lvgl\version_6.1.2\lvgl\src\lv_themes/lv_theme_material.c **** #endif
 1147              		.loc 1 344 0
 1148 067e 009B     		ldr	r3, [sp]
 338:..\..\..\lvgl\version_6.1.2\lvgl\src\lv_themes/lv_theme_material.c ****     arc.body.padding.left   = 0;
 1149              		.loc 1 338 0
 1150 0680 C4F89009 		str	r0, [r4, #2448]
 1151              	.LBE270:
 1152              	.LBE288:
 1153              	.LBB289:
 1154              	.LBB284:
 367:..\..\..\lvgl\version_6.1.2\lvgl\src\lv_themes/lv_theme_material.c ****     ina_days.text.color = lv_color_hsv_to_rgb(_hue, 0, 70);
 1155              		.loc 1 367 0
 1156 0684 3146     		mov	r1, r6
 1157 0686 4846     		mov	r0, r9
 1158              	.LBE284:
 1159              	.LBE289:
 1160              	.LBB290:
 1161              	.LBB271:
 344:..\..\..\lvgl\version_6.1.2\lvgl\src\lv_themes/lv_theme_material.c **** #endif
 1162              		.loc 1 344 0
 1163 0688 2367     		str	r3, [r4, #112]
 1164              	.LBE271:
 1165              	.LBE290:
 1166              	.LBB291:
 1167              	.LBB292:
 352:..\..\..\lvgl\version_6.1.2\lvgl\src\lv_themes/lv_theme_material.c **** #endif
 1168              		.loc 1 352 0
 1169 068a 6367     		str	r3, [r4, #116]
 1170              	.LBE292:
 1171              	.LBE291:
 1172              	.LBB293:
 1173              	.LBB272:
 339:..\..\..\lvgl\version_6.1.2\lvgl\src\lv_themes/lv_theme_material.c ****     arc.body.padding.right  = 0;
 1174              		.loc 1 339 0
 1175 068c A4F8A489 		strh	r8, [r4, #2468]	@ movhi
 340:..\..\..\lvgl\version_6.1.2\lvgl\src\lv_themes/lv_theme_material.c ****     arc.body.padding.top    = 0;
 1176              		.loc 1 340 0
 1177 0690 A4F8A689 		strh	r8, [r4, #2470]	@ movhi
 341:..\..\..\lvgl\version_6.1.2\lvgl\src\lv_themes/lv_theme_material.c ****     arc.body.padding.bottom = 0;
 1178              		.loc 1 341 0
 1179 0694 A4F8A089 		strh	r8, [r4, #2464]	@ movhi
 342:..\..\..\lvgl\version_6.1.2\lvgl\src\lv_themes/lv_theme_material.c **** 
 1180              		.loc 1 342 0
 1181 0698 A4F8A289 		strh	r8, [r4, #2466]	@ movhi
 1182              	.LBE272:
 1183              	.LBE293:
 1184              	.LBB294:
 1185              	.LBB285:
 367:..\..\..\lvgl\version_6.1.2\lvgl\src\lv_themes/lv_theme_material.c ****     ina_days.text.color = lv_color_hsv_to_rgb(_hue, 0, 70);
 1186              		.loc 1 367 0
 1187 069c FFF7FEFF 		bl	lv_style_copy
 1188              	.LVL57:
 368:..\..\..\lvgl\version_6.1.2\lvgl\src\lv_themes/lv_theme_material.c **** 
 1189              		.loc 1 368 0
 1190 06a0 4146     		mov	r1, r8
 1191 06a2 4622     		movs	r2, #70
 1192 06a4 B4F8A801 		ldrh	r0, [r4, #424]
ARM GAS  C:\Users\pearlstl\AppData\Local\Temp\cc5dErme.s 			page 43


 1193 06a8 FFF7FEFF 		bl	lv_color_hsv_to_rgb
 1194              	.LVL58:
 371:..\..\..\lvgl\version_6.1.2\lvgl\src\lv_themes/lv_theme_material.c ****     high_days.text.color = lv_color_hsv_to_rgb(_hue, 80, 90);
 1195              		.loc 1 371 0
 1196 06ac 3146     		mov	r1, r6
 368:..\..\..\lvgl\version_6.1.2\lvgl\src\lv_themes/lv_theme_material.c **** 
 1197              		.loc 1 368 0
 1198 06ae C4F8FC09 		str	r0, [r4, #2556]
 371:..\..\..\lvgl\version_6.1.2\lvgl\src\lv_themes/lv_theme_material.c ****     high_days.text.color = lv_color_hsv_to_rgb(_hue, 80, 90);
 1199              		.loc 1 371 0
 1200 06b2 06F50760 		add	r0, r6, #2160
 1201 06b6 FFF7FEFF 		bl	lv_style_copy
 1202              	.LVL59:
 372:..\..\..\lvgl\version_6.1.2\lvgl\src\lv_themes/lv_theme_material.c **** 
 1203              		.loc 1 372 0
 1204 06ba 5A22     		movs	r2, #90
 1205 06bc 5021     		movs	r1, #80
 1206 06be B4F8A801 		ldrh	r0, [r4, #424]
 1207 06c2 FFF7FEFF 		bl	lv_color_hsv_to_rgb
 1208              	.LVL60:
 375:..\..\..\lvgl\version_6.1.2\lvgl\src\lv_themes/lv_theme_material.c ****     week_box.body.main_color     = lv_color_hsv_to_rgb(_hue, 40, 100);
 1209              		.loc 1 375 0
 1210 06c6 3146     		mov	r1, r6
 372:..\..\..\lvgl\version_6.1.2\lvgl\src\lv_themes/lv_theme_material.c **** 
 1211              		.loc 1 372 0
 1212 06c8 C4F84C0A 		str	r0, [r4, #2636]
 375:..\..\..\lvgl\version_6.1.2\lvgl\src\lv_themes/lv_theme_material.c ****     week_box.body.main_color     = lv_color_hsv_to_rgb(_hue, 40, 100);
 1213              		.loc 1 375 0
 1214 06cc 06F50C60 		add	r0, r6, #2240
 1215 06d0 FFF7FEFF 		bl	lv_style_copy
 1216              	.LVL61:
 376:..\..\..\lvgl\version_6.1.2\lvgl\src\lv_themes/lv_theme_material.c ****     week_box.body.grad_color     = lv_color_hsv_to_rgb(_hue, 40, 100);
 1217              		.loc 1 376 0
 1218 06d4 6422     		movs	r2, #100
 1219 06d6 2821     		movs	r1, #40
 1220 06d8 B4F8A801 		ldrh	r0, [r4, #424]
 1221 06dc FFF7FEFF 		bl	lv_color_hsv_to_rgb
 1222              	.LVL62:
 377:..\..\..\lvgl\version_6.1.2\lvgl\src\lv_themes/lv_theme_material.c ****     week_box.body.padding.top    = LV_DPI / 20;
 1223              		.loc 1 377 0
 1224 06e0 6422     		movs	r2, #100
 376:..\..\..\lvgl\version_6.1.2\lvgl\src\lv_themes/lv_theme_material.c ****     week_box.body.grad_color     = lv_color_hsv_to_rgb(_hue, 40, 100);
 1225              		.loc 1 376 0
 1226 06e2 C4F8740A 		str	r0, [r4, #2676]
 377:..\..\..\lvgl\version_6.1.2\lvgl\src\lv_themes/lv_theme_material.c ****     week_box.body.padding.top    = LV_DPI / 20;
 1227              		.loc 1 377 0
 1228 06e6 2821     		movs	r1, #40
 1229 06e8 B4F8A801 		ldrh	r0, [r4, #424]
 1230 06ec FFF7FEFF 		bl	lv_color_hsv_to_rgb
 1231              	.LVL63:
 380:..\..\..\lvgl\version_6.1.2\lvgl\src\lv_themes/lv_theme_material.c ****     week_box.body.padding.right  = theme.style.panel->body.padding.right;
 1232              		.loc 1 380 0
 1233 06f0 A368     		ldr	r3, [r4, #8]
 377:..\..\..\lvgl\version_6.1.2\lvgl\src\lv_themes/lv_theme_material.c ****     week_box.body.padding.top    = LV_DPI / 20;
 1234              		.loc 1 377 0
 1235 06f2 C4F8780A 		str	r0, [r4, #2680]
 380:..\..\..\lvgl\version_6.1.2\lvgl\src\lv_themes/lv_theme_material.c ****     week_box.body.padding.right  = theme.style.panel->body.padding.right;
ARM GAS  C:\Users\pearlstl\AppData\Local\Temp\cc5dErme.s 			page 44


 1236              		.loc 1 380 0
 1237 06f6 B3F924E0 		ldrsh	lr, [r3, #36]
 382:..\..\..\lvgl\version_6.1.2\lvgl\src\lv_themes/lv_theme_material.c ****     week_box.body.border.width   = theme.style.panel->body.border.width;
 1238              		.loc 1 382 0
 1239 06fa 1969     		ldr	r1, [r3, #16]
 381:..\..\..\lvgl\version_6.1.2\lvgl\src\lv_themes/lv_theme_material.c ****     week_box.body.border.color   = theme.style.panel->body.border.color;
 1240              		.loc 1 381 0
 1241 06fc B3F92620 		ldrsh	r2, [r3, #38]
 383:..\..\..\lvgl\version_6.1.2\lvgl\src\lv_themes/lv_theme_material.c ****     week_box.body.border.part    = LV_BORDER_LEFT | LV_BORDER_RIGHT;
 1242              		.loc 1 383 0
 1243 0700 B3F91430 		ldrsh	r3, [r3, #20]
 1244 0704 A4F8843A 		strh	r3, [r4, #2692]	@ movhi
 388:..\..\..\lvgl\version_6.1.2\lvgl\src\lv_themes/lv_theme_material.c ****     today_box.body.main_color     = LV_COLOR_WHITE;
 1245              		.loc 1 388 0
 1246 0708 04F52C6A 		add	r10, r4, #2752
 384:..\..\..\lvgl\version_6.1.2\lvgl\src\lv_themes/lv_theme_material.c ****     week_box.body.radius         = 0;
 1247              		.loc 1 384 0
 1248 070c 4FF00C03 		mov	r3, #12
 382:..\..\..\lvgl\version_6.1.2\lvgl\src\lv_themes/lv_theme_material.c ****     week_box.body.border.width   = theme.style.panel->body.border.width;
 1249              		.loc 1 382 0
 1250 0710 C4F8801A 		str	r1, [r4, #2688]
 388:..\..\..\lvgl\version_6.1.2\lvgl\src\lv_themes/lv_theme_material.c ****     today_box.body.main_color     = LV_COLOR_WHITE;
 1251              		.loc 1 388 0
 1252 0714 5046     		mov	r0, r10
 1253 0716 3146     		mov	r1, r6
 384:..\..\..\lvgl\version_6.1.2\lvgl\src\lv_themes/lv_theme_material.c ****     week_box.body.radius         = 0;
 1254              		.loc 1 384 0
 1255 0718 84F8863A 		strb	r3, [r4, #2694]
 378:..\..\..\lvgl\version_6.1.2\lvgl\src\lv_themes/lv_theme_material.c ****     week_box.body.padding.bottom = LV_DPI / 20;
 1256              		.loc 1 378 0
 1257 071c 4FF00703 		mov	r3, #7	@ movhi
 380:..\..\..\lvgl\version_6.1.2\lvgl\src\lv_themes/lv_theme_material.c ****     week_box.body.padding.right  = theme.style.panel->body.padding.right;
 1258              		.loc 1 380 0
 1259 0720 A4F894EA 		strh	lr, [r4, #2708]	@ movhi
 381:..\..\..\lvgl\version_6.1.2\lvgl\src\lv_themes/lv_theme_material.c ****     week_box.body.border.color   = theme.style.panel->body.border.color;
 1260              		.loc 1 381 0
 1261 0724 A4F8962A 		strh	r2, [r4, #2710]	@ movhi
 378:..\..\..\lvgl\version_6.1.2\lvgl\src\lv_themes/lv_theme_material.c ****     week_box.body.padding.bottom = LV_DPI / 20;
 1262              		.loc 1 378 0
 1263 0728 A4F8903A 		strh	r3, [r4, #2704]	@ movhi
 379:..\..\..\lvgl\version_6.1.2\lvgl\src\lv_themes/lv_theme_material.c ****     week_box.body.padding.left   = theme.style.panel->body.padding.left;
 1264              		.loc 1 379 0
 1265 072c A4F8923A 		strh	r3, [r4, #2706]	@ movhi
 385:..\..\..\lvgl\version_6.1.2\lvgl\src\lv_themes/lv_theme_material.c **** 
 1266              		.loc 1 385 0
 1267 0730 A4F87C8A 		strh	r8, [r4, #2684]	@ movhi
 388:..\..\..\lvgl\version_6.1.2\lvgl\src\lv_themes/lv_theme_material.c ****     today_box.body.main_color     = LV_COLOR_WHITE;
 1268              		.loc 1 388 0
 1269 0734 FFF7FEFF 		bl	lv_style_copy
 1270              	.LVL64:
 395:..\..\..\lvgl\version_6.1.2\lvgl\src\lv_themes/lv_theme_material.c ****     theme.style.calendar.header           = &lv_style_transp;
 1271              		.loc 1 395 0
 1272 0738 A368     		ldr	r3, [r4, #8]
 397:..\..\..\lvgl\version_6.1.2\lvgl\src\lv_themes/lv_theme_material.c ****     theme.style.calendar.highlighted_days = &high_days;
 1273              		.loc 1 397 0
 1274 073a C4F8A090 		str	r9, [r4, #160]
 391:..\..\..\lvgl\version_6.1.2\lvgl\src\lv_themes/lv_theme_material.c ****     today_box.body.padding.bottom = LV_DPI / 20;
ARM GAS  C:\Users\pearlstl\AppData\Local\Temp\cc5dErme.s 			page 45


 1275              		.loc 1 391 0
 1276 073e 4FF00702 		mov	r2, #7	@ movhi
 1277              	.LBE285:
 1278              	.LBE294:
 1279              	.LBB295:
 1280              	.LBB296:
 408:..\..\..\lvgl\version_6.1.2\lvgl\src\lv_themes/lv_theme_material.c ****     rel.body.shadow.type  = LV_SHADOW_BOTTOM;
 1281              		.loc 1 408 0
 1282 0742 04F53169 		add	r9, r4, #2832
 1283              	.LBE296:
 1284              	.LBE295:
 1285              	.LBB301:
 1286              	.LBB286:
 391:..\..\..\lvgl\version_6.1.2\lvgl\src\lv_themes/lv_theme_material.c ****     today_box.body.padding.bottom = LV_DPI / 20;
 1287              		.loc 1 391 0
 1288 0746 A4F8E02A 		strh	r2, [r4, #2784]	@ movhi
 392:..\..\..\lvgl\version_6.1.2\lvgl\src\lv_themes/lv_theme_material.c ****     today_box.body.radius         = 0;
 1289              		.loc 1 392 0
 1290 074a A4F8E22A 		strh	r2, [r4, #2786]	@ movhi
 398:..\..\..\lvgl\version_6.1.2\lvgl\src\lv_themes/lv_theme_material.c ****     theme.style.calendar.week_box         = &week_box;
 1291              		.loc 1 398 0
 1292 074e A9F1F002 		sub	r2, r9, #240
 1293              	.LBE286:
 1294              	.LBE301:
 1295              	.LBB302:
 1296              	.LBB297:
 408:..\..\..\lvgl\version_6.1.2\lvgl\src\lv_themes/lv_theme_material.c ****     rel.body.shadow.type  = LV_SHADOW_BOTTOM;
 1297              		.loc 1 408 0
 1298 0752 1946     		mov	r1, r3
 1299 0754 4846     		mov	r0, r9
 1300              	.LBE297:
 1301              	.LBE302:
 1302              	.LBB303:
 1303              	.LBB287:
 398:..\..\..\lvgl\version_6.1.2\lvgl\src\lv_themes/lv_theme_material.c ****     theme.style.calendar.week_box         = &week_box;
 1304              		.loc 1 398 0
 1305 0756 C4F89C20 		str	r2, [r4, #156]
 395:..\..\..\lvgl\version_6.1.2\lvgl\src\lv_themes/lv_theme_material.c ****     theme.style.calendar.header           = &lv_style_transp;
 1306              		.loc 1 395 0
 1307 075a C4F88C30 		str	r3, [r4, #140]
 399:..\..\..\lvgl\version_6.1.2\lvgl\src\lv_themes/lv_theme_material.c ****     theme.style.calendar.today_box        = &today_box;
 1308              		.loc 1 399 0
 1309 075e A9F1A002 		sub	r2, r9, #160
 396:..\..\..\lvgl\version_6.1.2\lvgl\src\lv_themes/lv_theme_material.c ****     theme.style.calendar.inactive_days    = &ina_days;
 1310              		.loc 1 396 0
 1311 0762 F54B     		ldr	r3, .L10
 399:..\..\..\lvgl\version_6.1.2\lvgl\src\lv_themes/lv_theme_material.c ****     theme.style.calendar.today_box        = &today_box;
 1312              		.loc 1 399 0
 1313 0764 C4F8A420 		str	r2, [r4, #164]
 400:..\..\..\lvgl\version_6.1.2\lvgl\src\lv_themes/lv_theme_material.c **** #endif
 1314              		.loc 1 400 0
 1315 0768 C4F8A8A0 		str	r10, [r4, #168]
 396:..\..\..\lvgl\version_6.1.2\lvgl\src\lv_themes/lv_theme_material.c ****     theme.style.calendar.inactive_days    = &ina_days;
 1316              		.loc 1 396 0
 1317 076c C4F89030 		str	r3, [r4, #144]
 389:..\..\..\lvgl\version_6.1.2\lvgl\src\lv_themes/lv_theme_material.c ****     today_box.body.grad_color     = LV_COLOR_WHITE;
 1318              		.loc 1 389 0
ARM GAS  C:\Users\pearlstl\AppData\Local\Temp\cc5dErme.s 			page 46


 1319 0770 84F8C4BA 		strb	fp, [r4, #2756]
 1320 0774 84F8C5BA 		strb	fp, [r4, #2757]
 1321 0778 84F8C6BA 		strb	fp, [r4, #2758]
 1322 077c 84F8C7BA 		strb	fp, [r4, #2759]
 390:..\..\..\lvgl\version_6.1.2\lvgl\src\lv_themes/lv_theme_material.c ****     today_box.body.padding.top    = LV_DPI / 20;
 1323              		.loc 1 390 0
 1324 0780 84F8C8BA 		strb	fp, [r4, #2760]
 1325 0784 84F8C9BA 		strb	fp, [r4, #2761]
 1326 0788 84F8CABA 		strb	fp, [r4, #2762]
 1327 078c 84F8CBBA 		strb	fp, [r4, #2763]
 393:..\..\..\lvgl\version_6.1.2\lvgl\src\lv_themes/lv_theme_material.c **** 
 1328              		.loc 1 393 0
 1329 0790 A4F8CC8A 		strh	r8, [r4, #2764]	@ movhi
 1330              	.LBE287:
 1331              	.LBE303:
 1332              	.LBB304:
 1333              	.LBB298:
 408:..\..\..\lvgl\version_6.1.2\lvgl\src\lv_themes/lv_theme_material.c ****     rel.body.shadow.type  = LV_SHADOW_BOTTOM;
 1334              		.loc 1 408 0
 1335 0794 FFF7FEFF 		bl	lv_style_copy
 1336              	.LVL65:
 412:..\..\..\lvgl\version_6.1.2\lvgl\src\lv_themes/lv_theme_material.c ****     pr.body.main_color   = lv_color_hex3(0xccc);
 1337              		.loc 1 412 0
 1338 0798 4946     		mov	r1, r9
 1339 079a 09F15000 		add	r0, r9, #80
 410:..\..\..\lvgl\version_6.1.2\lvgl\src\lv_themes/lv_theme_material.c **** 
 1340              		.loc 1 410 0
 1341 079e 4FF00303 		mov	r3, #3	@ movhi
 1342 07a2 A4F82C3B 		strh	r3, [r4, #2860]	@ movhi
 409:..\..\..\lvgl\version_6.1.2\lvgl\src\lv_themes/lv_theme_material.c ****     rel.body.shadow.width = 3;
 1343              		.loc 1 409 0
 1344 07a6 84F82E8B 		strb	r8, [r4, #2862]
 412:..\..\..\lvgl\version_6.1.2\lvgl\src\lv_themes/lv_theme_material.c ****     pr.body.main_color   = lv_color_hex3(0xccc);
 1345              		.loc 1 412 0
 1346 07aa FFF7FEFF 		bl	lv_style_copy
 1347              	.LVL66:
 413:..\..\..\lvgl\version_6.1.2\lvgl\src\lv_themes/lv_theme_material.c ****     pr.body.grad_color   = pr.body.main_color;
 1348              		.loc 1 413 0
 1349 07ae 6FF03303 		mvn	r3, #51
 417:..\..\..\lvgl\version_6.1.2\lvgl\src\lv_themes/lv_theme_material.c ****     tgl_rel.body.main_color   = lv_color_hsv_to_rgb(_hue, 75, 85);
 1350              		.loc 1 417 0
 1351 07b2 04F53B6A 		add	r10, r4, #2992
 413:..\..\..\lvgl\version_6.1.2\lvgl\src\lv_themes/lv_theme_material.c ****     pr.body.grad_color   = pr.body.main_color;
 1352              		.loc 1 413 0
 1353 07b6 84F8643B 		strb	r3, [r4, #2916]
 1354 07ba 84F8653B 		strb	r3, [r4, #2917]
 1355 07be 84F8663B 		strb	r3, [r4, #2918]
 1356 07c2 84F867BB 		strb	fp, [r4, #2919]
 414:..\..\..\lvgl\version_6.1.2\lvgl\src\lv_themes/lv_theme_material.c ****     pr.body.shadow.width = 0;
 1357              		.loc 1 414 0
 1358 07c6 D4F8643B 		ldr	r3, [r4, #2916]
 1359 07ca C4F8683B 		str	r3, [r4, #2920]
 417:..\..\..\lvgl\version_6.1.2\lvgl\src\lv_themes/lv_theme_material.c ****     tgl_rel.body.main_color   = lv_color_hsv_to_rgb(_hue, 75, 85);
 1360              		.loc 1 417 0
 1361 07ce 4946     		mov	r1, r9
 1362 07d0 5046     		mov	r0, r10
 415:..\..\..\lvgl\version_6.1.2\lvgl\src\lv_themes/lv_theme_material.c **** 
ARM GAS  C:\Users\pearlstl\AppData\Local\Temp\cc5dErme.s 			page 47


 1363              		.loc 1 415 0
 1364 07d2 A4F87C8B 		strh	r8, [r4, #2940]	@ movhi
 417:..\..\..\lvgl\version_6.1.2\lvgl\src\lv_themes/lv_theme_material.c ****     tgl_rel.body.main_color   = lv_color_hsv_to_rgb(_hue, 75, 85);
 1365              		.loc 1 417 0
 1366 07d6 FFF7FEFF 		bl	lv_style_copy
 1367              	.LVL67:
 418:..\..\..\lvgl\version_6.1.2\lvgl\src\lv_themes/lv_theme_material.c ****     tgl_rel.body.grad_color   = tgl_rel.body.main_color;
 1368              		.loc 1 418 0
 1369 07da 5522     		movs	r2, #85
 1370 07dc 4B21     		movs	r1, #75
 1371 07de B4F8A801 		ldrh	r0, [r4, #424]
 1372 07e2 FFF7FEFF 		bl	lv_color_hsv_to_rgb
 1373              	.LVL68:
 420:..\..\..\lvgl\version_6.1.2\lvgl\src\lv_themes/lv_theme_material.c ****     tgl_rel.body.shadow.width = 0;
 1374              		.loc 1 420 0
 1375 07e6 4FF00103 		mov	r3, #1
 418:..\..\..\lvgl\version_6.1.2\lvgl\src\lv_themes/lv_theme_material.c ****     tgl_rel.body.grad_color   = tgl_rel.body.main_color;
 1376              		.loc 1 418 0
 1377 07ea C4F8B40B 		str	r0, [r4, #2996]
 419:..\..\..\lvgl\version_6.1.2\lvgl\src\lv_themes/lv_theme_material.c ****     tgl_rel.body.shadow.type  = LV_SHADOW_FULL;
 1378              		.loc 1 419 0
 1379 07ee C4F8B80B 		str	r0, [r4, #3000]
 423:..\..\..\lvgl\version_6.1.2\lvgl\src\lv_themes/lv_theme_material.c ****     tgl_pr.body.main_color   = lv_color_hsv_to_rgb(_hue, 75, 65);
 1380              		.loc 1 423 0
 1381 07f2 5146     		mov	r1, r10
 1382 07f4 0AF15000 		add	r0, r10, #80
 420:..\..\..\lvgl\version_6.1.2\lvgl\src\lv_themes/lv_theme_material.c ****     tgl_rel.body.shadow.width = 0;
 1383              		.loc 1 420 0
 1384 07f8 84F8CE3B 		strb	r3, [r4, #3022]
 421:..\..\..\lvgl\version_6.1.2\lvgl\src\lv_themes/lv_theme_material.c **** 
 1385              		.loc 1 421 0
 1386 07fc A4F8CC8B 		strh	r8, [r4, #3020]	@ movhi
 423:..\..\..\lvgl\version_6.1.2\lvgl\src\lv_themes/lv_theme_material.c ****     tgl_pr.body.main_color   = lv_color_hsv_to_rgb(_hue, 75, 65);
 1387              		.loc 1 423 0
 1388 0800 FFF7FEFF 		bl	lv_style_copy
 1389              	.LVL69:
 424:..\..\..\lvgl\version_6.1.2\lvgl\src\lv_themes/lv_theme_material.c ****     tgl_pr.body.grad_color   = tgl_pr.body.main_color;
 1390              		.loc 1 424 0
 1391 0804 4122     		movs	r2, #65
 1392 0806 4B21     		movs	r1, #75
 1393 0808 B4F8A801 		ldrh	r0, [r4, #424]
 1394 080c FFF7FEFF 		bl	lv_color_hsv_to_rgb
 1395              	.LVL70:
 428:..\..\..\lvgl\version_6.1.2\lvgl\src\lv_themes/lv_theme_material.c **** 
 1396              		.loc 1 428 0
 1397 0810 04F54563 		add	r3, r4, #3152
 424:..\..\..\lvgl\version_6.1.2\lvgl\src\lv_themes/lv_theme_material.c ****     tgl_pr.body.grad_color   = tgl_pr.body.main_color;
 1398              		.loc 1 424 0
 1399 0814 C4F8040C 		str	r0, [r4, #3076]
 425:..\..\..\lvgl\version_6.1.2\lvgl\src\lv_themes/lv_theme_material.c ****     tgl_pr.body.shadow.width = 0;
 1400              		.loc 1 425 0
 1401 0818 C4F8080C 		str	r0, [r4, #3080]
 428:..\..\..\lvgl\version_6.1.2\lvgl\src\lv_themes/lv_theme_material.c **** 
 1402              		.loc 1 428 0
 1403 081c 216A     		ldr	r1, [r4, #32]
 1404 081e 0093     		str	r3, [sp]
 1405 0820 1846     		mov	r0, r3
ARM GAS  C:\Users\pearlstl\AppData\Local\Temp\cc5dErme.s 			page 48


 426:..\..\..\lvgl\version_6.1.2\lvgl\src\lv_themes/lv_theme_material.c **** 
 1406              		.loc 1 426 0
 1407 0822 A4F81C8C 		strh	r8, [r4, #3100]	@ movhi
 428:..\..\..\lvgl\version_6.1.2\lvgl\src\lv_themes/lv_theme_material.c **** 
 1408              		.loc 1 428 0
 1409 0826 FFF7FEFF 		bl	lv_style_copy
 1410              	.LVL71:
 1411              	.LBE298:
 1412              	.LBE304:
 1413              	.LBB305:
 1414              	.LBB306:
 444:..\..\..\lvgl\version_6.1.2\lvgl\src\lv_themes/lv_theme_material.c ****     bg.body.padding.left   = 0;
 1415              		.loc 1 444 0
 1416 082a 04F54A60 		add	r0, r4, #3232
 1417              	.LBE306:
 1418              	.LBE305:
 1419              	.LBB313:
 1420              	.LBB299:
 432:..\..\..\lvgl\version_6.1.2\lvgl\src\lv_themes/lv_theme_material.c ****     theme.style.cb.box.tgl_rel = &tgl_rel;
 1421              		.loc 1 432 0
 1422 082e A0F5A073 		sub	r3, r0, #320
 1423 0832 C4F8B430 		str	r3, [r4, #180]
 430:..\..\..\lvgl\version_6.1.2\lvgl\src\lv_themes/lv_theme_material.c ****     theme.style.cb.box.rel     = &rel;
 1424              		.loc 1 430 0
 1425 0836 C04B     		ldr	r3, .L10
 1426 0838 C4F8AC30 		str	r3, [r4, #172]
 434:..\..\..\lvgl\version_6.1.2\lvgl\src\lv_themes/lv_theme_material.c ****     theme.style.cb.box.ina     = &ina;
 1427              		.loc 1 434 0
 1428 083c A0F1A003 		sub	r3, r0, #160
 1429              	.LBE299:
 1430              	.LBE313:
 1431              	.LBB314:
 1432              	.LBB307:
 444:..\..\..\lvgl\version_6.1.2\lvgl\src\lv_themes/lv_theme_material.c ****     bg.body.padding.left   = 0;
 1433              		.loc 1 444 0
 1434 0840 A168     		ldr	r1, [r4, #8]
 1435              	.LBE307:
 1436              	.LBE314:
 1437              	.LBB315:
 1438              	.LBB300:
 434:..\..\..\lvgl\version_6.1.2\lvgl\src\lv_themes/lv_theme_material.c ****     theme.style.cb.box.ina     = &ina;
 1439              		.loc 1 434 0
 1440 0842 C4F8BC30 		str	r3, [r4, #188]
 435:..\..\..\lvgl\version_6.1.2\lvgl\src\lv_themes/lv_theme_material.c **** #endif
 1441              		.loc 1 435 0
 1442 0846 009B     		ldr	r3, [sp]
 1443 0848 C4F8C030 		str	r3, [r4, #192]
 431:..\..\..\lvgl\version_6.1.2\lvgl\src\lv_themes/lv_theme_material.c ****     theme.style.cb.box.pr      = &pr;
 1444              		.loc 1 431 0
 1445 084c C4F8B090 		str	r9, [r4, #176]
 433:..\..\..\lvgl\version_6.1.2\lvgl\src\lv_themes/lv_theme_material.c ****     theme.style.cb.box.tgl_pr  = &tgl_pr;
 1446              		.loc 1 433 0
 1447 0850 C4F8B8A0 		str	r10, [r4, #184]
 1448              	.LBE300:
 1449              	.LBE315:
 1450              	.LBB316:
 1451              	.LBB308:
ARM GAS  C:\Users\pearlstl\AppData\Local\Temp\cc5dErme.s 			page 49


 444:..\..\..\lvgl\version_6.1.2\lvgl\src\lv_themes/lv_theme_material.c ****     bg.body.padding.left   = 0;
 1452              		.loc 1 444 0
 1453 0854 FFF7FEFF 		bl	lv_style_copy
 1454              	.LVL72:
 450:..\..\..\lvgl\version_6.1.2\lvgl\src\lv_themes/lv_theme_material.c **** 
 1455              		.loc 1 450 0
 1456 0858 4FF0550A 		mov	r10, #85
 452:..\..\..\lvgl\version_6.1.2\lvgl\src\lv_themes/lv_theme_material.c ****     rel.body.border.part  = LV_BORDER_FULL | LV_BORDER_INTERNAL;
 1457              		.loc 1 452 0
 1458 085c 04F54F60 		add	r0, r4, #3312
 1459 0860 A168     		ldr	r1, [r4, #8]
 450:..\..\..\lvgl\version_6.1.2\lvgl\src\lv_themes/lv_theme_material.c **** 
 1460              		.loc 1 450 0
 1461 0862 84F8CCAC 		strb	r10, [r4, #3276]
 459:..\..\..\lvgl\version_6.1.2\lvgl\src\lv_themes/lv_theme_material.c ****     pr.glass             = 0;
 1462              		.loc 1 459 0
 1463 0866 04F55469 		add	r9, r4, #3392
 450:..\..\..\lvgl\version_6.1.2\lvgl\src\lv_themes/lv_theme_material.c **** 
 1464              		.loc 1 450 0
 1465 086a 84F8CDAC 		strb	r10, [r4, #3277]
 1466 086e 84F8CEAC 		strb	r10, [r4, #3278]
 445:..\..\..\lvgl\version_6.1.2\lvgl\src\lv_themes/lv_theme_material.c ****     bg.body.padding.right  = 0;
 1467              		.loc 1 445 0
 1468 0872 A4F8C48C 		strh	r8, [r4, #3268]	@ movhi
 446:..\..\..\lvgl\version_6.1.2\lvgl\src\lv_themes/lv_theme_material.c ****     bg.body.padding.top    = 0;
 1469              		.loc 1 446 0
 1470 0876 A4F8C68C 		strh	r8, [r4, #3270]	@ movhi
 447:..\..\..\lvgl\version_6.1.2\lvgl\src\lv_themes/lv_theme_material.c ****     bg.body.padding.bottom = 0;
 1471              		.loc 1 447 0
 1472 087a A4F8C08C 		strh	r8, [r4, #3264]	@ movhi
 448:..\..\..\lvgl\version_6.1.2\lvgl\src\lv_themes/lv_theme_material.c ****     bg.body.padding.inner  = 0;
 1473              		.loc 1 448 0
 1474 087e A4F8C28C 		strh	r8, [r4, #3266]	@ movhi
 449:..\..\..\lvgl\version_6.1.2\lvgl\src\lv_themes/lv_theme_material.c ****     bg.text.color          = lv_color_hex3(0x555);
 1475              		.loc 1 449 0
 1476 0882 A4F8C88C 		strh	r8, [r4, #3272]	@ movhi
 450:..\..\..\lvgl\version_6.1.2\lvgl\src\lv_themes/lv_theme_material.c **** 
 1477              		.loc 1 450 0
 1478 0886 84F8CFBC 		strb	fp, [r4, #3279]
 452:..\..\..\lvgl\version_6.1.2\lvgl\src\lv_themes/lv_theme_material.c ****     rel.body.border.part  = LV_BORDER_FULL | LV_BORDER_INTERNAL;
 1479              		.loc 1 452 0
 1480 088a FFF7FEFF 		bl	lv_style_copy
 1481              	.LVL73:
 453:..\..\..\lvgl\version_6.1.2\lvgl\src\lv_themes/lv_theme_material.c ****     rel.body.border.width = 1;
 1482              		.loc 1 453 0
 1483 088e 1F23     		movs	r3, #31
 454:..\..\..\lvgl\version_6.1.2\lvgl\src\lv_themes/lv_theme_material.c ****     rel.body.border.color = lv_color_hex3(0xbbb);
 1484              		.loc 1 454 0
 1485 0890 4FF00102 		mov	r2, #1	@ movhi
 459:..\..\..\lvgl\version_6.1.2\lvgl\src\lv_themes/lv_theme_material.c ****     pr.glass             = 0;
 1486              		.loc 1 459 0
 1487 0894 04F54F61 		add	r1, r4, #3312
 1488 0898 4846     		mov	r0, r9
 454:..\..\..\lvgl\version_6.1.2\lvgl\src\lv_themes/lv_theme_material.c ****     rel.body.border.color = lv_color_hex3(0xbbb);
 1489              		.loc 1 454 0
 1490 089a A4F8042D 		strh	r2, [r4, #3332]	@ movhi
 453:..\..\..\lvgl\version_6.1.2\lvgl\src\lv_themes/lv_theme_material.c ****     rel.body.border.width = 1;
ARM GAS  C:\Users\pearlstl\AppData\Local\Temp\cc5dErme.s 			page 50


 1491              		.loc 1 453 0
 1492 089e 84F8063D 		strb	r3, [r4, #3334]
 455:..\..\..\lvgl\version_6.1.2\lvgl\src\lv_themes/lv_theme_material.c ****     rel.body.opa          = LV_OPA_TRANSP;
 1493              		.loc 1 455 0
 1494 08a2 6FF04402 		mvn	r2, #68
 461:..\..\..\lvgl\version_6.1.2\lvgl\src\lv_themes/lv_theme_material.c ****     pr.body.grad_color   = pr.body.main_color;
 1495              		.loc 1 461 0
 1496 08a6 DD23     		movs	r3, #221
 455:..\..\..\lvgl\version_6.1.2\lvgl\src\lv_themes/lv_theme_material.c ****     rel.body.opa          = LV_OPA_TRANSP;
 1497              		.loc 1 455 0
 1498 08a8 84F8002D 		strb	r2, [r4, #3328]
 1499 08ac 84F8012D 		strb	r2, [r4, #3329]
 1500 08b0 84F8022D 		strb	r2, [r4, #3330]
 461:..\..\..\lvgl\version_6.1.2\lvgl\src\lv_themes/lv_theme_material.c ****     pr.body.grad_color   = pr.body.main_color;
 1501              		.loc 1 461 0
 1502 08b4 0093     		str	r3, [sp]
 455:..\..\..\lvgl\version_6.1.2\lvgl\src\lv_themes/lv_theme_material.c ****     rel.body.opa          = LV_OPA_TRANSP;
 1503              		.loc 1 455 0
 1504 08b6 84F803BD 		strb	fp, [r4, #3331]
 456:..\..\..\lvgl\version_6.1.2\lvgl\src\lv_themes/lv_theme_material.c ****     rel.body.shadow.width = 0;
 1505              		.loc 1 456 0
 1506 08ba 84F8FE8C 		strb	r8, [r4, #3326]
 457:..\..\..\lvgl\version_6.1.2\lvgl\src\lv_themes/lv_theme_material.c **** 
 1507              		.loc 1 457 0
 1508 08be A4F80C8D 		strh	r8, [r4, #3340]	@ movhi
 459:..\..\..\lvgl\version_6.1.2\lvgl\src\lv_themes/lv_theme_material.c ****     pr.glass             = 0;
 1509              		.loc 1 459 0
 1510 08c2 FFF7FEFF 		bl	lv_style_copy
 1511              	.LVL74:
 461:..\..\..\lvgl\version_6.1.2\lvgl\src\lv_themes/lv_theme_material.c ****     pr.body.grad_color   = pr.body.main_color;
 1512              		.loc 1 461 0
 1513 08c6 009B     		ldr	r3, [sp]
 460:..\..\..\lvgl\version_6.1.2\lvgl\src\lv_themes/lv_theme_material.c ****     pr.body.main_color   = lv_color_hex3(0xddd);
 1514              		.loc 1 460 0
 1515 08c8 94F840ED 		ldrb	lr, [r4, #3392]	@ zero_extendqisi2
 461:..\..\..\lvgl\version_6.1.2\lvgl\src\lv_themes/lv_theme_material.c ****     pr.body.grad_color   = pr.body.main_color;
 1516              		.loc 1 461 0
 1517 08cc 84F8443D 		strb	r3, [r4, #3396]
 1518 08d0 84F8453D 		strb	r3, [r4, #3397]
 1519 08d4 84F8463D 		strb	r3, [r4, #3398]
 1520 08d8 84F847BD 		strb	fp, [r4, #3399]
 460:..\..\..\lvgl\version_6.1.2\lvgl\src\lv_themes/lv_theme_material.c ****     pr.body.main_color   = lv_color_hex3(0xddd);
 1521              		.loc 1 460 0
 1522 08dc 68F3000E 		bfi	lr, r8, #0, #1
 462:..\..\..\lvgl\version_6.1.2\lvgl\src\lv_themes/lv_theme_material.c ****     pr.body.border.width = 0;
 1523              		.loc 1 462 0
 1524 08e0 D4F8442D 		ldr	r2, [r4, #3396]
 460:..\..\..\lvgl\version_6.1.2\lvgl\src\lv_themes/lv_theme_material.c ****     pr.body.main_color   = lv_color_hex3(0xddd);
 1525              		.loc 1 460 0
 1526 08e4 84F840ED 		strb	lr, [r4, #3392]
 466:..\..\..\lvgl\version_6.1.2\lvgl\src\lv_themes/lv_theme_material.c ****     tgl_rel.body.main_color = lv_color_hsv_to_rgb(_hue, 90, 70);
 1527              		.loc 1 466 0
 1528 08e8 4946     		mov	r1, r9
 1529 08ea 09F15000 		add	r0, r9, #80
 461:..\..\..\lvgl\version_6.1.2\lvgl\src\lv_themes/lv_theme_material.c ****     pr.body.grad_color   = pr.body.main_color;
 1530              		.loc 1 461 0
 1531 08ee 0193     		str	r3, [sp, #4]
ARM GAS  C:\Users\pearlstl\AppData\Local\Temp\cc5dErme.s 			page 51


 462:..\..\..\lvgl\version_6.1.2\lvgl\src\lv_themes/lv_theme_material.c ****     pr.body.border.width = 0;
 1532              		.loc 1 462 0
 1533 08f0 C4F8482D 		str	r2, [r4, #3400]
 463:..\..\..\lvgl\version_6.1.2\lvgl\src\lv_themes/lv_theme_material.c ****     pr.body.opa          = LV_OPA_COVER;
 1534              		.loc 1 463 0
 1535 08f4 A4F8548D 		strh	r8, [r4, #3412]	@ movhi
 464:..\..\..\lvgl\version_6.1.2\lvgl\src\lv_themes/lv_theme_material.c **** 
 1536              		.loc 1 464 0
 1537 08f8 84F84EBD 		strb	fp, [r4, #3406]
 466:..\..\..\lvgl\version_6.1.2\lvgl\src\lv_themes/lv_theme_material.c ****     tgl_rel.body.main_color = lv_color_hsv_to_rgb(_hue, 90, 70);
 1538              		.loc 1 466 0
 1539 08fc FFF7FEFF 		bl	lv_style_copy
 1540              	.LVL75:
 467:..\..\..\lvgl\version_6.1.2\lvgl\src\lv_themes/lv_theme_material.c ****     tgl_rel.body.grad_color = tgl_rel.body.main_color;
 1541              		.loc 1 467 0
 1542 0900 4622     		movs	r2, #70
 1543 0902 5A21     		movs	r1, #90
 1544 0904 B4F8A801 		ldrh	r0, [r4, #424]
 1545 0908 FFF7FEFF 		bl	lv_color_hsv_to_rgb
 1546              	.LVL76:
 469:..\..\..\lvgl\version_6.1.2\lvgl\src\lv_themes/lv_theme_material.c **** 
 1547              		.loc 1 469 0
 1548 090c 5F22     		movs	r2, #95
 467:..\..\..\lvgl\version_6.1.2\lvgl\src\lv_themes/lv_theme_material.c ****     tgl_rel.body.grad_color = tgl_rel.body.main_color;
 1549              		.loc 1 467 0
 1550 090e C4F8940D 		str	r0, [r4, #3476]
 468:..\..\..\lvgl\version_6.1.2\lvgl\src\lv_themes/lv_theme_material.c ****     tgl_rel.text.color      = lv_color_hsv_to_rgb(_hue, 5, 95);
 1551              		.loc 1 468 0
 1552 0912 C4F8980D 		str	r0, [r4, #3480]
 469:..\..\..\lvgl\version_6.1.2\lvgl\src\lv_themes/lv_theme_material.c **** 
 1553              		.loc 1 469 0
 1554 0916 0521     		movs	r1, #5
 1555 0918 B4F8A801 		ldrh	r0, [r4, #424]
 1556 091c FFF7FEFF 		bl	lv_color_hsv_to_rgb
 1557              	.LVL77:
 471:..\..\..\lvgl\version_6.1.2\lvgl\src\lv_themes/lv_theme_material.c ****     tgl_pr.body.main_color   = lv_color_hsv_to_rgb(_hue, 95, 65);
 1558              		.loc 1 471 0
 1559 0920 04F55961 		add	r1, r4, #3472
 469:..\..\..\lvgl\version_6.1.2\lvgl\src\lv_themes/lv_theme_material.c **** 
 1560              		.loc 1 469 0
 1561 0924 C4F8BC0D 		str	r0, [r4, #3516]
 471:..\..\..\lvgl\version_6.1.2\lvgl\src\lv_themes/lv_theme_material.c ****     tgl_pr.body.main_color   = lv_color_hsv_to_rgb(_hue, 95, 65);
 1562              		.loc 1 471 0
 1563 0928 01F15000 		add	r0, r1, #80
 1564 092c FFF7FEFF 		bl	lv_style_copy
 1565              	.LVL78:
 472:..\..\..\lvgl\version_6.1.2\lvgl\src\lv_themes/lv_theme_material.c ****     tgl_pr.body.grad_color   = tgl_pr.body.main_color;
 1566              		.loc 1 472 0
 1567 0930 4122     		movs	r2, #65
 1568 0932 5F21     		movs	r1, #95
 1569 0934 B4F8A801 		ldrh	r0, [r4, #424]
 1570 0938 FFF7FEFF 		bl	lv_color_hsv_to_rgb
 1571              	.LVL79:
 476:..\..\..\lvgl\version_6.1.2\lvgl\src\lv_themes/lv_theme_material.c ****     ina.body.main_color = lv_color_hex3(0xccc);
 1572              		.loc 1 476 0
 1573 093c 4946     		mov	r1, r9
 472:..\..\..\lvgl\version_6.1.2\lvgl\src\lv_themes/lv_theme_material.c ****     tgl_pr.body.grad_color   = tgl_pr.body.main_color;
ARM GAS  C:\Users\pearlstl\AppData\Local\Temp\cc5dErme.s 			page 52


 1574              		.loc 1 472 0
 1575 093e C4F8E40D 		str	r0, [r4, #3556]
 473:..\..\..\lvgl\version_6.1.2\lvgl\src\lv_themes/lv_theme_material.c ****     tgl_pr.body.border.width = 0;
 1576              		.loc 1 473 0
 1577 0942 C4F8E80D 		str	r0, [r4, #3560]
 476:..\..\..\lvgl\version_6.1.2\lvgl\src\lv_themes/lv_theme_material.c ****     ina.body.main_color = lv_color_hex3(0xccc);
 1578              		.loc 1 476 0
 1579 0946 04F56360 		add	r0, r4, #3632
 474:..\..\..\lvgl\version_6.1.2\lvgl\src\lv_themes/lv_theme_material.c **** 
 1580              		.loc 1 474 0
 1581 094a A4F8F48D 		strh	r8, [r4, #3572]	@ movhi
 476:..\..\..\lvgl\version_6.1.2\lvgl\src\lv_themes/lv_theme_material.c ****     ina.body.main_color = lv_color_hex3(0xccc);
 1582              		.loc 1 476 0
 1583 094e FFF7FEFF 		bl	lv_style_copy
 1584              	.LVL80:
 477:..\..\..\lvgl\version_6.1.2\lvgl\src\lv_themes/lv_theme_material.c ****     ina.body.grad_color = ina.body.main_color;
 1585              		.loc 1 477 0
 1586 0952 6FF03303 		mvn	r3, #51
 1587 0956 84F8343E 		strb	r3, [r4, #3636]
 1588 095a 84F8353E 		strb	r3, [r4, #3637]
 1589 095e 84F8363E 		strb	r3, [r4, #3638]
 480:..\..\..\lvgl\version_6.1.2\lvgl\src\lv_themes/lv_theme_material.c ****     theme.style.btnm.btn.rel     = &rel;
 1590              		.loc 1 480 0
 1591 0962 04F54A63 		add	r3, r4, #3232
 1592 0966 C4F8C430 		str	r3, [r4, #196]
 481:..\..\..\lvgl\version_6.1.2\lvgl\src\lv_themes/lv_theme_material.c ****     theme.style.btnm.btn.pr      = &pr;
 1593              		.loc 1 481 0
 1594 096a 04F54F63 		add	r3, r4, #3312
 1595 096e C4F8C830 		str	r3, [r4, #200]
 483:..\..\..\lvgl\version_6.1.2\lvgl\src\lv_themes/lv_theme_material.c ****     theme.style.btnm.btn.tgl_pr  = &tgl_pr;
 1596              		.loc 1 483 0
 1597 0972 A033     		adds	r3, r3, #160
 1598              	.LBE308:
 1599              	.LBE316:
 1600              	.LBB317:
 1601              	.LBB318:
 494:..\..\..\lvgl\version_6.1.2\lvgl\src\lv_themes/lv_theme_material.c ****     rel.text.font = _font;
 1602              		.loc 1 494 0
 1603 0974 04F56862 		add	r2, r4, #3712
 1604              	.LBE318:
 1605              	.LBE317:
 1606              	.LBB325:
 1607              	.LBB309:
 477:..\..\..\lvgl\version_6.1.2\lvgl\src\lv_themes/lv_theme_material.c ****     ina.body.grad_color = ina.body.main_color;
 1608              		.loc 1 477 0
 1609 0978 84F837BE 		strb	fp, [r4, #3639]
 483:..\..\..\lvgl\version_6.1.2\lvgl\src\lv_themes/lv_theme_material.c ****     theme.style.btnm.btn.tgl_pr  = &tgl_pr;
 1610              		.loc 1 483 0
 1611 097c C4F8D030 		str	r3, [r4, #208]
 484:..\..\..\lvgl\version_6.1.2\lvgl\src\lv_themes/lv_theme_material.c ****     theme.style.btnm.btn.ina     = &def;
 1612              		.loc 1 484 0
 1613 0980 5033     		adds	r3, r3, #80
 1614              	.LBE309:
 1615              	.LBE325:
 1616              	.LBB326:
 1617              	.LBB319:
 494:..\..\..\lvgl\version_6.1.2\lvgl\src\lv_themes/lv_theme_material.c ****     rel.text.font = _font;
ARM GAS  C:\Users\pearlstl\AppData\Local\Temp\cc5dErme.s 			page 53


 1618              		.loc 1 494 0
 1619 0982 1046     		mov	r0, r2
 1620              	.LBE319:
 1621              	.LBE326:
 1622              	.LBB327:
 1623              	.LBB310:
 484:..\..\..\lvgl\version_6.1.2\lvgl\src\lv_themes/lv_theme_material.c ****     theme.style.btnm.btn.ina     = &def;
 1624              		.loc 1 484 0
 1625 0984 C4F8D430 		str	r3, [r4, #212]
 1626              	.LBE310:
 1627              	.LBE327:
 1628              	.LBB328:
 1629              	.LBB320:
 494:..\..\..\lvgl\version_6.1.2\lvgl\src\lv_themes/lv_theme_material.c ****     rel.text.font = _font;
 1630              		.loc 1 494 0
 1631 0988 6B49     		ldr	r1, .L10
 1632              	.LBE320:
 1633              	.LBE328:
 1634              	.LBB329:
 1635              	.LBB311:
 478:..\..\..\lvgl\version_6.1.2\lvgl\src\lv_themes/lv_theme_material.c **** 
 1636              		.loc 1 478 0
 1637 098a D4F8343E 		ldr	r3, [r4, #3636]
 1638              	.LBE311:
 1639              	.LBE329:
 1640              	.LBB330:
 1641              	.LBB321:
 494:..\..\..\lvgl\version_6.1.2\lvgl\src\lv_themes/lv_theme_material.c ****     rel.text.font = _font;
 1642              		.loc 1 494 0
 1643 098e 0092     		str	r2, [sp]
 1644              	.LBE321:
 1645              	.LBE330:
 1646              	.LBB331:
 1647              	.LBB312:
 482:..\..\..\lvgl\version_6.1.2\lvgl\src\lv_themes/lv_theme_material.c ****     theme.style.btnm.btn.tgl_rel = &tgl_rel;
 1648              		.loc 1 482 0
 1649 0990 C4F8CC90 		str	r9, [r4, #204]
 485:..\..\..\lvgl\version_6.1.2\lvgl\src\lv_themes/lv_theme_material.c **** #endif
 1650              		.loc 1 485 0
 1651 0994 C4F8D870 		str	r7, [r4, #216]
 478:..\..\..\lvgl\version_6.1.2\lvgl\src\lv_themes/lv_theme_material.c **** 
 1652              		.loc 1 478 0
 1653 0998 C4F8383E 		str	r3, [r4, #3640]
 1654              	.LBE312:
 1655              	.LBE331:
 1656              	.LBB332:
 1657              	.LBB322:
 494:..\..\..\lvgl\version_6.1.2\lvgl\src\lv_themes/lv_theme_material.c ****     rel.text.font = _font;
 1658              		.loc 1 494 0
 1659 099c FFF7FEFF 		bl	lv_style_copy
 1660              	.LVL81:
 497:..\..\..\lvgl\version_6.1.2\lvgl\src\lv_themes/lv_theme_material.c ****     theme.style.kb.btn.rel     = &rel;
 1661              		.loc 1 497 0
 1662 09a0 D4F8C430 		ldr	r3, [r4, #196]
 1663 09a4 C4F8DC30 		str	r3, [r4, #220]
 499:..\..\..\lvgl\version_6.1.2\lvgl\src\lv_themes/lv_theme_material.c ****     theme.style.kb.btn.tgl_rel = theme.style.btnm.btn.tgl_rel;
 1664              		.loc 1 499 0
ARM GAS  C:\Users\pearlstl\AppData\Local\Temp\cc5dErme.s 			page 54


 1665 09a8 D4F8CC30 		ldr	r3, [r4, #204]
 498:..\..\..\lvgl\version_6.1.2\lvgl\src\lv_themes/lv_theme_material.c ****     theme.style.kb.btn.pr      = theme.style.btnm.btn.pr;
 1666              		.loc 1 498 0
 1667 09ac 009A     		ldr	r2, [sp]
 499:..\..\..\lvgl\version_6.1.2\lvgl\src\lv_themes/lv_theme_material.c ****     theme.style.kb.btn.tgl_rel = theme.style.btnm.btn.tgl_rel;
 1668              		.loc 1 499 0
 1669 09ae C4F8E430 		str	r3, [r4, #228]
 500:..\..\..\lvgl\version_6.1.2\lvgl\src\lv_themes/lv_theme_material.c ****     theme.style.kb.btn.tgl_pr  = theme.style.btnm.btn.tgl_pr;
 1670              		.loc 1 500 0
 1671 09b2 D4F8D030 		ldr	r3, [r4, #208]
 495:..\..\..\lvgl\version_6.1.2\lvgl\src\lv_themes/lv_theme_material.c **** 
 1672              		.loc 1 495 0
 1673 09b6 D4F8AC71 		ldr	r7, [r4, #428]
 498:..\..\..\lvgl\version_6.1.2\lvgl\src\lv_themes/lv_theme_material.c ****     theme.style.kb.btn.pr      = theme.style.btnm.btn.pr;
 1674              		.loc 1 498 0
 1675 09ba C4F8E020 		str	r2, [r4, #224]
 1676              	.LBE322:
 1677              	.LBE332:
 1678              	.LBB333:
 1679              	.LBB334:
 511:..\..\..\lvgl\version_6.1.2\lvgl\src\lv_themes/lv_theme_material.c ****     rel.glass      = 0;
 1680              		.loc 1 511 0
 1681 09be 04F56D60 		add	r0, r4, #3792
 1682              	.LBE334:
 1683              	.LBE333:
 1684              	.LBB341:
 1685              	.LBB323:
 502:..\..\..\lvgl\version_6.1.2\lvgl\src\lv_themes/lv_theme_material.c **** #endif
 1686              		.loc 1 502 0
 1687 09c2 D4F8D820 		ldr	r2, [r4, #216]
 500:..\..\..\lvgl\version_6.1.2\lvgl\src\lv_themes/lv_theme_material.c ****     theme.style.kb.btn.tgl_pr  = theme.style.btnm.btn.tgl_pr;
 1688              		.loc 1 500 0
 1689 09c6 C4F8E830 		str	r3, [r4, #232]
 1690              	.LBE323:
 1691              	.LBE341:
 1692              	.LBB342:
 1693              	.LBB335:
 511:..\..\..\lvgl\version_6.1.2\lvgl\src\lv_themes/lv_theme_material.c ****     rel.glass      = 0;
 1694              		.loc 1 511 0
 1695 09ca 5B49     		ldr	r1, .L10
 1696              	.LBE335:
 1697              	.LBE342:
 1698              	.LBB343:
 1699              	.LBB324:
 501:..\..\..\lvgl\version_6.1.2\lvgl\src\lv_themes/lv_theme_material.c ****     theme.style.kb.btn.ina     = theme.style.btnm.btn.ina;
 1700              		.loc 1 501 0
 1701 09cc D4F8D430 		ldr	r3, [r4, #212]
 1702 09d0 C4F8EC30 		str	r3, [r4, #236]
 495:..\..\..\lvgl\version_6.1.2\lvgl\src\lv_themes/lv_theme_material.c **** 
 1703              		.loc 1 495 0
 1704 09d4 C4F8B47E 		str	r7, [r4, #3764]
 502:..\..\..\lvgl\version_6.1.2\lvgl\src\lv_themes/lv_theme_material.c **** #endif
 1705              		.loc 1 502 0
 1706 09d8 C4F8F020 		str	r2, [r4, #240]
 1707              	.LBE324:
 1708              	.LBE343:
 1709              	.LBB344:
ARM GAS  C:\Users\pearlstl\AppData\Local\Temp\cc5dErme.s 			page 55


 1710              	.LBB336:
 511:..\..\..\lvgl\version_6.1.2\lvgl\src\lv_themes/lv_theme_material.c ****     rel.glass      = 0;
 1711              		.loc 1 511 0
 1712 09dc FFF7FEFF 		bl	lv_style_copy
 1713              	.LVL82:
 512:..\..\..\lvgl\version_6.1.2\lvgl\src\lv_themes/lv_theme_material.c ****     rel.text.font  = _font;
 1714              		.loc 1 512 0
 1715 09e0 94F8D07E 		ldrb	r7, [r4, #3792]	@ zero_extendqisi2
 513:..\..\..\lvgl\version_6.1.2\lvgl\src\lv_themes/lv_theme_material.c ****     rel.text.color = lv_color_hsv_to_rgb(_hue, 85, 75);
 1716              		.loc 1 513 0
 1717 09e4 D4F8AC21 		ldr	r2, [r4, #428]
 1718 09e8 C4F8042F 		str	r2, [r4, #3844]
 512:..\..\..\lvgl\version_6.1.2\lvgl\src\lv_themes/lv_theme_material.c ****     rel.text.font  = _font;
 1719              		.loc 1 512 0
 1720 09ec 68F30007 		bfi	r7, r8, #0, #1
 514:..\..\..\lvgl\version_6.1.2\lvgl\src\lv_themes/lv_theme_material.c **** 
 1721              		.loc 1 514 0
 1722 09f0 5146     		mov	r1, r10
 1723 09f2 4B22     		movs	r2, #75
 1724 09f4 B4F8A801 		ldrh	r0, [r4, #424]
 512:..\..\..\lvgl\version_6.1.2\lvgl\src\lv_themes/lv_theme_material.c ****     rel.text.font  = _font;
 1725              		.loc 1 512 0
 1726 09f8 84F8D07E 		strb	r7, [r4, #3792]
 514:..\..\..\lvgl\version_6.1.2\lvgl\src\lv_themes/lv_theme_material.c **** 
 1727              		.loc 1 514 0
 1728 09fc FFF7FEFF 		bl	lv_color_hsv_to_rgb
 1729              	.LVL83:
 516:..\..\..\lvgl\version_6.1.2\lvgl\src\lv_themes/lv_theme_material.c ****     pr.text.color = lv_color_hsv_to_rgb(_hue, 85, 60);
 1730              		.loc 1 516 0
 1731 0a00 04F57267 		add	r7, r4, #3872
 514:..\..\..\lvgl\version_6.1.2\lvgl\src\lv_themes/lv_theme_material.c **** 
 1732              		.loc 1 514 0
 1733 0a04 C4F8FC0E 		str	r0, [r4, #3836]
 516:..\..\..\lvgl\version_6.1.2\lvgl\src\lv_themes/lv_theme_material.c ****     pr.text.color = lv_color_hsv_to_rgb(_hue, 85, 60);
 1734              		.loc 1 516 0
 1735 0a08 D4F8CC10 		ldr	r1, [r4, #204]
 1736 0a0c 3846     		mov	r0, r7
 1737 0a0e FFF7FEFF 		bl	lv_style_copy
 1738              	.LVL84:
 517:..\..\..\lvgl\version_6.1.2\lvgl\src\lv_themes/lv_theme_material.c **** 
 1739              		.loc 1 517 0
 1740 0a12 5146     		mov	r1, r10
 1741 0a14 3C22     		movs	r2, #60
 1742 0a16 B4F8A801 		ldrh	r0, [r4, #424]
 1743 0a1a FFF7FEFF 		bl	lv_color_hsv_to_rgb
 1744              	.LVL85:
 521:..\..\..\lvgl\version_6.1.2\lvgl\src\lv_themes/lv_theme_material.c ****     theme.style.mbox.btn.pr  = &pr;
 1745              		.loc 1 521 0
 1746 0a1e 04F56D63 		add	r3, r4, #3792
 1747              	.LBE336:
 1748              	.LBE344:
 1749              	.LBB345:
 1750              	.LBB346:
 541:..\..\..\lvgl\version_6.1.2\lvgl\src\lv_themes/lv_theme_material.c ****     oneline.body.opa          = LV_OPA_TRANSP;
 1751              		.loc 1 541 0
 1752 0a22 04F57769 		add	r9, r4, #3952
 1753              	.LBE346:
ARM GAS  C:\Users\pearlstl\AppData\Local\Temp\cc5dErme.s 			page 56


 1754              	.LBE345:
 1755              	.LBB353:
 1756              	.LBB337:
 521:..\..\..\lvgl\version_6.1.2\lvgl\src\lv_themes/lv_theme_material.c ****     theme.style.mbox.btn.pr  = &pr;
 1757              		.loc 1 521 0
 1758 0a26 C4F8FC30 		str	r3, [r4, #252]
 520:..\..\..\lvgl\version_6.1.2\lvgl\src\lv_themes/lv_theme_material.c ****     theme.style.mbox.btn.rel = &rel;
 1759              		.loc 1 520 0
 1760 0a2a 434B     		ldr	r3, .L10
 519:..\..\..\lvgl\version_6.1.2\lvgl\src\lv_themes/lv_theme_material.c ****     theme.style.mbox.btn.bg  = &lv_style_transp;
 1761              		.loc 1 519 0
 1762 0a2c A268     		ldr	r2, [r4, #8]
 517:..\..\..\lvgl\version_6.1.2\lvgl\src\lv_themes/lv_theme_material.c **** 
 1763              		.loc 1 517 0
 1764 0a2e C4F84C0F 		str	r0, [r4, #3916]
 1765              	.LBE337:
 1766              	.LBE353:
 1767              	.LBB354:
 1768              	.LBB347:
 541:..\..\..\lvgl\version_6.1.2\lvgl\src\lv_themes/lv_theme_material.c ****     oneline.body.opa          = LV_OPA_TRANSP;
 1769              		.loc 1 541 0
 1770 0a32 3146     		mov	r1, r6
 1771 0a34 4846     		mov	r0, r9
 1772              	.LBE347:
 1773              	.LBE354:
 1774              	.LBB355:
 1775              	.LBB338:
 520:..\..\..\lvgl\version_6.1.2\lvgl\src\lv_themes/lv_theme_material.c ****     theme.style.mbox.btn.rel = &rel;
 1776              		.loc 1 520 0
 1777 0a36 C4F8F830 		str	r3, [r4, #248]
 1778              	.LBE338:
 1779              	.LBE355:
 1780              	.LBB356:
 1781              	.LBB357:
 531:..\..\..\lvgl\version_6.1.2\lvgl\src\lv_themes/lv_theme_material.c ****     theme.style.page.sb   = &sb;
 1782              		.loc 1 531 0
 1783 0a3a C4F80831 		str	r3, [r4, #264]
 532:..\..\..\lvgl\version_6.1.2\lvgl\src\lv_themes/lv_theme_material.c **** #endif
 1784              		.loc 1 532 0
 1785 0a3e A9F54863 		sub	r3, r9, #3200
 1786              	.LBE357:
 1787              	.LBE356:
 1788              	.LBB360:
 1789              	.LBB339:
 522:..\..\..\lvgl\version_6.1.2\lvgl\src\lv_themes/lv_theme_material.c **** #endif
 1790              		.loc 1 522 0
 1791 0a42 C4F80071 		str	r7, [r4, #256]
 1792              	.LBE339:
 1793              	.LBE360:
 1794              	.LBB361:
 1795              	.LBB358:
 532:..\..\..\lvgl\version_6.1.2\lvgl\src\lv_themes/lv_theme_material.c **** #endif
 1796              		.loc 1 532 0
 1797 0a46 C4F80C31 		str	r3, [r4, #268]
 1798              	.LBE358:
 1799              	.LBE361:
 1800              	.LBB362:
ARM GAS  C:\Users\pearlstl\AppData\Local\Temp\cc5dErme.s 			page 57


 1801              	.LBB340:
 519:..\..\..\lvgl\version_6.1.2\lvgl\src\lv_themes/lv_theme_material.c ****     theme.style.mbox.btn.bg  = &lv_style_transp;
 1802              		.loc 1 519 0
 1803 0a4a C4F8F420 		str	r2, [r4, #244]
 1804              	.LBE340:
 1805              	.LBE362:
 1806              	.LBB363:
 1807              	.LBB359:
 530:..\..\..\lvgl\version_6.1.2\lvgl\src\lv_themes/lv_theme_material.c ****     theme.style.page.scrl = &lv_style_transp;
 1808              		.loc 1 530 0
 1809 0a4e C4F80421 		str	r2, [r4, #260]
 1810              	.LBE359:
 1811              	.LBE363:
 1812              	.LBB364:
 1813              	.LBB348:
 541:..\..\..\lvgl\version_6.1.2\lvgl\src\lv_themes/lv_theme_material.c ****     oneline.body.opa          = LV_OPA_TRANSP;
 1814              		.loc 1 541 0
 1815 0a52 FFF7FEFF 		bl	lv_style_copy
 1816              	.LVL86:
 545:..\..\..\lvgl\version_6.1.2\lvgl\src\lv_themes/lv_theme_material.c ****     oneline.body.border.color = lv_color_hex3(0x333);
 1817              		.loc 1 545 0
 1818 0a56 4FF00303 		mov	r3, #3	@ movhi
 550:..\..\..\lvgl\version_6.1.2\lvgl\src\lv_themes/lv_theme_material.c ****     theme.style.ta.oneline = &oneline;
 1819              		.loc 1 550 0
 1820 0a5a A268     		ldr	r2, [r4, #8]
 545:..\..\..\lvgl\version_6.1.2\lvgl\src\lv_themes/lv_theme_material.c ****     oneline.body.border.color = lv_color_hex3(0x333);
 1821              		.loc 1 545 0
 1822 0a5c A4F8843F 		strh	r3, [r4, #3972]	@ movhi
 544:..\..\..\lvgl\version_6.1.2\lvgl\src\lv_themes/lv_theme_material.c ****     oneline.body.border.width = 3;
 1823              		.loc 1 544 0
 1824 0a60 4FF00103 		mov	r3, #1
 1825              	.LBE348:
 1826              	.LBE364:
 1827              	.LBB365:
 1828              	.LBB162:
 572:..\..\..\lvgl\version_6.1.2\lvgl\src\lv_themes/lv_theme_material.c ****     list_bg.body.padding.left   = 0;
 1829              		.loc 1 572 0
 1830 0a64 04F57C60 		add	r0, r4, #4032
 1831              	.LBE162:
 1832              	.LBE365:
 1833              	.LBB366:
 1834              	.LBB349:
 544:..\..\..\lvgl\version_6.1.2\lvgl\src\lv_themes/lv_theme_material.c ****     oneline.body.border.width = 3;
 1835              		.loc 1 544 0
 1836 0a68 84F8863F 		strb	r3, [r4, #3974]
 546:..\..\..\lvgl\version_6.1.2\lvgl\src\lv_themes/lv_theme_material.c ****     oneline.body.border.opa   = LV_OPA_COVER;
 1837              		.loc 1 546 0
 1838 0a6c 4FF03303 		mov	r3, #51
 1839              	.LBE349:
 1840              	.LBE366:
 1841              	.LBB367:
 1842              	.LBB163:
 572:..\..\..\lvgl\version_6.1.2\lvgl\src\lv_themes/lv_theme_material.c ****     list_bg.body.padding.left   = 0;
 1843              		.loc 1 572 0
 1844 0a70 1146     		mov	r1, r2
 579:..\..\..\lvgl\version_6.1.2\lvgl\src\lv_themes/lv_theme_material.c ****     rel.body.padding.left   = LV_DPI / 8;
 1845              		.loc 1 579 0
ARM GAS  C:\Users\pearlstl\AppData\Local\Temp\cc5dErme.s 			page 58


 1846 0a72 A5F1E80A 		sub	r10, r5, #232
 1847              	.LBE163:
 1848              	.LBE367:
 1849              	.LBB368:
 1850              	.LBB350:
 546:..\..\..\lvgl\version_6.1.2\lvgl\src\lv_themes/lv_theme_material.c ****     oneline.body.border.opa   = LV_OPA_COVER;
 1851              		.loc 1 546 0
 1852 0a76 84F8803F 		strb	r3, [r4, #3968]
 1853 0a7a 84F8813F 		strb	r3, [r4, #3969]
 1854 0a7e 84F8823F 		strb	r3, [r4, #3970]
 548:..\..\..\lvgl\version_6.1.2\lvgl\src\lv_themes/lv_theme_material.c **** 
 1855              		.loc 1 548 0
 1856 0a82 84F89C3F 		strb	r3, [r4, #3996]
 1857 0a86 84F89D3F 		strb	r3, [r4, #3997]
 1858 0a8a 84F89E3F 		strb	r3, [r4, #3998]
 553:..\..\..\lvgl\version_6.1.2\lvgl\src\lv_themes/lv_theme_material.c **** #endif
 1859              		.loc 1 553 0
 1860 0a8e A0F54D63 		sub	r3, r0, #3280
 550:..\..\..\lvgl\version_6.1.2\lvgl\src\lv_themes/lv_theme_material.c ****     theme.style.ta.oneline = &oneline;
 1861              		.loc 1 550 0
 1862 0a92 C4F81021 		str	r2, [r4, #272]
 1863              	.LBE350:
 1864              	.LBE368:
 1865              	.LBB369:
 1866              	.LBB370:
 560:..\..\..\lvgl\version_6.1.2\lvgl\src\lv_themes/lv_theme_material.c ****     theme.style.spinbox.cursor = theme.style.ta.cursor;
 1867              		.loc 1 560 0
 1868 0a96 C4F82021 		str	r2, [r4, #288]
 1869              	.LBE370:
 1870              	.LBE369:
 1871              	.LBB373:
 1872              	.LBB351:
 553:..\..\..\lvgl\version_6.1.2\lvgl\src\lv_themes/lv_theme_material.c **** #endif
 1873              		.loc 1 553 0
 1874 0a9a C4F81C31 		str	r3, [r4, #284]
 1875              	.LBE351:
 1876              	.LBE373:
 1877              	.LBB374:
 1878              	.LBB371:
 562:..\..\..\lvgl\version_6.1.2\lvgl\src\lv_themes/lv_theme_material.c **** #endif
 1879              		.loc 1 562 0
 1880 0a9e C4F82831 		str	r3, [r4, #296]
 1881              	.LBE371:
 1882              	.LBE374:
 1883              	.LBB375:
 1884              	.LBB352:
 551:..\..\..\lvgl\version_6.1.2\lvgl\src\lv_themes/lv_theme_material.c ****     theme.style.ta.cursor  = NULL; /*Let library to calculate the cursor's style*/
 1885              		.loc 1 551 0
 1886 0aa2 C4F81491 		str	r9, [r4, #276]
 542:..\..\..\lvgl\version_6.1.2\lvgl\src\lv_themes/lv_theme_material.c ****     oneline.body.radius       = 0;
 1887              		.loc 1 542 0
 1888 0aa6 84F87E8F 		strb	r8, [r4, #3966]
 543:..\..\..\lvgl\version_6.1.2\lvgl\src\lv_themes/lv_theme_material.c ****     oneline.body.border.part  = LV_BORDER_BOTTOM;
 1889              		.loc 1 543 0
 1890 0aaa A4F87C8F 		strh	r8, [r4, #3964]	@ movhi
 546:..\..\..\lvgl\version_6.1.2\lvgl\src\lv_themes/lv_theme_material.c ****     oneline.body.border.opa   = LV_OPA_COVER;
 1891              		.loc 1 546 0
ARM GAS  C:\Users\pearlstl\AppData\Local\Temp\cc5dErme.s 			page 59


 1892 0aae 84F883BF 		strb	fp, [r4, #3971]
 547:..\..\..\lvgl\version_6.1.2\lvgl\src\lv_themes/lv_theme_material.c ****     oneline.text.color        = lv_color_hex3(0x333);
 1893              		.loc 1 547 0
 1894 0ab2 84F887BF 		strb	fp, [r4, #3975]
 548:..\..\..\lvgl\version_6.1.2\lvgl\src\lv_themes/lv_theme_material.c **** 
 1895              		.loc 1 548 0
 1896 0ab6 84F89FBF 		strb	fp, [r4, #3999]
 552:..\..\..\lvgl\version_6.1.2\lvgl\src\lv_themes/lv_theme_material.c ****     theme.style.ta.sb      = &sb;
 1897              		.loc 1 552 0
 1898 0aba C4F81881 		str	r8, [r4, #280]
 1899              	.LBE352:
 1900              	.LBE375:
 1901              	.LBB376:
 1902              	.LBB372:
 561:..\..\..\lvgl\version_6.1.2\lvgl\src\lv_themes/lv_theme_material.c ****     theme.style.spinbox.sb     = theme.style.ta.sb;
 1903              		.loc 1 561 0
 1904 0abe C4F82481 		str	r8, [r4, #292]
 1905              	.LBE372:
 1906              	.LBE376:
 1907              	.LBB377:
 1908              	.LBB164:
 572:..\..\..\lvgl\version_6.1.2\lvgl\src\lv_themes/lv_theme_material.c ****     list_bg.body.padding.left   = 0;
 1909              		.loc 1 572 0
 1910 0ac2 FFF7FEFF 		bl	lv_style_copy
 1911              	.LVL87:
 579:..\..\..\lvgl\version_6.1.2\lvgl\src\lv_themes/lv_theme_material.c ****     rel.body.padding.left   = LV_DPI / 8;
 1912              		.loc 1 579 0
 1913 0ac6 5046     		mov	r0, r10
 1914 0ac8 1B49     		ldr	r1, .L10
 573:..\..\..\lvgl\version_6.1.2\lvgl\src\lv_themes/lv_theme_material.c ****     list_bg.body.padding.right  = 0;
 1915              		.loc 1 573 0
 1916 0aca A4F8E48F 		strh	r8, [r4, #4068]	@ movhi
 574:..\..\..\lvgl\version_6.1.2\lvgl\src\lv_themes/lv_theme_material.c ****     list_bg.body.padding.top    = 0;
 1917              		.loc 1 574 0
 1918 0ace A4F8E68F 		strh	r8, [r4, #4070]	@ movhi
 575:..\..\..\lvgl\version_6.1.2\lvgl\src\lv_themes/lv_theme_material.c ****     list_bg.body.padding.bottom = 0;
 1919              		.loc 1 575 0
 1920 0ad2 A4F8E08F 		strh	r8, [r4, #4064]	@ movhi
 576:..\..\..\lvgl\version_6.1.2\lvgl\src\lv_themes/lv_theme_material.c ****     list_bg.body.padding.inner  = 0;
 1921              		.loc 1 576 0
 1922 0ad6 A4F8E28F 		strh	r8, [r4, #4066]	@ movhi
 577:..\..\..\lvgl\version_6.1.2\lvgl\src\lv_themes/lv_theme_material.c **** 
 1923              		.loc 1 577 0
 1924 0ada A4F8E88F 		strh	r8, [r4, #4072]	@ movhi
 579:..\..\..\lvgl\version_6.1.2\lvgl\src\lv_themes/lv_theme_material.c ****     rel.body.padding.left   = LV_DPI / 8;
 1925              		.loc 1 579 0
 1926 0ade FFF7FEFF 		bl	lv_style_copy
 1927              	.LVL88:
 584:..\..\..\lvgl\version_6.1.2\lvgl\src\lv_themes/lv_theme_material.c ****     rel.body.border.color   = lv_color_hex3(0xbbb);
 1928              		.loc 1 584 0
 1929 0ae2 4FF00A03 		mov	r3, #10	@ movhi
 1930 0ae6 25F8DC3C 		strh	r3, [r5, #-220]	@ movhi
 582:..\..\..\lvgl\version_6.1.2\lvgl\src\lv_themes/lv_theme_material.c ****     rel.body.padding.bottom = LV_DPI / 6;
 1931              		.loc 1 582 0
 1932 0aea 4FF01903 		mov	r3, #25	@ movhi
 1933 0aee 25F8C83C 		strh	r3, [r5, #-200]	@ movhi
 583:..\..\..\lvgl\version_6.1.2\lvgl\src\lv_themes/lv_theme_material.c ****     rel.body.radius         = 10;
ARM GAS  C:\Users\pearlstl\AppData\Local\Temp\cc5dErme.s 			page 60


 1934              		.loc 1 583 0
 1935 0af2 25F8C63C 		strh	r3, [r5, #-198]	@ movhi
 580:..\..\..\lvgl\version_6.1.2\lvgl\src\lv_themes/lv_theme_material.c ****     rel.body.padding.right  = LV_DPI / 8;
 1936              		.loc 1 580 0
 1937 0af6 4FF01203 		mov	r3, #18	@ movhi
 589:..\..\..\lvgl\version_6.1.2\lvgl\src\lv_themes/lv_theme_material.c ****     pr.glass             = 0;
 1938              		.loc 1 589 0
 1939 0afa A5F19807 		sub	r7, r5, #152
 580:..\..\..\lvgl\version_6.1.2\lvgl\src\lv_themes/lv_theme_material.c ****     rel.body.padding.right  = LV_DPI / 8;
 1940              		.loc 1 580 0
 1941 0afe 25F8C43C 		strh	r3, [r5, #-196]	@ movhi
 581:..\..\..\lvgl\version_6.1.2\lvgl\src\lv_themes/lv_theme_material.c ****     rel.body.padding.top    = LV_DPI / 6;
 1942              		.loc 1 581 0
 1943 0b02 25F8C23C 		strh	r3, [r5, #-194]	@ movhi
 585:..\..\..\lvgl\version_6.1.2\lvgl\src\lv_themes/lv_theme_material.c ****     rel.body.border.width   = 1;
 1944              		.loc 1 585 0
 1945 0b06 6FF04403 		mvn	r3, #68
 589:..\..\..\lvgl\version_6.1.2\lvgl\src\lv_themes/lv_theme_material.c ****     pr.glass             = 0;
 1946              		.loc 1 589 0
 1947 0b0a 5146     		mov	r1, r10
 1948 0b0c 3846     		mov	r0, r7
 585:..\..\..\lvgl\version_6.1.2\lvgl\src\lv_themes/lv_theme_material.c ****     rel.body.border.width   = 1;
 1949              		.loc 1 585 0
 1950 0b0e 05F8D83C 		strb	r3, [r5, #-216]
 1951 0b12 05F8D73C 		strb	r3, [r5, #-215]
 1952 0b16 05F8D63C 		strb	r3, [r5, #-214]
 586:..\..\..\lvgl\version_6.1.2\lvgl\src\lv_themes/lv_theme_material.c ****     rel.body.border.part    = LV_BORDER_BOTTOM;
 1953              		.loc 1 586 0
 1954 0b1a 4FF00103 		mov	r3, #1	@ movhi
 1955 0b1e 25F8D43C 		strh	r3, [r5, #-212]	@ movhi
 587:..\..\..\lvgl\version_6.1.2\lvgl\src\lv_themes/lv_theme_material.c **** 
 1956              		.loc 1 587 0
 1957 0b22 05F8D23C 		strb	r3, [r5, #-210]
 585:..\..\..\lvgl\version_6.1.2\lvgl\src\lv_themes/lv_theme_material.c ****     rel.body.border.width   = 1;
 1958              		.loc 1 585 0
 1959 0b26 05F8D5BC 		strb	fp, [r5, #-213]
 589:..\..\..\lvgl\version_6.1.2\lvgl\src\lv_themes/lv_theme_material.c ****     pr.glass             = 0;
 1960              		.loc 1 589 0
 1961 0b2a FFF7FEFF 		bl	lv_style_copy
 1962              	.LVL89:
 590:..\..\..\lvgl\version_6.1.2\lvgl\src\lv_themes/lv_theme_material.c ****     pr.body.main_color   = lv_color_hex3(0xddd);
 1963              		.loc 1 590 0
 1964 0b2e 15F8981C 		ldrb	r1, [r5, #-152]	@ zero_extendqisi2
 591:..\..\..\lvgl\version_6.1.2\lvgl\src\lv_themes/lv_theme_material.c ****     pr.body.grad_color   = pr.body.main_color;
 1965              		.loc 1 591 0
 1966 0b32 019B     		ldr	r3, [sp, #4]
 1967 0b34 02E0     		b	.L11
 1968              	.L12:
 1969 0b36 00BF     		.align	2
 1970              	.L10:
 1971 0b38 00000000 		.word	lv_style_transp
 1972              	.L11:
 1973 0b3c 05F8943C 		strb	r3, [r5, #-148]
 1974 0b40 05F8933C 		strb	r3, [r5, #-147]
 1975 0b44 05F8923C 		strb	r3, [r5, #-146]
 1976 0b48 05F891BC 		strb	fp, [r5, #-145]
 596:..\..\..\lvgl\version_6.1.2\lvgl\src\lv_themes/lv_theme_material.c **** 
ARM GAS  C:\Users\pearlstl\AppData\Local\Temp\cc5dErme.s 			page 61


 1977              		.loc 1 596 0
 1978 0b4c D4F8AC31 		ldr	r3, [r4, #428]
 592:..\..\..\lvgl\version_6.1.2\lvgl\src\lv_themes/lv_theme_material.c ****     pr.body.border.width = 0;
 1979              		.loc 1 592 0
 1980 0b50 55F8942C 		ldr	r2, [r5, #-148]
 596:..\..\..\lvgl\version_6.1.2\lvgl\src\lv_themes/lv_theme_material.c **** 
 1981              		.loc 1 596 0
 1982 0b54 45F8643C 		str	r3, [r5, #-100]
 590:..\..\..\lvgl\version_6.1.2\lvgl\src\lv_themes/lv_theme_material.c ****     pr.body.main_color   = lv_color_hex3(0xddd);
 1983              		.loc 1 590 0
 1984 0b58 68F30001 		bfi	r1, r8, #0, #1
 595:..\..\..\lvgl\version_6.1.2\lvgl\src\lv_themes/lv_theme_material.c ****     pr.text.font         = _font;
 1985              		.loc 1 595 0
 1986 0b5c 4FF00403 		mov	r3, #4	@ movhi
 590:..\..\..\lvgl\version_6.1.2\lvgl\src\lv_themes/lv_theme_material.c ****     pr.body.main_color   = lv_color_hex3(0xddd);
 1987              		.loc 1 590 0
 1988 0b60 05F8981C 		strb	r1, [r5, #-152]
 598:..\..\..\lvgl\version_6.1.2\lvgl\src\lv_themes/lv_theme_material.c ****     tgl_rel.body.main_color = lv_color_hsv_to_rgb(_hue, 90, 70);
 1989              		.loc 1 598 0
 1990 0b64 07F15000 		add	r0, r7, #80
 1991 0b68 3946     		mov	r1, r7
 595:..\..\..\lvgl\version_6.1.2\lvgl\src\lv_themes/lv_theme_material.c ****     pr.text.font         = _font;
 1992              		.loc 1 595 0
 1993 0b6a 25F88C3C 		strh	r3, [r5, #-140]	@ movhi
 592:..\..\..\lvgl\version_6.1.2\lvgl\src\lv_themes/lv_theme_material.c ****     pr.body.border.width = 0;
 1994              		.loc 1 592 0
 1995 0b6e 45F8902C 		str	r2, [r5, #-144]
 593:..\..\..\lvgl\version_6.1.2\lvgl\src\lv_themes/lv_theme_material.c ****     pr.body.opa          = LV_OPA_COVER;
 1996              		.loc 1 593 0
 1997 0b72 25F8848C 		strh	r8, [r5, #-132]	@ movhi
 594:..\..\..\lvgl\version_6.1.2\lvgl\src\lv_themes/lv_theme_material.c ****     pr.body.radius       = DEF_RADIUS;
 1998              		.loc 1 594 0
 1999 0b76 05F88ABC 		strb	fp, [r5, #-138]
 598:..\..\..\lvgl\version_6.1.2\lvgl\src\lv_themes/lv_theme_material.c ****     tgl_rel.body.main_color = lv_color_hsv_to_rgb(_hue, 90, 70);
 2000              		.loc 1 598 0
 2001 0b7a FFF7FEFF 		bl	lv_style_copy
 2002              	.LVL90:
 599:..\..\..\lvgl\version_6.1.2\lvgl\src\lv_themes/lv_theme_material.c ****     tgl_rel.body.grad_color = tgl_rel.body.main_color;
 2003              		.loc 1 599 0
 2004 0b7e 4622     		movs	r2, #70
 2005 0b80 5A21     		movs	r1, #90
 2006 0b82 B4F8A801 		ldrh	r0, [r4, #424]
 2007 0b86 FFF7FEFF 		bl	lv_color_hsv_to_rgb
 2008              	.LVL91:
 601:..\..\..\lvgl\version_6.1.2\lvgl\src\lv_themes/lv_theme_material.c **** 
 2009              		.loc 1 601 0
 2010 0b8a 5F22     		movs	r2, #95
 599:..\..\..\lvgl\version_6.1.2\lvgl\src\lv_themes/lv_theme_material.c ****     tgl_rel.body.grad_color = tgl_rel.body.main_color;
 2011              		.loc 1 599 0
 2012 0b8c 45F8440C 		str	r0, [r5, #-68]
 600:..\..\..\lvgl\version_6.1.2\lvgl\src\lv_themes/lv_theme_material.c ****     tgl_rel.text.color      = lv_color_hsv_to_rgb(_hue, 5, 95);
 2013              		.loc 1 600 0
 2014 0b90 45F8400C 		str	r0, [r5, #-64]
 601:..\..\..\lvgl\version_6.1.2\lvgl\src\lv_themes/lv_theme_material.c **** 
 2015              		.loc 1 601 0
 2016 0b94 0521     		movs	r1, #5
 2017 0b96 B4F8A801 		ldrh	r0, [r4, #424]
ARM GAS  C:\Users\pearlstl\AppData\Local\Temp\cc5dErme.s 			page 62


 2018 0b9a FFF7FEFF 		bl	lv_color_hsv_to_rgb
 2019              	.LVL92:
 603:..\..\..\lvgl\version_6.1.2\lvgl\src\lv_themes/lv_theme_material.c ****     tgl_pr.body.main_color   = lv_color_hsv_to_rgb(_hue, 90, 60);
 2020              		.loc 1 603 0
 2021 0b9e 05F10803 		add	r3, r5, #8
 601:..\..\..\lvgl\version_6.1.2\lvgl\src\lv_themes/lv_theme_material.c **** 
 2022              		.loc 1 601 0
 2023 0ba2 45F81C0C 		str	r0, [r5, #-28]
 603:..\..\..\lvgl\version_6.1.2\lvgl\src\lv_themes/lv_theme_material.c ****     tgl_pr.body.main_color   = lv_color_hsv_to_rgb(_hue, 90, 60);
 2024              		.loc 1 603 0
 2025 0ba6 A5F14801 		sub	r1, r5, #72
 2026 0baa 1846     		mov	r0, r3
 2027 0bac 0193     		str	r3, [sp, #4]
 2028 0bae FFF7FEFF 		bl	lv_style_copy
 2029              	.LVL93:
 604:..\..\..\lvgl\version_6.1.2\lvgl\src\lv_themes/lv_theme_material.c ****     tgl_pr.body.grad_color   = tgl_pr.body.main_color;
 2030              		.loc 1 604 0
 2031 0bb2 3C22     		movs	r2, #60
 2032 0bb4 5A21     		movs	r1, #90
 2033 0bb6 B4F8A801 		ldrh	r0, [r4, #424]
 2034 0bba FFF7FEFF 		bl	lv_color_hsv_to_rgb
 2035              	.LVL94:
 608:..\..\..\lvgl\version_6.1.2\lvgl\src\lv_themes/lv_theme_material.c ****     ina.body.main_color = lv_color_hex3(0xccc);
 2036              		.loc 1 608 0
 2037 0bbe 05F15802 		add	r2, r5, #88
 604:..\..\..\lvgl\version_6.1.2\lvgl\src\lv_themes/lv_theme_material.c ****     tgl_pr.body.grad_color   = tgl_pr.body.main_color;
 2038              		.loc 1 604 0
 2039 0bc2 E860     		str	r0, [r5, #12]
 605:..\..\..\lvgl\version_6.1.2\lvgl\src\lv_themes/lv_theme_material.c ****     tgl_pr.body.border.width = 0;
 2040              		.loc 1 605 0
 2041 0bc4 2861     		str	r0, [r5, #16]
 608:..\..\..\lvgl\version_6.1.2\lvgl\src\lv_themes/lv_theme_material.c ****     ina.body.main_color = lv_color_hex3(0xccc);
 2042              		.loc 1 608 0
 2043 0bc6 3946     		mov	r1, r7
 2044 0bc8 1046     		mov	r0, r2
 2045              	.LBE164:
 2046              	.LBE377:
 2047              	.LBB378:
 2048              	.LBB379:
 627:..\..\..\lvgl\version_6.1.2\lvgl\src\lv_themes/lv_theme_material.c ****     bg.body.padding.left   = LV_DPI / 6;
 2049              		.loc 1 627 0
 2050 0bca 05F1A809 		add	r9, r5, #168
 2051              	.LBE379:
 2052              	.LBE378:
 2053              	.LBB387:
 2054              	.LBB165:
 608:..\..\..\lvgl\version_6.1.2\lvgl\src\lv_themes/lv_theme_material.c ****     ina.body.main_color = lv_color_hex3(0xccc);
 2055              		.loc 1 608 0
 2056 0bce 0092     		str	r2, [sp]
 606:..\..\..\lvgl\version_6.1.2\lvgl\src\lv_themes/lv_theme_material.c **** 
 2057              		.loc 1 606 0
 2058 0bd0 A5F81C80 		strh	r8, [r5, #28]	@ movhi
 608:..\..\..\lvgl\version_6.1.2\lvgl\src\lv_themes/lv_theme_material.c ****     ina.body.main_color = lv_color_hex3(0xccc);
 2059              		.loc 1 608 0
 2060 0bd4 FFF7FEFF 		bl	lv_style_copy
 2061              	.LVL95:
 609:..\..\..\lvgl\version_6.1.2\lvgl\src\lv_themes/lv_theme_material.c ****     ina.body.grad_color = ina.body.main_color;
ARM GAS  C:\Users\pearlstl\AppData\Local\Temp\cc5dErme.s 			page 63


 2062              		.loc 1 609 0
 2063 0bd8 6FF03303 		mvn	r3, #51
 2064 0bdc 85F85C30 		strb	r3, [r5, #92]
 2065 0be0 85F85D30 		strb	r3, [r5, #93]
 2066 0be4 85F85E30 		strb	r3, [r5, #94]
 617:..\..\..\lvgl\version_6.1.2\lvgl\src\lv_themes/lv_theme_material.c ****     theme.style.list.btn.tgl_pr  = &tgl_pr;
 2067              		.loc 1 617 0
 2068 0be8 A9F1F003 		sub	r3, r9, #240
 2069 0bec C4F84031 		str	r3, [r4, #320]
 618:..\..\..\lvgl\version_6.1.2\lvgl\src\lv_themes/lv_theme_material.c ****     theme.style.list.btn.ina     = &ina;
 2070              		.loc 1 618 0
 2071 0bf0 019B     		ldr	r3, [sp, #4]
 2072 0bf2 C4F84431 		str	r3, [r4, #324]
 612:..\..\..\lvgl\version_6.1.2\lvgl\src\lv_themes/lv_theme_material.c ****     theme.style.list.bg          = &list_bg;
 2073              		.loc 1 612 0
 2074 0bf6 04F53C73 		add	r3, r4, #752
 609:..\..\..\lvgl\version_6.1.2\lvgl\src\lv_themes/lv_theme_material.c ****     ina.body.grad_color = ina.body.main_color;
 2075              		.loc 1 609 0
 2076 0bfa 85F85FB0 		strb	fp, [r5, #95]
 612:..\..\..\lvgl\version_6.1.2\lvgl\src\lv_themes/lv_theme_material.c ****     theme.style.list.bg          = &list_bg;
 2077              		.loc 1 612 0
 2078 0bfe C4F83431 		str	r3, [r4, #308]
 613:..\..\..\lvgl\version_6.1.2\lvgl\src\lv_themes/lv_theme_material.c ****     theme.style.list.scrl        = &lv_style_transp_tight;
 2079              		.loc 1 613 0
 2080 0c02 04F57C63 		add	r3, r4, #4032
 2081 0c06 C4F82C31 		str	r3, [r4, #300]
 610:..\..\..\lvgl\version_6.1.2\lvgl\src\lv_themes/lv_theme_material.c **** 
 2082              		.loc 1 610 0
 2083 0c0a EB6D     		ldr	r3, [r5, #92]
 619:..\..\..\lvgl\version_6.1.2\lvgl\src\lv_themes/lv_theme_material.c **** #endif
 2084              		.loc 1 619 0
 2085 0c0c 009A     		ldr	r2, [sp]
 2086              	.LBE165:
 2087              	.LBE387:
 2088              	.LBB388:
 2089              	.LBB380:
 627:..\..\..\lvgl\version_6.1.2\lvgl\src\lv_themes/lv_theme_material.c ****     bg.body.padding.left   = LV_DPI / 6;
 2090              		.loc 1 627 0
 2091 0c0e A168     		ldr	r1, [r4, #8]
 2092              	.LBE380:
 2093              	.LBE388:
 2094              	.LBB389:
 2095              	.LBB166:
 610:..\..\..\lvgl\version_6.1.2\lvgl\src\lv_themes/lv_theme_material.c **** 
 2096              		.loc 1 610 0
 2097 0c10 2B66     		str	r3, [r5, #96]
 2098              	.LBE166:
 2099              	.LBE389:
 2100              	.LBB390:
 2101              	.LBB381:
 627:..\..\..\lvgl\version_6.1.2\lvgl\src\lv_themes/lv_theme_material.c ****     bg.body.padding.left   = LV_DPI / 6;
 2102              		.loc 1 627 0
 2103 0c12 4846     		mov	r0, r9
 2104              	.LBE381:
 2105              	.LBE390:
 2106              	.LBB391:
 2107              	.LBB167:
ARM GAS  C:\Users\pearlstl\AppData\Local\Temp\cc5dErme.s 			page 64


 614:..\..\..\lvgl\version_6.1.2\lvgl\src\lv_themes/lv_theme_material.c ****     theme.style.list.btn.rel     = &rel;
 2108              		.loc 1 614 0
 2109 0c14 F74B     		ldr	r3, .L13
 619:..\..\..\lvgl\version_6.1.2\lvgl\src\lv_themes/lv_theme_material.c **** #endif
 2110              		.loc 1 619 0
 2111 0c16 C4F84821 		str	r2, [r4, #328]
 615:..\..\..\lvgl\version_6.1.2\lvgl\src\lv_themes/lv_theme_material.c ****     theme.style.list.btn.pr      = &pr;
 2112              		.loc 1 615 0
 2113 0c1a C4F838A1 		str	r10, [r4, #312]
 616:..\..\..\lvgl\version_6.1.2\lvgl\src\lv_themes/lv_theme_material.c ****     theme.style.list.btn.tgl_rel = &tgl_rel;
 2114              		.loc 1 616 0
 2115 0c1e C4F83C71 		str	r7, [r4, #316]
 2116              	.LBE167:
 2117              	.LBE391:
 2118              	.LBB392:
 2119              	.LBB382:
 634:..\..\..\lvgl\version_6.1.2\lvgl\src\lv_themes/lv_theme_material.c ****     sel.body.main_color   = lv_color_hsv_to_rgb(_hue, 90, 70);
 2120              		.loc 1 634 0
 2121 0c22 05F1F80A 		add	r10, r5, #248
 2122              	.LBE382:
 2123              	.LBE392:
 2124              	.LBB393:
 2125              	.LBB168:
 614:..\..\..\lvgl\version_6.1.2\lvgl\src\lv_themes/lv_theme_material.c ****     theme.style.list.btn.rel     = &rel;
 2126              		.loc 1 614 0
 2127 0c26 C4F83031 		str	r3, [r4, #304]
 2128              	.LBE168:
 2129              	.LBE393:
 2130              	.LBB394:
 2131              	.LBB383:
 627:..\..\..\lvgl\version_6.1.2\lvgl\src\lv_themes/lv_theme_material.c ****     bg.body.padding.left   = LV_DPI / 6;
 2132              		.loc 1 627 0
 2133 0c2a FFF7FEFF 		bl	lv_style_copy
 2134              	.LVL96:
 628:..\..\..\lvgl\version_6.1.2\lvgl\src\lv_themes/lv_theme_material.c ****     bg.body.padding.right  = LV_DPI / 6;
 2135              		.loc 1 628 0
 2136 0c2e 4FF01903 		mov	r3, #25	@ movhi
 634:..\..\..\lvgl\version_6.1.2\lvgl\src\lv_themes/lv_theme_material.c ****     sel.body.main_color   = lv_color_hsv_to_rgb(_hue, 90, 70);
 2137              		.loc 1 634 0
 2138 0c32 4946     		mov	r1, r9
 2139 0c34 5046     		mov	r0, r10
 628:..\..\..\lvgl\version_6.1.2\lvgl\src\lv_themes/lv_theme_material.c ****     bg.body.padding.right  = LV_DPI / 6;
 2140              		.loc 1 628 0
 2141 0c36 A5F8CC30 		strh	r3, [r5, #204]	@ movhi
 629:..\..\..\lvgl\version_6.1.2\lvgl\src\lv_themes/lv_theme_material.c ****     bg.body.padding.top    = LV_DPI / 6;
 2142              		.loc 1 629 0
 2143 0c3a A5F8CE30 		strh	r3, [r5, #206]	@ movhi
 630:..\..\..\lvgl\version_6.1.2\lvgl\src\lv_themes/lv_theme_material.c ****     bg.body.padding.bottom = LV_DPI / 6;
 2144              		.loc 1 630 0
 2145 0c3e A5F8C830 		strh	r3, [r5, #200]	@ movhi
 631:..\..\..\lvgl\version_6.1.2\lvgl\src\lv_themes/lv_theme_material.c ****     bg.text.line_space     = LV_DPI / 8;
 2146              		.loc 1 631 0
 2147 0c42 A5F8CA30 		strh	r3, [r5, #202]	@ movhi
 632:..\..\..\lvgl\version_6.1.2\lvgl\src\lv_themes/lv_theme_material.c **** 
 2148              		.loc 1 632 0
 2149 0c46 4FF01203 		mov	r3, #18	@ movhi
 2150 0c4a A5F8E230 		strh	r3, [r5, #226]	@ movhi
ARM GAS  C:\Users\pearlstl\AppData\Local\Temp\cc5dErme.s 			page 65


 634:..\..\..\lvgl\version_6.1.2\lvgl\src\lv_themes/lv_theme_material.c ****     sel.body.main_color   = lv_color_hsv_to_rgb(_hue, 90, 70);
 2151              		.loc 1 634 0
 2152 0c4e FFF7FEFF 		bl	lv_style_copy
 2153              	.LVL97:
 635:..\..\..\lvgl\version_6.1.2\lvgl\src\lv_themes/lv_theme_material.c ****     sel.body.grad_color   = sel.body.main_color;
 2154              		.loc 1 635 0
 2155 0c52 4622     		movs	r2, #70
 2156 0c54 5A21     		movs	r1, #90
 2157 0c56 B4F8A801 		ldrh	r0, [r4, #424]
 2158 0c5a FFF7FEFF 		bl	lv_color_hsv_to_rgb
 2159              	.LVL98:
 639:..\..\..\lvgl\version_6.1.2\lvgl\src\lv_themes/lv_theme_material.c **** 
 2160              		.loc 1 639 0
 2161 0c5e 5F22     		movs	r2, #95
 635:..\..\..\lvgl\version_6.1.2\lvgl\src\lv_themes/lv_theme_material.c ****     sel.body.grad_color   = sel.body.main_color;
 2162              		.loc 1 635 0
 2163 0c60 C5F8FC00 		str	r0, [r5, #252]
 636:..\..\..\lvgl\version_6.1.2\lvgl\src\lv_themes/lv_theme_material.c ****     sel.body.border.width = 0;
 2164              		.loc 1 636 0
 2165 0c64 C5F80001 		str	r0, [r5, #256]
 639:..\..\..\lvgl\version_6.1.2\lvgl\src\lv_themes/lv_theme_material.c **** 
 2166              		.loc 1 639 0
 2167 0c68 0521     		movs	r1, #5
 2168 0c6a B4F8A801 		ldrh	r0, [r4, #424]
 637:..\..\..\lvgl\version_6.1.2\lvgl\src\lv_themes/lv_theme_material.c ****     sel.body.shadow.width = 0;
 2169              		.loc 1 637 0
 2170 0c6e A5F80C81 		strh	r8, [r5, #268]	@ movhi
 638:..\..\..\lvgl\version_6.1.2\lvgl\src\lv_themes/lv_theme_material.c ****     sel.text.color        = lv_color_hsv_to_rgb(_hue, 5, 95);
 2171              		.loc 1 638 0
 2172 0c72 A5F81481 		strh	r8, [r5, #276]	@ movhi
 639:..\..\..\lvgl\version_6.1.2\lvgl\src\lv_themes/lv_theme_material.c **** 
 2173              		.loc 1 639 0
 2174 0c76 FFF7FEFF 		bl	lv_color_hsv_to_rgb
 2175              	.LVL99:
 2176              	.LBE383:
 2177              	.LBE394:
 2178              	.LBB395:
 2179              	.LBB396:
 652:..\..\..\lvgl\version_6.1.2\lvgl\src\lv_themes/lv_theme_material.c ****     roller_bg.body.padding.left   = LV_DPI / 6;
 2180              		.loc 1 652 0
 2181 0c7a 05F5A477 		add	r7, r5, #328
 2182              	.LBE396:
 2183              	.LBE395:
 2184              	.LBB402:
 2185              	.LBB384:
 643:..\..\..\lvgl\version_6.1.2\lvgl\src\lv_themes/lv_theme_material.c **** #endif
 2186              		.loc 1 643 0
 2187 0c7e 04F53C73 		add	r3, r4, #752
 639:..\..\..\lvgl\version_6.1.2\lvgl\src\lv_themes/lv_theme_material.c **** 
 2188              		.loc 1 639 0
 2189 0c82 C5F82401 		str	r0, [r5, #292]
 2190              	.LBE384:
 2191              	.LBE402:
 2192              	.LBB403:
 2193              	.LBB397:
 652:..\..\..\lvgl\version_6.1.2\lvgl\src\lv_themes/lv_theme_material.c ****     roller_bg.body.padding.left   = LV_DPI / 6;
 2194              		.loc 1 652 0
ARM GAS  C:\Users\pearlstl\AppData\Local\Temp\cc5dErme.s 			page 66


 2195 0c86 DC49     		ldr	r1, .L13+4
 2196              	.LBE397:
 2197              	.LBE403:
 2198              	.LBB404:
 2199              	.LBB385:
 641:..\..\..\lvgl\version_6.1.2\lvgl\src\lv_themes/lv_theme_material.c ****     theme.style.ddlist.sel = &sel;
 2200              		.loc 1 641 0
 2201 0c88 C4F84C91 		str	r9, [r4, #332]
 2202              	.LBE385:
 2203              	.LBE404:
 2204              	.LBB405:
 2205              	.LBB398:
 652:..\..\..\lvgl\version_6.1.2\lvgl\src\lv_themes/lv_theme_material.c ****     roller_bg.body.padding.left   = LV_DPI / 6;
 2206              		.loc 1 652 0
 2207 0c8c 3846     		mov	r0, r7
 2208              	.LBE398:
 2209              	.LBE405:
 2210              	.LBB406:
 2211              	.LBB386:
 642:..\..\..\lvgl\version_6.1.2\lvgl\src\lv_themes/lv_theme_material.c ****     theme.style.ddlist.sb  = &sb;
 2212              		.loc 1 642 0
 2213 0c8e C4F850A1 		str	r10, [r4, #336]
 643:..\..\..\lvgl\version_6.1.2\lvgl\src\lv_themes/lv_theme_material.c **** #endif
 2214              		.loc 1 643 0
 2215 0c92 C4F85431 		str	r3, [r4, #340]
 2216              	.LBE386:
 2217              	.LBE406:
 2218              	.LBB407:
 2219              	.LBB399:
 652:..\..\..\lvgl\version_6.1.2\lvgl\src\lv_themes/lv_theme_material.c ****     roller_bg.body.padding.left   = LV_DPI / 6;
 2220              		.loc 1 652 0
 2221 0c96 FFF7FEFF 		bl	lv_style_copy
 2222              	.LVL100:
 659:..\..\..\lvgl\version_6.1.2\lvgl\src\lv_themes/lv_theme_material.c **** 
 2223              		.loc 1 659 0
 2224 0c9a 95F84821 		ldrb	r2, [r5, #328]	@ zero_extendqisi2
 658:..\..\..\lvgl\version_6.1.2\lvgl\src\lv_themes/lv_theme_material.c ****     roller_bg.glass               = 0;
 2225              		.loc 1 658 0
 2226 0c9e D4F8AC31 		ldr	r3, [r4, #428]
 2227 0ca2 C5F87C31 		str	r3, [r5, #380]
 661:..\..\..\lvgl\version_6.1.2\lvgl\src\lv_themes/lv_theme_material.c ****     roller_sel.text.color = lv_color_hsv_to_rgb(_hue, 90, 70);
 2228              		.loc 1 661 0
 2229 0ca6 05F5CC79 		add	r9, r5, #408
 654:..\..\..\lvgl\version_6.1.2\lvgl\src\lv_themes/lv_theme_material.c ****     roller_bg.body.padding.top    = LV_DPI / 6;
 2230              		.loc 1 654 0
 2231 0caa 4FF0190E 		mov	lr, #25	@ movhi
 653:..\..\..\lvgl\version_6.1.2\lvgl\src\lv_themes/lv_theme_material.c ****     roller_bg.body.padding.right  = LV_DPI / 6;
 2232              		.loc 1 653 0
 2233 0cae 4FF01901 		mov	r1, #25	@ movhi
 659:..\..\..\lvgl\version_6.1.2\lvgl\src\lv_themes/lv_theme_material.c **** 
 2234              		.loc 1 659 0
 2235 0cb2 68F30002 		bfi	r2, r8, #0, #1
 653:..\..\..\lvgl\version_6.1.2\lvgl\src\lv_themes/lv_theme_material.c ****     roller_bg.body.padding.right  = LV_DPI / 6;
 2236              		.loc 1 653 0
 2237 0cb6 A5F86C11 		strh	r1, [r5, #364]	@ movhi
 661:..\..\..\lvgl\version_6.1.2\lvgl\src\lv_themes/lv_theme_material.c ****     roller_sel.text.color = lv_color_hsv_to_rgb(_hue, 90, 70);
 2238              		.loc 1 661 0
ARM GAS  C:\Users\pearlstl\AppData\Local\Temp\cc5dErme.s 			page 67


 2239 0cba 4846     		mov	r0, r9
 2240 0cbc 3946     		mov	r1, r7
 654:..\..\..\lvgl\version_6.1.2\lvgl\src\lv_themes/lv_theme_material.c ****     roller_bg.body.padding.top    = LV_DPI / 6;
 2241              		.loc 1 654 0
 2242 0cbe A5F86EE1 		strh	lr, [r5, #366]	@ movhi
 655:..\..\..\lvgl\version_6.1.2\lvgl\src\lv_themes/lv_theme_material.c ****     roller_bg.body.padding.bottom = LV_DPI / 6;
 2243              		.loc 1 655 0
 2244 0cc2 A5F868E1 		strh	lr, [r5, #360]	@ movhi
 656:..\..\..\lvgl\version_6.1.2\lvgl\src\lv_themes/lv_theme_material.c ****     roller_bg.text.line_space     = LV_DPI / 8;
 2245              		.loc 1 656 0
 2246 0cc6 A5F86AE1 		strh	lr, [r5, #362]	@ movhi
 657:..\..\..\lvgl\version_6.1.2\lvgl\src\lv_themes/lv_theme_material.c ****     roller_bg.text.font           = _font;
 2247              		.loc 1 657 0
 2248 0cca 4FF0120E 		mov	lr, #18	@ movhi
 2249 0cce A5F882E1 		strh	lr, [r5, #386]	@ movhi
 659:..\..\..\lvgl\version_6.1.2\lvgl\src\lv_themes/lv_theme_material.c **** 
 2250              		.loc 1 659 0
 2251 0cd2 85F84821 		strb	r2, [r5, #328]
 661:..\..\..\lvgl\version_6.1.2\lvgl\src\lv_themes/lv_theme_material.c ****     roller_sel.text.color = lv_color_hsv_to_rgb(_hue, 90, 70);
 2252              		.loc 1 661 0
 2253 0cd6 FFF7FEFF 		bl	lv_style_copy
 2254              	.LVL101:
 662:..\..\..\lvgl\version_6.1.2\lvgl\src\lv_themes/lv_theme_material.c **** 
 2255              		.loc 1 662 0
 2256 0cda 4622     		movs	r2, #70
 2257 0cdc 5A21     		movs	r1, #90
 2258 0cde B4F8A801 		ldrh	r0, [r4, #424]
 2259 0ce2 FFF7FEFF 		bl	lv_color_hsv_to_rgb
 2260              	.LVL102:
 2261              	.LBE399:
 2262              	.LBE407:
 2263              	.LBB408:
 2264              	.LBB409:
 674:..\..\..\lvgl\version_6.1.2\lvgl\src\lv_themes/lv_theme_material.c ****     indic.body.main_color    = lv_color_hsv_to_rgb(_hue, 90, 70);
 2265              		.loc 1 674 0
 2266 0ce6 3146     		mov	r1, r6
 2267              	.LBE409:
 2268              	.LBE408:
 2269              	.LBB417:
 2270              	.LBB400:
 662:..\..\..\lvgl\version_6.1.2\lvgl\src\lv_themes/lv_theme_material.c **** 
 2271              		.loc 1 662 0
 2272 0ce8 C5F8C401 		str	r0, [r5, #452]
 2273              	.LBE400:
 2274              	.LBE417:
 2275              	.LBB418:
 2276              	.LBB410:
 674:..\..\..\lvgl\version_6.1.2\lvgl\src\lv_themes/lv_theme_material.c ****     indic.body.main_color    = lv_color_hsv_to_rgb(_hue, 90, 70);
 2277              		.loc 1 674 0
 2278 0cec 05F5F470 		add	r0, r5, #488
 2279              	.LBE410:
 2280              	.LBE418:
 2281              	.LBB419:
 2282              	.LBB401:
 664:..\..\..\lvgl\version_6.1.2\lvgl\src\lv_themes/lv_theme_material.c ****     theme.style.roller.sel = &roller_sel;
 2283              		.loc 1 664 0
 2284 0cf0 C4F85871 		str	r7, [r4, #344]
ARM GAS  C:\Users\pearlstl\AppData\Local\Temp\cc5dErme.s 			page 68


 665:..\..\..\lvgl\version_6.1.2\lvgl\src\lv_themes/lv_theme_material.c **** #endif
 2285              		.loc 1 665 0
 2286 0cf4 C4F85C91 		str	r9, [r4, #348]
 2287              	.LBE401:
 2288              	.LBE419:
 2289              	.LBB420:
 2290              	.LBB411:
 674:..\..\..\lvgl\version_6.1.2\lvgl\src\lv_themes/lv_theme_material.c ****     indic.body.main_color    = lv_color_hsv_to_rgb(_hue, 90, 70);
 2291              		.loc 1 674 0
 2292 0cf8 FFF7FEFF 		bl	lv_style_copy
 2293              	.LVL103:
 675:..\..\..\lvgl\version_6.1.2\lvgl\src\lv_themes/lv_theme_material.c ****     indic.body.grad_color    = indic.body.main_color;
 2294              		.loc 1 675 0
 2295 0cfc 4622     		movs	r2, #70
 2296 0cfe 5A21     		movs	r1, #90
 2297 0d00 B4F8A801 		ldrh	r0, [r4, #424]
 2298 0d04 FFF7FEFF 		bl	lv_color_hsv_to_rgb
 2299              	.LVL104:
 681:..\..\..\lvgl\version_6.1.2\lvgl\src\lv_themes/lv_theme_material.c ****     btn_bg.body.main_color     = lv_color_hex3(0xccc);
 2300              		.loc 1 681 0
 2301 0d08 05F50E73 		add	r3, r5, #568
 675:..\..\..\lvgl\version_6.1.2\lvgl\src\lv_themes/lv_theme_material.c ****     indic.body.grad_color    = indic.body.main_color;
 2302              		.loc 1 675 0
 2303 0d0c C5F8EC01 		str	r0, [r5, #492]
 676:..\..\..\lvgl\version_6.1.2\lvgl\src\lv_themes/lv_theme_material.c ****     indic.body.radius        = 0;
 2304              		.loc 1 676 0
 2305 0d10 C5F8F001 		str	r0, [r5, #496]
 681:..\..\..\lvgl\version_6.1.2\lvgl\src\lv_themes/lv_theme_material.c ****     btn_bg.body.main_color     = lv_color_hex3(0xccc);
 2306              		.loc 1 681 0
 2307 0d14 3146     		mov	r1, r6
 2308 0d16 1846     		mov	r0, r3
 2309 0d18 0193     		str	r3, [sp, #4]
 679:..\..\..\lvgl\version_6.1.2\lvgl\src\lv_themes/lv_theme_material.c **** 
 2310              		.loc 1 679 0
 2311 0d1a 4FF00703 		mov	r3, #7	@ movhi
 2312 0d1e A5F81032 		strh	r3, [r5, #528]	@ movhi
 677:..\..\..\lvgl\version_6.1.2\lvgl\src\lv_themes/lv_theme_material.c ****     indic.body.border.width  = 0;
 2313              		.loc 1 677 0
 2314 0d22 A5F8F481 		strh	r8, [r5, #500]	@ movhi
 678:..\..\..\lvgl\version_6.1.2\lvgl\src\lv_themes/lv_theme_material.c ****     indic.body.padding.inner = LV_DPI / 20;
 2315              		.loc 1 678 0
 2316 0d26 A5F8FC81 		strh	r8, [r5, #508]	@ movhi
 681:..\..\..\lvgl\version_6.1.2\lvgl\src\lv_themes/lv_theme_material.c ****     btn_bg.body.main_color     = lv_color_hex3(0xccc);
 2317              		.loc 1 681 0
 2318 0d2a FFF7FEFF 		bl	lv_style_copy
 2319              	.LVL105:
 682:..\..\..\lvgl\version_6.1.2\lvgl\src\lv_themes/lv_theme_material.c ****     btn_bg.body.grad_color     = btn_bg.body.main_color;
 2320              		.loc 1 682 0
 2321 0d2e 6FF03303 		mvn	r3, #51
 2322 0d32 85F83C32 		strb	r3, [r5, #572]
 2323 0d36 85F83D32 		strb	r3, [r5, #573]
 2324 0d3a 85F83E32 		strb	r3, [r5, #574]
 689:..\..\..\lvgl\version_6.1.2\lvgl\src\lv_themes/lv_theme_material.c ****     btn_bg.body.shadow.color   = DEF_SHADOW_COLOR;
 2325              		.loc 1 689 0
 2326 0d3e 4FF00503 		mov	r3, #5	@ movhi
 2327 0d42 A5F85432 		strh	r3, [r5, #596]	@ movhi
 697:..\..\..\lvgl\version_6.1.2\lvgl\src\lv_themes/lv_theme_material.c **** 
ARM GAS  C:\Users\pearlstl\AppData\Local\Temp\cc5dErme.s 			page 69


 2328              		.loc 1 697 0
 2329 0d46 4FF03303 		mov	r3, #51
 682:..\..\..\lvgl\version_6.1.2\lvgl\src\lv_themes/lv_theme_material.c ****     btn_bg.body.grad_color     = btn_bg.body.main_color;
 2330              		.loc 1 682 0
 2331 0d4a 85F83FB2 		strb	fp, [r5, #575]
 697:..\..\..\lvgl\version_6.1.2\lvgl\src\lv_themes/lv_theme_material.c **** 
 2332              		.loc 1 697 0
 2333 0d4e 85F86432 		strb	r3, [r5, #612]
 2334 0d52 85F86532 		strb	r3, [r5, #613]
 2335 0d56 85F86632 		strb	r3, [r5, #614]
 690:..\..\..\lvgl\version_6.1.2\lvgl\src\lv_themes/lv_theme_material.c ****     btn_bg.body.shadow.type    = LV_SHADOW_BOTTOM;
 2336              		.loc 1 690 0
 2337 0d5a 6FF05503 		mvn	r3, #85
 686:..\..\..\lvgl\version_6.1.2\lvgl\src\lv_themes/lv_theme_material.c ****     btn_bg.body.border.part    = LV_BORDER_BOTTOM;
 2338              		.loc 1 686 0
 2339 0d5e 4FF08809 		mov	r9, #136
 683:..\..\..\lvgl\version_6.1.2\lvgl\src\lv_themes/lv_theme_material.c ****     btn_bg.body.radius         = 0;
 2340              		.loc 1 683 0
 2341 0d62 D5F83C22 		ldr	r2, [r5, #572]
 690:..\..\..\lvgl\version_6.1.2\lvgl\src\lv_themes/lv_theme_material.c ****     btn_bg.body.shadow.type    = LV_SHADOW_BOTTOM;
 2342              		.loc 1 690 0
 2343 0d66 85F85032 		strb	r3, [r5, #592]
 699:..\..\..\lvgl\version_6.1.2\lvgl\src\lv_themes/lv_theme_material.c ****     rel.body.padding.top    = LV_DPI / 8;
 2344              		.loc 1 699 0
 2345 0d6a 05F52270 		add	r0, r5, #648
 690:..\..\..\lvgl\version_6.1.2\lvgl\src\lv_themes/lv_theme_material.c ****     btn_bg.body.shadow.type    = LV_SHADOW_BOTTOM;
 2346              		.loc 1 690 0
 2347 0d6e 85F85132 		strb	r3, [r5, #593]
 2348 0d72 85F85232 		strb	r3, [r5, #594]
 699:..\..\..\lvgl\version_6.1.2\lvgl\src\lv_themes/lv_theme_material.c ****     rel.body.padding.top    = LV_DPI / 8;
 2349              		.loc 1 699 0
 2350 0d76 A049     		ldr	r1, .L13+4
 683:..\..\..\lvgl\version_6.1.2\lvgl\src\lv_themes/lv_theme_material.c ****     btn_bg.body.radius         = 0;
 2351              		.loc 1 683 0
 2352 0d78 C5F84022 		str	r2, [r5, #576]
 685:..\..\..\lvgl\version_6.1.2\lvgl\src\lv_themes/lv_theme_material.c ****     btn_bg.body.border.color   = lv_color_hex3(0x888);
 2353              		.loc 1 685 0
 2354 0d7c 4FF00103 		mov	r3, #1	@ movhi
 2355 0d80 A5F84C32 		strh	r3, [r5, #588]	@ movhi
 687:..\..\..\lvgl\version_6.1.2\lvgl\src\lv_themes/lv_theme_material.c ****     btn_bg.body.border.opa     = LV_OPA_COVER;
 2356              		.loc 1 687 0
 2357 0d84 85F84E32 		strb	r3, [r5, #590]
 686:..\..\..\lvgl\version_6.1.2\lvgl\src\lv_themes/lv_theme_material.c ****     btn_bg.body.border.part    = LV_BORDER_BOTTOM;
 2358              		.loc 1 686 0
 2359 0d88 85F84892 		strb	r9, [r5, #584]
 2360 0d8c 85F84992 		strb	r9, [r5, #585]
 2361 0d90 85F84A92 		strb	r9, [r5, #586]
 684:..\..\..\lvgl\version_6.1.2\lvgl\src\lv_themes/lv_theme_material.c ****     btn_bg.body.border.width   = 1;
 2362              		.loc 1 684 0
 2363 0d94 A5F84482 		strh	r8, [r5, #580]	@ movhi
 691:..\..\..\lvgl\version_6.1.2\lvgl\src\lv_themes/lv_theme_material.c ****     btn_bg.body.padding.inner  = 0;
 2364              		.loc 1 691 0
 2365 0d98 85F85682 		strb	r8, [r5, #598]
 692:..\..\..\lvgl\version_6.1.2\lvgl\src\lv_themes/lv_theme_material.c ****     btn_bg.body.padding.left   = 0;
 2366              		.loc 1 692 0
 2367 0d9c A5F86082 		strh	r8, [r5, #608]	@ movhi
 693:..\..\..\lvgl\version_6.1.2\lvgl\src\lv_themes/lv_theme_material.c ****     btn_bg.body.padding.right  = 0;
ARM GAS  C:\Users\pearlstl\AppData\Local\Temp\cc5dErme.s 			page 70


 2368              		.loc 1 693 0
 2369 0da0 A5F85C82 		strh	r8, [r5, #604]	@ movhi
 694:..\..\..\lvgl\version_6.1.2\lvgl\src\lv_themes/lv_theme_material.c ****     btn_bg.body.padding.top    = 0;
 2370              		.loc 1 694 0
 2371 0da4 A5F85E82 		strh	r8, [r5, #606]	@ movhi
 695:..\..\..\lvgl\version_6.1.2\lvgl\src\lv_themes/lv_theme_material.c ****     btn_bg.body.padding.bottom = 0;
 2372              		.loc 1 695 0
 2373 0da8 A5F85882 		strh	r8, [r5, #600]	@ movhi
 696:..\..\..\lvgl\version_6.1.2\lvgl\src\lv_themes/lv_theme_material.c ****     btn_bg.text.color          = lv_color_hex3(0x333);
 2374              		.loc 1 696 0
 2375 0dac A5F85A82 		strh	r8, [r5, #602]	@ movhi
 686:..\..\..\lvgl\version_6.1.2\lvgl\src\lv_themes/lv_theme_material.c ****     btn_bg.body.border.part    = LV_BORDER_BOTTOM;
 2376              		.loc 1 686 0
 2377 0db0 85F84BB2 		strb	fp, [r5, #587]
 688:..\..\..\lvgl\version_6.1.2\lvgl\src\lv_themes/lv_theme_material.c ****     btn_bg.body.shadow.width   = 5;
 2378              		.loc 1 688 0
 2379 0db4 85F84FB2 		strb	fp, [r5, #591]
 690:..\..\..\lvgl\version_6.1.2\lvgl\src\lv_themes/lv_theme_material.c ****     btn_bg.body.shadow.type    = LV_SHADOW_BOTTOM;
 2380              		.loc 1 690 0
 2381 0db8 85F853B2 		strb	fp, [r5, #595]
 697:..\..\..\lvgl\version_6.1.2\lvgl\src\lv_themes/lv_theme_material.c **** 
 2382              		.loc 1 697 0
 2383 0dbc 85F867B2 		strb	fp, [r5, #615]
 699:..\..\..\lvgl\version_6.1.2\lvgl\src\lv_themes/lv_theme_material.c ****     rel.body.padding.top    = LV_DPI / 8;
 2384              		.loc 1 699 0
 2385 0dc0 FFF7FEFF 		bl	lv_style_copy
 2386              	.LVL106:
 702:..\..\..\lvgl\version_6.1.2\lvgl\src\lv_themes/lv_theme_material.c **** 
 2387              		.loc 1 702 0
 2388 0dc4 D4F8AC21 		ldr	r2, [r4, #428]
 2389 0dc8 C5F8BC22 		str	r2, [r5, #700]
 700:..\..\..\lvgl\version_6.1.2\lvgl\src\lv_themes/lv_theme_material.c ****     rel.body.padding.bottom = LV_DPI / 8;
 2390              		.loc 1 700 0
 2391 0dcc 4FF01203 		mov	r3, #18	@ movhi
 704:..\..\..\lvgl\version_6.1.2\lvgl\src\lv_themes/lv_theme_material.c ****     pr.body.main_color   = lv_color_hex3(0xbbb);
 2392              		.loc 1 704 0
 2393 0dd0 3146     		mov	r1, r6
 2394 0dd2 05F53670 		add	r0, r5, #728
 700:..\..\..\lvgl\version_6.1.2\lvgl\src\lv_themes/lv_theme_material.c ****     rel.body.padding.bottom = LV_DPI / 8;
 2395              		.loc 1 700 0
 2396 0dd6 A5F8A832 		strh	r3, [r5, #680]	@ movhi
 701:..\..\..\lvgl\version_6.1.2\lvgl\src\lv_themes/lv_theme_material.c ****     rel.text.font           = _font;
 2397              		.loc 1 701 0
 2398 0dda A5F8AA32 		strh	r3, [r5, #682]	@ movhi
 704:..\..\..\lvgl\version_6.1.2\lvgl\src\lv_themes/lv_theme_material.c ****     pr.body.main_color   = lv_color_hex3(0xbbb);
 2399              		.loc 1 704 0
 2400 0dde FFF7FEFF 		bl	lv_style_copy
 2401              	.LVL107:
 705:..\..\..\lvgl\version_6.1.2\lvgl\src\lv_themes/lv_theme_material.c ****     pr.body.grad_color   = pr.body.main_color;
 2402              		.loc 1 705 0
 2403 0de2 6FF04403 		mvn	r3, #68
 716:..\..\..\lvgl\version_6.1.2\lvgl\src\lv_themes/lv_theme_material.c ****     tgl_rel.glass      = 0;
 2404              		.loc 1 716 0
 2405 0de6 05F54A77 		add	r7, r5, #808
 705:..\..\..\lvgl\version_6.1.2\lvgl\src\lv_themes/lv_theme_material.c ****     pr.body.grad_color   = pr.body.main_color;
 2406              		.loc 1 705 0
 2407 0dea 85F8DC32 		strb	r3, [r5, #732]
ARM GAS  C:\Users\pearlstl\AppData\Local\Temp\cc5dErme.s 			page 71


 2408 0dee 85F8DD32 		strb	r3, [r5, #733]
 2409 0df2 85F8DE32 		strb	r3, [r5, #734]
 2410 0df6 85F8DFB2 		strb	fp, [r5, #735]
 714:..\..\..\lvgl\version_6.1.2\lvgl\src\lv_themes/lv_theme_material.c **** 
 2411              		.loc 1 714 0
 2412 0dfa 1126     		movs	r6, #17
 710:..\..\..\lvgl\version_6.1.2\lvgl\src\lv_themes/lv_theme_material.c ****     pr.body.border.color = lv_color_hex3(0x888);
 2413              		.loc 1 710 0
 2414 0dfc 4FF00103 		mov	r3, #1	@ movhi
 706:..\..\..\lvgl\version_6.1.2\lvgl\src\lv_themes/lv_theme_material.c ****     pr.body.border.width = 0;
 2415              		.loc 1 706 0
 2416 0e00 D5F8DC22 		ldr	r2, [r5, #732]
 716:..\..\..\lvgl\version_6.1.2\lvgl\src\lv_themes/lv_theme_material.c ****     tgl_rel.glass      = 0;
 2417              		.loc 1 716 0
 2418 0e04 7C49     		ldr	r1, .L13+4
 710:..\..\..\lvgl\version_6.1.2\lvgl\src\lv_themes/lv_theme_material.c ****     pr.body.border.color = lv_color_hex3(0x888);
 2419              		.loc 1 710 0
 2420 0e06 A5F8EC32 		strh	r3, [r5, #748]	@ movhi
 716:..\..\..\lvgl\version_6.1.2\lvgl\src\lv_themes/lv_theme_material.c ****     tgl_rel.glass      = 0;
 2421              		.loc 1 716 0
 2422 0e0a 3846     		mov	r0, r7
 712:..\..\..\lvgl\version_6.1.2\lvgl\src\lv_themes/lv_theme_material.c ****     pr.body.border.opa   = LV_OPA_COVER;
 2423              		.loc 1 712 0
 2424 0e0c 85F8EE32 		strb	r3, [r5, #750]
 711:..\..\..\lvgl\version_6.1.2\lvgl\src\lv_themes/lv_theme_material.c ****     pr.body.border.part  = LV_BORDER_BOTTOM;
 2425              		.loc 1 711 0
 2426 0e10 85F8E892 		strb	r9, [r5, #744]
 2427 0e14 85F8E992 		strb	r9, [r5, #745]
 2428 0e18 85F8EA92 		strb	r9, [r5, #746]
 706:..\..\..\lvgl\version_6.1.2\lvgl\src\lv_themes/lv_theme_material.c ****     pr.body.border.width = 0;
 2429              		.loc 1 706 0
 2430 0e1c C5F8E022 		str	r2, [r5, #736]
 709:..\..\..\lvgl\version_6.1.2\lvgl\src\lv_themes/lv_theme_material.c ****     pr.body.border.width = 1;
 2431              		.loc 1 709 0
 2432 0e20 A5F8E482 		strh	r8, [r5, #740]	@ movhi
 708:..\..\..\lvgl\version_6.1.2\lvgl\src\lv_themes/lv_theme_material.c ****     pr.body.radius       = 0;
 2433              		.loc 1 708 0
 2434 0e24 85F8E6B2 		strb	fp, [r5, #742]
 711:..\..\..\lvgl\version_6.1.2\lvgl\src\lv_themes/lv_theme_material.c ****     pr.body.border.part  = LV_BORDER_BOTTOM;
 2435              		.loc 1 711 0
 2436 0e28 85F8EBB2 		strb	fp, [r5, #747]
 713:..\..\..\lvgl\version_6.1.2\lvgl\src\lv_themes/lv_theme_material.c ****     pr.text.color        = lv_color_hex3(0x111);
 2437              		.loc 1 713 0
 2438 0e2c 85F8EFB2 		strb	fp, [r5, #751]
 714:..\..\..\lvgl\version_6.1.2\lvgl\src\lv_themes/lv_theme_material.c **** 
 2439              		.loc 1 714 0
 2440 0e30 85F807B3 		strb	fp, [r5, #775]
 2441 0e34 85F80463 		strb	r6, [r5, #772]
 2442 0e38 85F80563 		strb	r6, [r5, #773]
 2443 0e3c 85F80663 		strb	r6, [r5, #774]
 716:..\..\..\lvgl\version_6.1.2\lvgl\src\lv_themes/lv_theme_material.c ****     tgl_rel.glass      = 0;
 2444              		.loc 1 716 0
 2445 0e40 FFF7FEFF 		bl	lv_style_copy
 2446              	.LVL108:
 717:..\..\..\lvgl\version_6.1.2\lvgl\src\lv_themes/lv_theme_material.c ****     tgl_rel.text.font  = _font;
 2447              		.loc 1 717 0
 2448 0e44 95F828E3 		ldrb	lr, [r5, #808]	@ zero_extendqisi2
ARM GAS  C:\Users\pearlstl\AppData\Local\Temp\cc5dErme.s 			page 72


 718:..\..\..\lvgl\version_6.1.2\lvgl\src\lv_themes/lv_theme_material.c ****     tgl_rel.text.color = lv_color_hsv_to_rgb(_hue, 90, 70);
 2449              		.loc 1 718 0
 2450 0e48 D4F8AC21 		ldr	r2, [r4, #428]
 2451 0e4c C5F85C23 		str	r2, [r5, #860]
 717:..\..\..\lvgl\version_6.1.2\lvgl\src\lv_themes/lv_theme_material.c ****     tgl_rel.text.font  = _font;
 2452              		.loc 1 717 0
 2453 0e50 6FF3000E 		bfc	lr, #0, #1
 719:..\..\..\lvgl\version_6.1.2\lvgl\src\lv_themes/lv_theme_material.c **** 
 2454              		.loc 1 719 0
 2455 0e54 4622     		movs	r2, #70
 2456 0e56 B4F8A801 		ldrh	r0, [r4, #424]
 717:..\..\..\lvgl\version_6.1.2\lvgl\src\lv_themes/lv_theme_material.c ****     tgl_rel.text.font  = _font;
 2457              		.loc 1 717 0
 2458 0e5a 85F828E3 		strb	lr, [r5, #808]
 719:..\..\..\lvgl\version_6.1.2\lvgl\src\lv_themes/lv_theme_material.c **** 
 2459              		.loc 1 719 0
 2460 0e5e 5A21     		movs	r1, #90
 2461 0e60 FFF7FEFF 		bl	lv_color_hsv_to_rgb
 2462              	.LVL109:
 721:..\..\..\lvgl\version_6.1.2\lvgl\src\lv_themes/lv_theme_material.c ****     tgl_pr.body.main_color   = lv_color_hsv_to_rgb(_hue, 15, 85);
 2463              		.loc 1 721 0
 2464 0e64 05F55E7A 		add	r10, r5, #888
 719:..\..\..\lvgl\version_6.1.2\lvgl\src\lv_themes/lv_theme_material.c **** 
 2465              		.loc 1 719 0
 2466 0e68 C5F85403 		str	r0, [r5, #852]
 721:..\..\..\lvgl\version_6.1.2\lvgl\src\lv_themes/lv_theme_material.c ****     tgl_pr.body.main_color   = lv_color_hsv_to_rgb(_hue, 15, 85);
 2467              		.loc 1 721 0
 2468 0e6c 04F5D871 		add	r1, r4, #432
 2469 0e70 5046     		mov	r0, r10
 2470 0e72 FFF7FEFF 		bl	lv_style_copy
 2471              	.LVL110:
 722:..\..\..\lvgl\version_6.1.2\lvgl\src\lv_themes/lv_theme_material.c ****     tgl_pr.body.grad_color   = tgl_pr.body.main_color;
 2472              		.loc 1 722 0
 2473 0e76 5522     		movs	r2, #85
 2474 0e78 0F21     		movs	r1, #15
 2475 0e7a B4F8A801 		ldrh	r0, [r4, #424]
 2476 0e7e FFF7FEFF 		bl	lv_color_hsv_to_rgb
 2477              	.LVL111:
 727:..\..\..\lvgl\version_6.1.2\lvgl\src\lv_themes/lv_theme_material.c **** 
 2478              		.loc 1 727 0
 2479 0e82 3C22     		movs	r2, #60
 722:..\..\..\lvgl\version_6.1.2\lvgl\src\lv_themes/lv_theme_material.c ****     tgl_pr.body.grad_color   = tgl_pr.body.main_color;
 2480              		.loc 1 722 0
 2481 0e84 C5F87C03 		str	r0, [r5, #892]
 723:..\..\..\lvgl\version_6.1.2\lvgl\src\lv_themes/lv_theme_material.c ****     tgl_pr.body.border.width = 0;
 2482              		.loc 1 723 0
 2483 0e88 C5F88003 		str	r0, [r5, #896]
 727:..\..\..\lvgl\version_6.1.2\lvgl\src\lv_themes/lv_theme_material.c **** 
 2484              		.loc 1 727 0
 2485 0e8c 5A21     		movs	r1, #90
 2486 0e8e B4F8A801 		ldrh	r0, [r4, #424]
 724:..\..\..\lvgl\version_6.1.2\lvgl\src\lv_themes/lv_theme_material.c ****     tgl_pr.body.opa          = LV_OPA_COVER;
 2487              		.loc 1 724 0
 2488 0e92 A5F88C83 		strh	r8, [r5, #908]	@ movhi
 725:..\..\..\lvgl\version_6.1.2\lvgl\src\lv_themes/lv_theme_material.c ****     tgl_pr.body.radius       = 0;
 2489              		.loc 1 725 0
 2490 0e96 85F886B3 		strb	fp, [r5, #902]
ARM GAS  C:\Users\pearlstl\AppData\Local\Temp\cc5dErme.s 			page 73


 726:..\..\..\lvgl\version_6.1.2\lvgl\src\lv_themes/lv_theme_material.c ****     tgl_pr.text.color        = lv_color_hsv_to_rgb(_hue, 90, 60);
 2491              		.loc 1 726 0
 2492 0e9a A5F88483 		strh	r8, [r5, #900]	@ movhi
 727:..\..\..\lvgl\version_6.1.2\lvgl\src\lv_themes/lv_theme_material.c **** 
 2493              		.loc 1 727 0
 2494 0e9e FFF7FEFF 		bl	lv_color_hsv_to_rgb
 2495              	.LVL112:
 730:..\..\..\lvgl\version_6.1.2\lvgl\src\lv_themes/lv_theme_material.c ****     theme.style.tabview.btn.bg      = &btn_bg;
 2496              		.loc 1 730 0
 2497 0ea2 05F5F473 		add	r3, r5, #488
 2498              	.LBE411:
 2499              	.LBE420:
 2500              	.LBB421:
 2501              	.LBB422:
 752:..\..\..\lvgl\version_6.1.2\lvgl\src\lv_themes/lv_theme_material.c ****     cell.body.radius         = 0;
 2502              		.loc 1 752 0
 2503 0ea6 05F57272 		add	r2, r5, #968
 2504              	.LBE422:
 2505              	.LBE421:
 2506              	.LBB429:
 2507              	.LBB412:
 730:..\..\..\lvgl\version_6.1.2\lvgl\src\lv_themes/lv_theme_material.c ****     theme.style.tabview.btn.bg      = &btn_bg;
 2508              		.loc 1 730 0
 2509 0eaa C4F86431 		str	r3, [r4, #356]
 731:..\..\..\lvgl\version_6.1.2\lvgl\src\lv_themes/lv_theme_material.c ****     theme.style.tabview.btn.rel     = &rel;
 2510              		.loc 1 731 0
 2511 0eae 019B     		ldr	r3, [sp, #4]
 2512 0eb0 C4F86831 		str	r3, [r4, #360]
 732:..\..\..\lvgl\version_6.1.2\lvgl\src\lv_themes/lv_theme_material.c ****     theme.style.tabview.btn.pr      = &pr;
 2513              		.loc 1 732 0
 2514 0eb4 A2F5A073 		sub	r3, r2, #320
 2515 0eb8 C4F86C31 		str	r3, [r4, #364]
 733:..\..\..\lvgl\version_6.1.2\lvgl\src\lv_themes/lv_theme_material.c ****     theme.style.tabview.btn.tgl_rel = &tgl_rel;
 2516              		.loc 1 733 0
 2517 0ebc A2F1F003 		sub	r3, r2, #240
 2518 0ec0 C4F87031 		str	r3, [r4, #368]
 2519              	.LBE412:
 2520              	.LBE429:
 2521              	.LBB430:
 2522              	.LBB431:
 742:..\..\..\lvgl\version_6.1.2\lvgl\src\lv_themes/lv_theme_material.c ****     theme.style.tileview.scrl = &lv_style_transp_tight;
 2523              		.loc 1 742 0
 2524 0ec4 4B4B     		ldr	r3, .L13
 2525 0ec6 C4F87C31 		str	r3, [r4, #380]
 743:..\..\..\lvgl\version_6.1.2\lvgl\src\lv_themes/lv_theme_material.c ****     theme.style.tileview.sb   = theme.style.page.sb;
 2526              		.loc 1 743 0
 2527 0eca C4F88031 		str	r3, [r4, #384]
 2528              	.LBE431:
 2529              	.LBE430:
 2530              	.LBB434:
 2531              	.LBB413:
 729:..\..\..\lvgl\version_6.1.2\lvgl\src\lv_themes/lv_theme_material.c ****     theme.style.tabview.indic       = &indic;
 2532              		.loc 1 729 0
 2533 0ece 6368     		ldr	r3, [r4, #4]
 727:..\..\..\lvgl\version_6.1.2\lvgl\src\lv_themes/lv_theme_material.c **** 
 2534              		.loc 1 727 0
 2535 0ed0 C5F8A403 		str	r0, [r5, #932]
ARM GAS  C:\Users\pearlstl\AppData\Local\Temp\cc5dErme.s 			page 74


 2536              	.LBE413:
 2537              	.LBE434:
 2538              	.LBB435:
 2539              	.LBB423:
 752:..\..\..\lvgl\version_6.1.2\lvgl\src\lv_themes/lv_theme_material.c ****     cell.body.radius         = 0;
 2540              		.loc 1 752 0
 2541 0ed4 A168     		ldr	r1, [r4, #8]
 2542              	.LBE423:
 2543              	.LBE435:
 2544              	.LBB436:
 2545              	.LBB414:
 729:..\..\..\lvgl\version_6.1.2\lvgl\src\lv_themes/lv_theme_material.c ****     theme.style.tabview.indic       = &indic;
 2546              		.loc 1 729 0
 2547 0ed6 C4F86031 		str	r3, [r4, #352]
 2548              	.LBE414:
 2549              	.LBE436:
 2550              	.LBB437:
 2551              	.LBB424:
 752:..\..\..\lvgl\version_6.1.2\lvgl\src\lv_themes/lv_theme_material.c ****     cell.body.radius         = 0;
 2552              		.loc 1 752 0
 2553 0eda 1046     		mov	r0, r2
 2554              	.LBE424:
 2555              	.LBE437:
 2556              	.LBB438:
 2557              	.LBB432:
 744:..\..\..\lvgl\version_6.1.2\lvgl\src\lv_themes/lv_theme_material.c **** #endif
 2558              		.loc 1 744 0
 2559 0edc D4F80C31 		ldr	r3, [r4, #268]
 2560              	.LBE432:
 2561              	.LBE438:
 2562              	.LBB439:
 2563              	.LBB425:
 752:..\..\..\lvgl\version_6.1.2\lvgl\src\lv_themes/lv_theme_material.c ****     cell.body.radius         = 0;
 2564              		.loc 1 752 0
 2565 0ee0 0092     		str	r2, [sp]
 2566              	.LBE425:
 2567              	.LBE439:
 2568              	.LBB440:
 2569              	.LBB415:
 734:..\..\..\lvgl\version_6.1.2\lvgl\src\lv_themes/lv_theme_material.c ****     theme.style.tabview.btn.tgl_pr  = &tgl_pr;
 2570              		.loc 1 734 0
 2571 0ee2 C4F87471 		str	r7, [r4, #372]
 2572              	.LBE415:
 2573              	.LBE440:
 2574              	.LBB441:
 2575              	.LBB433:
 744:..\..\..\lvgl\version_6.1.2\lvgl\src\lv_themes/lv_theme_material.c **** #endif
 2576              		.loc 1 744 0
 2577 0ee6 C4F88431 		str	r3, [r4, #388]
 2578              	.LBE433:
 2579              	.LBE441:
 2580              	.LBB442:
 2581              	.LBB416:
 735:..\..\..\lvgl\version_6.1.2\lvgl\src\lv_themes/lv_theme_material.c **** #endif
 2582              		.loc 1 735 0
 2583 0eea C4F878A1 		str	r10, [r4, #376]
 2584              	.LBE416:
ARM GAS  C:\Users\pearlstl\AppData\Local\Temp\cc5dErme.s 			page 75


 2585              	.LBE442:
 2586              	.LBB443:
 2587              	.LBB426:
 752:..\..\..\lvgl\version_6.1.2\lvgl\src\lv_themes/lv_theme_material.c ****     cell.body.radius         = 0;
 2588              		.loc 1 752 0
 2589 0eee FFF7FEFF 		bl	lv_style_copy
 2590              	.LVL113:
 760:..\..\..\lvgl\version_6.1.2\lvgl\src\lv_themes/lv_theme_material.c ****     theme.style.table.cell = &cell;
 2591              		.loc 1 760 0
 2592 0ef2 404B     		ldr	r3, .L13
 2593 0ef4 C4F88831 		str	r3, [r4, #392]
 2594              	.LBE426:
 2595              	.LBE443:
 2596              	.LBB444:
 2597              	.LBB445:
 770:..\..\..\lvgl\version_6.1.2\lvgl\src\lv_themes/lv_theme_material.c ****     header.body.main_color     = lv_color_hex3(0xccc);
 2598              		.loc 1 770 0
 2599 0ef8 05F58369 		add	r9, r5, #1048
 2600              	.LBE445:
 2601              	.LBE444:
 2602              	.LBB449:
 2603              	.LBB427:
 755:..\..\..\lvgl\version_6.1.2\lvgl\src\lv_themes/lv_theme_material.c ****     cell.body.padding.right  = LV_DPI / 12;
 2604              		.loc 1 755 0
 2605 0efc 4FF00C03 		mov	r3, #12	@ movhi
 761:..\..\..\lvgl\version_6.1.2\lvgl\src\lv_themes/lv_theme_material.c **** #endif
 2606              		.loc 1 761 0
 2607 0f00 009A     		ldr	r2, [sp]
 755:..\..\..\lvgl\version_6.1.2\lvgl\src\lv_themes/lv_theme_material.c ****     cell.body.padding.right  = LV_DPI / 12;
 2608              		.loc 1 755 0
 2609 0f02 A5F8EC33 		strh	r3, [r5, #1004]	@ movhi
 2610              	.LBE427:
 2611              	.LBE449:
 2612              	.LBB450:
 2613              	.LBB446:
 770:..\..\..\lvgl\version_6.1.2\lvgl\src\lv_themes/lv_theme_material.c ****     header.body.main_color     = lv_color_hex3(0xccc);
 2614              		.loc 1 770 0
 2615 0f06 4846     		mov	r0, r9
 2616 0f08 04F5D871 		add	r1, r4, #432
 2617              	.LBE446:
 2618              	.LBE450:
 2619              	.LBB451:
 2620              	.LBB428:
 756:..\..\..\lvgl\version_6.1.2\lvgl\src\lv_themes/lv_theme_material.c ****     cell.body.padding.top    = LV_DPI / 12;
 2621              		.loc 1 756 0
 2622 0f0c A5F8EE33 		strh	r3, [r5, #1006]	@ movhi
 757:..\..\..\lvgl\version_6.1.2\lvgl\src\lv_themes/lv_theme_material.c ****     cell.body.padding.bottom = LV_DPI / 12;
 2623              		.loc 1 757 0
 2624 0f10 A5F8E833 		strh	r3, [r5, #1000]	@ movhi
 758:..\..\..\lvgl\version_6.1.2\lvgl\src\lv_themes/lv_theme_material.c **** 
 2625              		.loc 1 758 0
 2626 0f14 A5F8EA33 		strh	r3, [r5, #1002]	@ movhi
 754:..\..\..\lvgl\version_6.1.2\lvgl\src\lv_themes/lv_theme_material.c ****     cell.body.padding.left   = LV_DPI / 12;
 2627              		.loc 1 754 0
 2628 0f18 4FF00103 		mov	r3, #1	@ movhi
 761:..\..\..\lvgl\version_6.1.2\lvgl\src\lv_themes/lv_theme_material.c **** #endif
 2629              		.loc 1 761 0
ARM GAS  C:\Users\pearlstl\AppData\Local\Temp\cc5dErme.s 			page 76


 2630 0f1c C4F88C21 		str	r2, [r4, #396]
 754:..\..\..\lvgl\version_6.1.2\lvgl\src\lv_themes/lv_theme_material.c ****     cell.body.padding.left   = LV_DPI / 12;
 2631              		.loc 1 754 0
 2632 0f20 A5F8DC33 		strh	r3, [r5, #988]	@ movhi
 753:..\..\..\lvgl\version_6.1.2\lvgl\src\lv_themes/lv_theme_material.c ****     cell.body.border.width   = 1;
 2633              		.loc 1 753 0
 2634 0f24 A5F8D483 		strh	r8, [r5, #980]	@ movhi
 2635              	.LBE428:
 2636              	.LBE451:
 2637              	.LBB452:
 2638              	.LBB447:
 770:..\..\..\lvgl\version_6.1.2\lvgl\src\lv_themes/lv_theme_material.c ****     header.body.main_color     = lv_color_hex3(0xccc);
 2639              		.loc 1 770 0
 2640 0f28 FFF7FEFF 		bl	lv_style_copy
 2641              	.LVL114:
 783:..\..\..\lvgl\version_6.1.2\lvgl\src\lv_themes/lv_theme_material.c ****     header.image.color         = lv_color_hex3(0x333);
 2642              		.loc 1 783 0
 2643 0f2c 4FF03302 		mov	r2, #51
 771:..\..\..\lvgl\version_6.1.2\lvgl\src\lv_themes/lv_theme_material.c ****     header.body.grad_color     = header.body.main_color;
 2644              		.loc 1 771 0
 2645 0f30 6FF03303 		mvn	r3, #51
 786:..\..\..\lvgl\version_6.1.2\lvgl\src\lv_themes/lv_theme_material.c ****     pr.body.main_color   = lv_color_hex3(0xbbb);
 2646              		.loc 1 786 0
 2647 0f34 05F58D67 		add	r7, r5, #1128
 771:..\..\..\lvgl\version_6.1.2\lvgl\src\lv_themes/lv_theme_material.c ****     header.body.grad_color     = header.body.main_color;
 2648              		.loc 1 771 0
 2649 0f38 85F81C34 		strb	r3, [r5, #1052]
 2650 0f3c 85F81D34 		strb	r3, [r5, #1053]
 2651 0f40 85F81E34 		strb	r3, [r5, #1054]
 2652 0f44 85F81FB4 		strb	fp, [r5, #1055]
 783:..\..\..\lvgl\version_6.1.2\lvgl\src\lv_themes/lv_theme_material.c ****     header.image.color         = lv_color_hex3(0x333);
 2653              		.loc 1 783 0
 2654 0f48 85F84424 		strb	r2, [r5, #1092]
 2655 0f4c 85F84524 		strb	r2, [r5, #1093]
 2656 0f50 85F84624 		strb	r2, [r5, #1094]
 784:..\..\..\lvgl\version_6.1.2\lvgl\src\lv_themes/lv_theme_material.c **** 
 2657              		.loc 1 784 0
 2658 0f54 85F85824 		strb	r2, [r5, #1112]
 2659 0f58 85F85924 		strb	r2, [r5, #1113]
 2660 0f5c 85F85A24 		strb	r2, [r5, #1114]
 775:..\..\..\lvgl\version_6.1.2\lvgl\src\lv_themes/lv_theme_material.c ****     header.body.border.part    = LV_BORDER_BOTTOM;
 2661              		.loc 1 775 0
 2662 0f60 6FF04402 		mvn	r2, #68
 772:..\..\..\lvgl\version_6.1.2\lvgl\src\lv_themes/lv_theme_material.c ****     header.body.radius         = 0;
 2663              		.loc 1 772 0
 2664 0f64 D5F81C34 		ldr	r3, [r5, #1052]
 775:..\..\..\lvgl\version_6.1.2\lvgl\src\lv_themes/lv_theme_material.c ****     header.body.border.part    = LV_BORDER_BOTTOM;
 2665              		.loc 1 775 0
 2666 0f68 85F82824 		strb	r2, [r5, #1064]
 786:..\..\..\lvgl\version_6.1.2\lvgl\src\lv_themes/lv_theme_material.c ****     pr.body.main_color   = lv_color_hex3(0xbbb);
 2667              		.loc 1 786 0
 2668 0f6c 04F5D871 		add	r1, r4, #432
 2669 0f70 3846     		mov	r0, r7
 775:..\..\..\lvgl\version_6.1.2\lvgl\src\lv_themes/lv_theme_material.c ****     header.body.border.part    = LV_BORDER_BOTTOM;
 2670              		.loc 1 775 0
 2671 0f72 85F82924 		strb	r2, [r5, #1065]
 2672 0f76 85F82A24 		strb	r2, [r5, #1066]
ARM GAS  C:\Users\pearlstl\AppData\Local\Temp\cc5dErme.s 			page 77


 774:..\..\..\lvgl\version_6.1.2\lvgl\src\lv_themes/lv_theme_material.c ****     header.body.border.color   = lv_color_hex3(0xbbb);
 2673              		.loc 1 774 0
 2674 0f7a 4FF00102 		mov	r2, #1	@ movhi
 2675 0f7e A5F82C24 		strh	r2, [r5, #1068]	@ movhi
 776:..\..\..\lvgl\version_6.1.2\lvgl\src\lv_themes/lv_theme_material.c ****     header.body.border.opa     = LV_OPA_COVER;
 2676              		.loc 1 776 0
 2677 0f82 85F82E24 		strb	r2, [r5, #1070]
 772:..\..\..\lvgl\version_6.1.2\lvgl\src\lv_themes/lv_theme_material.c ****     header.body.radius         = 0;
 2678              		.loc 1 772 0
 2679 0f86 C5F82034 		str	r3, [r5, #1056]
 773:..\..\..\lvgl\version_6.1.2\lvgl\src\lv_themes/lv_theme_material.c ****     header.body.border.width   = 1;
 2680              		.loc 1 773 0
 2681 0f8a A5F82484 		strh	r8, [r5, #1060]	@ movhi
 778:..\..\..\lvgl\version_6.1.2\lvgl\src\lv_themes/lv_theme_material.c ****     header.body.padding.left   = 0;
 2682              		.loc 1 778 0
 2683 0f8e A5F84084 		strh	r8, [r5, #1088]	@ movhi
 779:..\..\..\lvgl\version_6.1.2\lvgl\src\lv_themes/lv_theme_material.c ****     header.body.padding.right  = 0;
 2684              		.loc 1 779 0
 2685 0f92 A5F83C84 		strh	r8, [r5, #1084]	@ movhi
 780:..\..\..\lvgl\version_6.1.2\lvgl\src\lv_themes/lv_theme_material.c ****     header.body.padding.top    = 0;
 2686              		.loc 1 780 0
 2687 0f96 A5F83E84 		strh	r8, [r5, #1086]	@ movhi
 781:..\..\..\lvgl\version_6.1.2\lvgl\src\lv_themes/lv_theme_material.c ****     header.body.padding.bottom = 0;
 2688              		.loc 1 781 0
 2689 0f9a A5F83884 		strh	r8, [r5, #1080]	@ movhi
 782:..\..\..\lvgl\version_6.1.2\lvgl\src\lv_themes/lv_theme_material.c ****     header.text.color          = lv_color_hex3(0x333);
 2690              		.loc 1 782 0
 2691 0f9e A5F83A84 		strh	r8, [r5, #1082]	@ movhi
 775:..\..\..\lvgl\version_6.1.2\lvgl\src\lv_themes/lv_theme_material.c ****     header.body.border.part    = LV_BORDER_BOTTOM;
 2692              		.loc 1 775 0
 2693 0fa2 85F82BB4 		strb	fp, [r5, #1067]
 777:..\..\..\lvgl\version_6.1.2\lvgl\src\lv_themes/lv_theme_material.c ****     header.body.padding.inner  = 0;
 2694              		.loc 1 777 0
 2695 0fa6 85F82FB4 		strb	fp, [r5, #1071]
 783:..\..\..\lvgl\version_6.1.2\lvgl\src\lv_themes/lv_theme_material.c ****     header.image.color         = lv_color_hex3(0x333);
 2696              		.loc 1 783 0
 2697 0faa 85F847B4 		strb	fp, [r5, #1095]
 784:..\..\..\lvgl\version_6.1.2\lvgl\src\lv_themes/lv_theme_material.c **** 
 2698              		.loc 1 784 0
 2699 0fae 85F85BB4 		strb	fp, [r5, #1115]
 786:..\..\..\lvgl\version_6.1.2\lvgl\src\lv_themes/lv_theme_material.c ****     pr.body.main_color   = lv_color_hex3(0xbbb);
 2700              		.loc 1 786 0
 2701 0fb2 FFF7FEFF 		bl	lv_style_copy
 2702              	.LVL115:
 787:..\..\..\lvgl\version_6.1.2\lvgl\src\lv_themes/lv_theme_material.c ****     pr.body.grad_color   = pr.body.main_color;
 2703              		.loc 1 787 0
 2704 0fb6 6FF04403 		mvn	r3, #68
 2705 0fba 85F86C34 		strb	r3, [r5, #1132]
 2706 0fbe 85F86D34 		strb	r3, [r5, #1133]
 2707 0fc2 85F86E34 		strb	r3, [r5, #1134]
 2708 0fc6 85F86FB4 		strb	fp, [r5, #1135]
 798:..\..\..\lvgl\version_6.1.2\lvgl\src\lv_themes/lv_theme_material.c ****     theme.style.win.btn.rel = &lv_style_transp;
 2709              		.loc 1 798 0
 2710 0fca 0B49     		ldr	r1, .L13+4
 788:..\..\..\lvgl\version_6.1.2\lvgl\src\lv_themes/lv_theme_material.c ****     pr.body.border.width = 0;
 2711              		.loc 1 788 0
 2712 0fcc D5F86C24 		ldr	r2, [r5, #1132]
ARM GAS  C:\Users\pearlstl\AppData\Local\Temp\cc5dErme.s 			page 78


 795:..\..\..\lvgl\version_6.1.2\lvgl\src\lv_themes/lv_theme_material.c ****     theme.style.win.sb      = &sb;
 2713              		.loc 1 795 0
 2714 0fd0 A368     		ldr	r3, [r4, #8]
 798:..\..\..\lvgl\version_6.1.2\lvgl\src\lv_themes/lv_theme_material.c ****     theme.style.win.btn.rel = &lv_style_transp;
 2715              		.loc 1 798 0
 2716 0fd2 C4F89C11 		str	r1, [r4, #412]
 799:..\..\..\lvgl\version_6.1.2\lvgl\src\lv_themes/lv_theme_material.c ****     theme.style.win.btn.pr  = &pr;
 2717              		.loc 1 799 0
 2718 0fd6 C4F8A011 		str	r1, [r4, #416]
 2719              	.LBE447:
 2720              	.LBE452:
 881:..\..\..\lvgl\version_6.1.2\lvgl\src\lv_themes/lv_theme_material.c ****         style_p++;
 882:..\..\..\lvgl\version_6.1.2\lvgl\src\lv_themes/lv_theme_material.c ****     }
 883:..\..\..\lvgl\version_6.1.2\lvgl\src\lv_themes/lv_theme_material.c **** 
 884:..\..\..\lvgl\version_6.1.2\lvgl\src\lv_themes/lv_theme_material.c ****     basic_init();
 885:..\..\..\lvgl\version_6.1.2\lvgl\src\lv_themes/lv_theme_material.c ****     cont_init();
 886:..\..\..\lvgl\version_6.1.2\lvgl\src\lv_themes/lv_theme_material.c ****     btn_init();
 887:..\..\..\lvgl\version_6.1.2\lvgl\src\lv_themes/lv_theme_material.c ****     label_init();
 888:..\..\..\lvgl\version_6.1.2\lvgl\src\lv_themes/lv_theme_material.c ****     img_init();
 889:..\..\..\lvgl\version_6.1.2\lvgl\src\lv_themes/lv_theme_material.c ****     line_init();
 890:..\..\..\lvgl\version_6.1.2\lvgl\src\lv_themes/lv_theme_material.c ****     led_init();
 891:..\..\..\lvgl\version_6.1.2\lvgl\src\lv_themes/lv_theme_material.c ****     bar_init();
 892:..\..\..\lvgl\version_6.1.2\lvgl\src\lv_themes/lv_theme_material.c ****     slider_init();
 893:..\..\..\lvgl\version_6.1.2\lvgl\src\lv_themes/lv_theme_material.c ****     sw_init();
 894:..\..\..\lvgl\version_6.1.2\lvgl\src\lv_themes/lv_theme_material.c ****     lmeter_init();
 895:..\..\..\lvgl\version_6.1.2\lvgl\src\lv_themes/lv_theme_material.c ****     gauge_init();
 896:..\..\..\lvgl\version_6.1.2\lvgl\src\lv_themes/lv_theme_material.c ****     chart_init();
 897:..\..\..\lvgl\version_6.1.2\lvgl\src\lv_themes/lv_theme_material.c ****     arc_init();
 898:..\..\..\lvgl\version_6.1.2\lvgl\src\lv_themes/lv_theme_material.c ****     preload_init();
 899:..\..\..\lvgl\version_6.1.2\lvgl\src\lv_themes/lv_theme_material.c ****     calendar_init();
 900:..\..\..\lvgl\version_6.1.2\lvgl\src\lv_themes/lv_theme_material.c ****     cb_init();
 901:..\..\..\lvgl\version_6.1.2\lvgl\src\lv_themes/lv_theme_material.c ****     btnm_init();
 902:..\..\..\lvgl\version_6.1.2\lvgl\src\lv_themes/lv_theme_material.c ****     kb_init();
 903:..\..\..\lvgl\version_6.1.2\lvgl\src\lv_themes/lv_theme_material.c ****     mbox_init();
 904:..\..\..\lvgl\version_6.1.2\lvgl\src\lv_themes/lv_theme_material.c ****     page_init();
 905:..\..\..\lvgl\version_6.1.2\lvgl\src\lv_themes/lv_theme_material.c ****     ta_init();
 906:..\..\..\lvgl\version_6.1.2\lvgl\src\lv_themes/lv_theme_material.c ****     spinbox_init();
 907:..\..\..\lvgl\version_6.1.2\lvgl\src\lv_themes/lv_theme_material.c ****     list_init();
 908:..\..\..\lvgl\version_6.1.2\lvgl\src\lv_themes/lv_theme_material.c ****     ddlist_init();
 909:..\..\..\lvgl\version_6.1.2\lvgl\src\lv_themes/lv_theme_material.c ****     roller_init();
 910:..\..\..\lvgl\version_6.1.2\lvgl\src\lv_themes/lv_theme_material.c ****     tabview_init();
 911:..\..\..\lvgl\version_6.1.2\lvgl\src\lv_themes/lv_theme_material.c ****     tileview_init();
 912:..\..\..\lvgl\version_6.1.2\lvgl\src\lv_themes/lv_theme_material.c ****     table_init();
 913:..\..\..\lvgl\version_6.1.2\lvgl\src\lv_themes/lv_theme_material.c ****     win_init();
 914:..\..\..\lvgl\version_6.1.2\lvgl\src\lv_themes/lv_theme_material.c **** 
 915:..\..\..\lvgl\version_6.1.2\lvgl\src\lv_themes/lv_theme_material.c **** #if LV_USE_GROUP
 916:..\..\..\lvgl\version_6.1.2\lvgl\src\lv_themes/lv_theme_material.c ****     theme.group.style_mod_xcb      = style_mod;
 917:..\..\..\lvgl\version_6.1.2\lvgl\src\lv_themes/lv_theme_material.c ****     theme.group.style_mod_edit_xcb = style_mod_edit;
 918:..\..\..\lvgl\version_6.1.2\lvgl\src\lv_themes/lv_theme_material.c **** #endif
 919:..\..\..\lvgl\version_6.1.2\lvgl\src\lv_themes/lv_theme_material.c **** 
 920:..\..\..\lvgl\version_6.1.2\lvgl\src\lv_themes/lv_theme_material.c ****     return &theme;
 921:..\..\..\lvgl\version_6.1.2\lvgl\src\lv_themes/lv_theme_material.c **** }
 2721              		.loc 1 921 0
 2722 0fda 2046     		mov	r0, r4
 2723              	.LBB453:
 2724              	.LBB448:
 796:..\..\..\lvgl\version_6.1.2\lvgl\src\lv_themes/lv_theme_material.c ****     theme.style.win.header  = &header;
ARM GAS  C:\Users\pearlstl\AppData\Local\Temp\cc5dErme.s 			page 79


 2725              		.loc 1 796 0
 2726 0fdc 04F53C71 		add	r1, r4, #752
 797:..\..\..\lvgl\version_6.1.2\lvgl\src\lv_themes/lv_theme_material.c ****     theme.style.win.content = &lv_style_transp;
 2727              		.loc 1 797 0
 2728 0fe0 C4F89891 		str	r9, [r4, #408]
 800:..\..\..\lvgl\version_6.1.2\lvgl\src\lv_themes/lv_theme_material.c **** #endif
 2729              		.loc 1 800 0
 2730 0fe4 C4F8A471 		str	r7, [r4, #420]
 792:..\..\..\lvgl\version_6.1.2\lvgl\src\lv_themes/lv_theme_material.c ****     pr.image.color       = lv_color_hex3(0x111);
 2731              		.loc 1 792 0
 2732 0fe8 85F89464 		strb	r6, [r5, #1172]
 2733 0fec 85F89564 		strb	r6, [r5, #1173]
 2734 0ff0 04E0     		b	.L14
 2735              	.L15:
 2736 0ff2 00BF     		.align	2
 2737              	.L13:
 2738 0ff4 00000000 		.word	lv_style_transp_tight
 2739 0ff8 00000000 		.word	lv_style_transp
 2740              	.L14:
 2741 0ffc 85F89664 		strb	r6, [r5, #1174]
 793:..\..\..\lvgl\version_6.1.2\lvgl\src\lv_themes/lv_theme_material.c **** 
 2742              		.loc 1 793 0
 2743 1000 85F8A864 		strb	r6, [r5, #1192]
 2744 1004 85F8A964 		strb	r6, [r5, #1193]
 2745 1008 85F8AA64 		strb	r6, [r5, #1194]
 796:..\..\..\lvgl\version_6.1.2\lvgl\src\lv_themes/lv_theme_material.c ****     theme.style.win.header  = &header;
 2746              		.loc 1 796 0
 2747 100c C4F89411 		str	r1, [r4, #404]
 789:..\..\..\lvgl\version_6.1.2\lvgl\src\lv_themes/lv_theme_material.c ****     pr.body.opa          = LV_OPA_COVER;
 2748              		.loc 1 789 0
 2749 1010 A5F87C84 		strh	r8, [r5, #1148]	@ movhi
 791:..\..\..\lvgl\version_6.1.2\lvgl\src\lv_themes/lv_theme_material.c ****     pr.text.color        = lv_color_hex3(0x111);
 2750              		.loc 1 791 0
 2751 1014 A5F87484 		strh	r8, [r5, #1140]	@ movhi
 790:..\..\..\lvgl\version_6.1.2\lvgl\src\lv_themes/lv_theme_material.c ****     pr.body.radius       = 0;
 2752              		.loc 1 790 0
 2753 1018 85F876B4 		strb	fp, [r5, #1142]
 792:..\..\..\lvgl\version_6.1.2\lvgl\src\lv_themes/lv_theme_material.c ****     pr.image.color       = lv_color_hex3(0x111);
 2754              		.loc 1 792 0
 2755 101c 85F897B4 		strb	fp, [r5, #1175]
 793:..\..\..\lvgl\version_6.1.2\lvgl\src\lv_themes/lv_theme_material.c **** 
 2756              		.loc 1 793 0
 2757 1020 85F8ABB4 		strb	fp, [r5, #1195]
 788:..\..\..\lvgl\version_6.1.2\lvgl\src\lv_themes/lv_theme_material.c ****     pr.body.border.width = 0;
 2758              		.loc 1 788 0
 2759 1024 C5F87024 		str	r2, [r5, #1136]
 795:..\..\..\lvgl\version_6.1.2\lvgl\src\lv_themes/lv_theme_material.c ****     theme.style.win.sb      = &sb;
 2760              		.loc 1 795 0
 2761 1028 C4F89031 		str	r3, [r4, #400]
 2762              	.LBE448:
 2763              	.LBE453:
 2764              		.loc 1 921 0
 2765 102c 03B0     		add	sp, sp, #12
 2766              		.cfi_def_cfa_offset 36
 2767              		@ sp needed
 2768 102e BDE8F08F 		pop	{r4, r5, r6, r7, r8, r9, r10, fp, pc}
 2769              		.cfi_endproc
ARM GAS  C:\Users\pearlstl\AppData\Local\Temp\cc5dErme.s 			page 80


 2770              	.LFE61:
 2771              		.size	lv_theme_material_init, .-lv_theme_material_init
 2772 1032 00BF     		.section	.text.lv_theme_get_material,"ax",%progbits
 2773              		.align	2
 2774              		.global	lv_theme_get_material
 2775              		.thumb
 2776              		.thumb_func
 2777              		.type	lv_theme_get_material, %function
 2778              	lv_theme_get_material:
 2779              	.LFB62:
 922:..\..\..\lvgl\version_6.1.2\lvgl\src\lv_themes/lv_theme_material.c **** 
 923:..\..\..\lvgl\version_6.1.2\lvgl\src\lv_themes/lv_theme_material.c **** /**
 924:..\..\..\lvgl\version_6.1.2\lvgl\src\lv_themes/lv_theme_material.c ****  * Get a pointer to the theme
 925:..\..\..\lvgl\version_6.1.2\lvgl\src\lv_themes/lv_theme_material.c ****  * @return pointer to the theme
 926:..\..\..\lvgl\version_6.1.2\lvgl\src\lv_themes/lv_theme_material.c ****  */
 927:..\..\..\lvgl\version_6.1.2\lvgl\src\lv_themes/lv_theme_material.c **** lv_theme_t * lv_theme_get_material(void)
 928:..\..\..\lvgl\version_6.1.2\lvgl\src\lv_themes/lv_theme_material.c **** {
 2780              		.loc 1 928 0
 2781              		.cfi_startproc
 2782              		@ args = 0, pretend = 0, frame = 0
 2783              		@ frame_needed = 0, uses_anonymous_args = 0
 2784              		@ link register save eliminated.
 929:..\..\..\lvgl\version_6.1.2\lvgl\src\lv_themes/lv_theme_material.c ****     return &theme;
 930:..\..\..\lvgl\version_6.1.2\lvgl\src\lv_themes/lv_theme_material.c **** }
 2785              		.loc 1 930 0
 2786 0000 0048     		ldr	r0, .L17
 2787 0002 7047     		bx	lr
 2788              	.L18:
 2789              		.align	2
 2790              	.L17:
 2791 0004 00000000 		.word	.LANCHOR0
 2792              		.cfi_endproc
 2793              	.LFE62:
 2794              		.size	lv_theme_get_material, .-lv_theme_get_material
 2795              		.bss
 2796              		.align	2
 2797              		.set	.LANCHOR0,. + 0
 2798              		.set	.LANCHOR1,. + 4344
 2799              		.type	theme, %object
 2800              		.size	theme, 424
 2801              	theme:
 2802 0000 00000000 		.space	424
 2802      00000000 
 2802      00000000 
 2802      00000000 
 2802      00000000 
 2803              		.type	_hue, %object
 2804              		.size	_hue, 2
 2805              	_hue:
 2806 01a8 0000     		.space	2
 2807 01aa 0000     		.space	2
 2808              		.type	_font, %object
 2809              		.size	_font, 4
 2810              	_font:
 2811 01ac 00000000 		.space	4
 2812              		.type	def, %object
 2813              		.size	def, 80
ARM GAS  C:\Users\pearlstl\AppData\Local\Temp\cc5dErme.s 			page 81


 2814              	def:
 2815 01b0 00000000 		.space	80
 2815      00000000 
 2815      00000000 
 2815      00000000 
 2815      00000000 
 2816              		.type	bg.5949, %object
 2817              		.size	bg.5949, 80
 2818              	bg.5949:
 2819 0200 00000000 		.space	80
 2819      00000000 
 2819      00000000 
 2819      00000000 
 2819      00000000 
 2820              		.type	scr.5951, %object
 2821              		.size	scr.5951, 80
 2822              	scr.5951:
 2823 0250 00000000 		.space	80
 2823      00000000 
 2823      00000000 
 2823      00000000 
 2823      00000000 
 2824              		.type	panel.5950, %object
 2825              		.size	panel.5950, 80
 2826              	panel.5950:
 2827 02a0 00000000 		.space	80
 2827      00000000 
 2827      00000000 
 2827      00000000 
 2827      00000000 
 2828              		.type	sb, %object
 2829              		.size	sb, 80
 2830              	sb:
 2831 02f0 00000000 		.space	80
 2831      00000000 
 2831      00000000 
 2831      00000000 
 2831      00000000 
 2832              		.type	rel.5962, %object
 2833              		.size	rel.5962, 80
 2834              	rel.5962:
 2835 0340 00000000 		.space	80
 2835      00000000 
 2835      00000000 
 2835      00000000 
 2835      00000000 
 2836              		.type	pr.5963, %object
 2837              		.size	pr.5963, 80
 2838              	pr.5963:
 2839 0390 00000000 		.space	80
 2839      00000000 
 2839      00000000 
 2839      00000000 
 2839      00000000 
 2840              		.type	tgl_rel.5964, %object
 2841              		.size	tgl_rel.5964, 80
 2842              	tgl_rel.5964:
ARM GAS  C:\Users\pearlstl\AppData\Local\Temp\cc5dErme.s 			page 82


 2843 03e0 00000000 		.space	80
 2843      00000000 
 2843      00000000 
 2843      00000000 
 2843      00000000 
 2844              		.type	tgl_pr.5965, %object
 2845              		.size	tgl_pr.5965, 80
 2846              	tgl_pr.5965:
 2847 0430 00000000 		.space	80
 2847      00000000 
 2847      00000000 
 2847      00000000 
 2847      00000000 
 2848              		.type	ina.5966, %object
 2849              		.size	ina.5966, 80
 2850              	ina.5966:
 2851 0480 00000000 		.space	80
 2851      00000000 
 2851      00000000 
 2851      00000000 
 2851      00000000 
 2852              		.type	prim.5970, %object
 2853              		.size	prim.5970, 80
 2854              	prim.5970:
 2855 04d0 00000000 		.space	80
 2855      00000000 
 2855      00000000 
 2855      00000000 
 2855      00000000 
 2856              		.type	sec.5971, %object
 2857              		.size	sec.5971, 80
 2858              	sec.5971:
 2859 0520 00000000 		.space	80
 2859      00000000 
 2859      00000000 
 2859      00000000 
 2859      00000000 
 2860              		.type	hint.5972, %object
 2861              		.size	hint.5972, 80
 2862              	hint.5972:
 2863 0570 00000000 		.space	80
 2863      00000000 
 2863      00000000 
 2863      00000000 
 2863      00000000 
 2864              		.type	img_light.5976, %object
 2865              		.size	img_light.5976, 80
 2866              	img_light.5976:
 2867 05c0 00000000 		.space	80
 2867      00000000 
 2867      00000000 
 2867      00000000 
 2867      00000000 
 2868              		.type	img_dark.5977, %object
 2869              		.size	img_dark.5977, 80
 2870              	img_dark.5977:
 2871 0610 00000000 		.space	80
ARM GAS  C:\Users\pearlstl\AppData\Local\Temp\cc5dErme.s 			page 83


 2871      00000000 
 2871      00000000 
 2871      00000000 
 2871      00000000 
 2872              		.type	led.5984, %object
 2873              		.size	led.5984, 80
 2874              	led.5984:
 2875 0660 00000000 		.space	80
 2875      00000000 
 2875      00000000 
 2875      00000000 
 2875      00000000 
 2876              		.type	bar_bg.5988, %object
 2877              		.size	bar_bg.5988, 80
 2878              	bar_bg.5988:
 2879 06b0 00000000 		.space	80
 2879      00000000 
 2879      00000000 
 2879      00000000 
 2879      00000000 
 2880              		.type	bar_indic.5989, %object
 2881              		.size	bar_indic.5989, 80
 2882              	bar_indic.5989:
 2883 0700 00000000 		.space	80
 2883      00000000 
 2883      00000000 
 2883      00000000 
 2883      00000000 
 2884              		.type	knob.5993, %object
 2885              		.size	knob.5993, 80
 2886              	knob.5993:
 2887 0750 00000000 		.space	80
 2887      00000000 
 2887      00000000 
 2887      00000000 
 2887      00000000 
 2888              		.type	sw_bg.5997, %object
 2889              		.size	sw_bg.5997, 80
 2890              	sw_bg.5997:
 2891 07a0 00000000 		.space	80
 2891      00000000 
 2891      00000000 
 2891      00000000 
 2891      00000000 
 2892              		.type	sw_indic.5998, %object
 2893              		.size	sw_indic.5998, 80
 2894              	sw_indic.5998:
 2895 07f0 00000000 		.space	80
 2895      00000000 
 2895      00000000 
 2895      00000000 
 2895      00000000 
 2896              		.type	sw_knob_on.6000, %object
 2897              		.size	sw_knob_on.6000, 80
 2898              	sw_knob_on.6000:
 2899 0840 00000000 		.space	80
 2899      00000000 
ARM GAS  C:\Users\pearlstl\AppData\Local\Temp\cc5dErme.s 			page 84


 2899      00000000 
 2899      00000000 
 2899      00000000 
 2900              		.type	sw_knob_off.5999, %object
 2901              		.size	sw_knob_off.5999, 80
 2902              	sw_knob_off.5999:
 2903 0890 00000000 		.space	80
 2903      00000000 
 2903      00000000 
 2903      00000000 
 2903      00000000 
 2904              		.type	lmeter.6004, %object
 2905              		.size	lmeter.6004, 80
 2906              	lmeter.6004:
 2907 08e0 00000000 		.space	80
 2907      00000000 
 2907      00000000 
 2907      00000000 
 2907      00000000 
 2908              		.type	gauge.6008, %object
 2909              		.size	gauge.6008, 80
 2910              	gauge.6008:
 2911 0930 00000000 		.space	80
 2911      00000000 
 2911      00000000 
 2911      00000000 
 2911      00000000 
 2912              		.type	arc.6012, %object
 2913              		.size	arc.6012, 80
 2914              	arc.6012:
 2915 0980 00000000 		.space	80
 2915      00000000 
 2915      00000000 
 2915      00000000 
 2915      00000000 
 2916              		.type	ina_days.6022, %object
 2917              		.size	ina_days.6022, 80
 2918              	ina_days.6022:
 2919 09d0 00000000 		.space	80
 2919      00000000 
 2919      00000000 
 2919      00000000 
 2919      00000000 
 2920              		.type	high_days.6023, %object
 2921              		.size	high_days.6023, 80
 2922              	high_days.6023:
 2923 0a20 00000000 		.space	80
 2923      00000000 
 2923      00000000 
 2923      00000000 
 2923      00000000 
 2924              		.type	week_box.6024, %object
 2925              		.size	week_box.6024, 80
 2926              	week_box.6024:
 2927 0a70 00000000 		.space	80
 2927      00000000 
 2927      00000000 
ARM GAS  C:\Users\pearlstl\AppData\Local\Temp\cc5dErme.s 			page 85


 2927      00000000 
 2927      00000000 
 2928              		.type	today_box.6025, %object
 2929              		.size	today_box.6025, 80
 2930              	today_box.6025:
 2931 0ac0 00000000 		.space	80
 2931      00000000 
 2931      00000000 
 2931      00000000 
 2931      00000000 
 2932              		.type	rel.6031, %object
 2933              		.size	rel.6031, 80
 2934              	rel.6031:
 2935 0b10 00000000 		.space	80
 2935      00000000 
 2935      00000000 
 2935      00000000 
 2935      00000000 
 2936              		.type	pr.6032, %object
 2937              		.size	pr.6032, 80
 2938              	pr.6032:
 2939 0b60 00000000 		.space	80
 2939      00000000 
 2939      00000000 
 2939      00000000 
 2939      00000000 
 2940              		.type	tgl_rel.6033, %object
 2941              		.size	tgl_rel.6033, 80
 2942              	tgl_rel.6033:
 2943 0bb0 00000000 		.space	80
 2943      00000000 
 2943      00000000 
 2943      00000000 
 2943      00000000 
 2944              		.type	tgl_pr.6034, %object
 2945              		.size	tgl_pr.6034, 80
 2946              	tgl_pr.6034:
 2947 0c00 00000000 		.space	80
 2947      00000000 
 2947      00000000 
 2947      00000000 
 2947      00000000 
 2948              		.type	ina.6035, %object
 2949              		.size	ina.6035, 80
 2950              	ina.6035:
 2951 0c50 00000000 		.space	80
 2951      00000000 
 2951      00000000 
 2951      00000000 
 2951      00000000 
 2952              		.type	bg.6039, %object
 2953              		.size	bg.6039, 80
 2954              	bg.6039:
 2955 0ca0 00000000 		.space	80
 2955      00000000 
 2955      00000000 
 2955      00000000 
ARM GAS  C:\Users\pearlstl\AppData\Local\Temp\cc5dErme.s 			page 86


 2955      00000000 
 2956              		.type	rel.6040, %object
 2957              		.size	rel.6040, 80
 2958              	rel.6040:
 2959 0cf0 00000000 		.space	80
 2959      00000000 
 2959      00000000 
 2959      00000000 
 2959      00000000 
 2960              		.type	pr.6041, %object
 2961              		.size	pr.6041, 80
 2962              	pr.6041:
 2963 0d40 00000000 		.space	80
 2963      00000000 
 2963      00000000 
 2963      00000000 
 2963      00000000 
 2964              		.type	tgl_rel.6042, %object
 2965              		.size	tgl_rel.6042, 80
 2966              	tgl_rel.6042:
 2967 0d90 00000000 		.space	80
 2967      00000000 
 2967      00000000 
 2967      00000000 
 2967      00000000 
 2968              		.type	tgl_pr.6043, %object
 2969              		.size	tgl_pr.6043, 80
 2970              	tgl_pr.6043:
 2971 0de0 00000000 		.space	80
 2971      00000000 
 2971      00000000 
 2971      00000000 
 2971      00000000 
 2972              		.type	ina.6044, %object
 2973              		.size	ina.6044, 80
 2974              	ina.6044:
 2975 0e30 00000000 		.space	80
 2975      00000000 
 2975      00000000 
 2975      00000000 
 2975      00000000 
 2976              		.type	rel.6048, %object
 2977              		.size	rel.6048, 80
 2978              	rel.6048:
 2979 0e80 00000000 		.space	80
 2979      00000000 
 2979      00000000 
 2979      00000000 
 2979      00000000 
 2980              		.type	rel.6053, %object
 2981              		.size	rel.6053, 80
 2982              	rel.6053:
 2983 0ed0 00000000 		.space	80
 2983      00000000 
 2983      00000000 
 2983      00000000 
 2983      00000000 
ARM GAS  C:\Users\pearlstl\AppData\Local\Temp\cc5dErme.s 			page 87


 2984              		.type	pr.6052, %object
 2985              		.size	pr.6052, 80
 2986              	pr.6052:
 2987 0f20 00000000 		.space	80
 2987      00000000 
 2987      00000000 
 2987      00000000 
 2987      00000000 
 2988              		.type	oneline.6060, %object
 2989              		.size	oneline.6060, 80
 2990              	oneline.6060:
 2991 0f70 00000000 		.space	80
 2991      00000000 
 2991      00000000 
 2991      00000000 
 2991      00000000 
 2992              		.type	list_bg.6067, %object
 2993              		.size	list_bg.6067, 80
 2994              	list_bg.6067:
 2995 0fc0 00000000 		.space	80
 2995      00000000 
 2995      00000000 
 2995      00000000 
 2995      00000000 
 2996              		.type	rel.6068, %object
 2997              		.size	rel.6068, 80
 2998              	rel.6068:
 2999 1010 00000000 		.space	80
 2999      00000000 
 2999      00000000 
 2999      00000000 
 2999      00000000 
 3000              		.type	pr.6069, %object
 3001              		.size	pr.6069, 80
 3002              	pr.6069:
 3003 1060 00000000 		.space	80
 3003      00000000 
 3003      00000000 
 3003      00000000 
 3003      00000000 
 3004              		.type	tgl_rel.6070, %object
 3005              		.size	tgl_rel.6070, 80
 3006              	tgl_rel.6070:
 3007 10b0 00000000 		.space	80
 3007      00000000 
 3007      00000000 
 3007      00000000 
 3007      00000000 
 3008              		.type	tgl_pr.6071, %object
 3009              		.size	tgl_pr.6071, 80
 3010              	tgl_pr.6071:
 3011 1100 00000000 		.space	80
 3011      00000000 
 3011      00000000 
 3011      00000000 
 3011      00000000 
 3012              		.type	ina.6072, %object
ARM GAS  C:\Users\pearlstl\AppData\Local\Temp\cc5dErme.s 			page 88


 3013              		.size	ina.6072, 80
 3014              	ina.6072:
 3015 1150 00000000 		.space	80
 3015      00000000 
 3015      00000000 
 3015      00000000 
 3015      00000000 
 3016              		.type	bg.6076, %object
 3017              		.size	bg.6076, 80
 3018              	bg.6076:
 3019 11a0 00000000 		.space	80
 3019      00000000 
 3019      00000000 
 3019      00000000 
 3019      00000000 
 3020              		.type	sel.6077, %object
 3021              		.size	sel.6077, 80
 3022              	sel.6077:
 3023 11f0 00000000 		.space	80
 3023      00000000 
 3023      00000000 
 3023      00000000 
 3023      00000000 
 3024              		.type	roller_bg.6081, %object
 3025              		.size	roller_bg.6081, 80
 3026              	roller_bg.6081:
 3027 1240 00000000 		.space	80
 3027      00000000 
 3027      00000000 
 3027      00000000 
 3027      00000000 
 3028              		.type	roller_sel.6082, %object
 3029              		.size	roller_sel.6082, 80
 3030              	roller_sel.6082:
 3031 1290 00000000 		.space	80
 3031      00000000 
 3031      00000000 
 3031      00000000 
 3031      00000000 
 3032              		.type	indic.6086, %object
 3033              		.size	indic.6086, 80
 3034              	indic.6086:
 3035 12e0 00000000 		.space	80
 3035      00000000 
 3035      00000000 
 3035      00000000 
 3035      00000000 
 3036              		.type	btn_bg.6087, %object
 3037              		.size	btn_bg.6087, 80
 3038              	btn_bg.6087:
 3039 1330 00000000 		.space	80
 3039      00000000 
 3039      00000000 
 3039      00000000 
 3039      00000000 
 3040              		.type	rel.6088, %object
 3041              		.size	rel.6088, 80
ARM GAS  C:\Users\pearlstl\AppData\Local\Temp\cc5dErme.s 			page 89


 3042              	rel.6088:
 3043 1380 00000000 		.space	80
 3043      00000000 
 3043      00000000 
 3043      00000000 
 3043      00000000 
 3044              		.type	pr.6089, %object
 3045              		.size	pr.6089, 80
 3046              	pr.6089:
 3047 13d0 00000000 		.space	80
 3047      00000000 
 3047      00000000 
 3047      00000000 
 3047      00000000 
 3048              		.type	tgl_rel.6090, %object
 3049              		.size	tgl_rel.6090, 80
 3050              	tgl_rel.6090:
 3051 1420 00000000 		.space	80
 3051      00000000 
 3051      00000000 
 3051      00000000 
 3051      00000000 
 3052              		.type	tgl_pr.6091, %object
 3053              		.size	tgl_pr.6091, 80
 3054              	tgl_pr.6091:
 3055 1470 00000000 		.space	80
 3055      00000000 
 3055      00000000 
 3055      00000000 
 3055      00000000 
 3056              		.type	cell.6098, %object
 3057              		.size	cell.6098, 80
 3058              	cell.6098:
 3059 14c0 00000000 		.space	80
 3059      00000000 
 3059      00000000 
 3059      00000000 
 3059      00000000 
 3060              		.type	header.6102, %object
 3061              		.size	header.6102, 80
 3062              	header.6102:
 3063 1510 00000000 		.space	80
 3063      00000000 
 3063      00000000 
 3063      00000000 
 3063      00000000 
 3064              		.type	pr.6103, %object
 3065              		.size	pr.6103, 80
 3066              	pr.6103:
 3067 1560 00000000 		.space	80
 3067      00000000 
 3067      00000000 
 3067      00000000 
 3067      00000000 
 3068              		.text
 3069              	.Letext0:
 3070              		.file 2 "c:\\program files (x86)\\cypress\\psoc creator\\4.2\\psoc creator\\import\\gnu\\arm\\5.4.
ARM GAS  C:\Users\pearlstl\AppData\Local\Temp\cc5dErme.s 			page 90


 3071              		.file 3 "c:\\program files (x86)\\cypress\\psoc creator\\4.2\\psoc creator\\import\\gnu\\arm\\5.4.
 3072              		.file 4 "..\\..\\..\\lvgl\\version_6.1.2\\lvgl\\src\\lv_themes\\../../../lv_conf.h"
 3073              		.file 5 "..\\..\\..\\lvgl\\version_6.1.2\\lvgl\\src\\lv_themes\\../lv_core/../lv_font/lv_font.h"
 3074              		.file 6 "..\\..\\..\\lvgl\\version_6.1.2\\lvgl\\src\\lv_themes\\../lv_core/../lv_misc/lv_color.h"
 3075              		.file 7 "..\\..\\..\\lvgl\\version_6.1.2\\lvgl\\src\\lv_themes\\../lv_core/lv_style.h"
 3076              		.file 8 "..\\..\\..\\lvgl\\version_6.1.2\\lvgl\\src\\lv_themes\\lv_theme.h"
 3077              		.section	.debug_info,"",%progbits
 3078              	.Ldebug_info0:
 3079 0000 D9220000 		.4byte	0x22d9
 3080 0004 0400     		.2byte	0x4
 3081 0006 00000000 		.4byte	.Ldebug_abbrev0
 3082 000a 04       		.byte	0x4
 3083 000b 01       		.uleb128 0x1
 3084 000c B7050000 		.4byte	.LASF196
 3085 0010 0C       		.byte	0xc
 3086 0011 64020000 		.4byte	.LASF197
 3087 0015 8C030000 		.4byte	.LASF198
 3088 0019 70050000 		.4byte	.Ldebug_ranges0+0x570
 3089 001d 00000000 		.4byte	0
 3090 0021 00000000 		.4byte	.Ldebug_line0
 3091 0025 02       		.uleb128 0x2
 3092 0026 09010000 		.4byte	.LASF0
 3093 002a 02       		.byte	0x2
 3094 002b 1B       		.byte	0x1b
 3095 002c 30000000 		.4byte	0x30
 3096 0030 03       		.uleb128 0x3
 3097 0031 01       		.byte	0x1
 3098 0032 06       		.byte	0x6
 3099 0033 7C010000 		.4byte	.LASF2
 3100 0037 02       		.uleb128 0x2
 3101 0038 75000000 		.4byte	.LASF1
 3102 003c 02       		.byte	0x2
 3103 003d 1D       		.byte	0x1d
 3104 003e 42000000 		.4byte	0x42
 3105 0042 03       		.uleb128 0x3
 3106 0043 01       		.byte	0x1
 3107 0044 08       		.byte	0x8
 3108 0045 6A060000 		.4byte	.LASF3
 3109 0049 02       		.uleb128 0x2
 3110 004a 40020000 		.4byte	.LASF4
 3111 004e 02       		.byte	0x2
 3112 004f 29       		.byte	0x29
 3113 0050 54000000 		.4byte	0x54
 3114 0054 03       		.uleb128 0x3
 3115 0055 02       		.byte	0x2
 3116 0056 05       		.byte	0x5
 3117 0057 CB010000 		.4byte	.LASF5
 3118 005b 02       		.uleb128 0x2
 3119 005c 5B070000 		.4byte	.LASF6
 3120 0060 02       		.byte	0x2
 3121 0061 2B       		.byte	0x2b
 3122 0062 66000000 		.4byte	0x66
 3123 0066 03       		.uleb128 0x3
 3124 0067 02       		.byte	0x2
 3125 0068 07       		.byte	0x7
 3126 0069 4A030000 		.4byte	.LASF7
 3127 006d 03       		.uleb128 0x3
ARM GAS  C:\Users\pearlstl\AppData\Local\Temp\cc5dErme.s 			page 91


 3128 006e 04       		.byte	0x4
 3129 006f 05       		.byte	0x5
 3130 0070 98010000 		.4byte	.LASF8
 3131 0074 02       		.uleb128 0x2
 3132 0075 2B020000 		.4byte	.LASF9
 3133 0079 02       		.byte	0x2
 3134 007a 41       		.byte	0x41
 3135 007b 7F000000 		.4byte	0x7f
 3136 007f 03       		.uleb128 0x3
 3137 0080 04       		.byte	0x4
 3138 0081 07       		.byte	0x7
 3139 0082 F9020000 		.4byte	.LASF10
 3140 0086 03       		.uleb128 0x3
 3141 0087 08       		.byte	0x8
 3142 0088 05       		.byte	0x5
 3143 0089 6E010000 		.4byte	.LASF11
 3144 008d 03       		.uleb128 0x3
 3145 008e 08       		.byte	0x8
 3146 008f 07       		.byte	0x7
 3147 0090 BF000000 		.4byte	.LASF12
 3148 0094 04       		.uleb128 0x4
 3149 0095 04       		.byte	0x4
 3150 0096 05       		.byte	0x5
 3151 0097 696E7400 		.ascii	"int\000"
 3152 009b 03       		.uleb128 0x3
 3153 009c 04       		.byte	0x4
 3154 009d 07       		.byte	0x7
 3155 009e BC020000 		.4byte	.LASF13
 3156 00a2 02       		.uleb128 0x2
 3157 00a3 E0070000 		.4byte	.LASF14
 3158 00a7 03       		.byte	0x3
 3159 00a8 14       		.byte	0x14
 3160 00a9 25000000 		.4byte	0x25
 3161 00ad 02       		.uleb128 0x2
 3162 00ae 8A070000 		.4byte	.LASF15
 3163 00b2 03       		.byte	0x3
 3164 00b3 18       		.byte	0x18
 3165 00b4 37000000 		.4byte	0x37
 3166 00b8 02       		.uleb128 0x2
 3167 00b9 5E010000 		.4byte	.LASF16
 3168 00bd 03       		.byte	0x3
 3169 00be 20       		.byte	0x20
 3170 00bf 49000000 		.4byte	0x49
 3171 00c3 02       		.uleb128 0x2
 3172 00c4 D1020000 		.4byte	.LASF17
 3173 00c8 03       		.byte	0x3
 3174 00c9 24       		.byte	0x24
 3175 00ca 5B000000 		.4byte	0x5b
 3176 00ce 02       		.uleb128 0x2
 3177 00cf E8060000 		.4byte	.LASF18
 3178 00d3 03       		.byte	0x3
 3179 00d4 30       		.byte	0x30
 3180 00d5 74000000 		.4byte	0x74
 3181 00d9 02       		.uleb128 0x2
 3182 00da 46010000 		.4byte	.LASF19
 3183 00de 04       		.byte	0x4
 3184 00df 3A       		.byte	0x3a
ARM GAS  C:\Users\pearlstl\AppData\Local\Temp\cc5dErme.s 			page 92


 3185 00e0 B8000000 		.4byte	0xb8
 3186 00e4 05       		.uleb128 0x5
 3187 00e5 04       		.byte	0x4
 3188 00e6 03       		.uleb128 0x3
 3189 00e7 08       		.byte	0x8
 3190 00e8 04       		.byte	0x4
 3191 00e9 C5040000 		.4byte	.LASF20
 3192 00ed 06       		.uleb128 0x6
 3193 00ee 08       		.byte	0x8
 3194 00ef 05       		.byte	0x5
 3195 00f0 2E       		.byte	0x2e
 3196 00f1 3E010000 		.4byte	0x13e
 3197 00f5 07       		.uleb128 0x7
 3198 00f6 B5070000 		.4byte	.LASF21
 3199 00fa 05       		.byte	0x5
 3200 00fb 30       		.byte	0x30
 3201 00fc C3000000 		.4byte	0xc3
 3202 0100 00       		.byte	0
 3203 0101 07       		.uleb128 0x7
 3204 0102 64080000 		.4byte	.LASF22
 3205 0106 05       		.byte	0x5
 3206 0107 31       		.byte	0x31
 3207 0108 AD000000 		.4byte	0xad
 3208 010c 02       		.byte	0x2
 3209 010d 07       		.uleb128 0x7
 3210 010e DA070000 		.4byte	.LASF23
 3211 0112 05       		.byte	0x5
 3212 0113 32       		.byte	0x32
 3213 0114 AD000000 		.4byte	0xad
 3214 0118 03       		.byte	0x3
 3215 0119 07       		.uleb128 0x7
 3216 011a AC080000 		.4byte	.LASF24
 3217 011e 05       		.byte	0x5
 3218 011f 33       		.byte	0x33
 3219 0120 A2000000 		.4byte	0xa2
 3220 0124 04       		.byte	0x4
 3221 0125 07       		.uleb128 0x7
 3222 0126 B2080000 		.4byte	.LASF25
 3223 012a 05       		.byte	0x5
 3224 012b 34       		.byte	0x34
 3225 012c A2000000 		.4byte	0xa2
 3226 0130 05       		.byte	0x5
 3227 0131 08       		.uleb128 0x8
 3228 0132 62707000 		.ascii	"bpp\000"
 3229 0136 05       		.byte	0x5
 3230 0137 35       		.byte	0x35
 3231 0138 AD000000 		.4byte	0xad
 3232 013c 06       		.byte	0x6
 3233 013d 00       		.byte	0
 3234 013e 02       		.uleb128 0x2
 3235 013f C8080000 		.4byte	.LASF26
 3236 0143 05       		.byte	0x5
 3237 0144 36       		.byte	0x36
 3238 0145 ED000000 		.4byte	0xed
 3239 0149 09       		.uleb128 0x9
 3240 014a 7E080000 		.4byte	.LASF199
 3241 014e 10       		.byte	0x10
ARM GAS  C:\Users\pearlstl\AppData\Local\Temp\cc5dErme.s 			page 93


 3242 014f 05       		.byte	0x5
 3243 0150 44       		.byte	0x44
 3244 0151 A1010000 		.4byte	0x1a1
 3245 0155 07       		.uleb128 0x7
 3246 0156 DA020000 		.4byte	.LASF27
 3247 015a 05       		.byte	0x5
 3248 015b 47       		.byte	0x47
 3249 015c D7010000 		.4byte	0x1d7
 3250 0160 00       		.byte	0
 3251 0161 07       		.uleb128 0x7
 3252 0162 22000000 		.4byte	.LASF28
 3253 0166 05       		.byte	0x5
 3254 0167 4A       		.byte	0x4a
 3255 0168 FC010000 		.4byte	0x1fc
 3256 016c 04       		.byte	0x4
 3257 016d 07       		.uleb128 0x7
 3258 016e 67030000 		.4byte	.LASF29
 3259 0172 05       		.byte	0x5
 3260 0173 4D       		.byte	0x4d
 3261 0174 AD000000 		.4byte	0xad
 3262 0178 08       		.byte	0x8
 3263 0179 07       		.uleb128 0x7
 3264 017a 8C050000 		.4byte	.LASF30
 3265 017e 05       		.byte	0x5
 3266 017f 4E       		.byte	0x4e
 3267 0180 A2000000 		.4byte	0xa2
 3268 0184 09       		.byte	0x9
 3269 0185 0A       		.uleb128 0xa
 3270 0186 78030000 		.4byte	.LASF85
 3271 018a 05       		.byte	0x5
 3272 018b 4F       		.byte	0x4f
 3273 018c AD000000 		.4byte	0xad
 3274 0190 01       		.byte	0x1
 3275 0191 02       		.byte	0x2
 3276 0192 06       		.byte	0x6
 3277 0193 0A       		.byte	0xa
 3278 0194 08       		.uleb128 0x8
 3279 0195 64736300 		.ascii	"dsc\000"
 3280 0199 05       		.byte	0x5
 3281 019a 50       		.byte	0x50
 3282 019b E4000000 		.4byte	0xe4
 3283 019f 0C       		.byte	0xc
 3284 01a0 00       		.byte	0
 3285 01a1 0B       		.uleb128 0xb
 3286 01a2 BF010000 		.4byte	0x1bf
 3287 01a6 BF010000 		.4byte	0x1bf
 3288 01aa 0C       		.uleb128 0xc
 3289 01ab C6010000 		.4byte	0x1c6
 3290 01af 0C       		.uleb128 0xc
 3291 01b0 D1010000 		.4byte	0x1d1
 3292 01b4 0C       		.uleb128 0xc
 3293 01b5 CE000000 		.4byte	0xce
 3294 01b9 0C       		.uleb128 0xc
 3295 01ba CE000000 		.4byte	0xce
 3296 01be 00       		.byte	0
 3297 01bf 03       		.uleb128 0x3
 3298 01c0 01       		.byte	0x1
ARM GAS  C:\Users\pearlstl\AppData\Local\Temp\cc5dErme.s 			page 94


 3299 01c1 02       		.byte	0x2
 3300 01c2 13080000 		.4byte	.LASF31
 3301 01c6 0D       		.uleb128 0xd
 3302 01c7 04       		.byte	0x4
 3303 01c8 CC010000 		.4byte	0x1cc
 3304 01cc 0E       		.uleb128 0xe
 3305 01cd 49010000 		.4byte	0x149
 3306 01d1 0D       		.uleb128 0xd
 3307 01d2 04       		.byte	0x4
 3308 01d3 3E010000 		.4byte	0x13e
 3309 01d7 0D       		.uleb128 0xd
 3310 01d8 04       		.byte	0x4
 3311 01d9 A1010000 		.4byte	0x1a1
 3312 01dd 0B       		.uleb128 0xb
 3313 01de F1010000 		.4byte	0x1f1
 3314 01e2 F1010000 		.4byte	0x1f1
 3315 01e6 0C       		.uleb128 0xc
 3316 01e7 C6010000 		.4byte	0x1c6
 3317 01eb 0C       		.uleb128 0xc
 3318 01ec CE000000 		.4byte	0xce
 3319 01f0 00       		.byte	0
 3320 01f1 0D       		.uleb128 0xd
 3321 01f2 04       		.byte	0x4
 3322 01f3 F7010000 		.4byte	0x1f7
 3323 01f7 0E       		.uleb128 0xe
 3324 01f8 AD000000 		.4byte	0xad
 3325 01fc 0D       		.uleb128 0xd
 3326 01fd 04       		.byte	0x4
 3327 01fe DD010000 		.4byte	0x1dd
 3328 0202 02       		.uleb128 0x2
 3329 0203 D6000000 		.4byte	.LASF32
 3330 0207 05       		.byte	0x5
 3331 0208 56       		.byte	0x56
 3332 0209 49010000 		.4byte	0x149
 3333 020d 0F       		.uleb128 0xf
 3334 020e 01       		.byte	0x1
 3335 020f 42000000 		.4byte	0x42
 3336 0213 06       		.byte	0x6
 3337 0214 3E       		.byte	0x3e
 3338 0215 68020000 		.4byte	0x268
 3339 0219 10       		.uleb128 0x10
 3340 021a B7040000 		.4byte	.LASF33
 3341 021e 00       		.byte	0
 3342 021f 10       		.uleb128 0x10
 3343 0220 F4010000 		.4byte	.LASF34
 3344 0224 00       		.byte	0
 3345 0225 10       		.uleb128 0x10
 3346 0226 A4050000 		.4byte	.LASF35
 3347 022a 19       		.byte	0x19
 3348 022b 10       		.uleb128 0x10
 3349 022c 47070000 		.4byte	.LASF36
 3350 0230 33       		.byte	0x33
 3351 0231 10       		.uleb128 0x10
 3352 0232 5A000000 		.4byte	.LASF37
 3353 0236 4C       		.byte	0x4c
 3354 0237 10       		.uleb128 0x10
 3355 0238 50000000 		.4byte	.LASF38
ARM GAS  C:\Users\pearlstl\AppData\Local\Temp\cc5dErme.s 			page 95


 3356 023c 66       		.byte	0x66
 3357 023d 10       		.uleb128 0x10
 3358 023e 0A050000 		.4byte	.LASF39
 3359 0242 7F       		.byte	0x7f
 3360 0243 10       		.uleb128 0x10
 3361 0244 36020000 		.4byte	.LASF40
 3362 0248 99       		.byte	0x99
 3363 0249 10       		.uleb128 0x10
 3364 024a 0F040000 		.4byte	.LASF41
 3365 024e B2       		.byte	0xb2
 3366 024f 10       		.uleb128 0x10
 3367 0250 00050000 		.4byte	.LASF42
 3368 0254 CC       		.byte	0xcc
 3369 0255 10       		.uleb128 0x10
 3370 0256 AC060000 		.4byte	.LASF43
 3371 025a E5       		.byte	0xe5
 3372 025b 10       		.uleb128 0x10
 3373 025c AA070000 		.4byte	.LASF44
 3374 0260 FF       		.byte	0xff
 3375 0261 10       		.uleb128 0x10
 3376 0262 E7010000 		.4byte	.LASF45
 3377 0266 FF       		.byte	0xff
 3378 0267 00       		.byte	0
 3379 0268 06       		.uleb128 0x6
 3380 0269 04       		.byte	0x4
 3381 026a 06       		.byte	0x6
 3382 026b F3       		.byte	0xf3
 3383 026c A1020000 		.4byte	0x2a1
 3384 0270 07       		.uleb128 0x7
 3385 0271 2E070000 		.4byte	.LASF46
 3386 0275 06       		.byte	0x6
 3387 0276 F5       		.byte	0xf5
 3388 0277 AD000000 		.4byte	0xad
 3389 027b 00       		.byte	0
 3390 027c 07       		.uleb128 0x7
 3391 027d 48080000 		.4byte	.LASF47
 3392 0281 06       		.byte	0x6
 3393 0282 F6       		.byte	0xf6
 3394 0283 AD000000 		.4byte	0xad
 3395 0287 01       		.byte	0x1
 3396 0288 08       		.uleb128 0x8
 3397 0289 72656400 		.ascii	"red\000"
 3398 028d 06       		.byte	0x6
 3399 028e F7       		.byte	0xf7
 3400 028f AD000000 		.4byte	0xad
 3401 0293 02       		.byte	0x2
 3402 0294 07       		.uleb128 0x7
 3403 0295 88010000 		.4byte	.LASF48
 3404 0299 06       		.byte	0x6
 3405 029a F8       		.byte	0xf8
 3406 029b AD000000 		.4byte	0xad
 3407 029f 03       		.byte	0x3
 3408 02a0 00       		.byte	0
 3409 02a1 11       		.uleb128 0x11
 3410 02a2 04       		.byte	0x4
 3411 02a3 06       		.byte	0x6
 3412 02a4 F1       		.byte	0xf1
ARM GAS  C:\Users\pearlstl\AppData\Local\Temp\cc5dErme.s 			page 96


 3413 02a5 BF020000 		.4byte	0x2bf
 3414 02a9 12       		.uleb128 0x12
 3415 02aa 636800   		.ascii	"ch\000"
 3416 02ad 06       		.byte	0x6
 3417 02ae F9       		.byte	0xf9
 3418 02af 68020000 		.4byte	0x268
 3419 02b3 13       		.uleb128 0x13
 3420 02b4 D1040000 		.4byte	.LASF49
 3421 02b8 06       		.byte	0x6
 3422 02b9 FA       		.byte	0xfa
 3423 02ba CE000000 		.4byte	0xce
 3424 02be 00       		.byte	0
 3425 02bf 02       		.uleb128 0x2
 3426 02c0 12010000 		.4byte	.LASF50
 3427 02c4 06       		.byte	0x6
 3428 02c5 FB       		.byte	0xfb
 3429 02c6 A1020000 		.4byte	0x2a1
 3430 02ca 14       		.uleb128 0x14
 3431 02cb 98070000 		.4byte	.LASF51
 3432 02cf 06       		.byte	0x6
 3433 02d0 0801     		.2byte	0x108
 3434 02d2 BF020000 		.4byte	0x2bf
 3435 02d6 14       		.uleb128 0x14
 3436 02d7 5E040000 		.4byte	.LASF52
 3437 02db 06       		.byte	0x6
 3438 02dc 0D01     		.2byte	0x10d
 3439 02de AD000000 		.4byte	0xad
 3440 02e2 03       		.uleb128 0x3
 3441 02e3 04       		.byte	0x4
 3442 02e4 07       		.byte	0x7
 3443 02e5 A1040000 		.4byte	.LASF53
 3444 02e9 03       		.uleb128 0x3
 3445 02ea 01       		.byte	0x1
 3446 02eb 08       		.byte	0x8
 3447 02ec 42070000 		.4byte	.LASF54
 3448 02f0 0F       		.uleb128 0xf
 3449 02f1 01       		.byte	0x1
 3450 02f2 42000000 		.4byte	0x42
 3451 02f6 07       		.byte	0x7
 3452 02f7 23       		.byte	0x23
 3453 02f8 27030000 		.4byte	0x327
 3454 02fc 10       		.uleb128 0x10
 3455 02fd 4A020000 		.4byte	.LASF55
 3456 0301 00       		.byte	0
 3457 0302 10       		.uleb128 0x10
 3458 0303 E6040000 		.4byte	.LASF56
 3459 0307 01       		.byte	0x1
 3460 0308 10       		.uleb128 0x10
 3461 0309 96050000 		.4byte	.LASF57
 3462 030d 02       		.byte	0x2
 3463 030e 10       		.uleb128 0x10
 3464 030f FE070000 		.4byte	.LASF58
 3465 0313 04       		.byte	0x4
 3466 0314 10       		.uleb128 0x10
 3467 0315 6C070000 		.4byte	.LASF59
 3468 0319 08       		.byte	0x8
 3469 031a 10       		.uleb128 0x10
ARM GAS  C:\Users\pearlstl\AppData\Local\Temp\cc5dErme.s 			page 97


 3470 031b EF070000 		.4byte	.LASF60
 3471 031f 0F       		.byte	0xf
 3472 0320 10       		.uleb128 0x10
 3473 0321 33000000 		.4byte	.LASF61
 3474 0325 10       		.byte	0x10
 3475 0326 00       		.byte	0
 3476 0327 02       		.uleb128 0x2
 3477 0328 9B080000 		.4byte	.LASF62
 3478 032c 07       		.byte	0x7
 3479 032d 2C       		.byte	0x2c
 3480 032e AD000000 		.4byte	0xad
 3481 0332 0F       		.uleb128 0xf
 3482 0333 01       		.byte	0x1
 3483 0334 42000000 		.4byte	0x42
 3484 0338 07       		.byte	0x7
 3485 0339 2F       		.byte	0x2f
 3486 033a 4B030000 		.4byte	0x34b
 3487 033e 10       		.uleb128 0x10
 3488 033f 22080000 		.4byte	.LASF63
 3489 0343 00       		.byte	0
 3490 0344 10       		.uleb128 0x10
 3491 0345 9E000000 		.4byte	.LASF64
 3492 0349 01       		.byte	0x1
 3493 034a 00       		.byte	0
 3494 034b 02       		.uleb128 0x2
 3495 034c 61050000 		.4byte	.LASF65
 3496 0350 07       		.byte	0x7
 3497 0351 33       		.byte	0x33
 3498 0352 AD000000 		.4byte	0xad
 3499 0356 06       		.uleb128 0x6
 3500 0357 08       		.byte	0x8
 3501 0358 07       		.byte	0x7
 3502 0359 48       		.byte	0x48
 3503 035a 8F030000 		.4byte	0x38f
 3504 035e 07       		.uleb128 0x7
 3505 035f 3C070000 		.4byte	.LASF66
 3506 0363 07       		.byte	0x7
 3507 0364 4A       		.byte	0x4a
 3508 0365 CA020000 		.4byte	0x2ca
 3509 0369 00       		.byte	0
 3510 036a 07       		.uleb128 0x7
 3511 036b 26030000 		.4byte	.LASF67
 3512 036f 07       		.byte	0x7
 3513 0370 4B       		.byte	0x4b
 3514 0371 D9000000 		.4byte	0xd9
 3515 0375 04       		.byte	0x4
 3516 0376 07       		.uleb128 0x7
 3517 0377 BF060000 		.4byte	.LASF68
 3518 037b 07       		.byte	0x7
 3519 037c 4C       		.byte	0x4c
 3520 037d 27030000 		.4byte	0x327
 3521 0381 06       		.byte	0x6
 3522 0382 08       		.uleb128 0x8
 3523 0383 6F706100 		.ascii	"opa\000"
 3524 0387 07       		.byte	0x7
 3525 0388 4D       		.byte	0x4d
 3526 0389 D6020000 		.4byte	0x2d6
ARM GAS  C:\Users\pearlstl\AppData\Local\Temp\cc5dErme.s 			page 98


 3527 038d 07       		.byte	0x7
 3528 038e 00       		.byte	0
 3529 038f 06       		.uleb128 0x6
 3530 0390 08       		.byte	0x8
 3531 0391 07       		.byte	0x7
 3532 0392 51       		.byte	0x51
 3533 0393 BC030000 		.4byte	0x3bc
 3534 0397 07       		.uleb128 0x7
 3535 0398 3C070000 		.4byte	.LASF66
 3536 039c 07       		.byte	0x7
 3537 039d 53       		.byte	0x53
 3538 039e CA020000 		.4byte	0x2ca
 3539 03a2 00       		.byte	0
 3540 03a3 07       		.uleb128 0x7
 3541 03a4 26030000 		.4byte	.LASF67
 3542 03a8 07       		.byte	0x7
 3543 03a9 54       		.byte	0x54
 3544 03aa D9000000 		.4byte	0xd9
 3545 03ae 04       		.byte	0x4
 3546 03af 07       		.uleb128 0x7
 3547 03b0 99000000 		.4byte	.LASF69
 3548 03b4 07       		.byte	0x7
 3549 03b5 55       		.byte	0x55
 3550 03b6 4B030000 		.4byte	0x34b
 3551 03ba 06       		.byte	0x6
 3552 03bb 00       		.byte	0
 3553 03bc 06       		.uleb128 0x6
 3554 03bd 0A       		.byte	0xa
 3555 03be 07       		.byte	0x7
 3556 03bf 58       		.byte	0x58
 3557 03c0 01040000 		.4byte	0x401
 3558 03c4 08       		.uleb128 0x8
 3559 03c5 746F7000 		.ascii	"top\000"
 3560 03c9 07       		.byte	0x7
 3561 03ca 5A       		.byte	0x5a
 3562 03cb D9000000 		.4byte	0xd9
 3563 03cf 00       		.byte	0
 3564 03d0 07       		.uleb128 0x7
 3565 03d1 FD010000 		.4byte	.LASF70
 3566 03d5 07       		.byte	0x7
 3567 03d6 5B       		.byte	0x5b
 3568 03d7 D9000000 		.4byte	0xd9
 3569 03db 02       		.byte	0x2
 3570 03dc 07       		.uleb128 0x7
 3571 03dd F9080000 		.4byte	.LASF71
 3572 03e1 07       		.byte	0x7
 3573 03e2 5C       		.byte	0x5c
 3574 03e3 D9000000 		.4byte	0xd9
 3575 03e7 04       		.byte	0x4
 3576 03e8 07       		.uleb128 0x7
 3577 03e9 58010000 		.4byte	.LASF72
 3578 03ed 07       		.byte	0x7
 3579 03ee 5D       		.byte	0x5d
 3580 03ef D9000000 		.4byte	0xd9
 3581 03f3 06       		.byte	0x6
 3582 03f4 07       		.uleb128 0x7
 3583 03f5 DC080000 		.4byte	.LASF73
ARM GAS  C:\Users\pearlstl\AppData\Local\Temp\cc5dErme.s 			page 99


 3584 03f9 07       		.byte	0x7
 3585 03fa 5E       		.byte	0x5e
 3586 03fb D9000000 		.4byte	0xd9
 3587 03ff 08       		.byte	0x8
 3588 0400 00       		.byte	0
 3589 0401 06       		.uleb128 0x6
 3590 0402 28       		.byte	0x28
 3591 0403 07       		.byte	0x7
 3592 0404 41       		.byte	0x41
 3593 0405 5E040000 		.4byte	0x45e
 3594 0409 07       		.uleb128 0x7
 3595 040a B3010000 		.4byte	.LASF74
 3596 040e 07       		.byte	0x7
 3597 040f 43       		.byte	0x43
 3598 0410 CA020000 		.4byte	0x2ca
 3599 0414 00       		.byte	0
 3600 0415 07       		.uleb128 0x7
 3601 0416 C4060000 		.4byte	.LASF75
 3602 041a 07       		.byte	0x7
 3603 041b 44       		.byte	0x44
 3604 041c CA020000 		.4byte	0x2ca
 3605 0420 04       		.byte	0x4
 3606 0421 07       		.uleb128 0x7
 3607 0422 67040000 		.4byte	.LASF76
 3608 0426 07       		.byte	0x7
 3609 0427 45       		.byte	0x45
 3610 0428 D9000000 		.4byte	0xd9
 3611 042c 08       		.byte	0x8
 3612 042d 08       		.uleb128 0x8
 3613 042e 6F706100 		.ascii	"opa\000"
 3614 0432 07       		.byte	0x7
 3615 0433 46       		.byte	0x46
 3616 0434 D6020000 		.4byte	0x2d6
 3617 0438 0A       		.byte	0xa
 3618 0439 07       		.uleb128 0x7
 3619 043a 83060000 		.4byte	.LASF77
 3620 043e 07       		.byte	0x7
 3621 043f 4E       		.byte	0x4e
 3622 0440 56030000 		.4byte	0x356
 3623 0444 0C       		.byte	0xc
 3624 0445 07       		.uleb128 0x7
 3625 0446 8A060000 		.4byte	.LASF78
 3626 044a 07       		.byte	0x7
 3627 044b 56       		.byte	0x56
 3628 044c 8F030000 		.4byte	0x38f
 3629 0450 14       		.byte	0x14
 3630 0451 07       		.uleb128 0x7
 3631 0452 0E000000 		.4byte	.LASF79
 3632 0456 07       		.byte	0x7
 3633 0457 5F       		.byte	0x5f
 3634 0458 BC030000 		.4byte	0x3bc
 3635 045c 1C       		.byte	0x1c
 3636 045d 00       		.byte	0
 3637 045e 06       		.uleb128 0x6
 3638 045f 14       		.byte	0x14
 3639 0460 07       		.byte	0x7
 3640 0461 63       		.byte	0x63
ARM GAS  C:\Users\pearlstl\AppData\Local\Temp\cc5dErme.s 			page 100


 3641 0462 AF040000 		.4byte	0x4af
 3642 0466 07       		.uleb128 0x7
 3643 0467 3C070000 		.4byte	.LASF66
 3644 046b 07       		.byte	0x7
 3645 046c 65       		.byte	0x65
 3646 046d CA020000 		.4byte	0x2ca
 3647 0471 00       		.byte	0
 3648 0472 07       		.uleb128 0x7
 3649 0473 75040000 		.4byte	.LASF80
 3650 0477 07       		.byte	0x7
 3651 0478 66       		.byte	0x66
 3652 0479 CA020000 		.4byte	0x2ca
 3653 047d 04       		.byte	0x4
 3654 047e 07       		.uleb128 0x7
 3655 047f 43080000 		.4byte	.LASF81
 3656 0483 07       		.byte	0x7
 3657 0484 67       		.byte	0x67
 3658 0485 AF040000 		.4byte	0x4af
 3659 0489 08       		.byte	0x8
 3660 048a 07       		.uleb128 0x7
 3661 048b 54050000 		.4byte	.LASF82
 3662 048f 07       		.byte	0x7
 3663 0490 68       		.byte	0x68
 3664 0491 D9000000 		.4byte	0xd9
 3665 0495 0C       		.byte	0xc
 3666 0496 07       		.uleb128 0x7
 3667 0497 EC000000 		.4byte	.LASF83
 3668 049b 07       		.byte	0x7
 3669 049c 69       		.byte	0x69
 3670 049d D9000000 		.4byte	0xd9
 3671 04a1 0E       		.byte	0xe
 3672 04a2 08       		.uleb128 0x8
 3673 04a3 6F706100 		.ascii	"opa\000"
 3674 04a7 07       		.byte	0x7
 3675 04a8 6A       		.byte	0x6a
 3676 04a9 D6020000 		.4byte	0x2d6
 3677 04ad 10       		.byte	0x10
 3678 04ae 00       		.byte	0
 3679 04af 0D       		.uleb128 0xd
 3680 04b0 04       		.byte	0x4
 3681 04b1 B5040000 		.4byte	0x4b5
 3682 04b5 0E       		.uleb128 0xe
 3683 04b6 02020000 		.4byte	0x202
 3684 04ba 06       		.uleb128 0x6
 3685 04bb 08       		.byte	0x8
 3686 04bc 07       		.byte	0x7
 3687 04bd 6E       		.byte	0x6e
 3688 04be E7040000 		.4byte	0x4e7
 3689 04c2 07       		.uleb128 0x7
 3690 04c3 3C070000 		.4byte	.LASF66
 3691 04c7 07       		.byte	0x7
 3692 04c8 70       		.byte	0x70
 3693 04c9 CA020000 		.4byte	0x2ca
 3694 04cd 00       		.byte	0
 3695 04ce 07       		.uleb128 0x7
 3696 04cf 4E080000 		.4byte	.LASF84
 3697 04d3 07       		.byte	0x7
ARM GAS  C:\Users\pearlstl\AppData\Local\Temp\cc5dErme.s 			page 101


 3698 04d4 71       		.byte	0x71
 3699 04d5 D6020000 		.4byte	0x2d6
 3700 04d9 04       		.byte	0x4
 3701 04da 08       		.uleb128 0x8
 3702 04db 6F706100 		.ascii	"opa\000"
 3703 04df 07       		.byte	0x7
 3704 04e0 72       		.byte	0x72
 3705 04e1 D6020000 		.4byte	0x2d6
 3706 04e5 05       		.byte	0x5
 3707 04e6 00       		.byte	0
 3708 04e7 06       		.uleb128 0x6
 3709 04e8 08       		.byte	0x8
 3710 04e9 07       		.byte	0x7
 3711 04ea 76       		.byte	0x76
 3712 04eb 23050000 		.4byte	0x523
 3713 04ef 07       		.uleb128 0x7
 3714 04f0 3C070000 		.4byte	.LASF66
 3715 04f4 07       		.byte	0x7
 3716 04f5 78       		.byte	0x78
 3717 04f6 CA020000 		.4byte	0x2ca
 3718 04fa 00       		.byte	0
 3719 04fb 07       		.uleb128 0x7
 3720 04fc 26030000 		.4byte	.LASF67
 3721 0500 07       		.byte	0x7
 3722 0501 79       		.byte	0x79
 3723 0502 D9000000 		.4byte	0xd9
 3724 0506 04       		.byte	0x4
 3725 0507 08       		.uleb128 0x8
 3726 0508 6F706100 		.ascii	"opa\000"
 3727 050c 07       		.byte	0x7
 3728 050d 7A       		.byte	0x7a
 3729 050e D6020000 		.4byte	0x2d6
 3730 0512 06       		.byte	0x6
 3731 0513 0A       		.uleb128 0xa
 3732 0514 14050000 		.4byte	.LASF86
 3733 0518 07       		.byte	0x7
 3734 0519 7B       		.byte	0x7b
 3735 051a AD000000 		.4byte	0xad
 3736 051e 01       		.byte	0x1
 3737 051f 01       		.byte	0x1
 3738 0520 07       		.byte	0x7
 3739 0521 07       		.byte	0x7
 3740 0522 00       		.byte	0
 3741 0523 06       		.uleb128 0x6
 3742 0524 50       		.byte	0x50
 3743 0525 07       		.byte	0x7
 3744 0526 3C       		.byte	0x3c
 3745 0527 6B050000 		.4byte	0x56b
 3746 052b 0A       		.uleb128 0xa
 3747 052c 1F010000 		.4byte	.LASF87
 3748 0530 07       		.byte	0x7
 3749 0531 3E       		.byte	0x3e
 3750 0532 AD000000 		.4byte	0xad
 3751 0536 01       		.byte	0x1
 3752 0537 01       		.byte	0x1
 3753 0538 07       		.byte	0x7
 3754 0539 00       		.byte	0
ARM GAS  C:\Users\pearlstl\AppData\Local\Temp\cc5dErme.s 			page 102


 3755 053a 07       		.uleb128 0x7
 3756 053b 8E010000 		.4byte	.LASF88
 3757 053f 07       		.byte	0x7
 3758 0540 60       		.byte	0x60
 3759 0541 01040000 		.4byte	0x401
 3760 0545 04       		.byte	0x4
 3761 0546 07       		.uleb128 0x7
 3762 0547 04010000 		.4byte	.LASF89
 3763 054b 07       		.byte	0x7
 3764 054c 6B       		.byte	0x6b
 3765 054d 5E040000 		.4byte	0x45e
 3766 0551 2C       		.byte	0x2c
 3767 0552 07       		.uleb128 0x7
 3768 0553 91060000 		.4byte	.LASF90
 3769 0557 07       		.byte	0x7
 3770 0558 73       		.byte	0x73
 3771 0559 BA040000 		.4byte	0x4ba
 3772 055d 40       		.byte	0x40
 3773 055e 07       		.uleb128 0x7
 3774 055f E8020000 		.4byte	.LASF91
 3775 0563 07       		.byte	0x7
 3776 0564 7C       		.byte	0x7c
 3777 0565 E7040000 		.4byte	0x4e7
 3778 0569 48       		.byte	0x48
 3779 056a 00       		.byte	0
 3780 056b 02       		.uleb128 0x2
 3781 056c 78060000 		.4byte	.LASF92
 3782 0570 07       		.byte	0x7
 3783 0571 84       		.byte	0x84
 3784 0572 23050000 		.4byte	0x523
 3785 0576 0D       		.uleb128 0xd
 3786 0577 04       		.byte	0x4
 3787 0578 6B050000 		.4byte	0x56b
 3788 057c 06       		.uleb128 0x6
 3789 057d 14       		.byte	0x14
 3790 057e 08       		.byte	0x8
 3791 057f 34       		.byte	0x34
 3792 0580 C0050000 		.4byte	0x5c0
 3793 0584 08       		.uleb128 0x8
 3794 0585 72656C00 		.ascii	"rel\000"
 3795 0589 08       		.byte	0x8
 3796 058a 36       		.byte	0x36
 3797 058b 76050000 		.4byte	0x576
 3798 058f 00       		.byte	0
 3799 0590 08       		.uleb128 0x8
 3800 0591 707200   		.ascii	"pr\000"
 3801 0594 08       		.byte	0x8
 3802 0595 37       		.byte	0x37
 3803 0596 76050000 		.4byte	0x576
 3804 059a 04       		.byte	0x4
 3805 059b 07       		.uleb128 0x7
 3806 059c 7F040000 		.4byte	.LASF93
 3807 05a0 08       		.byte	0x8
 3808 05a1 38       		.byte	0x38
 3809 05a2 76050000 		.4byte	0x576
 3810 05a6 08       		.byte	0x8
 3811 05a7 07       		.uleb128 0x7
ARM GAS  C:\Users\pearlstl\AppData\Local\Temp\cc5dErme.s 			page 103


 3812 05a8 27070000 		.4byte	.LASF94
 3813 05ac 08       		.byte	0x8
 3814 05ad 39       		.byte	0x39
 3815 05ae 76050000 		.4byte	0x576
 3816 05b2 0C       		.byte	0xc
 3817 05b3 08       		.uleb128 0x8
 3818 05b4 696E6100 		.ascii	"ina\000"
 3819 05b8 08       		.byte	0x8
 3820 05b9 3A       		.byte	0x3a
 3821 05ba 76050000 		.4byte	0x576
 3822 05be 10       		.byte	0x10
 3823 05bf 00       		.byte	0
 3824 05c0 06       		.uleb128 0x6
 3825 05c1 14       		.byte	0x14
 3826 05c2 08       		.byte	0x8
 3827 05c3 3F       		.byte	0x3f
 3828 05c4 04060000 		.4byte	0x604
 3829 05c8 08       		.uleb128 0x8
 3830 05c9 72656C00 		.ascii	"rel\000"
 3831 05cd 08       		.byte	0x8
 3832 05ce 41       		.byte	0x41
 3833 05cf 76050000 		.4byte	0x576
 3834 05d3 00       		.byte	0
 3835 05d4 08       		.uleb128 0x8
 3836 05d5 707200   		.ascii	"pr\000"
 3837 05d8 08       		.byte	0x8
 3838 05d9 42       		.byte	0x42
 3839 05da 76050000 		.4byte	0x576
 3840 05de 04       		.byte	0x4
 3841 05df 07       		.uleb128 0x7
 3842 05e0 7F040000 		.4byte	.LASF93
 3843 05e4 08       		.byte	0x8
 3844 05e5 43       		.byte	0x43
 3845 05e6 76050000 		.4byte	0x576
 3846 05ea 08       		.byte	0x8
 3847 05eb 07       		.uleb128 0x7
 3848 05ec 27070000 		.4byte	.LASF94
 3849 05f0 08       		.byte	0x8
 3850 05f1 44       		.byte	0x44
 3851 05f2 76050000 		.4byte	0x576
 3852 05f6 0C       		.byte	0xc
 3853 05f7 08       		.uleb128 0x8
 3854 05f8 696E6100 		.ascii	"ina\000"
 3855 05fc 08       		.byte	0x8
 3856 05fd 45       		.byte	0x45
 3857 05fe 76050000 		.4byte	0x576
 3858 0602 10       		.byte	0x10
 3859 0603 00       		.byte	0
 3860 0604 06       		.uleb128 0x6
 3861 0605 0C       		.byte	0xc
 3862 0606 08       		.byte	0x8
 3863 0607 4A       		.byte	0x4a
 3864 0608 31060000 		.4byte	0x631
 3865 060c 07       		.uleb128 0x7
 3866 060d 30050000 		.4byte	.LASF95
 3867 0611 08       		.byte	0x8
 3868 0612 4C       		.byte	0x4c
ARM GAS  C:\Users\pearlstl\AppData\Local\Temp\cc5dErme.s 			page 104


 3869 0613 76050000 		.4byte	0x576
 3870 0617 00       		.byte	0
 3871 0618 08       		.uleb128 0x8
 3872 0619 73656300 		.ascii	"sec\000"
 3873 061d 08       		.byte	0x8
 3874 061e 4D       		.byte	0x4d
 3875 061f 76050000 		.4byte	0x576
 3876 0623 04       		.byte	0x4
 3877 0624 07       		.uleb128 0x7
 3878 0625 13070000 		.4byte	.LASF96
 3879 0629 08       		.byte	0x8
 3880 062a 4E       		.byte	0x4e
 3881 062b 76050000 		.4byte	0x576
 3882 062f 08       		.byte	0x8
 3883 0630 00       		.byte	0
 3884 0631 06       		.uleb128 0x6
 3885 0632 08       		.byte	0x8
 3886 0633 08       		.byte	0x8
 3887 0634 53       		.byte	0x53
 3888 0635 52060000 		.4byte	0x652
 3889 0639 07       		.uleb128 0x7
 3890 063a 7F000000 		.4byte	.LASF97
 3891 063e 08       		.byte	0x8
 3892 063f 55       		.byte	0x55
 3893 0640 76050000 		.4byte	0x576
 3894 0644 00       		.byte	0
 3895 0645 07       		.uleb128 0x7
 3896 0646 87050000 		.4byte	.LASF98
 3897 064a 08       		.byte	0x8
 3898 064b 56       		.byte	0x56
 3899 064c 76050000 		.4byte	0x576
 3900 0650 04       		.byte	0x4
 3901 0651 00       		.byte	0
 3902 0652 06       		.uleb128 0x6
 3903 0653 04       		.byte	0x4
 3904 0654 08       		.byte	0x8
 3905 0655 5B       		.byte	0x5b
 3906 0656 67060000 		.4byte	0x667
 3907 065a 07       		.uleb128 0x7
 3908 065b CF060000 		.4byte	.LASF99
 3909 065f 08       		.byte	0x8
 3910 0660 5D       		.byte	0x5d
 3911 0661 76050000 		.4byte	0x576
 3912 0665 00       		.byte	0
 3913 0666 00       		.byte	0
 3914 0667 06       		.uleb128 0x6
 3915 0668 08       		.byte	0x8
 3916 0669 08       		.byte	0x8
 3917 066a 66       		.byte	0x66
 3918 066b 87060000 		.4byte	0x687
 3919 066f 08       		.uleb128 0x8
 3920 0670 626700   		.ascii	"bg\000"
 3921 0673 08       		.byte	0x8
 3922 0674 68       		.byte	0x68
 3923 0675 76050000 		.4byte	0x576
 3924 0679 00       		.byte	0
 3925 067a 07       		.uleb128 0x7
ARM GAS  C:\Users\pearlstl\AppData\Local\Temp\cc5dErme.s 			page 105


 3926 067b 04020000 		.4byte	.LASF100
 3927 067f 08       		.byte	0x8
 3928 0680 69       		.byte	0x69
 3929 0681 76050000 		.4byte	0x576
 3930 0685 04       		.byte	0x4
 3931 0686 00       		.byte	0
 3932 0687 06       		.uleb128 0x6
 3933 0688 0C       		.byte	0xc
 3934 0689 08       		.byte	0x8
 3935 068a 6E       		.byte	0x6e
 3936 068b B3060000 		.4byte	0x6b3
 3937 068f 08       		.uleb128 0x8
 3938 0690 626700   		.ascii	"bg\000"
 3939 0693 08       		.byte	0x8
 3940 0694 70       		.byte	0x70
 3941 0695 76050000 		.4byte	0x576
 3942 0699 00       		.byte	0
 3943 069a 07       		.uleb128 0x7
 3944 069b 04020000 		.4byte	.LASF100
 3945 069f 08       		.byte	0x8
 3946 06a0 71       		.byte	0x71
 3947 06a1 76050000 		.4byte	0x576
 3948 06a5 04       		.byte	0x4
 3949 06a6 07       		.uleb128 0x7
 3950 06a7 82050000 		.4byte	.LASF101
 3951 06ab 08       		.byte	0x8
 3952 06ac 72       		.byte	0x72
 3953 06ad 76050000 		.4byte	0x576
 3954 06b1 08       		.byte	0x8
 3955 06b2 00       		.byte	0
 3956 06b3 06       		.uleb128 0x6
 3957 06b4 10       		.byte	0x10
 3958 06b5 08       		.byte	0x8
 3959 06b6 87       		.byte	0x87
 3960 06b7 EB060000 		.4byte	0x6eb
 3961 06bb 08       		.uleb128 0x8
 3962 06bc 626700   		.ascii	"bg\000"
 3963 06bf 08       		.byte	0x8
 3964 06c0 89       		.byte	0x89
 3965 06c1 76050000 		.4byte	0x576
 3966 06c5 00       		.byte	0
 3967 06c6 07       		.uleb128 0x7
 3968 06c7 04020000 		.4byte	.LASF100
 3969 06cb 08       		.byte	0x8
 3970 06cc 8A       		.byte	0x8a
 3971 06cd 76050000 		.4byte	0x576
 3972 06d1 04       		.byte	0x4
 3973 06d2 07       		.uleb128 0x7
 3974 06d3 AE050000 		.4byte	.LASF102
 3975 06d7 08       		.byte	0x8
 3976 06d8 8B       		.byte	0x8b
 3977 06d9 76050000 		.4byte	0x576
 3978 06dd 08       		.byte	0x8
 3979 06de 07       		.uleb128 0x7
 3980 06df B4020000 		.4byte	.LASF103
 3981 06e3 08       		.byte	0x8
 3982 06e4 8C       		.byte	0x8c
ARM GAS  C:\Users\pearlstl\AppData\Local\Temp\cc5dErme.s 			page 106


 3983 06e5 76050000 		.4byte	0x576
 3984 06e9 0C       		.byte	0xc
 3985 06ea 00       		.byte	0
 3986 06eb 06       		.uleb128 0x6
 3987 06ec 20       		.byte	0x20
 3988 06ed 08       		.byte	0x8
 3989 06ee 95       		.byte	0x95
 3990 06ef 53070000 		.4byte	0x753
 3991 06f3 08       		.uleb128 0x8
 3992 06f4 626700   		.ascii	"bg\000"
 3993 06f7 08       		.byte	0x8
 3994 06f8 97       		.byte	0x97
 3995 06f9 76050000 		.4byte	0x576
 3996 06fd 00       		.byte	0
 3997 06fe 07       		.uleb128 0x7
 3998 06ff 06090000 		.4byte	.LASF104
 3999 0703 08       		.byte	0x8
 4000 0704 98       		.byte	0x98
 4001 0705 76050000 		.4byte	0x576
 4002 0709 04       		.byte	0x4
 4003 070a 07       		.uleb128 0x7
 4004 070b C6070000 		.4byte	.LASF105
 4005 070f 08       		.byte	0x8
 4006 0710 99       		.byte	0x99
 4007 0711 76050000 		.4byte	0x576
 4008 0715 08       		.byte	0x8
 4009 0716 07       		.uleb128 0x7
 4010 0717 19040000 		.4byte	.LASF106
 4011 071b 08       		.byte	0x8
 4012 071c 9A       		.byte	0x9a
 4013 071d 76050000 		.4byte	0x576
 4014 0721 0C       		.byte	0xc
 4015 0722 07       		.uleb128 0x7
 4016 0723 3A040000 		.4byte	.LASF107
 4017 0727 08       		.byte	0x8
 4018 0728 9B       		.byte	0x9b
 4019 0729 76050000 		.4byte	0x576
 4020 072d 10       		.byte	0x10
 4021 072e 07       		.uleb128 0x7
 4022 072f 7E030000 		.4byte	.LASF108
 4023 0733 08       		.byte	0x8
 4024 0734 9C       		.byte	0x9c
 4025 0735 76050000 		.4byte	0x576
 4026 0739 14       		.byte	0x14
 4027 073a 07       		.uleb128 0x7
 4028 073b 41030000 		.4byte	.LASF109
 4029 073f 08       		.byte	0x8
 4030 0740 9D       		.byte	0x9d
 4031 0741 76050000 		.4byte	0x576
 4032 0745 18       		.byte	0x18
 4033 0746 07       		.uleb128 0x7
 4034 0747 51070000 		.4byte	.LASF110
 4035 074b 08       		.byte	0x8
 4036 074c 9E       		.byte	0x9e
 4037 074d 76050000 		.4byte	0x576
 4038 0751 1C       		.byte	0x1c
 4039 0752 00       		.byte	0
ARM GAS  C:\Users\pearlstl\AppData\Local\Temp\cc5dErme.s 			page 107


 4040 0753 06       		.uleb128 0x6
 4041 0754 14       		.byte	0x14
 4042 0755 08       		.byte	0x8
 4043 0756 A6       		.byte	0xa6
 4044 0757 97070000 		.4byte	0x797
 4045 075b 08       		.uleb128 0x8
 4046 075c 72656C00 		.ascii	"rel\000"
 4047 0760 08       		.byte	0x8
 4048 0761 A8       		.byte	0xa8
 4049 0762 76050000 		.4byte	0x576
 4050 0766 00       		.byte	0
 4051 0767 08       		.uleb128 0x8
 4052 0768 707200   		.ascii	"pr\000"
 4053 076b 08       		.byte	0x8
 4054 076c A9       		.byte	0xa9
 4055 076d 76050000 		.4byte	0x576
 4056 0771 04       		.byte	0x4
 4057 0772 07       		.uleb128 0x7
 4058 0773 7F040000 		.4byte	.LASF93
 4059 0777 08       		.byte	0x8
 4060 0778 AA       		.byte	0xaa
 4061 0779 76050000 		.4byte	0x576
 4062 077d 08       		.byte	0x8
 4063 077e 07       		.uleb128 0x7
 4064 077f 27070000 		.4byte	.LASF94
 4065 0783 08       		.byte	0x8
 4066 0784 AB       		.byte	0xab
 4067 0785 76050000 		.4byte	0x576
 4068 0789 0C       		.byte	0xc
 4069 078a 08       		.uleb128 0x8
 4070 078b 696E6100 		.ascii	"ina\000"
 4071 078f 08       		.byte	0x8
 4072 0790 AC       		.byte	0xac
 4073 0791 76050000 		.4byte	0x576
 4074 0795 10       		.byte	0x10
 4075 0796 00       		.byte	0
 4076 0797 06       		.uleb128 0x6
 4077 0798 18       		.byte	0x18
 4078 0799 08       		.byte	0x8
 4079 079a A3       		.byte	0xa3
 4080 079b B7070000 		.4byte	0x7b7
 4081 079f 08       		.uleb128 0x8
 4082 07a0 626700   		.ascii	"bg\000"
 4083 07a3 08       		.byte	0x8
 4084 07a4 A5       		.byte	0xa5
 4085 07a5 76050000 		.4byte	0x576
 4086 07a9 00       		.byte	0
 4087 07aa 08       		.uleb128 0x8
 4088 07ab 626F7800 		.ascii	"box\000"
 4089 07af 08       		.byte	0x8
 4090 07b0 AD       		.byte	0xad
 4091 07b1 53070000 		.4byte	0x753
 4092 07b5 04       		.byte	0x4
 4093 07b6 00       		.byte	0
 4094 07b7 06       		.uleb128 0x6
 4095 07b8 14       		.byte	0x14
 4096 07b9 08       		.byte	0x8
ARM GAS  C:\Users\pearlstl\AppData\Local\Temp\cc5dErme.s 			page 108


 4097 07ba B5       		.byte	0xb5
 4098 07bb FB070000 		.4byte	0x7fb
 4099 07bf 08       		.uleb128 0x8
 4100 07c0 72656C00 		.ascii	"rel\000"
 4101 07c4 08       		.byte	0x8
 4102 07c5 B7       		.byte	0xb7
 4103 07c6 76050000 		.4byte	0x576
 4104 07ca 00       		.byte	0
 4105 07cb 08       		.uleb128 0x8
 4106 07cc 707200   		.ascii	"pr\000"
 4107 07cf 08       		.byte	0x8
 4108 07d0 B8       		.byte	0xb8
 4109 07d1 76050000 		.4byte	0x576
 4110 07d5 04       		.byte	0x4
 4111 07d6 07       		.uleb128 0x7
 4112 07d7 7F040000 		.4byte	.LASF93
 4113 07db 08       		.byte	0x8
 4114 07dc B9       		.byte	0xb9
 4115 07dd 76050000 		.4byte	0x576
 4116 07e1 08       		.byte	0x8
 4117 07e2 07       		.uleb128 0x7
 4118 07e3 27070000 		.4byte	.LASF94
 4119 07e7 08       		.byte	0x8
 4120 07e8 BA       		.byte	0xba
 4121 07e9 76050000 		.4byte	0x576
 4122 07ed 0C       		.byte	0xc
 4123 07ee 08       		.uleb128 0x8
 4124 07ef 696E6100 		.ascii	"ina\000"
 4125 07f3 08       		.byte	0x8
 4126 07f4 BB       		.byte	0xbb
 4127 07f5 76050000 		.4byte	0x576
 4128 07f9 10       		.byte	0x10
 4129 07fa 00       		.byte	0
 4130 07fb 06       		.uleb128 0x6
 4131 07fc 18       		.byte	0x18
 4132 07fd 08       		.byte	0x8
 4133 07fe B2       		.byte	0xb2
 4134 07ff 1B080000 		.4byte	0x81b
 4135 0803 08       		.uleb128 0x8
 4136 0804 626700   		.ascii	"bg\000"
 4137 0807 08       		.byte	0x8
 4138 0808 B4       		.byte	0xb4
 4139 0809 76050000 		.4byte	0x576
 4140 080d 00       		.byte	0
 4141 080e 08       		.uleb128 0x8
 4142 080f 62746E00 		.ascii	"btn\000"
 4143 0813 08       		.byte	0x8
 4144 0814 BC       		.byte	0xbc
 4145 0815 B7070000 		.4byte	0x7b7
 4146 0819 04       		.byte	0x4
 4147 081a 00       		.byte	0
 4148 081b 06       		.uleb128 0x6
 4149 081c 14       		.byte	0x14
 4150 081d 08       		.byte	0x8
 4151 081e C4       		.byte	0xc4
 4152 081f 5F080000 		.4byte	0x85f
 4153 0823 08       		.uleb128 0x8
ARM GAS  C:\Users\pearlstl\AppData\Local\Temp\cc5dErme.s 			page 109


 4154 0824 72656C00 		.ascii	"rel\000"
 4155 0828 08       		.byte	0x8
 4156 0829 C6       		.byte	0xc6
 4157 082a 76050000 		.4byte	0x576
 4158 082e 00       		.byte	0
 4159 082f 08       		.uleb128 0x8
 4160 0830 707200   		.ascii	"pr\000"
 4161 0833 08       		.byte	0x8
 4162 0834 C7       		.byte	0xc7
 4163 0835 76050000 		.4byte	0x576
 4164 0839 04       		.byte	0x4
 4165 083a 07       		.uleb128 0x7
 4166 083b 7F040000 		.4byte	.LASF93
 4167 083f 08       		.byte	0x8
 4168 0840 C8       		.byte	0xc8
 4169 0841 76050000 		.4byte	0x576
 4170 0845 08       		.byte	0x8
 4171 0846 07       		.uleb128 0x7
 4172 0847 27070000 		.4byte	.LASF94
 4173 084b 08       		.byte	0x8
 4174 084c C9       		.byte	0xc9
 4175 084d 76050000 		.4byte	0x576
 4176 0851 0C       		.byte	0xc
 4177 0852 08       		.uleb128 0x8
 4178 0853 696E6100 		.ascii	"ina\000"
 4179 0857 08       		.byte	0x8
 4180 0858 CA       		.byte	0xca
 4181 0859 76050000 		.4byte	0x576
 4182 085d 10       		.byte	0x10
 4183 085e 00       		.byte	0
 4184 085f 06       		.uleb128 0x6
 4185 0860 18       		.byte	0x18
 4186 0861 08       		.byte	0x8
 4187 0862 C1       		.byte	0xc1
 4188 0863 7F080000 		.4byte	0x87f
 4189 0867 08       		.uleb128 0x8
 4190 0868 626700   		.ascii	"bg\000"
 4191 086b 08       		.byte	0x8
 4192 086c C3       		.byte	0xc3
 4193 086d 76050000 		.4byte	0x576
 4194 0871 00       		.byte	0
 4195 0872 08       		.uleb128 0x8
 4196 0873 62746E00 		.ascii	"btn\000"
 4197 0877 08       		.byte	0x8
 4198 0878 CB       		.byte	0xcb
 4199 0879 1B080000 		.4byte	0x81b
 4200 087d 04       		.byte	0x4
 4201 087e 00       		.byte	0
 4202 087f 06       		.uleb128 0x6
 4203 0880 0C       		.byte	0xc
 4204 0881 08       		.byte	0x8
 4205 0882 D3       		.byte	0xd3
 4206 0883 AA080000 		.4byte	0x8aa
 4207 0887 08       		.uleb128 0x8
 4208 0888 626700   		.ascii	"bg\000"
 4209 088b 08       		.byte	0x8
 4210 088c D5       		.byte	0xd5
ARM GAS  C:\Users\pearlstl\AppData\Local\Temp\cc5dErme.s 			page 110


 4211 088d 76050000 		.4byte	0x576
 4212 0891 00       		.byte	0
 4213 0892 08       		.uleb128 0x8
 4214 0893 72656C00 		.ascii	"rel\000"
 4215 0897 08       		.byte	0x8
 4216 0898 D6       		.byte	0xd6
 4217 0899 76050000 		.4byte	0x576
 4218 089d 04       		.byte	0x4
 4219 089e 08       		.uleb128 0x8
 4220 089f 707200   		.ascii	"pr\000"
 4221 08a2 08       		.byte	0x8
 4222 08a3 D7       		.byte	0xd7
 4223 08a4 76050000 		.4byte	0x576
 4224 08a8 08       		.byte	0x8
 4225 08a9 00       		.byte	0
 4226 08aa 06       		.uleb128 0x6
 4227 08ab 10       		.byte	0x10
 4228 08ac 08       		.byte	0x8
 4229 08ad D0       		.byte	0xd0
 4230 08ae CA080000 		.4byte	0x8ca
 4231 08b2 08       		.uleb128 0x8
 4232 08b3 626700   		.ascii	"bg\000"
 4233 08b6 08       		.byte	0x8
 4234 08b7 D2       		.byte	0xd2
 4235 08b8 76050000 		.4byte	0x576
 4236 08bc 00       		.byte	0
 4237 08bd 08       		.uleb128 0x8
 4238 08be 62746E00 		.ascii	"btn\000"
 4239 08c2 08       		.byte	0x8
 4240 08c3 D8       		.byte	0xd8
 4241 08c4 7F080000 		.4byte	0x87f
 4242 08c8 04       		.byte	0x4
 4243 08c9 00       		.byte	0
 4244 08ca 06       		.uleb128 0x6
 4245 08cb 0C       		.byte	0xc
 4246 08cc 08       		.byte	0x8
 4247 08cd DD       		.byte	0xdd
 4248 08ce F5080000 		.4byte	0x8f5
 4249 08d2 08       		.uleb128 0x8
 4250 08d3 626700   		.ascii	"bg\000"
 4251 08d6 08       		.byte	0x8
 4252 08d7 DF       		.byte	0xdf
 4253 08d8 76050000 		.4byte	0x576
 4254 08dc 00       		.byte	0
 4255 08dd 07       		.uleb128 0x7
 4256 08de 23040000 		.4byte	.LASF111
 4257 08e2 08       		.byte	0x8
 4258 08e3 E0       		.byte	0xe0
 4259 08e4 76050000 		.4byte	0x576
 4260 08e8 04       		.byte	0x4
 4261 08e9 08       		.uleb128 0x8
 4262 08ea 736200   		.ascii	"sb\000"
 4263 08ed 08       		.byte	0x8
 4264 08ee E1       		.byte	0xe1
 4265 08ef 76050000 		.4byte	0x576
 4266 08f3 08       		.byte	0x8
 4267 08f4 00       		.byte	0
ARM GAS  C:\Users\pearlstl\AppData\Local\Temp\cc5dErme.s 			page 111


 4268 08f5 06       		.uleb128 0x6
 4269 08f6 10       		.byte	0x10
 4270 08f7 08       		.byte	0x8
 4271 08f8 E6       		.byte	0xe6
 4272 08f9 2D090000 		.4byte	0x92d
 4273 08fd 07       		.uleb128 0x7
 4274 08fe 97060000 		.4byte	.LASF112
 4275 0902 08       		.byte	0x8
 4276 0903 E8       		.byte	0xe8
 4277 0904 76050000 		.4byte	0x576
 4278 0908 00       		.byte	0
 4279 0909 07       		.uleb128 0x7
 4280 090a 64000000 		.4byte	.LASF113
 4281 090e 08       		.byte	0x8
 4282 090f E9       		.byte	0xe9
 4283 0910 76050000 		.4byte	0x576
 4284 0914 04       		.byte	0x4
 4285 0915 07       		.uleb128 0x7
 4286 0916 F7000000 		.4byte	.LASF114
 4287 091a 08       		.byte	0x8
 4288 091b EA       		.byte	0xea
 4289 091c 76050000 		.4byte	0x576
 4290 0920 08       		.byte	0x8
 4291 0921 08       		.uleb128 0x8
 4292 0922 736200   		.ascii	"sb\000"
 4293 0925 08       		.byte	0x8
 4294 0926 EB       		.byte	0xeb
 4295 0927 76050000 		.4byte	0x576
 4296 092b 0C       		.byte	0xc
 4297 092c 00       		.byte	0
 4298 092d 06       		.uleb128 0x6
 4299 092e 0C       		.byte	0xc
 4300 092f 08       		.byte	0x8
 4301 0930 F0       		.byte	0xf0
 4302 0931 58090000 		.4byte	0x958
 4303 0935 08       		.uleb128 0x8
 4304 0936 626700   		.ascii	"bg\000"
 4305 0939 08       		.byte	0x8
 4306 093a F2       		.byte	0xf2
 4307 093b 76050000 		.4byte	0x576
 4308 093f 00       		.byte	0
 4309 0940 07       		.uleb128 0x7
 4310 0941 F7000000 		.4byte	.LASF114
 4311 0945 08       		.byte	0x8
 4312 0946 F3       		.byte	0xf3
 4313 0947 76050000 		.4byte	0x576
 4314 094b 04       		.byte	0x4
 4315 094c 08       		.uleb128 0x8
 4316 094d 736200   		.ascii	"sb\000"
 4317 0950 08       		.byte	0x8
 4318 0951 F4       		.byte	0xf4
 4319 0952 76050000 		.4byte	0x576
 4320 0956 08       		.byte	0x8
 4321 0957 00       		.byte	0
 4322 0958 06       		.uleb128 0x6
 4323 0959 14       		.byte	0x14
 4324 095a 08       		.byte	0x8
ARM GAS  C:\Users\pearlstl\AppData\Local\Temp\cc5dErme.s 			page 112


 4325 095b FE       		.byte	0xfe
 4326 095c A1090000 		.4byte	0x9a1
 4327 0960 15       		.uleb128 0x15
 4328 0961 72656C00 		.ascii	"rel\000"
 4329 0965 08       		.byte	0x8
 4330 0966 0001     		.2byte	0x100
 4331 0968 76050000 		.4byte	0x576
 4332 096c 00       		.byte	0
 4333 096d 15       		.uleb128 0x15
 4334 096e 707200   		.ascii	"pr\000"
 4335 0971 08       		.byte	0x8
 4336 0972 0101     		.2byte	0x101
 4337 0974 76050000 		.4byte	0x576
 4338 0978 04       		.byte	0x4
 4339 0979 16       		.uleb128 0x16
 4340 097a 7F040000 		.4byte	.LASF93
 4341 097e 08       		.byte	0x8
 4342 097f 0201     		.2byte	0x102
 4343 0981 76050000 		.4byte	0x576
 4344 0985 08       		.byte	0x8
 4345 0986 16       		.uleb128 0x16
 4346 0987 27070000 		.4byte	.LASF94
 4347 098b 08       		.byte	0x8
 4348 098c 0301     		.2byte	0x103
 4349 098e 76050000 		.4byte	0x576
 4350 0992 0C       		.byte	0xc
 4351 0993 15       		.uleb128 0x15
 4352 0994 696E6100 		.ascii	"ina\000"
 4353 0998 08       		.byte	0x8
 4354 0999 0401     		.2byte	0x104
 4355 099b 76050000 		.4byte	0x576
 4356 099f 10       		.byte	0x10
 4357 09a0 00       		.byte	0
 4358 09a1 06       		.uleb128 0x6
 4359 09a2 20       		.byte	0x20
 4360 09a3 08       		.byte	0x8
 4361 09a4 F9       		.byte	0xf9
 4362 09a5 D9090000 		.4byte	0x9d9
 4363 09a9 08       		.uleb128 0x8
 4364 09aa 626700   		.ascii	"bg\000"
 4365 09ad 08       		.byte	0x8
 4366 09ae FB       		.byte	0xfb
 4367 09af 76050000 		.4byte	0x576
 4368 09b3 00       		.byte	0
 4369 09b4 07       		.uleb128 0x7
 4370 09b5 23040000 		.4byte	.LASF111
 4371 09b9 08       		.byte	0x8
 4372 09ba FC       		.byte	0xfc
 4373 09bb 76050000 		.4byte	0x576
 4374 09bf 04       		.byte	0x4
 4375 09c0 08       		.uleb128 0x8
 4376 09c1 736200   		.ascii	"sb\000"
 4377 09c4 08       		.byte	0x8
 4378 09c5 FD       		.byte	0xfd
 4379 09c6 76050000 		.4byte	0x576
 4380 09ca 08       		.byte	0x8
 4381 09cb 15       		.uleb128 0x15
ARM GAS  C:\Users\pearlstl\AppData\Local\Temp\cc5dErme.s 			page 113


 4382 09cc 62746E00 		.ascii	"btn\000"
 4383 09d0 08       		.byte	0x8
 4384 09d1 0501     		.2byte	0x105
 4385 09d3 58090000 		.4byte	0x958
 4386 09d7 0C       		.byte	0xc
 4387 09d8 00       		.byte	0
 4388 09d9 17       		.uleb128 0x17
 4389 09da 0C       		.byte	0xc
 4390 09db 08       		.byte	0x8
 4391 09dc 0A01     		.2byte	0x10a
 4392 09de 080A0000 		.4byte	0xa08
 4393 09e2 15       		.uleb128 0x15
 4394 09e3 626700   		.ascii	"bg\000"
 4395 09e6 08       		.byte	0x8
 4396 09e7 0C01     		.2byte	0x10c
 4397 09e9 76050000 		.4byte	0x576
 4398 09ed 00       		.byte	0
 4399 09ee 15       		.uleb128 0x15
 4400 09ef 73656C00 		.ascii	"sel\000"
 4401 09f3 08       		.byte	0x8
 4402 09f4 0D01     		.2byte	0x10d
 4403 09f6 76050000 		.4byte	0x576
 4404 09fa 04       		.byte	0x4
 4405 09fb 15       		.uleb128 0x15
 4406 09fc 736200   		.ascii	"sb\000"
 4407 09ff 08       		.byte	0x8
 4408 0a00 0E01     		.2byte	0x10e
 4409 0a02 76050000 		.4byte	0x576
 4410 0a06 08       		.byte	0x8
 4411 0a07 00       		.byte	0
 4412 0a08 17       		.uleb128 0x17
 4413 0a09 08       		.byte	0x8
 4414 0a0a 08       		.byte	0x8
 4415 0a0b 1301     		.2byte	0x113
 4416 0a0d 2B0A0000 		.4byte	0xa2b
 4417 0a11 15       		.uleb128 0x15
 4418 0a12 626700   		.ascii	"bg\000"
 4419 0a15 08       		.byte	0x8
 4420 0a16 1501     		.2byte	0x115
 4421 0a18 76050000 		.4byte	0x576
 4422 0a1c 00       		.byte	0
 4423 0a1d 15       		.uleb128 0x15
 4424 0a1e 73656C00 		.ascii	"sel\000"
 4425 0a22 08       		.byte	0x8
 4426 0a23 1601     		.2byte	0x116
 4427 0a25 76050000 		.4byte	0x576
 4428 0a29 04       		.byte	0x4
 4429 0a2a 00       		.byte	0
 4430 0a2b 17       		.uleb128 0x17
 4431 0a2c 14       		.byte	0x14
 4432 0a2d 08       		.byte	0x8
 4433 0a2e 1F01     		.2byte	0x11f
 4434 0a30 740A0000 		.4byte	0xa74
 4435 0a34 15       		.uleb128 0x15
 4436 0a35 626700   		.ascii	"bg\000"
 4437 0a38 08       		.byte	0x8
 4438 0a39 2101     		.2byte	0x121
ARM GAS  C:\Users\pearlstl\AppData\Local\Temp\cc5dErme.s 			page 114


 4439 0a3b 76050000 		.4byte	0x576
 4440 0a3f 00       		.byte	0
 4441 0a40 15       		.uleb128 0x15
 4442 0a41 72656C00 		.ascii	"rel\000"
 4443 0a45 08       		.byte	0x8
 4444 0a46 2201     		.2byte	0x122
 4445 0a48 76050000 		.4byte	0x576
 4446 0a4c 04       		.byte	0x4
 4447 0a4d 15       		.uleb128 0x15
 4448 0a4e 707200   		.ascii	"pr\000"
 4449 0a51 08       		.byte	0x8
 4450 0a52 2301     		.2byte	0x123
 4451 0a54 76050000 		.4byte	0x576
 4452 0a58 08       		.byte	0x8
 4453 0a59 16       		.uleb128 0x16
 4454 0a5a 7F040000 		.4byte	.LASF93
 4455 0a5e 08       		.byte	0x8
 4456 0a5f 2401     		.2byte	0x124
 4457 0a61 76050000 		.4byte	0x576
 4458 0a65 0C       		.byte	0xc
 4459 0a66 16       		.uleb128 0x16
 4460 0a67 27070000 		.4byte	.LASF94
 4461 0a6b 08       		.byte	0x8
 4462 0a6c 2501     		.2byte	0x125
 4463 0a6e 76050000 		.4byte	0x576
 4464 0a72 10       		.byte	0x10
 4465 0a73 00       		.byte	0
 4466 0a74 17       		.uleb128 0x17
 4467 0a75 1C       		.byte	0x1c
 4468 0a76 08       		.byte	0x8
 4469 0a77 1B01     		.2byte	0x11b
 4470 0a79 A40A0000 		.4byte	0xaa4
 4471 0a7d 15       		.uleb128 0x15
 4472 0a7e 626700   		.ascii	"bg\000"
 4473 0a81 08       		.byte	0x8
 4474 0a82 1D01     		.2byte	0x11d
 4475 0a84 76050000 		.4byte	0x576
 4476 0a88 00       		.byte	0
 4477 0a89 16       		.uleb128 0x16
 4478 0a8a 04020000 		.4byte	.LASF100
 4479 0a8e 08       		.byte	0x8
 4480 0a8f 1E01     		.2byte	0x11e
 4481 0a91 76050000 		.4byte	0x576
 4482 0a95 04       		.byte	0x4
 4483 0a96 15       		.uleb128 0x15
 4484 0a97 62746E00 		.ascii	"btn\000"
 4485 0a9b 08       		.byte	0x8
 4486 0a9c 2601     		.2byte	0x126
 4487 0a9e 2B0A0000 		.4byte	0xa2b
 4488 0aa2 08       		.byte	0x8
 4489 0aa3 00       		.byte	0
 4490 0aa4 17       		.uleb128 0x17
 4491 0aa5 0C       		.byte	0xc
 4492 0aa6 08       		.byte	0x8
 4493 0aa7 2B01     		.2byte	0x12b
 4494 0aa9 D30A0000 		.4byte	0xad3
 4495 0aad 15       		.uleb128 0x15
ARM GAS  C:\Users\pearlstl\AppData\Local\Temp\cc5dErme.s 			page 115


 4496 0aae 626700   		.ascii	"bg\000"
 4497 0ab1 08       		.byte	0x8
 4498 0ab2 2D01     		.2byte	0x12d
 4499 0ab4 76050000 		.4byte	0x576
 4500 0ab8 00       		.byte	0
 4501 0ab9 16       		.uleb128 0x16
 4502 0aba 23040000 		.4byte	.LASF111
 4503 0abe 08       		.byte	0x8
 4504 0abf 2E01     		.2byte	0x12e
 4505 0ac1 76050000 		.4byte	0x576
 4506 0ac5 04       		.byte	0x4
 4507 0ac6 15       		.uleb128 0x15
 4508 0ac7 736200   		.ascii	"sb\000"
 4509 0aca 08       		.byte	0x8
 4510 0acb 2F01     		.2byte	0x12f
 4511 0acd 76050000 		.4byte	0x576
 4512 0ad1 08       		.byte	0x8
 4513 0ad2 00       		.byte	0
 4514 0ad3 17       		.uleb128 0x17
 4515 0ad4 08       		.byte	0x8
 4516 0ad5 08       		.byte	0x8
 4517 0ad6 3401     		.2byte	0x134
 4518 0ad8 F60A0000 		.4byte	0xaf6
 4519 0adc 15       		.uleb128 0x15
 4520 0add 626700   		.ascii	"bg\000"
 4521 0ae0 08       		.byte	0x8
 4522 0ae1 3601     		.2byte	0x136
 4523 0ae3 76050000 		.4byte	0x576
 4524 0ae7 00       		.byte	0
 4525 0ae8 16       		.uleb128 0x16
 4526 0ae9 F1060000 		.4byte	.LASF115
 4527 0aed 08       		.byte	0x8
 4528 0aee 3701     		.2byte	0x137
 4529 0af0 76050000 		.4byte	0x576
 4530 0af4 04       		.byte	0x4
 4531 0af5 00       		.byte	0
 4532 0af6 17       		.uleb128 0x17
 4533 0af7 08       		.byte	0x8
 4534 0af8 08       		.byte	0x8
 4535 0af9 4201     		.2byte	0x142
 4536 0afb 190B0000 		.4byte	0xb19
 4537 0aff 15       		.uleb128 0x15
 4538 0b00 72656C00 		.ascii	"rel\000"
 4539 0b04 08       		.byte	0x8
 4540 0b05 4401     		.2byte	0x144
 4541 0b07 76050000 		.4byte	0x576
 4542 0b0b 00       		.byte	0
 4543 0b0c 15       		.uleb128 0x15
 4544 0b0d 707200   		.ascii	"pr\000"
 4545 0b10 08       		.byte	0x8
 4546 0b11 4501     		.2byte	0x145
 4547 0b13 76050000 		.4byte	0x576
 4548 0b17 04       		.byte	0x4
 4549 0b18 00       		.byte	0
 4550 0b19 17       		.uleb128 0x17
 4551 0b1a 18       		.byte	0x18
 4552 0b1b 08       		.byte	0x8
ARM GAS  C:\Users\pearlstl\AppData\Local\Temp\cc5dErme.s 			page 116


 4553 0b1c 3C01     		.2byte	0x13c
 4554 0b1e 620B0000 		.4byte	0xb62
 4555 0b22 15       		.uleb128 0x15
 4556 0b23 626700   		.ascii	"bg\000"
 4557 0b26 08       		.byte	0x8
 4558 0b27 3E01     		.2byte	0x13e
 4559 0b29 76050000 		.4byte	0x576
 4560 0b2d 00       		.byte	0
 4561 0b2e 15       		.uleb128 0x15
 4562 0b2f 736200   		.ascii	"sb\000"
 4563 0b32 08       		.byte	0x8
 4564 0b33 3F01     		.2byte	0x13f
 4565 0b35 76050000 		.4byte	0x576
 4566 0b39 04       		.byte	0x4
 4567 0b3a 16       		.uleb128 0x16
 4568 0b3b 06090000 		.4byte	.LASF104
 4569 0b3f 08       		.byte	0x8
 4570 0b40 4001     		.2byte	0x140
 4571 0b42 76050000 		.4byte	0x576
 4572 0b46 08       		.byte	0x8
 4573 0b47 16       		.uleb128 0x16
 4574 0b48 18070000 		.4byte	.LASF116
 4575 0b4c 08       		.byte	0x8
 4576 0b4d 4101     		.2byte	0x141
 4577 0b4f 76050000 		.4byte	0x576
 4578 0b53 0C       		.byte	0xc
 4579 0b54 15       		.uleb128 0x15
 4580 0b55 62746E00 		.ascii	"btn\000"
 4581 0b59 08       		.byte	0x8
 4582 0b5a 4601     		.2byte	0x146
 4583 0b5c F60A0000 		.4byte	0xaf6
 4584 0b60 10       		.byte	0x10
 4585 0b61 00       		.byte	0
 4586 0b62 18       		.uleb128 0x18
 4587 0b63 A801     		.2byte	0x1a8
 4588 0b65 08       		.byte	0x8
 4589 0b66 29       		.byte	0x29
 4590 0b67 040D0000 		.4byte	0xd04
 4591 0b6b 08       		.uleb128 0x8
 4592 0b6c 73637200 		.ascii	"scr\000"
 4593 0b70 08       		.byte	0x8
 4594 0b71 2B       		.byte	0x2b
 4595 0b72 76050000 		.4byte	0x576
 4596 0b76 00       		.byte	0
 4597 0b77 08       		.uleb128 0x8
 4598 0b78 626700   		.ascii	"bg\000"
 4599 0b7b 08       		.byte	0x8
 4600 0b7c 2C       		.byte	0x2c
 4601 0b7d 76050000 		.4byte	0x576
 4602 0b81 04       		.byte	0x4
 4603 0b82 07       		.uleb128 0x7
 4604 0b83 66070000 		.4byte	.LASF117
 4605 0b87 08       		.byte	0x8
 4606 0b88 2D       		.byte	0x2d
 4607 0b89 76050000 		.4byte	0x576
 4608 0b8d 08       		.byte	0x8
 4609 0b8e 07       		.uleb128 0x7
ARM GAS  C:\Users\pearlstl\AppData\Local\Temp\cc5dErme.s 			page 117


 4610 0b8f 56080000 		.4byte	.LASF118
 4611 0b93 08       		.byte	0x8
 4612 0b94 30       		.byte	0x30
 4613 0b95 76050000 		.4byte	0x576
 4614 0b99 0C       		.byte	0xc
 4615 0b9a 08       		.uleb128 0x8
 4616 0b9b 62746E00 		.ascii	"btn\000"
 4617 0b9f 08       		.byte	0x8
 4618 0ba0 3B       		.byte	0x3b
 4619 0ba1 7C050000 		.4byte	0x57c
 4620 0ba5 10       		.byte	0x10
 4621 0ba6 07       		.uleb128 0x7
 4622 0ba7 A3070000 		.4byte	.LASF119
 4623 0bab 08       		.byte	0x8
 4624 0bac 46       		.byte	0x46
 4625 0bad C0050000 		.4byte	0x5c0
 4626 0bb1 24       		.byte	0x24
 4627 0bb2 07       		.uleb128 0x7
 4628 0bb3 28040000 		.4byte	.LASF120
 4629 0bb7 08       		.byte	0x8
 4630 0bb8 4F       		.byte	0x4f
 4631 0bb9 04060000 		.4byte	0x604
 4632 0bbd 38       		.byte	0x38
 4633 0bbe 08       		.uleb128 0x8
 4634 0bbf 696D6700 		.ascii	"img\000"
 4635 0bc3 08       		.byte	0x8
 4636 0bc4 57       		.byte	0x57
 4637 0bc5 31060000 		.4byte	0x631
 4638 0bc9 44       		.byte	0x44
 4639 0bca 07       		.uleb128 0x7
 4640 0bcb E8020000 		.4byte	.LASF91
 4641 0bcf 08       		.byte	0x8
 4642 0bd0 5E       		.byte	0x5e
 4643 0bd1 52060000 		.4byte	0x652
 4644 0bd5 4C       		.byte	0x4c
 4645 0bd6 08       		.uleb128 0x8
 4646 0bd7 6C656400 		.ascii	"led\000"
 4647 0bdb 08       		.byte	0x8
 4648 0bdc 62       		.byte	0x62
 4649 0bdd 76050000 		.4byte	0x576
 4650 0be1 50       		.byte	0x50
 4651 0be2 08       		.uleb128 0x8
 4652 0be3 62617200 		.ascii	"bar\000"
 4653 0be7 08       		.byte	0x8
 4654 0be8 6A       		.byte	0x6a
 4655 0be9 67060000 		.4byte	0x667
 4656 0bed 54       		.byte	0x54
 4657 0bee 07       		.uleb128 0x7
 4658 0bef 0D090000 		.4byte	.LASF121
 4659 0bf3 08       		.byte	0x8
 4660 0bf4 73       		.byte	0x73
 4661 0bf5 87060000 		.4byte	0x687
 4662 0bf9 5C       		.byte	0x5c
 4663 0bfa 07       		.uleb128 0x7
 4664 0bfb 6E040000 		.4byte	.LASF122
 4665 0bff 08       		.byte	0x8
 4666 0c00 77       		.byte	0x77
ARM GAS  C:\Users\pearlstl\AppData\Local\Temp\cc5dErme.s 			page 118


 4667 0c01 76050000 		.4byte	0x576
 4668 0c05 68       		.byte	0x68
 4669 0c06 07       		.uleb128 0x7
 4670 0c07 FE000000 		.4byte	.LASF123
 4671 0c0b 08       		.byte	0x8
 4672 0c0c 7B       		.byte	0x7b
 4673 0c0d 76050000 		.4byte	0x576
 4674 0c11 6C       		.byte	0x6c
 4675 0c12 08       		.uleb128 0x8
 4676 0c13 61726300 		.ascii	"arc\000"
 4677 0c17 08       		.byte	0x8
 4678 0c18 7F       		.byte	0x7f
 4679 0c19 76050000 		.4byte	0x576
 4680 0c1d 70       		.byte	0x70
 4681 0c1e 07       		.uleb128 0x7
 4682 0c1f E7070000 		.4byte	.LASF124
 4683 0c23 08       		.byte	0x8
 4684 0c24 83       		.byte	0x83
 4685 0c25 76050000 		.4byte	0x576
 4686 0c29 74       		.byte	0x74
 4687 0c2a 08       		.uleb128 0x8
 4688 0c2b 737700   		.ascii	"sw\000"
 4689 0c2e 08       		.byte	0x8
 4690 0c2f 8D       		.byte	0x8d
 4691 0c30 B3060000 		.4byte	0x6b3
 4692 0c34 78       		.byte	0x78
 4693 0c35 07       		.uleb128 0x7
 4694 0c36 6A080000 		.4byte	.LASF125
 4695 0c3a 08       		.byte	0x8
 4696 0c3b 91       		.byte	0x91
 4697 0c3c 76050000 		.4byte	0x576
 4698 0c40 88       		.byte	0x88
 4699 0c41 07       		.uleb128 0x7
 4700 0c42 5B080000 		.4byte	.LASF126
 4701 0c46 08       		.byte	0x8
 4702 0c47 9F       		.byte	0x9f
 4703 0c48 EB060000 		.4byte	0x6eb
 4704 0c4c 8C       		.byte	0x8c
 4705 0c4d 08       		.uleb128 0x8
 4706 0c4e 636200   		.ascii	"cb\000"
 4707 0c51 08       		.byte	0x8
 4708 0c52 AE       		.byte	0xae
 4709 0c53 97070000 		.4byte	0x797
 4710 0c57 AC       		.byte	0xac
 4711 0c58 07       		.uleb128 0x7
 4712 0c59 73030000 		.4byte	.LASF127
 4713 0c5d 08       		.byte	0x8
 4714 0c5e BD       		.byte	0xbd
 4715 0c5f FB070000 		.4byte	0x7fb
 4716 0c63 C4       		.byte	0xc4
 4717 0c64 08       		.uleb128 0x8
 4718 0c65 6B6200   		.ascii	"kb\000"
 4719 0c68 08       		.byte	0x8
 4720 0c69 CC       		.byte	0xcc
 4721 0c6a 5F080000 		.4byte	0x85f
 4722 0c6e DC       		.byte	0xdc
 4723 0c6f 07       		.uleb128 0x7
ARM GAS  C:\Users\pearlstl\AppData\Local\Temp\cc5dErme.s 			page 119


 4724 0c70 72050000 		.4byte	.LASF128
 4725 0c74 08       		.byte	0x8
 4726 0c75 D9       		.byte	0xd9
 4727 0c76 AA080000 		.4byte	0x8aa
 4728 0c7a F4       		.byte	0xf4
 4729 0c7b 19       		.uleb128 0x19
 4730 0c7c 0B030000 		.4byte	.LASF129
 4731 0c80 08       		.byte	0x8
 4732 0c81 E2       		.byte	0xe2
 4733 0c82 CA080000 		.4byte	0x8ca
 4734 0c86 0401     		.2byte	0x104
 4735 0c88 1A       		.uleb128 0x1a
 4736 0c89 746100   		.ascii	"ta\000"
 4737 0c8c 08       		.byte	0x8
 4738 0c8d EC       		.byte	0xec
 4739 0c8e F5080000 		.4byte	0x8f5
 4740 0c92 1001     		.2byte	0x110
 4741 0c94 19       		.uleb128 0x19
 4742 0c95 1E030000 		.4byte	.LASF130
 4743 0c99 08       		.byte	0x8
 4744 0c9a F5       		.byte	0xf5
 4745 0c9b 2D090000 		.4byte	0x92d
 4746 0c9f 2001     		.2byte	0x120
 4747 0ca1 1B       		.uleb128 0x1b
 4748 0ca2 93010000 		.4byte	.LASF131
 4749 0ca6 08       		.byte	0x8
 4750 0ca7 0601     		.2byte	0x106
 4751 0ca9 A1090000 		.4byte	0x9a1
 4752 0cad 2C01     		.2byte	0x12c
 4753 0caf 1B       		.uleb128 0x1b
 4754 0cb0 3C080000 		.4byte	.LASF132
 4755 0cb4 08       		.byte	0x8
 4756 0cb5 0F01     		.2byte	0x10f
 4757 0cb7 D9090000 		.4byte	0x9d9
 4758 0cbb 4C01     		.2byte	0x14c
 4759 0cbd 1B       		.uleb128 0x1b
 4760 0cbe F6060000 		.4byte	.LASF133
 4761 0cc2 08       		.byte	0x8
 4762 0cc3 1701     		.2byte	0x117
 4763 0cc5 080A0000 		.4byte	0xa08
 4764 0cc9 5801     		.2byte	0x158
 4765 0ccb 1B       		.uleb128 0x1b
 4766 0ccc FE080000 		.4byte	.LASF134
 4767 0cd0 08       		.byte	0x8
 4768 0cd1 2701     		.2byte	0x127
 4769 0cd3 740A0000 		.4byte	0xa74
 4770 0cd7 6001     		.2byte	0x160
 4771 0cd9 1B       		.uleb128 0x1b
 4772 0cda F7040000 		.4byte	.LASF135
 4773 0cde 08       		.byte	0x8
 4774 0cdf 3001     		.2byte	0x130
 4775 0ce1 A40A0000 		.4byte	0xaa4
 4776 0ce5 7C01     		.2byte	0x17c
 4777 0ce7 1B       		.uleb128 0x1b
 4778 0ce8 A6060000 		.4byte	.LASF136
 4779 0cec 08       		.byte	0x8
 4780 0ced 3801     		.2byte	0x138
ARM GAS  C:\Users\pearlstl\AppData\Local\Temp\cc5dErme.s 			page 120


 4781 0cef D30A0000 		.4byte	0xad3
 4782 0cf3 8801     		.2byte	0x188
 4783 0cf5 1C       		.uleb128 0x1c
 4784 0cf6 77696E00 		.ascii	"win\000"
 4785 0cfa 08       		.byte	0x8
 4786 0cfb 4701     		.2byte	0x147
 4787 0cfd 190B0000 		.4byte	0xb19
 4788 0d01 9001     		.2byte	0x190
 4789 0d03 00       		.byte	0
 4790 0d04 18       		.uleb128 0x18
 4791 0d05 A801     		.2byte	0x1a8
 4792 0d07 08       		.byte	0x8
 4793 0d08 27       		.byte	0x27
 4794 0d09 1B0D0000 		.4byte	0xd1b
 4795 0d0d 16       		.uleb128 0x16
 4796 0d0e 92070000 		.4byte	.LASF137
 4797 0d12 08       		.byte	0x8
 4798 0d13 4901     		.2byte	0x149
 4799 0d15 620B0000 		.4byte	0xb62
 4800 0d19 00       		.byte	0
 4801 0d1a 00       		.byte	0
 4802 0d1b 14       		.uleb128 0x14
 4803 0d1c BB070000 		.4byte	.LASF138
 4804 0d20 08       		.byte	0x8
 4805 0d21 5401     		.2byte	0x154
 4806 0d23 040D0000 		.4byte	0xd04
 4807 0d27 1D       		.uleb128 0x1d
 4808 0d28 1C050000 		.4byte	.LASF139
 4809 0d2c 06       		.byte	0x6
 4810 0d2d DD01     		.2byte	0x1dd
 4811 0d2f CA020000 		.4byte	0x2ca
 4812 0d33 03       		.byte	0x3
 4813 0d34 570D0000 		.4byte	0xd57
 4814 0d38 1E       		.uleb128 0x1e
 4815 0d39 7200     		.ascii	"r\000"
 4816 0d3b 06       		.byte	0x6
 4817 0d3c DD01     		.2byte	0x1dd
 4818 0d3e AD000000 		.4byte	0xad
 4819 0d42 1E       		.uleb128 0x1e
 4820 0d43 6700     		.ascii	"g\000"
 4821 0d45 06       		.byte	0x6
 4822 0d46 DD01     		.2byte	0x1dd
 4823 0d48 AD000000 		.4byte	0xad
 4824 0d4c 1E       		.uleb128 0x1e
 4825 0d4d 6200     		.ascii	"b\000"
 4826 0d4f 06       		.byte	0x6
 4827 0d50 DD01     		.2byte	0x1dd
 4828 0d52 AD000000 		.4byte	0xad
 4829 0d56 00       		.byte	0
 4830 0d57 1D       		.uleb128 0x1d
 4831 0d58 00000000 		.4byte	.LASF140
 4832 0d5c 06       		.byte	0x6
 4833 0d5d E701     		.2byte	0x1e7
 4834 0d5f CA020000 		.4byte	0x2ca
 4835 0d63 03       		.byte	0x3
 4836 0d64 730D0000 		.4byte	0xd73
 4837 0d68 1E       		.uleb128 0x1e
ARM GAS  C:\Users\pearlstl\AppData\Local\Temp\cc5dErme.s 			page 121


 4838 0d69 6300     		.ascii	"c\000"
 4839 0d6b 06       		.byte	0x6
 4840 0d6c E701     		.2byte	0x1e7
 4841 0d6e CE000000 		.4byte	0xce
 4842 0d72 00       		.byte	0
 4843 0d73 1D       		.uleb128 0x1d
 4844 0d74 A7020000 		.4byte	.LASF141
 4845 0d78 06       		.byte	0x6
 4846 0d79 E201     		.2byte	0x1e2
 4847 0d7b CA020000 		.4byte	0x2ca
 4848 0d7f 03       		.byte	0x3
 4849 0d80 8F0D0000 		.4byte	0xd8f
 4850 0d84 1E       		.uleb128 0x1e
 4851 0d85 6300     		.ascii	"c\000"
 4852 0d87 06       		.byte	0x6
 4853 0d88 E201     		.2byte	0x1e2
 4854 0d8a CE000000 		.4byte	0xce
 4855 0d8e 00       		.byte	0
 4856 0d8f 1F       		.uleb128 0x1f
 4857 0d90 70080000 		.4byte	.LASF142
 4858 0d94 01       		.byte	0x1
 4859 0d95 E302     		.2byte	0x2e3
 4860 0d97 01       		.byte	0x1
 4861 0d98 1F       		.uleb128 0x1f
 4862 0d99 BE010000 		.4byte	.LASF143
 4863 0d9d 01       		.byte	0x1
 4864 0d9e 2D02     		.2byte	0x22d
 4865 0da0 01       		.byte	0x1
 4866 0da1 1F       		.uleb128 0x1f
 4867 0da2 46000000 		.4byte	.LASF144
 4868 0da6 01       		.byte	0x1
 4869 0da7 0E02     		.2byte	0x20e
 4870 0da9 01       		.byte	0x1
 4871 0daa 1F       		.uleb128 0x1f
 4872 0dab 8E080000 		.4byte	.LASF145
 4873 0daf 01       		.byte	0x1
 4874 0db0 5C01     		.2byte	0x15c
 4875 0db2 01       		.byte	0x1
 4876 0db3 1F       		.uleb128 0x1f
 4877 0db4 2C030000 		.4byte	.LASF146
 4878 0db8 01       		.byte	0x1
 4879 0db9 6401     		.2byte	0x164
 4880 0dbb 01       		.byte	0x1
 4881 0dbc 20       		.uleb128 0x20
 4882 0dbd A9010000 		.4byte	.LASF147
 4883 0dc1 01       		.byte	0x1
 4884 0dc2 C1       		.byte	0xc1
 4885 0dc3 01       		.byte	0x1
 4886 0dc4 20       		.uleb128 0x20
 4887 0dc5 5D030000 		.4byte	.LASF148
 4888 0dc9 01       		.byte	0x1
 4889 0dca 61       		.byte	0x61
 4890 0dcb 01       		.byte	0x1
 4891 0dcc 21       		.uleb128 0x21
 4892 0dcd 55040000 		.4byte	.LASF149
 4893 0dd1 01       		.byte	0x1
 4894 0dd2 FD02     		.2byte	0x2fd
ARM GAS  C:\Users\pearlstl\AppData\Local\Temp\cc5dErme.s 			page 122


 4895 0dd4 01       		.byte	0x1
 4896 0dd5 F10D0000 		.4byte	0xdf1
 4897 0dd9 22       		.uleb128 0x22
 4898 0dda 06090000 		.4byte	.LASF104
 4899 0dde 01       		.byte	0x1
 4900 0ddf 0003     		.2byte	0x300
 4901 0de1 6B050000 		.4byte	0x56b
 4902 0de5 23       		.uleb128 0x23
 4903 0de6 707200   		.ascii	"pr\000"
 4904 0de9 01       		.byte	0x1
 4905 0dea 0003     		.2byte	0x300
 4906 0dec 6B050000 		.4byte	0x56b
 4907 0df0 00       		.byte	0
 4908 0df1 21       		.uleb128 0x21
 4909 0df2 8E000000 		.4byte	.LASF150
 4910 0df6 01       		.byte	0x1
 4911 0df7 EC02     		.2byte	0x2ec
 4912 0df9 01       		.byte	0x1
 4913 0dfa 0B0E0000 		.4byte	0xe0b
 4914 0dfe 22       		.uleb128 0x22
 4915 0dff F1060000 		.4byte	.LASF115
 4916 0e03 01       		.byte	0x1
 4917 0e04 EF02     		.2byte	0x2ef
 4918 0e06 6B050000 		.4byte	0x56b
 4919 0e0a 00       		.byte	0
 4920 0e0b 21       		.uleb128 0x21
 4921 0e0c AA040000 		.4byte	.LASF151
 4922 0e10 01       		.byte	0x1
 4923 0e11 9D02     		.2byte	0x29d
 4924 0e13 01       		.byte	0x1
 4925 0e14 600E0000 		.4byte	0xe60
 4926 0e18 22       		.uleb128 0x22
 4927 0e19 04020000 		.4byte	.LASF100
 4928 0e1d 01       		.byte	0x1
 4929 0e1e A002     		.2byte	0x2a0
 4930 0e20 6B050000 		.4byte	0x56b
 4931 0e24 22       		.uleb128 0x22
 4932 0e25 51010000 		.4byte	.LASF152
 4933 0e29 01       		.byte	0x1
 4934 0e2a A002     		.2byte	0x2a0
 4935 0e2c 6B050000 		.4byte	0x56b
 4936 0e30 23       		.uleb128 0x23
 4937 0e31 72656C00 		.ascii	"rel\000"
 4938 0e35 01       		.byte	0x1
 4939 0e36 A002     		.2byte	0x2a0
 4940 0e38 6B050000 		.4byte	0x56b
 4941 0e3c 23       		.uleb128 0x23
 4942 0e3d 707200   		.ascii	"pr\000"
 4943 0e40 01       		.byte	0x1
 4944 0e41 A002     		.2byte	0x2a0
 4945 0e43 6B050000 		.4byte	0x56b
 4946 0e47 22       		.uleb128 0x22
 4947 0e48 7F040000 		.4byte	.LASF93
 4948 0e4c 01       		.byte	0x1
 4949 0e4d A002     		.2byte	0x2a0
 4950 0e4f 6B050000 		.4byte	0x56b
 4951 0e53 22       		.uleb128 0x22
ARM GAS  C:\Users\pearlstl\AppData\Local\Temp\cc5dErme.s 			page 123


 4952 0e54 27070000 		.4byte	.LASF94
 4953 0e58 01       		.byte	0x1
 4954 0e59 A002     		.2byte	0x2a0
 4955 0e5b 6B050000 		.4byte	0x56b
 4956 0e5f 00       		.byte	0
 4957 0e60 21       		.uleb128 0x21
 4958 0e61 E2080000 		.4byte	.LASF153
 4959 0e65 01       		.byte	0x1
 4960 0e66 8702     		.2byte	0x287
 4961 0e68 01       		.byte	0x1
 4962 0e69 860E0000 		.4byte	0xe86
 4963 0e6d 22       		.uleb128 0x22
 4964 0e6e 0A020000 		.4byte	.LASF154
 4965 0e72 01       		.byte	0x1
 4966 0e73 8A02     		.2byte	0x28a
 4967 0e75 6B050000 		.4byte	0x56b
 4968 0e79 22       		.uleb128 0x22
 4969 0e7a 59020000 		.4byte	.LASF155
 4970 0e7e 01       		.byte	0x1
 4971 0e7f 8A02     		.2byte	0x28a
 4972 0e81 6B050000 		.4byte	0x56b
 4973 0e85 00       		.byte	0
 4974 0e86 21       		.uleb128 0x21
 4975 0e87 ED020000 		.4byte	.LASF156
 4976 0e8b 01       		.byte	0x1
 4977 0e8c 6F02     		.2byte	0x26f
 4978 0e8e 01       		.byte	0x1
 4979 0e8f AB0E0000 		.4byte	0xeab
 4980 0e93 23       		.uleb128 0x23
 4981 0e94 626700   		.ascii	"bg\000"
 4982 0e97 01       		.byte	0x1
 4983 0e98 7202     		.2byte	0x272
 4984 0e9a 6B050000 		.4byte	0x56b
 4985 0e9e 23       		.uleb128 0x23
 4986 0e9f 73656C00 		.ascii	"sel\000"
 4987 0ea3 01       		.byte	0x1
 4988 0ea4 7202     		.2byte	0x272
 4989 0ea6 6B050000 		.4byte	0x56b
 4990 0eaa 00       		.byte	0
 4991 0eab 21       		.uleb128 0x21
 4992 0eac 3C010000 		.4byte	.LASF157
 4993 0eb0 01       		.byte	0x1
 4994 0eb1 3602     		.2byte	0x236
 4995 0eb3 01       		.byte	0x1
 4996 0eb4 000F0000 		.4byte	0xf00
 4997 0eb8 22       		.uleb128 0x22
 4998 0eb9 E0060000 		.4byte	.LASF158
 4999 0ebd 01       		.byte	0x1
 5000 0ebe 3A02     		.2byte	0x23a
 5001 0ec0 6B050000 		.4byte	0x56b
 5002 0ec4 23       		.uleb128 0x23
 5003 0ec5 72656C00 		.ascii	"rel\000"
 5004 0ec9 01       		.byte	0x1
 5005 0eca 3A02     		.2byte	0x23a
 5006 0ecc 6B050000 		.4byte	0x56b
 5007 0ed0 23       		.uleb128 0x23
 5008 0ed1 707200   		.ascii	"pr\000"
ARM GAS  C:\Users\pearlstl\AppData\Local\Temp\cc5dErme.s 			page 124


 5009 0ed4 01       		.byte	0x1
 5010 0ed5 3A02     		.2byte	0x23a
 5011 0ed7 6B050000 		.4byte	0x56b
 5012 0edb 22       		.uleb128 0x22
 5013 0edc 7F040000 		.4byte	.LASF93
 5014 0ee0 01       		.byte	0x1
 5015 0ee1 3A02     		.2byte	0x23a
 5016 0ee3 6B050000 		.4byte	0x56b
 5017 0ee7 22       		.uleb128 0x22
 5018 0ee8 27070000 		.4byte	.LASF94
 5019 0eec 01       		.byte	0x1
 5020 0eed 3A02     		.2byte	0x23a
 5021 0eef 6B050000 		.4byte	0x56b
 5022 0ef3 23       		.uleb128 0x23
 5023 0ef4 696E6100 		.ascii	"ina\000"
 5024 0ef8 01       		.byte	0x1
 5025 0ef9 3A02     		.2byte	0x23a
 5026 0efb 6B050000 		.4byte	0x56b
 5027 0eff 00       		.byte	0
 5028 0f00 21       		.uleb128 0x21
 5029 0f01 66010000 		.4byte	.LASF159
 5030 0f05 01       		.byte	0x1
 5031 0f06 1802     		.2byte	0x218
 5032 0f08 01       		.byte	0x1
 5033 0f09 1A0F0000 		.4byte	0xf1a
 5034 0f0d 22       		.uleb128 0x22
 5035 0f0e 64000000 		.4byte	.LASF113
 5036 0f12 01       		.byte	0x1
 5037 0f13 1B02     		.2byte	0x21b
 5038 0f15 6B050000 		.4byte	0x56b
 5039 0f19 00       		.byte	0
 5040 0f1a 21       		.uleb128 0x21
 5041 0f1b D0070000 		.4byte	.LASF160
 5042 0f1f 01       		.byte	0x1
 5043 0f20 FA01     		.2byte	0x1fa
 5044 0f22 01       		.byte	0x1
 5045 0f23 3F0F0000 		.4byte	0xf3f
 5046 0f27 23       		.uleb128 0x23
 5047 0f28 707200   		.ascii	"pr\000"
 5048 0f2b 01       		.byte	0x1
 5049 0f2c FD01     		.2byte	0x1fd
 5050 0f2e 6B050000 		.4byte	0x56b
 5051 0f32 23       		.uleb128 0x23
 5052 0f33 72656C00 		.ascii	"rel\000"
 5053 0f37 01       		.byte	0x1
 5054 0f38 FD01     		.2byte	0x1fd
 5055 0f3a 6B050000 		.4byte	0x56b
 5056 0f3e 00       		.byte	0
 5057 0f3f 21       		.uleb128 0x21
 5058 0f40 C9020000 		.4byte	.LASF161
 5059 0f44 01       		.byte	0x1
 5060 0f45 E901     		.2byte	0x1e9
 5061 0f47 01       		.byte	0x1
 5062 0f48 590F0000 		.4byte	0xf59
 5063 0f4c 23       		.uleb128 0x23
 5064 0f4d 72656C00 		.ascii	"rel\000"
 5065 0f51 01       		.byte	0x1
ARM GAS  C:\Users\pearlstl\AppData\Local\Temp\cc5dErme.s 			page 125


 5066 0f52 ED01     		.2byte	0x1ed
 5067 0f54 6B050000 		.4byte	0x56b
 5068 0f58 00       		.byte	0
 5069 0f59 21       		.uleb128 0x21
 5070 0f5a 9C060000 		.4byte	.LASF162
 5071 0f5e 01       		.byte	0x1
 5072 0f5f B701     		.2byte	0x1b7
 5073 0f61 01       		.byte	0x1
 5074 0f62 AD0F0000 		.4byte	0xfad
 5075 0f66 23       		.uleb128 0x23
 5076 0f67 626700   		.ascii	"bg\000"
 5077 0f6a 01       		.byte	0x1
 5078 0f6b BA01     		.2byte	0x1ba
 5079 0f6d 6B050000 		.4byte	0x56b
 5080 0f71 23       		.uleb128 0x23
 5081 0f72 72656C00 		.ascii	"rel\000"
 5082 0f76 01       		.byte	0x1
 5083 0f77 BA01     		.2byte	0x1ba
 5084 0f79 6B050000 		.4byte	0x56b
 5085 0f7d 23       		.uleb128 0x23
 5086 0f7e 707200   		.ascii	"pr\000"
 5087 0f81 01       		.byte	0x1
 5088 0f82 BA01     		.2byte	0x1ba
 5089 0f84 6B050000 		.4byte	0x56b
 5090 0f88 22       		.uleb128 0x22
 5091 0f89 7F040000 		.4byte	.LASF93
 5092 0f8d 01       		.byte	0x1
 5093 0f8e BA01     		.2byte	0x1ba
 5094 0f90 6B050000 		.4byte	0x56b
 5095 0f94 22       		.uleb128 0x22
 5096 0f95 27070000 		.4byte	.LASF94
 5097 0f99 01       		.byte	0x1
 5098 0f9a BA01     		.2byte	0x1ba
 5099 0f9c 6B050000 		.4byte	0x56b
 5100 0fa0 23       		.uleb128 0x23
 5101 0fa1 696E6100 		.ascii	"ina\000"
 5102 0fa5 01       		.byte	0x1
 5103 0fa6 BA01     		.2byte	0x1ba
 5104 0fa8 6B050000 		.4byte	0x56b
 5105 0fac 00       		.byte	0
 5106 0fad 21       		.uleb128 0x21
 5107 0fae A1010000 		.4byte	.LASF163
 5108 0fb2 01       		.byte	0x1
 5109 0fb3 9401     		.2byte	0x194
 5110 0fb5 01       		.byte	0x1
 5111 0fb6 F60F0000 		.4byte	0xff6
 5112 0fba 23       		.uleb128 0x23
 5113 0fbb 72656C00 		.ascii	"rel\000"
 5114 0fbf 01       		.byte	0x1
 5115 0fc0 9701     		.2byte	0x197
 5116 0fc2 6B050000 		.4byte	0x56b
 5117 0fc6 23       		.uleb128 0x23
 5118 0fc7 707200   		.ascii	"pr\000"
 5119 0fca 01       		.byte	0x1
 5120 0fcb 9701     		.2byte	0x197
 5121 0fcd 6B050000 		.4byte	0x56b
 5122 0fd1 22       		.uleb128 0x22
ARM GAS  C:\Users\pearlstl\AppData\Local\Temp\cc5dErme.s 			page 126


 5123 0fd2 7F040000 		.4byte	.LASF93
 5124 0fd6 01       		.byte	0x1
 5125 0fd7 9701     		.2byte	0x197
 5126 0fd9 6B050000 		.4byte	0x56b
 5127 0fdd 22       		.uleb128 0x22
 5128 0fde 27070000 		.4byte	.LASF94
 5129 0fe2 01       		.byte	0x1
 5130 0fe3 9701     		.2byte	0x197
 5131 0fe5 6B050000 		.4byte	0x56b
 5132 0fe9 23       		.uleb128 0x23
 5133 0fea 696E6100 		.ascii	"ina\000"
 5134 0fee 01       		.byte	0x1
 5135 0fef 9701     		.2byte	0x197
 5136 0ff1 6B050000 		.4byte	0x56b
 5137 0ff5 00       		.byte	0
 5138 0ff6 21       		.uleb128 0x21
 5139 0ff7 7C070000 		.4byte	.LASF164
 5140 0ffb 01       		.byte	0x1
 5141 0ffc 6B01     		.2byte	0x16b
 5142 0ffe 01       		.byte	0x1
 5143 0fff 34100000 		.4byte	0x1034
 5144 1003 22       		.uleb128 0x22
 5145 1004 33080000 		.4byte	.LASF165
 5146 1008 01       		.byte	0x1
 5147 1009 6E01     		.2byte	0x16e
 5148 100b 6B050000 		.4byte	0x56b
 5149 100f 22       		.uleb128 0x22
 5150 1010 37030000 		.4byte	.LASF166
 5151 1014 01       		.byte	0x1
 5152 1015 7201     		.2byte	0x172
 5153 1017 6B050000 		.4byte	0x56b
 5154 101b 22       		.uleb128 0x22
 5155 101c 41030000 		.4byte	.LASF109
 5156 1020 01       		.byte	0x1
 5157 1021 7601     		.2byte	0x176
 5158 1023 6B050000 		.4byte	0x56b
 5159 1027 22       		.uleb128 0x22
 5160 1028 51070000 		.4byte	.LASF110
 5161 102c 01       		.byte	0x1
 5162 102d 8301     		.2byte	0x183
 5163 102f 6B050000 		.4byte	0x56b
 5164 1033 00       		.byte	0
 5165 1034 21       		.uleb128 0x21
 5166 1035 85000000 		.4byte	.LASF167
 5167 1039 01       		.byte	0x1
 5168 103a 4701     		.2byte	0x147
 5169 103c 01       		.byte	0x1
 5170 103d 4E100000 		.4byte	0x104e
 5171 1041 23       		.uleb128 0x23
 5172 1042 61726300 		.ascii	"arc\000"
 5173 1046 01       		.byte	0x1
 5174 1047 4B01     		.2byte	0x14b
 5175 1049 6B050000 		.4byte	0x56b
 5176 104d 00       		.byte	0
 5177 104e 21       		.uleb128 0x21
 5178 104f 77050000 		.4byte	.LASF168
 5179 1053 01       		.byte	0x1
ARM GAS  C:\Users\pearlstl\AppData\Local\Temp\cc5dErme.s 			page 127


 5180 1054 3401     		.2byte	0x134
 5181 1056 01       		.byte	0x1
 5182 1057 68100000 		.4byte	0x1068
 5183 105b 22       		.uleb128 0x22
 5184 105c FE000000 		.4byte	.LASF123
 5185 1060 01       		.byte	0x1
 5186 1061 3801     		.2byte	0x138
 5187 1063 6B050000 		.4byte	0x56b
 5188 1067 00       		.byte	0
 5189 1068 21       		.uleb128 0x21
 5190 1069 2E040000 		.4byte	.LASF169
 5191 106d 01       		.byte	0x1
 5192 106e 2501     		.2byte	0x125
 5193 1070 01       		.byte	0x1
 5194 1071 82100000 		.4byte	0x1082
 5195 1075 22       		.uleb128 0x22
 5196 1076 6E040000 		.4byte	.LASF122
 5197 107a 01       		.byte	0x1
 5198 107b 2801     		.2byte	0x128
 5199 107d 6B050000 		.4byte	0x56b
 5200 1081 00       		.byte	0
 5201 1082 21       		.uleb128 0x21
 5202 1083 25010000 		.4byte	.LASF170
 5203 1087 01       		.byte	0x1
 5204 1088 0801     		.2byte	0x108
 5205 108a 01       		.byte	0x1
 5206 108b C0100000 		.4byte	0x10c0
 5207 108f 22       		.uleb128 0x22
 5208 1090 0D080000 		.4byte	.LASF171
 5209 1094 01       		.byte	0x1
 5210 1095 0B01     		.2byte	0x10b
 5211 1097 6B050000 		.4byte	0x56b
 5212 109b 22       		.uleb128 0x22
 5213 109c 6C000000 		.4byte	.LASF172
 5214 10a0 01       		.byte	0x1
 5215 10a1 0B01     		.2byte	0x10b
 5216 10a3 6B050000 		.4byte	0x56b
 5217 10a7 22       		.uleb128 0x22
 5218 10a8 E0000000 		.4byte	.LASF173
 5219 10ac 01       		.byte	0x1
 5220 10ad 0B01     		.2byte	0x10b
 5221 10af 6B050000 		.4byte	0x56b
 5222 10b3 22       		.uleb128 0x22
 5223 10b4 D6040000 		.4byte	.LASF174
 5224 10b8 01       		.byte	0x1
 5225 10b9 0B01     		.2byte	0x10b
 5226 10bb 6B050000 		.4byte	0x56b
 5227 10bf 00       		.byte	0
 5228 10c0 24       		.uleb128 0x24
 5229 10c1 16000000 		.4byte	.LASF175
 5230 10c5 01       		.byte	0x1
 5231 10c6 F7       		.byte	0xf7
 5232 10c7 01       		.byte	0x1
 5233 10c8 D8100000 		.4byte	0x10d8
 5234 10cc 25       		.uleb128 0x25
 5235 10cd 82050000 		.4byte	.LASF101
 5236 10d1 01       		.byte	0x1
ARM GAS  C:\Users\pearlstl\AppData\Local\Temp\cc5dErme.s 			page 128


 5237 10d2 FA       		.byte	0xfa
 5238 10d3 6B050000 		.4byte	0x56b
 5239 10d7 00       		.byte	0
 5240 10d8 24       		.uleb128 0x24
 5241 10d9 4B050000 		.4byte	.LASF176
 5242 10dd 01       		.byte	0x1
 5243 10de DB       		.byte	0xdb
 5244 10df 01       		.byte	0x1
 5245 10e0 FB100000 		.4byte	0x10fb
 5246 10e4 25       		.uleb128 0x25
 5247 10e5 20070000 		.4byte	.LASF177
 5248 10e9 01       		.byte	0x1
 5249 10ea DE       		.byte	0xde
 5250 10eb 6B050000 		.4byte	0x56b
 5251 10ef 25       		.uleb128 0x25
 5252 10f0 AD000000 		.4byte	.LASF178
 5253 10f4 01       		.byte	0x1
 5254 10f5 DE       		.byte	0xde
 5255 10f6 6B050000 		.4byte	0x56b
 5256 10fa 00       		.byte	0
 5257 10fb 24       		.uleb128 0x24
 5258 10fc 14090000 		.4byte	.LASF179
 5259 1100 01       		.byte	0x1
 5260 1101 C9       		.byte	0xc9
 5261 1102 01       		.byte	0x1
 5262 1103 13110000 		.4byte	0x1113
 5263 1107 26       		.uleb128 0x26
 5264 1108 6C656400 		.ascii	"led\000"
 5265 110c 01       		.byte	0x1
 5266 110d CC       		.byte	0xcc
 5267 110e 6B050000 		.4byte	0x56b
 5268 1112 00       		.byte	0
 5269 1113 24       		.uleb128 0x24
 5270 1114 B6060000 		.4byte	.LASF180
 5271 1118 01       		.byte	0x1
 5272 1119 B0       		.byte	0xb0
 5273 111a 01       		.byte	0x1
 5274 111b 36110000 		.4byte	0x1136
 5275 111f 25       		.uleb128 0x25
 5276 1120 4B040000 		.4byte	.LASF181
 5277 1124 01       		.byte	0x1
 5278 1125 B3       		.byte	0xb3
 5279 1126 6B050000 		.4byte	0x56b
 5280 112a 25       		.uleb128 0x25
 5281 112b 33070000 		.4byte	.LASF182
 5282 112f 01       		.byte	0x1
 5283 1130 B3       		.byte	0xb3
 5284 1131 6B050000 		.4byte	0x56b
 5285 1135 00       		.byte	0
 5286 1136 24       		.uleb128 0x24
 5287 1137 D5060000 		.4byte	.LASF183
 5288 113b 01       		.byte	0x1
 5289 113c 9B       		.byte	0x9b
 5290 113d 01       		.byte	0x1
 5291 113e 64110000 		.4byte	0x1164
 5292 1142 25       		.uleb128 0x25
 5293 1143 30050000 		.4byte	.LASF95
ARM GAS  C:\Users\pearlstl\AppData\Local\Temp\cc5dErme.s 			page 129


 5294 1147 01       		.byte	0x1
 5295 1148 9E       		.byte	0x9e
 5296 1149 6B050000 		.4byte	0x56b
 5297 114d 26       		.uleb128 0x26
 5298 114e 73656300 		.ascii	"sec\000"
 5299 1152 01       		.byte	0x1
 5300 1153 9E       		.byte	0x9e
 5301 1154 6B050000 		.4byte	0x56b
 5302 1158 25       		.uleb128 0x25
 5303 1159 13070000 		.4byte	.LASF96
 5304 115d 01       		.byte	0x1
 5305 115e 9E       		.byte	0x9e
 5306 115f 6B050000 		.4byte	0x56b
 5307 1163 00       		.byte	0
 5308 1164 24       		.uleb128 0x24
 5309 1165 19080000 		.4byte	.LASF184
 5310 1169 01       		.byte	0x1
 5311 116a 69       		.byte	0x69
 5312 116b 01       		.byte	0x1
 5313 116c A7110000 		.4byte	0x11a7
 5314 1170 26       		.uleb128 0x26
 5315 1171 72656C00 		.ascii	"rel\000"
 5316 1175 01       		.byte	0x1
 5317 1176 6C       		.byte	0x6c
 5318 1177 6B050000 		.4byte	0x56b
 5319 117b 26       		.uleb128 0x26
 5320 117c 707200   		.ascii	"pr\000"
 5321 117f 01       		.byte	0x1
 5322 1180 6C       		.byte	0x6c
 5323 1181 6B050000 		.4byte	0x56b
 5324 1185 25       		.uleb128 0x25
 5325 1186 7F040000 		.4byte	.LASF93
 5326 118a 01       		.byte	0x1
 5327 118b 6C       		.byte	0x6c
 5328 118c 6B050000 		.4byte	0x56b
 5329 1190 25       		.uleb128 0x25
 5330 1191 27070000 		.4byte	.LASF94
 5331 1195 01       		.byte	0x1
 5332 1196 6C       		.byte	0x6c
 5333 1197 6B050000 		.4byte	0x56b
 5334 119b 26       		.uleb128 0x26
 5335 119c 696E6100 		.ascii	"ina\000"
 5336 11a0 01       		.byte	0x1
 5337 11a1 6C       		.byte	0x6c
 5338 11a2 6B050000 		.4byte	0x56b
 5339 11a6 00       		.byte	0
 5340 11a7 24       		.uleb128 0x24
 5341 11a8 EE080000 		.4byte	.LASF185
 5342 11ac 01       		.byte	0x1
 5343 11ad 30       		.byte	0x30
 5344 11ae 01       		.byte	0x1
 5345 11af D4110000 		.4byte	0x11d4
 5346 11b3 26       		.uleb128 0x26
 5347 11b4 626700   		.ascii	"bg\000"
 5348 11b7 01       		.byte	0x1
 5349 11b8 32       		.byte	0x32
 5350 11b9 6B050000 		.4byte	0x56b
ARM GAS  C:\Users\pearlstl\AppData\Local\Temp\cc5dErme.s 			page 130


 5351 11bd 25       		.uleb128 0x25
 5352 11be 66070000 		.4byte	.LASF117
 5353 11c2 01       		.byte	0x1
 5354 11c3 32       		.byte	0x32
 5355 11c4 6B050000 		.4byte	0x56b
 5356 11c8 26       		.uleb128 0x26
 5357 11c9 73637200 		.ascii	"scr\000"
 5358 11cd 01       		.byte	0x1
 5359 11ce 32       		.byte	0x32
 5360 11cf 6B050000 		.4byte	0x56b
 5361 11d3 00       		.byte	0
 5362 11d4 27       		.uleb128 0x27
 5363 11d5 14020000 		.4byte	.LASF200
 5364 11d9 01       		.byte	0x1
 5365 11da 6503     		.2byte	0x365
 5366 11dc 1A220000 		.4byte	0x221a
 5367 11e0 00000000 		.4byte	.LFB61
 5368 11e4 32100000 		.4byte	.LFE61-.LFB61
 5369 11e8 01       		.uleb128 0x1
 5370 11e9 9C       		.byte	0x9c
 5371 11ea 1A220000 		.4byte	0x221a
 5372 11ee 28       		.uleb128 0x28
 5373 11ef 68756500 		.ascii	"hue\000"
 5374 11f3 01       		.byte	0x1
 5375 11f4 6503     		.2byte	0x365
 5376 11f6 C3000000 		.4byte	0xc3
 5377 11fa 00000000 		.4byte	.LLST0
 5378 11fe 29       		.uleb128 0x29
 5379 11ff 43080000 		.4byte	.LASF81
 5380 1203 01       		.byte	0x1
 5381 1204 6503     		.2byte	0x365
 5382 1206 20220000 		.4byte	0x2220
 5383 120a 30000000 		.4byte	.LLST1
 5384 120e 2A       		.uleb128 0x2a
 5385 120f 6900     		.ascii	"i\000"
 5386 1211 01       		.byte	0x1
 5387 1212 6D03     		.2byte	0x36d
 5388 1214 C3000000 		.4byte	0xc3
 5389 1218 5D000000 		.4byte	.LLST2
 5390 121c 2B       		.uleb128 0x2b
 5391 121d B7000000 		.4byte	.LASF186
 5392 1221 01       		.byte	0x1
 5393 1222 6E03     		.2byte	0x36e
 5394 1224 26220000 		.4byte	0x2226
 5395 1228 71000000 		.4byte	.LLST3
 5396 122c 2C       		.uleb128 0x2c
 5397 122d A7110000 		.4byte	0x11a7
 5398 1231 30000000 		.4byte	.LBB154
 5399 1235 00000000 		.4byte	.Ldebug_ranges0+0
 5400 1239 01       		.byte	0x1
 5401 123a 7403     		.2byte	0x374
 5402 123c E3120000 		.4byte	0x12e3
 5403 1240 2D       		.uleb128 0x2d
 5404 1241 00000000 		.4byte	.Ldebug_ranges0+0
 5405 1245 2E       		.uleb128 0x2e
 5406 1246 B3110000 		.4byte	0x11b3
 5407 124a 05       		.uleb128 0x5
ARM GAS  C:\Users\pearlstl\AppData\Local\Temp\cc5dErme.s 			page 131


 5408 124b 03       		.byte	0x3
 5409 124c 00020000 		.4byte	bg.5949
 5410 1250 2E       		.uleb128 0x2e
 5411 1251 BD110000 		.4byte	0x11bd
 5412 1255 05       		.uleb128 0x5
 5413 1256 03       		.byte	0x3
 5414 1257 A0020000 		.4byte	panel.5950
 5415 125b 2E       		.uleb128 0x2e
 5416 125c C8110000 		.4byte	0x11c8
 5417 1260 05       		.uleb128 0x5
 5418 1261 03       		.byte	0x3
 5419 1262 50020000 		.4byte	scr.5951
 5420 1266 2F       		.uleb128 0x2f
 5421 1267 3A000000 		.4byte	.LVL7
 5422 126b C5220000 		.4byte	0x22c5
 5423 126f 7A120000 		.4byte	0x127a
 5424 1273 30       		.uleb128 0x30
 5425 1274 01       		.uleb128 0x1
 5426 1275 50       		.byte	0x50
 5427 1276 02       		.uleb128 0x2
 5428 1277 76       		.byte	0x76
 5429 1278 00       		.sleb128 0
 5430 1279 00       		.byte	0
 5431 127a 2F       		.uleb128 0x2f
 5432 127b 5A000000 		.4byte	.LVL8
 5433 127f C5220000 		.4byte	0x22c5
 5434 1283 94120000 		.4byte	0x1294
 5435 1287 30       		.uleb128 0x30
 5436 1288 01       		.uleb128 0x1
 5437 1289 50       		.byte	0x50
 5438 128a 02       		.uleb128 0x2
 5439 128b 79       		.byte	0x79
 5440 128c 00       		.sleb128 0
 5441 128d 30       		.uleb128 0x30
 5442 128e 01       		.uleb128 0x1
 5443 128f 51       		.byte	0x51
 5444 1290 02       		.uleb128 0x2
 5445 1291 76       		.byte	0x76
 5446 1292 00       		.sleb128 0
 5447 1293 00       		.byte	0
 5448 1294 2F       		.uleb128 0x2f
 5449 1295 8A000000 		.4byte	.LVL9
 5450 1299 C5220000 		.4byte	0x22c5
 5451 129d AF120000 		.4byte	0x12af
 5452 12a1 30       		.uleb128 0x30
 5453 12a2 01       		.uleb128 0x1
 5454 12a3 50       		.byte	0x50
 5455 12a4 03       		.uleb128 0x3
 5456 12a5 7D       		.byte	0x7d
 5457 12a6 00       		.sleb128 0
 5458 12a7 06       		.byte	0x6
 5459 12a8 30       		.uleb128 0x30
 5460 12a9 01       		.uleb128 0x1
 5461 12aa 51       		.byte	0x51
 5462 12ab 02       		.uleb128 0x2
 5463 12ac 79       		.byte	0x79
 5464 12ad 00       		.sleb128 0
ARM GAS  C:\Users\pearlstl\AppData\Local\Temp\cc5dErme.s 			page 132


 5465 12ae 00       		.byte	0
 5466 12af 2F       		.uleb128 0x2f
 5467 12b0 A4000000 		.4byte	.LVL10
 5468 12b4 C5220000 		.4byte	0x22c5
 5469 12b8 CA120000 		.4byte	0x12ca
 5470 12bc 30       		.uleb128 0x30
 5471 12bd 01       		.uleb128 0x1
 5472 12be 50       		.byte	0x50
 5473 12bf 03       		.uleb128 0x3
 5474 12c0 74       		.byte	0x74
 5475 12c1 A005     		.sleb128 672
 5476 12c3 30       		.uleb128 0x30
 5477 12c4 01       		.uleb128 0x1
 5478 12c5 51       		.byte	0x51
 5479 12c6 02       		.uleb128 0x2
 5480 12c7 76       		.byte	0x76
 5481 12c8 00       		.sleb128 0
 5482 12c9 00       		.byte	0
 5483 12ca 31       		.uleb128 0x31
 5484 12cb 52010000 		.4byte	.LVL11
 5485 12cf C5220000 		.4byte	0x22c5
 5486 12d3 30       		.uleb128 0x30
 5487 12d4 01       		.uleb128 0x1
 5488 12d5 50       		.byte	0x50
 5489 12d6 03       		.uleb128 0x3
 5490 12d7 74       		.byte	0x74
 5491 12d8 F005     		.sleb128 752
 5492 12da 30       		.uleb128 0x30
 5493 12db 01       		.uleb128 0x1
 5494 12dc 51       		.byte	0x51
 5495 12dd 02       		.uleb128 0x2
 5496 12de 76       		.byte	0x76
 5497 12df 00       		.sleb128 0
 5498 12e0 00       		.byte	0
 5499 12e1 00       		.byte	0
 5500 12e2 00       		.byte	0
 5501 12e3 2C       		.uleb128 0x2c
 5502 12e4 AB0E0000 		.4byte	0xeab
 5503 12e8 34000000 		.4byte	.LBB160
 5504 12ec 30000000 		.4byte	.Ldebug_ranges0+0x30
 5505 12f0 01       		.byte	0x1
 5506 12f1 8B03     		.2byte	0x38b
 5507 12f3 1E140000 		.4byte	0x141e
 5508 12f7 2D       		.uleb128 0x2d
 5509 12f8 30000000 		.4byte	.Ldebug_ranges0+0x30
 5510 12fc 2E       		.uleb128 0x2e
 5511 12fd B80E0000 		.4byte	0xeb8
 5512 1301 05       		.uleb128 0x5
 5513 1302 03       		.byte	0x3
 5514 1303 C00F0000 		.4byte	list_bg.6067
 5515 1307 2E       		.uleb128 0x2e
 5516 1308 C40E0000 		.4byte	0xec4
 5517 130c 05       		.uleb128 0x5
 5518 130d 03       		.byte	0x3
 5519 130e 10100000 		.4byte	rel.6068
 5520 1312 2E       		.uleb128 0x2e
 5521 1313 D00E0000 		.4byte	0xed0
ARM GAS  C:\Users\pearlstl\AppData\Local\Temp\cc5dErme.s 			page 133


 5522 1317 05       		.uleb128 0x5
 5523 1318 03       		.byte	0x3
 5524 1319 60100000 		.4byte	pr.6069
 5525 131d 2E       		.uleb128 0x2e
 5526 131e DB0E0000 		.4byte	0xedb
 5527 1322 05       		.uleb128 0x5
 5528 1323 03       		.byte	0x3
 5529 1324 B0100000 		.4byte	tgl_rel.6070
 5530 1328 2E       		.uleb128 0x2e
 5531 1329 E70E0000 		.4byte	0xee7
 5532 132d 05       		.uleb128 0x5
 5533 132e 03       		.byte	0x3
 5534 132f 00110000 		.4byte	tgl_pr.6071
 5535 1333 2E       		.uleb128 0x2e
 5536 1334 F30E0000 		.4byte	0xef3
 5537 1338 05       		.uleb128 0x5
 5538 1339 03       		.byte	0x3
 5539 133a 50110000 		.4byte	ina.6072
 5540 133e 2F       		.uleb128 0x2f
 5541 133f C60A0000 		.4byte	.LVL87
 5542 1343 C5220000 		.4byte	0x22c5
 5543 1347 53130000 		.4byte	0x1353
 5544 134b 30       		.uleb128 0x30
 5545 134c 01       		.uleb128 0x1
 5546 134d 50       		.byte	0x50
 5547 134e 03       		.uleb128 0x3
 5548 134f 74       		.byte	0x74
 5549 1350 C01F     		.sleb128 4032
 5550 1352 00       		.byte	0
 5551 1353 2F       		.uleb128 0x2f
 5552 1354 E20A0000 		.4byte	.LVL88
 5553 1358 C5220000 		.4byte	0x22c5
 5554 135c 67130000 		.4byte	0x1367
 5555 1360 30       		.uleb128 0x30
 5556 1361 01       		.uleb128 0x1
 5557 1362 50       		.byte	0x50
 5558 1363 02       		.uleb128 0x2
 5559 1364 7A       		.byte	0x7a
 5560 1365 00       		.sleb128 0
 5561 1366 00       		.byte	0
 5562 1367 2F       		.uleb128 0x2f
 5563 1368 2E0B0000 		.4byte	.LVL89
 5564 136c C5220000 		.4byte	0x22c5
 5565 1370 81130000 		.4byte	0x1381
 5566 1374 30       		.uleb128 0x30
 5567 1375 01       		.uleb128 0x1
 5568 1376 50       		.byte	0x50
 5569 1377 02       		.uleb128 0x2
 5570 1378 77       		.byte	0x77
 5571 1379 00       		.sleb128 0
 5572 137a 30       		.uleb128 0x30
 5573 137b 01       		.uleb128 0x1
 5574 137c 51       		.byte	0x51
 5575 137d 02       		.uleb128 0x2
 5576 137e 7A       		.byte	0x7a
 5577 137f 00       		.sleb128 0
 5578 1380 00       		.byte	0
ARM GAS  C:\Users\pearlstl\AppData\Local\Temp\cc5dErme.s 			page 134


 5579 1381 2F       		.uleb128 0x2f
 5580 1382 7E0B0000 		.4byte	.LVL90
 5581 1386 C5220000 		.4byte	0x22c5
 5582 138a 9C130000 		.4byte	0x139c
 5583 138e 30       		.uleb128 0x30
 5584 138f 01       		.uleb128 0x1
 5585 1390 50       		.byte	0x50
 5586 1391 03       		.uleb128 0x3
 5587 1392 77       		.byte	0x77
 5588 1393 D000     		.sleb128 80
 5589 1395 30       		.uleb128 0x30
 5590 1396 01       		.uleb128 0x1
 5591 1397 51       		.byte	0x51
 5592 1398 02       		.uleb128 0x2
 5593 1399 77       		.byte	0x77
 5594 139a 00       		.sleb128 0
 5595 139b 00       		.byte	0
 5596 139c 2F       		.uleb128 0x2f
 5597 139d 8A0B0000 		.4byte	.LVL91
 5598 13a1 D0220000 		.4byte	0x22d0
 5599 13a5 B6130000 		.4byte	0x13b6
 5600 13a9 30       		.uleb128 0x30
 5601 13aa 01       		.uleb128 0x1
 5602 13ab 51       		.byte	0x51
 5603 13ac 02       		.uleb128 0x2
 5604 13ad 08       		.byte	0x8
 5605 13ae 5A       		.byte	0x5a
 5606 13af 30       		.uleb128 0x30
 5607 13b0 01       		.uleb128 0x1
 5608 13b1 52       		.byte	0x52
 5609 13b2 02       		.uleb128 0x2
 5610 13b3 08       		.byte	0x8
 5611 13b4 46       		.byte	0x46
 5612 13b5 00       		.byte	0
 5613 13b6 2F       		.uleb128 0x2f
 5614 13b7 9E0B0000 		.4byte	.LVL92
 5615 13bb D0220000 		.4byte	0x22d0
 5616 13bf CF130000 		.4byte	0x13cf
 5617 13c3 30       		.uleb128 0x30
 5618 13c4 01       		.uleb128 0x1
 5619 13c5 51       		.byte	0x51
 5620 13c6 01       		.uleb128 0x1
 5621 13c7 35       		.byte	0x35
 5622 13c8 30       		.uleb128 0x30
 5623 13c9 01       		.uleb128 0x1
 5624 13ca 52       		.byte	0x52
 5625 13cb 02       		.uleb128 0x2
 5626 13cc 08       		.byte	0x8
 5627 13cd 5F       		.byte	0x5f
 5628 13ce 00       		.byte	0
 5629 13cf 2F       		.uleb128 0x2f
 5630 13d0 B20B0000 		.4byte	.LVL93
 5631 13d4 C5220000 		.4byte	0x22c5
 5632 13d8 EB130000 		.4byte	0x13eb
 5633 13dc 30       		.uleb128 0x30
 5634 13dd 01       		.uleb128 0x1
 5635 13de 50       		.byte	0x50
ARM GAS  C:\Users\pearlstl\AppData\Local\Temp\cc5dErme.s 			page 135


 5636 13df 03       		.uleb128 0x3
 5637 13e0 91       		.byte	0x91
 5638 13e1 54       		.sleb128 -44
 5639 13e2 06       		.byte	0x6
 5640 13e3 30       		.uleb128 0x30
 5641 13e4 01       		.uleb128 0x1
 5642 13e5 51       		.byte	0x51
 5643 13e6 03       		.uleb128 0x3
 5644 13e7 75       		.byte	0x75
 5645 13e8 B87F     		.sleb128 -72
 5646 13ea 00       		.byte	0
 5647 13eb 2F       		.uleb128 0x2f
 5648 13ec BE0B0000 		.4byte	.LVL94
 5649 13f0 D0220000 		.4byte	0x22d0
 5650 13f4 05140000 		.4byte	0x1405
 5651 13f8 30       		.uleb128 0x30
 5652 13f9 01       		.uleb128 0x1
 5653 13fa 51       		.byte	0x51
 5654 13fb 02       		.uleb128 0x2
 5655 13fc 08       		.byte	0x8
 5656 13fd 5A       		.byte	0x5a
 5657 13fe 30       		.uleb128 0x30
 5658 13ff 01       		.uleb128 0x1
 5659 1400 52       		.byte	0x52
 5660 1401 02       		.uleb128 0x2
 5661 1402 08       		.byte	0x8
 5662 1403 3C       		.byte	0x3c
 5663 1404 00       		.byte	0
 5664 1405 31       		.uleb128 0x31
 5665 1406 D80B0000 		.4byte	.LVL95
 5666 140a C5220000 		.4byte	0x22c5
 5667 140e 30       		.uleb128 0x30
 5668 140f 01       		.uleb128 0x1
 5669 1410 50       		.byte	0x50
 5670 1411 03       		.uleb128 0x3
 5671 1412 7D       		.byte	0x7d
 5672 1413 00       		.sleb128 0
 5673 1414 06       		.byte	0x6
 5674 1415 30       		.uleb128 0x30
 5675 1416 01       		.uleb128 0x1
 5676 1417 51       		.byte	0x51
 5677 1418 02       		.uleb128 0x2
 5678 1419 77       		.byte	0x77
 5679 141a 00       		.sleb128 0
 5680 141b 00       		.byte	0
 5681 141c 00       		.byte	0
 5682 141d 00       		.byte	0
 5683 141e 2C       		.uleb128 0x2c
 5684 141f 64110000 		.4byte	0x1164
 5685 1423 52010000 		.4byte	.LBB170
 5686 1427 78000000 		.4byte	.Ldebug_ranges0+0x78
 5687 142b 01       		.byte	0x1
 5688 142c 7603     		.2byte	0x376
 5689 142e C1150000 		.4byte	0x15c1
 5690 1432 2D       		.uleb128 0x2d
 5691 1433 78000000 		.4byte	.Ldebug_ranges0+0x78
 5692 1437 2E       		.uleb128 0x2e
ARM GAS  C:\Users\pearlstl\AppData\Local\Temp\cc5dErme.s 			page 136


 5693 1438 70110000 		.4byte	0x1170
 5694 143c 05       		.uleb128 0x5
 5695 143d 03       		.byte	0x3
 5696 143e 40030000 		.4byte	rel.5962
 5697 1442 2E       		.uleb128 0x2e
 5698 1443 7B110000 		.4byte	0x117b
 5699 1447 05       		.uleb128 0x5
 5700 1448 03       		.byte	0x3
 5701 1449 90030000 		.4byte	pr.5963
 5702 144d 2E       		.uleb128 0x2e
 5703 144e 85110000 		.4byte	0x1185
 5704 1452 05       		.uleb128 0x5
 5705 1453 03       		.byte	0x3
 5706 1454 E0030000 		.4byte	tgl_rel.5964
 5707 1458 2E       		.uleb128 0x2e
 5708 1459 90110000 		.4byte	0x1190
 5709 145d 05       		.uleb128 0x5
 5710 145e 03       		.byte	0x3
 5711 145f 30040000 		.4byte	tgl_pr.5965
 5712 1463 2E       		.uleb128 0x2e
 5713 1464 9B110000 		.4byte	0x119b
 5714 1468 05       		.uleb128 0x5
 5715 1469 03       		.byte	0x3
 5716 146a 80040000 		.4byte	ina.5966
 5717 146e 2F       		.uleb128 0x2f
 5718 146f 9E010000 		.4byte	.LVL12
 5719 1473 C5220000 		.4byte	0x22c5
 5720 1477 89140000 		.4byte	0x1489
 5721 147b 30       		.uleb128 0x30
 5722 147c 01       		.uleb128 0x1
 5723 147d 50       		.byte	0x50
 5724 147e 03       		.uleb128 0x3
 5725 147f 74       		.byte	0x74
 5726 1480 C006     		.sleb128 832
 5727 1482 30       		.uleb128 0x30
 5728 1483 01       		.uleb128 0x1
 5729 1484 51       		.byte	0x51
 5730 1485 02       		.uleb128 0x2
 5731 1486 76       		.byte	0x76
 5732 1487 00       		.sleb128 0
 5733 1488 00       		.byte	0
 5734 1489 2F       		.uleb128 0x2f
 5735 148a AA010000 		.4byte	.LVL13
 5736 148e D0220000 		.4byte	0x22d0
 5737 1492 A3140000 		.4byte	0x14a3
 5738 1496 30       		.uleb128 0x30
 5739 1497 01       		.uleb128 0x1
 5740 1498 51       		.byte	0x51
 5741 1499 02       		.uleb128 0x2
 5742 149a 08       		.byte	0x8
 5743 149b 5A       		.byte	0x5a
 5744 149c 30       		.uleb128 0x30
 5745 149d 01       		.uleb128 0x1
 5746 149e 52       		.byte	0x52
 5747 149f 02       		.uleb128 0x2
 5748 14a0 08       		.byte	0x8
 5749 14a1 46       		.byte	0x46
ARM GAS  C:\Users\pearlstl\AppData\Local\Temp\cc5dErme.s 			page 137


 5750 14a2 00       		.byte	0
 5751 14a3 2F       		.uleb128 0x2f
 5752 14a4 02020000 		.4byte	.LVL14
 5753 14a8 D0220000 		.4byte	0x22d0
 5754 14ac BC140000 		.4byte	0x14bc
 5755 14b0 30       		.uleb128 0x30
 5756 14b1 01       		.uleb128 0x1
 5757 14b2 51       		.byte	0x51
 5758 14b3 01       		.uleb128 0x1
 5759 14b4 35       		.byte	0x35
 5760 14b5 30       		.uleb128 0x30
 5761 14b6 01       		.uleb128 0x1
 5762 14b7 52       		.byte	0x52
 5763 14b8 02       		.uleb128 0x2
 5764 14b9 08       		.byte	0x8
 5765 14ba 5F       		.byte	0x5f
 5766 14bb 00       		.byte	0
 5767 14bc 2F       		.uleb128 0x2f
 5768 14bd 12020000 		.4byte	.LVL15
 5769 14c1 D0220000 		.4byte	0x22d0
 5770 14c5 D5140000 		.4byte	0x14d5
 5771 14c9 30       		.uleb128 0x30
 5772 14ca 01       		.uleb128 0x1
 5773 14cb 51       		.byte	0x51
 5774 14cc 01       		.uleb128 0x1
 5775 14cd 35       		.byte	0x35
 5776 14ce 30       		.uleb128 0x30
 5777 14cf 01       		.uleb128 0x1
 5778 14d0 52       		.byte	0x52
 5779 14d1 02       		.uleb128 0x2
 5780 14d2 08       		.byte	0x8
 5781 14d3 5F       		.byte	0x5f
 5782 14d4 00       		.byte	0
 5783 14d5 2F       		.uleb128 0x2f
 5784 14d6 22020000 		.4byte	.LVL16
 5785 14da C5220000 		.4byte	0x22c5
 5786 14de F1140000 		.4byte	0x14f1
 5787 14e2 30       		.uleb128 0x30
 5788 14e3 01       		.uleb128 0x1
 5789 14e4 50       		.byte	0x50
 5790 14e5 03       		.uleb128 0x3
 5791 14e6 74       		.byte	0x74
 5792 14e7 9007     		.sleb128 912
 5793 14e9 30       		.uleb128 0x30
 5794 14ea 01       		.uleb128 0x1
 5795 14eb 51       		.byte	0x51
 5796 14ec 03       		.uleb128 0x3
 5797 14ed 74       		.byte	0x74
 5798 14ee C006     		.sleb128 832
 5799 14f0 00       		.byte	0
 5800 14f1 2F       		.uleb128 0x2f
 5801 14f2 2E020000 		.4byte	.LVL17
 5802 14f6 D0220000 		.4byte	0x22d0
 5803 14fa 0B150000 		.4byte	0x150b
 5804 14fe 30       		.uleb128 0x30
 5805 14ff 01       		.uleb128 0x1
 5806 1500 51       		.byte	0x51
ARM GAS  C:\Users\pearlstl\AppData\Local\Temp\cc5dErme.s 			page 138


 5807 1501 02       		.uleb128 0x2
 5808 1502 08       		.byte	0x8
 5809 1503 5A       		.byte	0x5a
 5810 1504 30       		.uleb128 0x30
 5811 1505 01       		.uleb128 0x1
 5812 1506 52       		.byte	0x52
 5813 1507 02       		.uleb128 0x2
 5814 1508 08       		.byte	0x8
 5815 1509 3C       		.byte	0x3c
 5816 150a 00       		.byte	0
 5817 150b 2F       		.uleb128 0x2f
 5818 150c 4C020000 		.4byte	.LVL18
 5819 1510 C5220000 		.4byte	0x22c5
 5820 1514 26150000 		.4byte	0x1526
 5821 1518 30       		.uleb128 0x30
 5822 1519 01       		.uleb128 0x1
 5823 151a 50       		.byte	0x50
 5824 151b 02       		.uleb128 0x2
 5825 151c 7A       		.byte	0x7a
 5826 151d 00       		.sleb128 0
 5827 151e 30       		.uleb128 0x30
 5828 151f 01       		.uleb128 0x1
 5829 1520 51       		.byte	0x51
 5830 1521 03       		.uleb128 0x3
 5831 1522 74       		.byte	0x74
 5832 1523 C006     		.sleb128 832
 5833 1525 00       		.byte	0
 5834 1526 2F       		.uleb128 0x2f
 5835 1527 58020000 		.4byte	.LVL19
 5836 152b D0220000 		.4byte	0x22d0
 5837 152f 40150000 		.4byte	0x1540
 5838 1533 30       		.uleb128 0x30
 5839 1534 01       		.uleb128 0x1
 5840 1535 51       		.byte	0x51
 5841 1536 02       		.uleb128 0x2
 5842 1537 08       		.byte	0x8
 5843 1538 5F       		.byte	0x5f
 5844 1539 30       		.uleb128 0x30
 5845 153a 01       		.uleb128 0x1
 5846 153b 52       		.byte	0x52
 5847 153c 02       		.uleb128 0x2
 5848 153d 08       		.byte	0x8
 5849 153e 32       		.byte	0x32
 5850 153f 00       		.byte	0
 5851 1540 2F       		.uleb128 0x2f
 5852 1541 76020000 		.4byte	.LVL20
 5853 1545 C5220000 		.4byte	0x22c5
 5854 1549 5B150000 		.4byte	0x155b
 5855 154d 30       		.uleb128 0x30
 5856 154e 01       		.uleb128 0x1
 5857 154f 50       		.byte	0x50
 5858 1550 03       		.uleb128 0x3
 5859 1551 7D       		.byte	0x7d
 5860 1552 00       		.sleb128 0
 5861 1553 06       		.byte	0x6
 5862 1554 30       		.uleb128 0x30
 5863 1555 01       		.uleb128 0x1
ARM GAS  C:\Users\pearlstl\AppData\Local\Temp\cc5dErme.s 			page 139


 5864 1556 51       		.byte	0x51
 5865 1557 02       		.uleb128 0x2
 5866 1558 7A       		.byte	0x7a
 5867 1559 00       		.sleb128 0
 5868 155a 00       		.byte	0
 5869 155b 2F       		.uleb128 0x2f
 5870 155c 82020000 		.4byte	.LVL21
 5871 1560 D0220000 		.4byte	0x22d0
 5872 1564 75150000 		.4byte	0x1575
 5873 1568 30       		.uleb128 0x30
 5874 1569 01       		.uleb128 0x1
 5875 156a 51       		.byte	0x51
 5876 156b 02       		.uleb128 0x2
 5877 156c 08       		.byte	0x8
 5878 156d 5F       		.byte	0x5f
 5879 156e 30       		.uleb128 0x30
 5880 156f 01       		.uleb128 0x1
 5881 1570 52       		.byte	0x52
 5882 1571 02       		.uleb128 0x2
 5883 1572 08       		.byte	0x8
 5884 1573 28       		.byte	0x28
 5885 1574 00       		.byte	0
 5886 1575 2F       		.uleb128 0x2f
 5887 1576 9E020000 		.4byte	.LVL22
 5888 157a C5220000 		.4byte	0x22c5
 5889 157e 91150000 		.4byte	0x1591
 5890 1582 30       		.uleb128 0x30
 5891 1583 01       		.uleb128 0x1
 5892 1584 50       		.byte	0x50
 5893 1585 03       		.uleb128 0x3
 5894 1586 74       		.byte	0x74
 5895 1587 8009     		.sleb128 1152
 5896 1589 30       		.uleb128 0x30
 5897 158a 01       		.uleb128 0x1
 5898 158b 51       		.byte	0x51
 5899 158c 03       		.uleb128 0x3
 5900 158d 74       		.byte	0x74
 5901 158e C006     		.sleb128 832
 5902 1590 00       		.byte	0
 5903 1591 2F       		.uleb128 0x2f
 5904 1592 CA020000 		.4byte	.LVL23
 5905 1596 D0220000 		.4byte	0x22d0
 5906 159a AA150000 		.4byte	0x15aa
 5907 159e 30       		.uleb128 0x30
 5908 159f 01       		.uleb128 0x1
 5909 15a0 51       		.byte	0x51
 5910 15a1 02       		.uleb128 0x2
 5911 15a2 08       		.byte	0x8
 5912 15a3 5F       		.byte	0x5f
 5913 15a4 30       		.uleb128 0x30
 5914 15a5 01       		.uleb128 0x1
 5915 15a6 52       		.byte	0x52
 5916 15a7 01       		.uleb128 0x1
 5917 15a8 35       		.byte	0x35
 5918 15a9 00       		.byte	0
 5919 15aa 31       		.uleb128 0x31
 5920 15ab DE020000 		.4byte	.LVL24
ARM GAS  C:\Users\pearlstl\AppData\Local\Temp\cc5dErme.s 			page 140


 5921 15af D0220000 		.4byte	0x22d0
 5922 15b3 30       		.uleb128 0x30
 5923 15b4 01       		.uleb128 0x1
 5924 15b5 51       		.byte	0x51
 5925 15b6 02       		.uleb128 0x2
 5926 15b7 08       		.byte	0x8
 5927 15b8 5F       		.byte	0x5f
 5928 15b9 30       		.uleb128 0x30
 5929 15ba 01       		.uleb128 0x1
 5930 15bb 52       		.byte	0x52
 5931 15bc 01       		.uleb128 0x1
 5932 15bd 35       		.byte	0x35
 5933 15be 00       		.byte	0
 5934 15bf 00       		.byte	0
 5935 15c0 00       		.byte	0
 5936 15c1 32       		.uleb128 0x32
 5937 15c2 C40D0000 		.4byte	0xdc4
 5938 15c6 68010000 		.4byte	.LBB179
 5939 15ca 02000000 		.4byte	.LBE179-.LBB179
 5940 15ce 01       		.byte	0x1
 5941 15cf 7503     		.2byte	0x375
 5942 15d1 2C       		.uleb128 0x2c
 5943 15d2 36110000 		.4byte	0x1136
 5944 15d6 CA020000 		.4byte	.LBB183
 5945 15da A8000000 		.4byte	.Ldebug_ranges0+0xa8
 5946 15de 01       		.byte	0x1
 5947 15df 7703     		.2byte	0x377
 5948 15e1 A5160000 		.4byte	0x16a5
 5949 15e5 2D       		.uleb128 0x2d
 5950 15e6 A8000000 		.4byte	.Ldebug_ranges0+0xa8
 5951 15ea 2E       		.uleb128 0x2e
 5952 15eb 42110000 		.4byte	0x1142
 5953 15ef 05       		.uleb128 0x5
 5954 15f0 03       		.byte	0x3
 5955 15f1 D0040000 		.4byte	prim.5970
 5956 15f5 2E       		.uleb128 0x2e
 5957 15f6 4D110000 		.4byte	0x114d
 5958 15fa 05       		.uleb128 0x5
 5959 15fb 03       		.byte	0x3
 5960 15fc 20050000 		.4byte	sec.5971
 5961 1600 2E       		.uleb128 0x2e
 5962 1601 58110000 		.4byte	0x1158
 5963 1605 05       		.uleb128 0x5
 5964 1606 03       		.byte	0x3
 5965 1607 70050000 		.4byte	hint.5972
 5966 160b 2F       		.uleb128 0x2f
 5967 160c 04030000 		.4byte	.LVL25
 5968 1610 C5220000 		.4byte	0x22c5
 5969 1614 25160000 		.4byte	0x1625
 5970 1618 30       		.uleb128 0x30
 5971 1619 01       		.uleb128 0x1
 5972 161a 50       		.byte	0x50
 5973 161b 02       		.uleb128 0x2
 5974 161c 79       		.byte	0x79
 5975 161d 00       		.sleb128 0
 5976 161e 30       		.uleb128 0x30
 5977 161f 01       		.uleb128 0x1
ARM GAS  C:\Users\pearlstl\AppData\Local\Temp\cc5dErme.s 			page 141


 5978 1620 51       		.byte	0x51
 5979 1621 02       		.uleb128 0x2
 5980 1622 76       		.byte	0x76
 5981 1623 00       		.sleb128 0
 5982 1624 00       		.byte	0
 5983 1625 2F       		.uleb128 0x2f
 5984 1626 18030000 		.4byte	.LVL26
 5985 162a D0220000 		.4byte	0x22d0
 5986 162e 3E160000 		.4byte	0x163e
 5987 1632 30       		.uleb128 0x30
 5988 1633 01       		.uleb128 0x1
 5989 1634 51       		.byte	0x51
 5990 1635 02       		.uleb128 0x2
 5991 1636 08       		.byte	0x8
 5992 1637 50       		.byte	0x50
 5993 1638 30       		.uleb128 0x30
 5994 1639 01       		.uleb128 0x1
 5995 163a 52       		.byte	0x52
 5996 163b 01       		.uleb128 0x1
 5997 163c 3A       		.byte	0x3a
 5998 163d 00       		.byte	0
 5999 163e 2F       		.uleb128 0x2f
 6000 163f 2A030000 		.4byte	.LVL27
 6001 1643 C5220000 		.4byte	0x22c5
 6002 1647 59160000 		.4byte	0x1659
 6003 164b 30       		.uleb128 0x30
 6004 164c 01       		.uleb128 0x1
 6005 164d 50       		.byte	0x50
 6006 164e 03       		.uleb128 0x3
 6007 164f 7D       		.byte	0x7d
 6008 1650 00       		.sleb128 0
 6009 1651 06       		.byte	0x6
 6010 1652 30       		.uleb128 0x30
 6011 1653 01       		.uleb128 0x1
 6012 1654 51       		.byte	0x51
 6013 1655 02       		.uleb128 0x2
 6014 1656 79       		.byte	0x79
 6015 1657 00       		.sleb128 0
 6016 1658 00       		.byte	0
 6017 1659 2F       		.uleb128 0x2f
 6018 165a 36030000 		.4byte	.LVL28
 6019 165e D0220000 		.4byte	0x22d0
 6020 1662 73160000 		.4byte	0x1673
 6021 1666 30       		.uleb128 0x30
 6022 1667 01       		.uleb128 0x1
 6023 1668 51       		.byte	0x51
 6024 1669 02       		.uleb128 0x2
 6025 166a 08       		.byte	0x8
 6026 166b 50       		.byte	0x50
 6027 166c 30       		.uleb128 0x30
 6028 166d 01       		.uleb128 0x1
 6029 166e 52       		.byte	0x52
 6030 166f 02       		.uleb128 0x2
 6031 1670 08       		.byte	0x8
 6032 1671 4B       		.byte	0x4b
 6033 1672 00       		.byte	0
 6034 1673 2F       		.uleb128 0x2f
ARM GAS  C:\Users\pearlstl\AppData\Local\Temp\cc5dErme.s 			page 142


 6035 1674 46030000 		.4byte	.LVL29
 6036 1678 C5220000 		.4byte	0x22c5
 6037 167c 8D160000 		.4byte	0x168d
 6038 1680 30       		.uleb128 0x30
 6039 1681 01       		.uleb128 0x1
 6040 1682 50       		.byte	0x50
 6041 1683 02       		.uleb128 0x2
 6042 1684 7A       		.byte	0x7a
 6043 1685 00       		.sleb128 0
 6044 1686 30       		.uleb128 0x30
 6045 1687 01       		.uleb128 0x1
 6046 1688 51       		.byte	0x51
 6047 1689 02       		.uleb128 0x2
 6048 168a 79       		.byte	0x79
 6049 168b 00       		.sleb128 0
 6050 168c 00       		.byte	0
 6051 168d 31       		.uleb128 0x31
 6052 168e 52030000 		.4byte	.LVL30
 6053 1692 D0220000 		.4byte	0x22d0
 6054 1696 30       		.uleb128 0x30
 6055 1697 01       		.uleb128 0x1
 6056 1698 51       		.byte	0x51
 6057 1699 02       		.uleb128 0x2
 6058 169a 08       		.byte	0x8
 6059 169b 28       		.byte	0x28
 6060 169c 30       		.uleb128 0x30
 6061 169d 01       		.uleb128 0x1
 6062 169e 52       		.byte	0x52
 6063 169f 02       		.uleb128 0x2
 6064 16a0 08       		.byte	0x8
 6065 16a1 5A       		.byte	0x5a
 6066 16a2 00       		.byte	0
 6067 16a3 00       		.byte	0
 6068 16a4 00       		.byte	0
 6069 16a5 2C       		.uleb128 0x2c
 6070 16a6 13110000 		.4byte	0x1113
 6071 16aa 58030000 		.4byte	.LBB192
 6072 16ae D0000000 		.4byte	.Ldebug_ranges0+0xd0
 6073 16b2 01       		.byte	0x1
 6074 16b3 7803     		.2byte	0x378
 6075 16b5 3B170000 		.4byte	0x173b
 6076 16b9 2D       		.uleb128 0x2d
 6077 16ba D0000000 		.4byte	.Ldebug_ranges0+0xd0
 6078 16be 2E       		.uleb128 0x2e
 6079 16bf 1F110000 		.4byte	0x111f
 6080 16c3 05       		.uleb128 0x5
 6081 16c4 03       		.byte	0x3
 6082 16c5 C0050000 		.4byte	img_light.5976
 6083 16c9 2E       		.uleb128 0x2e
 6084 16ca 2A110000 		.4byte	0x112a
 6085 16ce 05       		.uleb128 0x5
 6086 16cf 03       		.byte	0x3
 6087 16d0 10060000 		.4byte	img_dark.5977
 6088 16d4 2F       		.uleb128 0x2f
 6089 16d5 6C030000 		.4byte	.LVL31
 6090 16d9 C5220000 		.4byte	0x22c5
 6091 16dd EF160000 		.4byte	0x16ef
ARM GAS  C:\Users\pearlstl\AppData\Local\Temp\cc5dErme.s 			page 143


 6092 16e1 30       		.uleb128 0x30
 6093 16e2 01       		.uleb128 0x1
 6094 16e3 50       		.byte	0x50
 6095 16e4 03       		.uleb128 0x3
 6096 16e5 74       		.byte	0x74
 6097 16e6 C00B     		.sleb128 1472
 6098 16e8 30       		.uleb128 0x30
 6099 16e9 01       		.uleb128 0x1
 6100 16ea 51       		.byte	0x51
 6101 16eb 02       		.uleb128 0x2
 6102 16ec 76       		.byte	0x76
 6103 16ed 00       		.sleb128 0
 6104 16ee 00       		.byte	0
 6105 16ef 2F       		.uleb128 0x2f
 6106 16f0 78030000 		.4byte	.LVL32
 6107 16f4 D0220000 		.4byte	0x22d0
 6108 16f8 08170000 		.4byte	0x1708
 6109 16fc 30       		.uleb128 0x30
 6110 16fd 01       		.uleb128 0x1
 6111 16fe 51       		.byte	0x51
 6112 16ff 01       		.uleb128 0x1
 6113 1700 3F       		.byte	0x3f
 6114 1701 30       		.uleb128 0x30
 6115 1702 01       		.uleb128 0x1
 6116 1703 52       		.byte	0x52
 6117 1704 02       		.uleb128 0x2
 6118 1705 08       		.byte	0x8
 6119 1706 55       		.byte	0x55
 6120 1707 00       		.byte	0
 6121 1708 2F       		.uleb128 0x2f
 6122 1709 8E030000 		.4byte	.LVL33
 6123 170d C5220000 		.4byte	0x22c5
 6124 1711 23170000 		.4byte	0x1723
 6125 1715 30       		.uleb128 0x30
 6126 1716 01       		.uleb128 0x1
 6127 1717 50       		.byte	0x50
 6128 1718 03       		.uleb128 0x3
 6129 1719 74       		.byte	0x74
 6130 171a 900C     		.sleb128 1552
 6131 171c 30       		.uleb128 0x30
 6132 171d 01       		.uleb128 0x1
 6133 171e 51       		.byte	0x51
 6134 171f 02       		.uleb128 0x2
 6135 1720 76       		.byte	0x76
 6136 1721 00       		.sleb128 0
 6137 1722 00       		.byte	0
 6138 1723 31       		.uleb128 0x31
 6139 1724 9A030000 		.4byte	.LVL34
 6140 1728 D0220000 		.4byte	0x22d0
 6141 172c 30       		.uleb128 0x30
 6142 172d 01       		.uleb128 0x1
 6143 172e 51       		.byte	0x51
 6144 172f 02       		.uleb128 0x2
 6145 1730 08       		.byte	0x8
 6146 1731 55       		.byte	0x55
 6147 1732 30       		.uleb128 0x30
 6148 1733 01       		.uleb128 0x1
ARM GAS  C:\Users\pearlstl\AppData\Local\Temp\cc5dErme.s 			page 144


 6149 1734 52       		.byte	0x52
 6150 1735 02       		.uleb128 0x2
 6151 1736 08       		.byte	0x8
 6152 1737 41       		.byte	0x41
 6153 1738 00       		.byte	0
 6154 1739 00       		.byte	0
 6155 173a 00       		.byte	0
 6156 173b 2C       		.uleb128 0x2c
 6157 173c FB100000 		.4byte	0x10fb
 6158 1740 9A030000 		.4byte	.LBB199
 6159 1744 F8000000 		.4byte	.Ldebug_ranges0+0xf8
 6160 1748 01       		.byte	0x1
 6161 1749 7A03     		.2byte	0x37a
 6162 174b DF170000 		.4byte	0x17df
 6163 174f 2D       		.uleb128 0x2d
 6164 1750 F8000000 		.4byte	.Ldebug_ranges0+0xf8
 6165 1754 2E       		.uleb128 0x2e
 6166 1755 07110000 		.4byte	0x1107
 6167 1759 05       		.uleb128 0x5
 6168 175a 03       		.byte	0x3
 6169 175b 60060000 		.4byte	led.5984
 6170 175f 2F       		.uleb128 0x2f
 6171 1760 B8030000 		.4byte	.LVL35
 6172 1764 C5220000 		.4byte	0x22c5
 6173 1768 79170000 		.4byte	0x1779
 6174 176c 30       		.uleb128 0x30
 6175 176d 01       		.uleb128 0x1
 6176 176e 50       		.byte	0x50
 6177 176f 02       		.uleb128 0x2
 6178 1770 7A       		.byte	0x7a
 6179 1771 00       		.sleb128 0
 6180 1772 30       		.uleb128 0x30
 6181 1773 01       		.uleb128 0x1
 6182 1774 51       		.byte	0x51
 6183 1775 02       		.uleb128 0x2
 6184 1776 76       		.byte	0x76
 6185 1777 00       		.sleb128 0
 6186 1778 00       		.byte	0
 6187 1779 2F       		.uleb128 0x2f
 6188 177a F6030000 		.4byte	.LVL36
 6189 177e D0220000 		.4byte	0x22d0
 6190 1782 93170000 		.4byte	0x1793
 6191 1786 30       		.uleb128 0x30
 6192 1787 01       		.uleb128 0x1
 6193 1788 51       		.byte	0x51
 6194 1789 02       		.uleb128 0x2
 6195 178a 08       		.byte	0x8
 6196 178b 64       		.byte	0x64
 6197 178c 30       		.uleb128 0x30
 6198 178d 01       		.uleb128 0x1
 6199 178e 52       		.byte	0x52
 6200 178f 02       		.uleb128 0x2
 6201 1790 08       		.byte	0x8
 6202 1791 64       		.byte	0x64
 6203 1792 00       		.byte	0
 6204 1793 2F       		.uleb128 0x2f
 6205 1794 06040000 		.4byte	.LVL37
ARM GAS  C:\Users\pearlstl\AppData\Local\Temp\cc5dErme.s 			page 145


 6206 1798 D0220000 		.4byte	0x22d0
 6207 179c AD170000 		.4byte	0x17ad
 6208 17a0 30       		.uleb128 0x30
 6209 17a1 01       		.uleb128 0x1
 6210 17a2 51       		.byte	0x51
 6211 17a3 02       		.uleb128 0x2
 6212 17a4 08       		.byte	0x8
 6213 17a5 64       		.byte	0x64
 6214 17a6 30       		.uleb128 0x30
 6215 17a7 01       		.uleb128 0x1
 6216 17a8 52       		.byte	0x52
 6217 17a9 02       		.uleb128 0x2
 6218 17aa 08       		.byte	0x8
 6219 17ab 64       		.byte	0x64
 6220 17ac 00       		.byte	0
 6221 17ad 2F       		.uleb128 0x2f
 6222 17ae 16040000 		.4byte	.LVL38
 6223 17b2 D0220000 		.4byte	0x22d0
 6224 17b6 C7170000 		.4byte	0x17c7
 6225 17ba 30       		.uleb128 0x30
 6226 17bb 01       		.uleb128 0x1
 6227 17bc 51       		.byte	0x51
 6228 17bd 02       		.uleb128 0x2
 6229 17be 08       		.byte	0x8
 6230 17bf 3C       		.byte	0x3c
 6231 17c0 30       		.uleb128 0x30
 6232 17c1 01       		.uleb128 0x1
 6233 17c2 52       		.byte	0x52
 6234 17c3 02       		.uleb128 0x2
 6235 17c4 08       		.byte	0x8
 6236 17c5 3C       		.byte	0x3c
 6237 17c6 00       		.byte	0
 6238 17c7 31       		.uleb128 0x31
 6239 17c8 26040000 		.4byte	.LVL39
 6240 17cc D0220000 		.4byte	0x22d0
 6241 17d0 30       		.uleb128 0x30
 6242 17d1 01       		.uleb128 0x1
 6243 17d2 51       		.byte	0x51
 6244 17d3 02       		.uleb128 0x2
 6245 17d4 08       		.byte	0x8
 6246 17d5 64       		.byte	0x64
 6247 17d6 30       		.uleb128 0x30
 6248 17d7 01       		.uleb128 0x1
 6249 17d8 52       		.byte	0x52
 6250 17d9 02       		.uleb128 0x2
 6251 17da 08       		.byte	0x8
 6252 17db 64       		.byte	0x64
 6253 17dc 00       		.byte	0
 6254 17dd 00       		.byte	0
 6255 17de 00       		.byte	0
 6256 17df 32       		.uleb128 0x32
 6257 17e0 BC0D0000 		.4byte	0xdbc
 6258 17e4 B2030000 		.4byte	.LBB208
 6259 17e8 02000000 		.4byte	.LBE208-.LBB208
 6260 17ec 01       		.byte	0x1
 6261 17ed 7903     		.2byte	0x379
 6262 17ef 2C       		.uleb128 0x2c
ARM GAS  C:\Users\pearlstl\AppData\Local\Temp\cc5dErme.s 			page 146


 6263 17f0 D8100000 		.4byte	0x10d8
 6264 17f4 26040000 		.4byte	.LBB211
 6265 17f8 28010000 		.4byte	.Ldebug_ranges0+0x128
 6266 17fc 01       		.byte	0x1
 6267 17fd 7B03     		.2byte	0x37b
 6268 17ff 84180000 		.4byte	0x1884
 6269 1803 2D       		.uleb128 0x2d
 6270 1804 28010000 		.4byte	.Ldebug_ranges0+0x128
 6271 1808 2E       		.uleb128 0x2e
 6272 1809 E4100000 		.4byte	0x10e4
 6273 180d 05       		.uleb128 0x5
 6274 180e 03       		.byte	0x3
 6275 180f B0060000 		.4byte	bar_bg.5988
 6276 1813 2E       		.uleb128 0x2e
 6277 1814 EF100000 		.4byte	0x10ef
 6278 1818 05       		.uleb128 0x5
 6279 1819 03       		.byte	0x3
 6280 181a 00070000 		.4byte	bar_indic.5989
 6281 181e 2F       		.uleb128 0x2f
 6282 181f 3A040000 		.4byte	.LVL40
 6283 1823 C5220000 		.4byte	0x22c5
 6284 1827 38180000 		.4byte	0x1838
 6285 182b 30       		.uleb128 0x30
 6286 182c 01       		.uleb128 0x1
 6287 182d 50       		.byte	0x50
 6288 182e 02       		.uleb128 0x2
 6289 182f 79       		.byte	0x79
 6290 1830 00       		.sleb128 0
 6291 1831 30       		.uleb128 0x30
 6292 1832 01       		.uleb128 0x1
 6293 1833 51       		.byte	0x51
 6294 1834 02       		.uleb128 0x2
 6295 1835 76       		.byte	0x76
 6296 1836 00       		.sleb128 0
 6297 1837 00       		.byte	0
 6298 1838 2F       		.uleb128 0x2f
 6299 1839 46040000 		.4byte	.LVL41
 6300 183d D0220000 		.4byte	0x22d0
 6301 1841 51180000 		.4byte	0x1851
 6302 1845 30       		.uleb128 0x30
 6303 1846 01       		.uleb128 0x1
 6304 1847 51       		.byte	0x51
 6305 1848 01       		.uleb128 0x1
 6306 1849 3F       		.byte	0x3f
 6307 184a 30       		.uleb128 0x30
 6308 184b 01       		.uleb128 0x1
 6309 184c 52       		.byte	0x52
 6310 184d 02       		.uleb128 0x2
 6311 184e 08       		.byte	0x8
 6312 184f 5F       		.byte	0x5f
 6313 1850 00       		.byte	0
 6314 1851 2F       		.uleb128 0x2f
 6315 1852 7C040000 		.4byte	.LVL42
 6316 1856 C5220000 		.4byte	0x22c5
 6317 185a 6C180000 		.4byte	0x186c
 6318 185e 30       		.uleb128 0x30
 6319 185f 01       		.uleb128 0x1
ARM GAS  C:\Users\pearlstl\AppData\Local\Temp\cc5dErme.s 			page 147


 6320 1860 50       		.byte	0x50
 6321 1861 03       		.uleb128 0x3
 6322 1862 7D       		.byte	0x7d
 6323 1863 00       		.sleb128 0
 6324 1864 06       		.byte	0x6
 6325 1865 30       		.uleb128 0x30
 6326 1866 01       		.uleb128 0x1
 6327 1867 51       		.byte	0x51
 6328 1868 02       		.uleb128 0x2
 6329 1869 79       		.byte	0x79
 6330 186a 00       		.sleb128 0
 6331 186b 00       		.byte	0
 6332 186c 31       		.uleb128 0x31
 6333 186d 88040000 		.4byte	.LVL43
 6334 1871 D0220000 		.4byte	0x22d0
 6335 1875 30       		.uleb128 0x30
 6336 1876 01       		.uleb128 0x1
 6337 1877 51       		.byte	0x51
 6338 1878 02       		.uleb128 0x2
 6339 1879 08       		.byte	0x8
 6340 187a 55       		.byte	0x55
 6341 187b 30       		.uleb128 0x30
 6342 187c 01       		.uleb128 0x1
 6343 187d 52       		.byte	0x52
 6344 187e 02       		.uleb128 0x2
 6345 187f 08       		.byte	0x8
 6346 1880 46       		.byte	0x46
 6347 1881 00       		.byte	0
 6348 1882 00       		.byte	0
 6349 1883 00       		.byte	0
 6350 1884 2C       		.uleb128 0x2c
 6351 1885 C0100000 		.4byte	0x10c0
 6352 1889 88040000 		.4byte	.LBB221
 6353 188d 58010000 		.4byte	.Ldebug_ranges0+0x158
 6354 1891 01       		.byte	0x1
 6355 1892 7C03     		.2byte	0x37c
 6356 1894 C0180000 		.4byte	0x18c0
 6357 1898 2D       		.uleb128 0x2d
 6358 1899 58010000 		.4byte	.Ldebug_ranges0+0x158
 6359 189d 2E       		.uleb128 0x2e
 6360 189e CC100000 		.4byte	0x10cc
 6361 18a2 05       		.uleb128 0x5
 6362 18a3 03       		.byte	0x3
 6363 18a4 50070000 		.4byte	knob.5993
 6364 18a8 31       		.uleb128 0x31
 6365 18a9 B4040000 		.4byte	.LVL44
 6366 18ad C5220000 		.4byte	0x22c5
 6367 18b1 30       		.uleb128 0x30
 6368 18b2 01       		.uleb128 0x1
 6369 18b3 50       		.byte	0x50
 6370 18b4 02       		.uleb128 0x2
 6371 18b5 7A       		.byte	0x7a
 6372 18b6 00       		.sleb128 0
 6373 18b7 30       		.uleb128 0x30
 6374 18b8 01       		.uleb128 0x1
 6375 18b9 51       		.byte	0x51
 6376 18ba 02       		.uleb128 0x2
ARM GAS  C:\Users\pearlstl\AppData\Local\Temp\cc5dErme.s 			page 148


 6377 18bb 76       		.byte	0x76
 6378 18bc 00       		.sleb128 0
 6379 18bd 00       		.byte	0
 6380 18be 00       		.byte	0
 6381 18bf 00       		.byte	0
 6382 18c0 2C       		.uleb128 0x2c
 6383 18c1 82100000 		.4byte	0x1082
 6384 18c5 C0040000 		.4byte	.LBB232
 6385 18c9 90010000 		.4byte	.Ldebug_ranges0+0x190
 6386 18cd 01       		.byte	0x1
 6387 18ce 7D03     		.2byte	0x37d
 6388 18d0 5B190000 		.4byte	0x195b
 6389 18d4 2D       		.uleb128 0x2d
 6390 18d5 90010000 		.4byte	.Ldebug_ranges0+0x190
 6391 18d9 2E       		.uleb128 0x2e
 6392 18da 8F100000 		.4byte	0x108f
 6393 18de 05       		.uleb128 0x5
 6394 18df 03       		.byte	0x3
 6395 18e0 A0070000 		.4byte	sw_bg.5997
 6396 18e4 2E       		.uleb128 0x2e
 6397 18e5 9B100000 		.4byte	0x109b
 6398 18e9 05       		.uleb128 0x5
 6399 18ea 03       		.byte	0x3
 6400 18eb F0070000 		.4byte	sw_indic.5998
 6401 18ef 2E       		.uleb128 0x2e
 6402 18f0 A7100000 		.4byte	0x10a7
 6403 18f4 05       		.uleb128 0x5
 6404 18f5 03       		.byte	0x3
 6405 18f6 90080000 		.4byte	sw_knob_off.5999
 6406 18fa 2E       		.uleb128 0x2e
 6407 18fb B3100000 		.4byte	0x10b3
 6408 18ff 05       		.uleb128 0x5
 6409 1900 03       		.byte	0x3
 6410 1901 40080000 		.4byte	sw_knob_on.6000
 6411 1905 2F       		.uleb128 0x2f
 6412 1906 E8040000 		.4byte	.LVL45
 6413 190a C5220000 		.4byte	0x22c5
 6414 190e 19190000 		.4byte	0x1919
 6415 1912 30       		.uleb128 0x30
 6416 1913 01       		.uleb128 0x1
 6417 1914 50       		.byte	0x50
 6418 1915 02       		.uleb128 0x2
 6419 1916 79       		.byte	0x79
 6420 1917 00       		.sleb128 0
 6421 1918 00       		.byte	0
 6422 1919 2F       		.uleb128 0x2f
 6423 191a FA040000 		.4byte	.LVL46
 6424 191e C5220000 		.4byte	0x22c5
 6425 1922 2E190000 		.4byte	0x192e
 6426 1926 30       		.uleb128 0x30
 6427 1927 01       		.uleb128 0x1
 6428 1928 50       		.byte	0x50
 6429 1929 03       		.uleb128 0x3
 6430 192a 74       		.byte	0x74
 6431 192b F00F     		.sleb128 2032
 6432 192d 00       		.byte	0
 6433 192e 2F       		.uleb128 0x2f
ARM GAS  C:\Users\pearlstl\AppData\Local\Temp\cc5dErme.s 			page 149


 6434 192f 0A050000 		.4byte	.LVL47
 6435 1933 C5220000 		.4byte	0x22c5
 6436 1937 42190000 		.4byte	0x1942
 6437 193b 30       		.uleb128 0x30
 6438 193c 01       		.uleb128 0x1
 6439 193d 50       		.byte	0x50
 6440 193e 02       		.uleb128 0x2
 6441 193f 7A       		.byte	0x7a
 6442 1940 00       		.sleb128 0
 6443 1941 00       		.byte	0
 6444 1942 31       		.uleb128 0x31
 6445 1943 34050000 		.4byte	.LVL48
 6446 1947 C5220000 		.4byte	0x22c5
 6447 194b 30       		.uleb128 0x30
 6448 194c 01       		.uleb128 0x1
 6449 194d 50       		.byte	0x50
 6450 194e 03       		.uleb128 0x3
 6451 194f 7A       		.byte	0x7a
 6452 1950 D000     		.sleb128 80
 6453 1952 30       		.uleb128 0x30
 6454 1953 01       		.uleb128 0x1
 6455 1954 51       		.byte	0x51
 6456 1955 02       		.uleb128 0x2
 6457 1956 7A       		.byte	0x7a
 6458 1957 00       		.sleb128 0
 6459 1958 00       		.byte	0
 6460 1959 00       		.byte	0
 6461 195a 00       		.byte	0
 6462 195b 2C       		.uleb128 0x2c
 6463 195c 68100000 		.4byte	0x1068
 6464 1960 42050000 		.4byte	.LBB245
 6465 1964 C8010000 		.4byte	.Ldebug_ranges0+0x1c8
 6466 1968 01       		.byte	0x1
 6467 1969 7E03     		.2byte	0x37e
 6468 196b B2190000 		.4byte	0x19b2
 6469 196f 2D       		.uleb128 0x2d
 6470 1970 C8010000 		.4byte	.Ldebug_ranges0+0x1c8
 6471 1974 2E       		.uleb128 0x2e
 6472 1975 75100000 		.4byte	0x1075
 6473 1979 05       		.uleb128 0x5
 6474 197a 03       		.byte	0x3
 6475 197b E0080000 		.4byte	lmeter.6004
 6476 197f 2F       		.uleb128 0x2f
 6477 1980 92050000 		.4byte	.LVL49
 6478 1984 C5220000 		.4byte	0x22c5
 6479 1988 9A190000 		.4byte	0x199a
 6480 198c 30       		.uleb128 0x30
 6481 198d 01       		.uleb128 0x1
 6482 198e 50       		.byte	0x50
 6483 198f 03       		.uleb128 0x3
 6484 1990 7D       		.byte	0x7d
 6485 1991 00       		.sleb128 0
 6486 1992 06       		.byte	0x6
 6487 1993 30       		.uleb128 0x30
 6488 1994 01       		.uleb128 0x1
 6489 1995 51       		.byte	0x51
 6490 1996 02       		.uleb128 0x2
ARM GAS  C:\Users\pearlstl\AppData\Local\Temp\cc5dErme.s 			page 150


 6491 1997 76       		.byte	0x76
 6492 1998 00       		.sleb128 0
 6493 1999 00       		.byte	0
 6494 199a 31       		.uleb128 0x31
 6495 199b 9E050000 		.4byte	.LVL50
 6496 199f D0220000 		.4byte	0x22d0
 6497 19a3 30       		.uleb128 0x30
 6498 19a4 01       		.uleb128 0x1
 6499 19a5 51       		.byte	0x51
 6500 19a6 02       		.uleb128 0x2
 6501 19a7 08       		.byte	0x8
 6502 19a8 4B       		.byte	0x4b
 6503 19a9 30       		.uleb128 0x30
 6504 19aa 01       		.uleb128 0x1
 6505 19ab 52       		.byte	0x52
 6506 19ac 02       		.uleb128 0x2
 6507 19ad 08       		.byte	0x8
 6508 19ae 5A       		.byte	0x5a
 6509 19af 00       		.byte	0
 6510 19b0 00       		.byte	0
 6511 19b1 00       		.byte	0
 6512 19b2 2C       		.uleb128 0x2c
 6513 19b3 4E100000 		.4byte	0x104e
 6514 19b7 A2050000 		.4byte	.LBB255
 6515 19bb F8010000 		.4byte	.Ldebug_ranges0+0x1f8
 6516 19bf 01       		.byte	0x1
 6517 19c0 7F03     		.2byte	0x37f
 6518 19c2 211A0000 		.4byte	0x1a21
 6519 19c6 2D       		.uleb128 0x2d
 6520 19c7 F8010000 		.4byte	.Ldebug_ranges0+0x1f8
 6521 19cb 2E       		.uleb128 0x2e
 6522 19cc 5B100000 		.4byte	0x105b
 6523 19d0 05       		.uleb128 0x5
 6524 19d1 03       		.byte	0x3
 6525 19d2 30090000 		.4byte	gauge.6008
 6526 19d6 2F       		.uleb128 0x2f
 6527 19d7 D6050000 		.4byte	.LVL51
 6528 19db C5220000 		.4byte	0x22c5
 6529 19df F0190000 		.4byte	0x19f0
 6530 19e3 30       		.uleb128 0x30
 6531 19e4 01       		.uleb128 0x1
 6532 19e5 50       		.byte	0x50
 6533 19e6 02       		.uleb128 0x2
 6534 19e7 7A       		.byte	0x7a
 6535 19e8 00       		.sleb128 0
 6536 19e9 30       		.uleb128 0x30
 6537 19ea 01       		.uleb128 0x1
 6538 19eb 51       		.byte	0x51
 6539 19ec 02       		.uleb128 0x2
 6540 19ed 76       		.byte	0x76
 6541 19ee 00       		.sleb128 0
 6542 19ef 00       		.byte	0
 6543 19f0 2F       		.uleb128 0x2f
 6544 19f1 E2050000 		.4byte	.LVL52
 6545 19f5 D0220000 		.4byte	0x22d0
 6546 19f9 091A0000 		.4byte	0x1a09
 6547 19fd 30       		.uleb128 0x30
ARM GAS  C:\Users\pearlstl\AppData\Local\Temp\cc5dErme.s 			page 151


 6548 19fe 01       		.uleb128 0x1
 6549 19ff 51       		.byte	0x51
 6550 1a00 01       		.uleb128 0x1
 6551 1a01 3A       		.byte	0x3a
 6552 1a02 30       		.uleb128 0x30
 6553 1a03 01       		.uleb128 0x1
 6554 1a04 52       		.byte	0x52
 6555 1a05 02       		.uleb128 0x2
 6556 1a06 08       		.byte	0x8
 6557 1a07 3C       		.byte	0x3c
 6558 1a08 00       		.byte	0
 6559 1a09 31       		.uleb128 0x31
 6560 1a0a 32060000 		.4byte	.LVL53
 6561 1a0e D0220000 		.4byte	0x22d0
 6562 1a12 30       		.uleb128 0x30
 6563 1a13 01       		.uleb128 0x1
 6564 1a14 51       		.byte	0x51
 6565 1a15 02       		.uleb128 0x2
 6566 1a16 08       		.byte	0x8
 6567 1a17 5F       		.byte	0x5f
 6568 1a18 30       		.uleb128 0x30
 6569 1a19 01       		.uleb128 0x1
 6570 1a1a 52       		.byte	0x52
 6571 1a1b 02       		.uleb128 0x2
 6572 1a1c 08       		.byte	0x8
 6573 1a1d 46       		.byte	0x46
 6574 1a1e 00       		.byte	0
 6575 1a1f 00       		.byte	0
 6576 1a20 00       		.byte	0
 6577 1a21 2C       		.uleb128 0x2c
 6578 1a22 34100000 		.4byte	0x1034
 6579 1a26 32060000 		.4byte	.LBB265
 6580 1a2a 28020000 		.4byte	.Ldebug_ranges0+0x228
 6581 1a2e 01       		.byte	0x1
 6582 1a2f 8103     		.2byte	0x381
 6583 1a31 911A0000 		.4byte	0x1a91
 6584 1a35 2D       		.uleb128 0x2d
 6585 1a36 28020000 		.4byte	.Ldebug_ranges0+0x228
 6586 1a3a 2E       		.uleb128 0x2e
 6587 1a3b 41100000 		.4byte	0x1041
 6588 1a3f 05       		.uleb128 0x5
 6589 1a40 03       		.byte	0x3
 6590 1a41 80090000 		.4byte	arc.6012
 6591 1a45 2F       		.uleb128 0x2f
 6592 1a46 4E060000 		.4byte	.LVL54
 6593 1a4a C5220000 		.4byte	0x22c5
 6594 1a4e 601A0000 		.4byte	0x1a60
 6595 1a52 30       		.uleb128 0x30
 6596 1a53 01       		.uleb128 0x1
 6597 1a54 50       		.byte	0x50
 6598 1a55 03       		.uleb128 0x3
 6599 1a56 7D       		.byte	0x7d
 6600 1a57 00       		.sleb128 0
 6601 1a58 06       		.byte	0x6
 6602 1a59 30       		.uleb128 0x30
 6603 1a5a 01       		.uleb128 0x1
 6604 1a5b 51       		.byte	0x51
ARM GAS  C:\Users\pearlstl\AppData\Local\Temp\cc5dErme.s 			page 152


 6605 1a5c 02       		.uleb128 0x2
 6606 1a5d 76       		.byte	0x76
 6607 1a5e 00       		.sleb128 0
 6608 1a5f 00       		.byte	0
 6609 1a60 2F       		.uleb128 0x2f
 6610 1a61 62060000 		.4byte	.LVL55
 6611 1a65 D0220000 		.4byte	0x22d0
 6612 1a69 7A1A0000 		.4byte	0x1a7a
 6613 1a6d 30       		.uleb128 0x30
 6614 1a6e 01       		.uleb128 0x1
 6615 1a6f 51       		.byte	0x51
 6616 1a70 02       		.uleb128 0x2
 6617 1a71 08       		.byte	0x8
 6618 1a72 5A       		.byte	0x5a
 6619 1a73 30       		.uleb128 0x30
 6620 1a74 01       		.uleb128 0x1
 6621 1a75 52       		.byte	0x52
 6622 1a76 02       		.uleb128 0x2
 6623 1a77 08       		.byte	0x8
 6624 1a78 5A       		.byte	0x5a
 6625 1a79 00       		.byte	0
 6626 1a7a 31       		.uleb128 0x31
 6627 1a7b 7A060000 		.4byte	.LVL56
 6628 1a7f D0220000 		.4byte	0x22d0
 6629 1a83 30       		.uleb128 0x30
 6630 1a84 01       		.uleb128 0x1
 6631 1a85 51       		.byte	0x51
 6632 1a86 01       		.uleb128 0x1
 6633 1a87 4E       		.byte	0x4e
 6634 1a88 30       		.uleb128 0x30
 6635 1a89 01       		.uleb128 0x1
 6636 1a8a 52       		.byte	0x52
 6637 1a8b 02       		.uleb128 0x2
 6638 1a8c 08       		.byte	0x8
 6639 1a8d 5A       		.byte	0x5a
 6640 1a8e 00       		.byte	0
 6641 1a8f 00       		.byte	0
 6642 1a90 00       		.byte	0
 6643 1a91 33       		.uleb128 0x33
 6644 1a92 B30D0000 		.4byte	0xdb3
 6645 1a96 36060000 		.4byte	.LBB273
 6646 1a9a 68020000 		.4byte	.Ldebug_ranges0+0x268
 6647 1a9e 01       		.byte	0x1
 6648 1a9f 8003     		.2byte	0x380
 6649 1aa1 2C       		.uleb128 0x2c
 6650 1aa2 F60F0000 		.4byte	0xff6
 6651 1aa6 7A060000 		.4byte	.LBB282
 6652 1aaa 80020000 		.4byte	.Ldebug_ranges0+0x280
 6653 1aae 01       		.byte	0x1
 6654 1aaf 8303     		.2byte	0x383
 6655 1ab1 B61B0000 		.4byte	0x1bb6
 6656 1ab5 2D       		.uleb128 0x2d
 6657 1ab6 80020000 		.4byte	.Ldebug_ranges0+0x280
 6658 1aba 2E       		.uleb128 0x2e
 6659 1abb 03100000 		.4byte	0x1003
 6660 1abf 05       		.uleb128 0x5
 6661 1ac0 03       		.byte	0x3
ARM GAS  C:\Users\pearlstl\AppData\Local\Temp\cc5dErme.s 			page 153


 6662 1ac1 D0090000 		.4byte	ina_days.6022
 6663 1ac5 2E       		.uleb128 0x2e
 6664 1ac6 0F100000 		.4byte	0x100f
 6665 1aca 05       		.uleb128 0x5
 6666 1acb 03       		.byte	0x3
 6667 1acc 200A0000 		.4byte	high_days.6023
 6668 1ad0 2E       		.uleb128 0x2e
 6669 1ad1 1B100000 		.4byte	0x101b
 6670 1ad5 05       		.uleb128 0x5
 6671 1ad6 03       		.byte	0x3
 6672 1ad7 700A0000 		.4byte	week_box.6024
 6673 1adb 2E       		.uleb128 0x2e
 6674 1adc 27100000 		.4byte	0x1027
 6675 1ae0 05       		.uleb128 0x5
 6676 1ae1 03       		.byte	0x3
 6677 1ae2 C00A0000 		.4byte	today_box.6025
 6678 1ae6 2F       		.uleb128 0x2f
 6679 1ae7 A0060000 		.4byte	.LVL57
 6680 1aeb C5220000 		.4byte	0x22c5
 6681 1aef 001B0000 		.4byte	0x1b00
 6682 1af3 30       		.uleb128 0x30
 6683 1af4 01       		.uleb128 0x1
 6684 1af5 50       		.byte	0x50
 6685 1af6 02       		.uleb128 0x2
 6686 1af7 79       		.byte	0x79
 6687 1af8 00       		.sleb128 0
 6688 1af9 30       		.uleb128 0x30
 6689 1afa 01       		.uleb128 0x1
 6690 1afb 51       		.byte	0x51
 6691 1afc 02       		.uleb128 0x2
 6692 1afd 76       		.byte	0x76
 6693 1afe 00       		.sleb128 0
 6694 1aff 00       		.byte	0
 6695 1b00 2F       		.uleb128 0x2f
 6696 1b01 AC060000 		.4byte	.LVL58
 6697 1b05 D0220000 		.4byte	0x22d0
 6698 1b09 1A1B0000 		.4byte	0x1b1a
 6699 1b0d 30       		.uleb128 0x30
 6700 1b0e 01       		.uleb128 0x1
 6701 1b0f 51       		.byte	0x51
 6702 1b10 02       		.uleb128 0x2
 6703 1b11 78       		.byte	0x78
 6704 1b12 00       		.sleb128 0
 6705 1b13 30       		.uleb128 0x30
 6706 1b14 01       		.uleb128 0x1
 6707 1b15 52       		.byte	0x52
 6708 1b16 02       		.uleb128 0x2
 6709 1b17 08       		.byte	0x8
 6710 1b18 46       		.byte	0x46
 6711 1b19 00       		.byte	0
 6712 1b1a 2F       		.uleb128 0x2f
 6713 1b1b BA060000 		.4byte	.LVL59
 6714 1b1f C5220000 		.4byte	0x22c5
 6715 1b23 351B0000 		.4byte	0x1b35
 6716 1b27 30       		.uleb128 0x30
 6717 1b28 01       		.uleb128 0x1
 6718 1b29 50       		.byte	0x50
ARM GAS  C:\Users\pearlstl\AppData\Local\Temp\cc5dErme.s 			page 154


 6719 1b2a 03       		.uleb128 0x3
 6720 1b2b 76       		.byte	0x76
 6721 1b2c F010     		.sleb128 2160
 6722 1b2e 30       		.uleb128 0x30
 6723 1b2f 01       		.uleb128 0x1
 6724 1b30 51       		.byte	0x51
 6725 1b31 02       		.uleb128 0x2
 6726 1b32 76       		.byte	0x76
 6727 1b33 00       		.sleb128 0
 6728 1b34 00       		.byte	0
 6729 1b35 2F       		.uleb128 0x2f
 6730 1b36 C6060000 		.4byte	.LVL60
 6731 1b3a D0220000 		.4byte	0x22d0
 6732 1b3e 4F1B0000 		.4byte	0x1b4f
 6733 1b42 30       		.uleb128 0x30
 6734 1b43 01       		.uleb128 0x1
 6735 1b44 51       		.byte	0x51
 6736 1b45 02       		.uleb128 0x2
 6737 1b46 08       		.byte	0x8
 6738 1b47 50       		.byte	0x50
 6739 1b48 30       		.uleb128 0x30
 6740 1b49 01       		.uleb128 0x1
 6741 1b4a 52       		.byte	0x52
 6742 1b4b 02       		.uleb128 0x2
 6743 1b4c 08       		.byte	0x8
 6744 1b4d 5A       		.byte	0x5a
 6745 1b4e 00       		.byte	0
 6746 1b4f 2F       		.uleb128 0x2f
 6747 1b50 D4060000 		.4byte	.LVL61
 6748 1b54 C5220000 		.4byte	0x22c5
 6749 1b58 6A1B0000 		.4byte	0x1b6a
 6750 1b5c 30       		.uleb128 0x30
 6751 1b5d 01       		.uleb128 0x1
 6752 1b5e 50       		.byte	0x50
 6753 1b5f 03       		.uleb128 0x3
 6754 1b60 76       		.byte	0x76
 6755 1b61 C011     		.sleb128 2240
 6756 1b63 30       		.uleb128 0x30
 6757 1b64 01       		.uleb128 0x1
 6758 1b65 51       		.byte	0x51
 6759 1b66 02       		.uleb128 0x2
 6760 1b67 76       		.byte	0x76
 6761 1b68 00       		.sleb128 0
 6762 1b69 00       		.byte	0
 6763 1b6a 2F       		.uleb128 0x2f
 6764 1b6b E0060000 		.4byte	.LVL62
 6765 1b6f D0220000 		.4byte	0x22d0
 6766 1b73 841B0000 		.4byte	0x1b84
 6767 1b77 30       		.uleb128 0x30
 6768 1b78 01       		.uleb128 0x1
 6769 1b79 51       		.byte	0x51
 6770 1b7a 02       		.uleb128 0x2
 6771 1b7b 08       		.byte	0x8
 6772 1b7c 28       		.byte	0x28
 6773 1b7d 30       		.uleb128 0x30
 6774 1b7e 01       		.uleb128 0x1
 6775 1b7f 52       		.byte	0x52
ARM GAS  C:\Users\pearlstl\AppData\Local\Temp\cc5dErme.s 			page 155


 6776 1b80 02       		.uleb128 0x2
 6777 1b81 08       		.byte	0x8
 6778 1b82 64       		.byte	0x64
 6779 1b83 00       		.byte	0
 6780 1b84 2F       		.uleb128 0x2f
 6781 1b85 F0060000 		.4byte	.LVL63
 6782 1b89 D0220000 		.4byte	0x22d0
 6783 1b8d 9E1B0000 		.4byte	0x1b9e
 6784 1b91 30       		.uleb128 0x30
 6785 1b92 01       		.uleb128 0x1
 6786 1b93 51       		.byte	0x51
 6787 1b94 02       		.uleb128 0x2
 6788 1b95 08       		.byte	0x8
 6789 1b96 28       		.byte	0x28
 6790 1b97 30       		.uleb128 0x30
 6791 1b98 01       		.uleb128 0x1
 6792 1b99 52       		.byte	0x52
 6793 1b9a 02       		.uleb128 0x2
 6794 1b9b 08       		.byte	0x8
 6795 1b9c 64       		.byte	0x64
 6796 1b9d 00       		.byte	0
 6797 1b9e 31       		.uleb128 0x31
 6798 1b9f 38070000 		.4byte	.LVL64
 6799 1ba3 C5220000 		.4byte	0x22c5
 6800 1ba7 30       		.uleb128 0x30
 6801 1ba8 01       		.uleb128 0x1
 6802 1ba9 50       		.byte	0x50
 6803 1baa 02       		.uleb128 0x2
 6804 1bab 7A       		.byte	0x7a
 6805 1bac 00       		.sleb128 0
 6806 1bad 30       		.uleb128 0x30
 6807 1bae 01       		.uleb128 0x1
 6808 1baf 51       		.byte	0x51
 6809 1bb0 02       		.uleb128 0x2
 6810 1bb1 76       		.byte	0x76
 6811 1bb2 00       		.sleb128 0
 6812 1bb3 00       		.byte	0
 6813 1bb4 00       		.byte	0
 6814 1bb5 00       		.byte	0
 6815 1bb6 32       		.uleb128 0x32
 6816 1bb7 AA0D0000 		.4byte	0xdaa
 6817 1bbb 8A060000 		.4byte	.LBB291
 6818 1bbf 02000000 		.4byte	.LBE291-.LBB291
 6819 1bc3 01       		.byte	0x1
 6820 1bc4 8203     		.2byte	0x382
 6821 1bc6 2C       		.uleb128 0x2c
 6822 1bc7 AD0F0000 		.4byte	0xfad
 6823 1bcb 42070000 		.4byte	.LBB295
 6824 1bcf B0020000 		.4byte	.Ldebug_ranges0+0x2b0
 6825 1bd3 01       		.byte	0x1
 6826 1bd4 8403     		.2byte	0x384
 6827 1bd6 C11C0000 		.4byte	0x1cc1
 6828 1bda 2D       		.uleb128 0x2d
 6829 1bdb B0020000 		.4byte	.Ldebug_ranges0+0x2b0
 6830 1bdf 2E       		.uleb128 0x2e
 6831 1be0 BA0F0000 		.4byte	0xfba
 6832 1be4 05       		.uleb128 0x5
ARM GAS  C:\Users\pearlstl\AppData\Local\Temp\cc5dErme.s 			page 156


 6833 1be5 03       		.byte	0x3
 6834 1be6 100B0000 		.4byte	rel.6031
 6835 1bea 2E       		.uleb128 0x2e
 6836 1beb C60F0000 		.4byte	0xfc6
 6837 1bef 05       		.uleb128 0x5
 6838 1bf0 03       		.byte	0x3
 6839 1bf1 600B0000 		.4byte	pr.6032
 6840 1bf5 2E       		.uleb128 0x2e
 6841 1bf6 D10F0000 		.4byte	0xfd1
 6842 1bfa 05       		.uleb128 0x5
 6843 1bfb 03       		.byte	0x3
 6844 1bfc B00B0000 		.4byte	tgl_rel.6033
 6845 1c00 2E       		.uleb128 0x2e
 6846 1c01 DD0F0000 		.4byte	0xfdd
 6847 1c05 05       		.uleb128 0x5
 6848 1c06 03       		.byte	0x3
 6849 1c07 000C0000 		.4byte	tgl_pr.6034
 6850 1c0b 2E       		.uleb128 0x2e
 6851 1c0c E90F0000 		.4byte	0xfe9
 6852 1c10 05       		.uleb128 0x5
 6853 1c11 03       		.byte	0x3
 6854 1c12 500C0000 		.4byte	ina.6035
 6855 1c16 2F       		.uleb128 0x2f
 6856 1c17 98070000 		.4byte	.LVL65
 6857 1c1b C5220000 		.4byte	0x22c5
 6858 1c1f 2A1C0000 		.4byte	0x1c2a
 6859 1c23 30       		.uleb128 0x30
 6860 1c24 01       		.uleb128 0x1
 6861 1c25 50       		.byte	0x50
 6862 1c26 02       		.uleb128 0x2
 6863 1c27 79       		.byte	0x79
 6864 1c28 00       		.sleb128 0
 6865 1c29 00       		.byte	0
 6866 1c2a 2F       		.uleb128 0x2f
 6867 1c2b AE070000 		.4byte	.LVL66
 6868 1c2f C5220000 		.4byte	0x22c5
 6869 1c33 451C0000 		.4byte	0x1c45
 6870 1c37 30       		.uleb128 0x30
 6871 1c38 01       		.uleb128 0x1
 6872 1c39 50       		.byte	0x50
 6873 1c3a 03       		.uleb128 0x3
 6874 1c3b 79       		.byte	0x79
 6875 1c3c D000     		.sleb128 80
 6876 1c3e 30       		.uleb128 0x30
 6877 1c3f 01       		.uleb128 0x1
 6878 1c40 51       		.byte	0x51
 6879 1c41 02       		.uleb128 0x2
 6880 1c42 79       		.byte	0x79
 6881 1c43 00       		.sleb128 0
 6882 1c44 00       		.byte	0
 6883 1c45 2F       		.uleb128 0x2f
 6884 1c46 DA070000 		.4byte	.LVL67
 6885 1c4a C5220000 		.4byte	0x22c5
 6886 1c4e 5F1C0000 		.4byte	0x1c5f
 6887 1c52 30       		.uleb128 0x30
 6888 1c53 01       		.uleb128 0x1
 6889 1c54 50       		.byte	0x50
ARM GAS  C:\Users\pearlstl\AppData\Local\Temp\cc5dErme.s 			page 157


 6890 1c55 02       		.uleb128 0x2
 6891 1c56 7A       		.byte	0x7a
 6892 1c57 00       		.sleb128 0
 6893 1c58 30       		.uleb128 0x30
 6894 1c59 01       		.uleb128 0x1
 6895 1c5a 51       		.byte	0x51
 6896 1c5b 02       		.uleb128 0x2
 6897 1c5c 79       		.byte	0x79
 6898 1c5d 00       		.sleb128 0
 6899 1c5e 00       		.byte	0
 6900 1c5f 2F       		.uleb128 0x2f
 6901 1c60 E6070000 		.4byte	.LVL68
 6902 1c64 D0220000 		.4byte	0x22d0
 6903 1c68 791C0000 		.4byte	0x1c79
 6904 1c6c 30       		.uleb128 0x30
 6905 1c6d 01       		.uleb128 0x1
 6906 1c6e 51       		.byte	0x51
 6907 1c6f 02       		.uleb128 0x2
 6908 1c70 08       		.byte	0x8
 6909 1c71 4B       		.byte	0x4b
 6910 1c72 30       		.uleb128 0x30
 6911 1c73 01       		.uleb128 0x1
 6912 1c74 52       		.byte	0x52
 6913 1c75 02       		.uleb128 0x2
 6914 1c76 08       		.byte	0x8
 6915 1c77 55       		.byte	0x55
 6916 1c78 00       		.byte	0
 6917 1c79 2F       		.uleb128 0x2f
 6918 1c7a 04080000 		.4byte	.LVL69
 6919 1c7e C5220000 		.4byte	0x22c5
 6920 1c82 941C0000 		.4byte	0x1c94
 6921 1c86 30       		.uleb128 0x30
 6922 1c87 01       		.uleb128 0x1
 6923 1c88 50       		.byte	0x50
 6924 1c89 03       		.uleb128 0x3
 6925 1c8a 7A       		.byte	0x7a
 6926 1c8b D000     		.sleb128 80
 6927 1c8d 30       		.uleb128 0x30
 6928 1c8e 01       		.uleb128 0x1
 6929 1c8f 51       		.byte	0x51
 6930 1c90 02       		.uleb128 0x2
 6931 1c91 7A       		.byte	0x7a
 6932 1c92 00       		.sleb128 0
 6933 1c93 00       		.byte	0
 6934 1c94 2F       		.uleb128 0x2f
 6935 1c95 10080000 		.4byte	.LVL70
 6936 1c99 D0220000 		.4byte	0x22d0
 6937 1c9d AE1C0000 		.4byte	0x1cae
 6938 1ca1 30       		.uleb128 0x30
 6939 1ca2 01       		.uleb128 0x1
 6940 1ca3 51       		.byte	0x51
 6941 1ca4 02       		.uleb128 0x2
 6942 1ca5 08       		.byte	0x8
 6943 1ca6 4B       		.byte	0x4b
 6944 1ca7 30       		.uleb128 0x30
 6945 1ca8 01       		.uleb128 0x1
 6946 1ca9 52       		.byte	0x52
ARM GAS  C:\Users\pearlstl\AppData\Local\Temp\cc5dErme.s 			page 158


 6947 1caa 02       		.uleb128 0x2
 6948 1cab 08       		.byte	0x8
 6949 1cac 41       		.byte	0x41
 6950 1cad 00       		.byte	0
 6951 1cae 31       		.uleb128 0x31
 6952 1caf 2A080000 		.4byte	.LVL71
 6953 1cb3 C5220000 		.4byte	0x22c5
 6954 1cb7 30       		.uleb128 0x30
 6955 1cb8 01       		.uleb128 0x1
 6956 1cb9 50       		.byte	0x50
 6957 1cba 03       		.uleb128 0x3
 6958 1cbb 7D       		.byte	0x7d
 6959 1cbc 00       		.sleb128 0
 6960 1cbd 06       		.byte	0x6
 6961 1cbe 00       		.byte	0
 6962 1cbf 00       		.byte	0
 6963 1cc0 00       		.byte	0
 6964 1cc1 2C       		.uleb128 0x2c
 6965 1cc2 590F0000 		.4byte	0xf59
 6966 1cc6 2A080000 		.4byte	.LBB305
 6967 1cca E0020000 		.4byte	.Ldebug_ranges0+0x2e0
 6968 1cce 01       		.byte	0x1
 6969 1ccf 8503     		.2byte	0x385
 6970 1cd1 FE1D0000 		.4byte	0x1dfe
 6971 1cd5 2D       		.uleb128 0x2d
 6972 1cd6 E0020000 		.4byte	.Ldebug_ranges0+0x2e0
 6973 1cda 2E       		.uleb128 0x2e
 6974 1cdb 660F0000 		.4byte	0xf66
 6975 1cdf 05       		.uleb128 0x5
 6976 1ce0 03       		.byte	0x3
 6977 1ce1 A00C0000 		.4byte	bg.6039
 6978 1ce5 2E       		.uleb128 0x2e
 6979 1ce6 710F0000 		.4byte	0xf71
 6980 1cea 05       		.uleb128 0x5
 6981 1ceb 03       		.byte	0x3
 6982 1cec F00C0000 		.4byte	rel.6040
 6983 1cf0 2E       		.uleb128 0x2e
 6984 1cf1 7D0F0000 		.4byte	0xf7d
 6985 1cf5 05       		.uleb128 0x5
 6986 1cf6 03       		.byte	0x3
 6987 1cf7 400D0000 		.4byte	pr.6041
 6988 1cfb 2E       		.uleb128 0x2e
 6989 1cfc 880F0000 		.4byte	0xf88
 6990 1d00 05       		.uleb128 0x5
 6991 1d01 03       		.byte	0x3
 6992 1d02 900D0000 		.4byte	tgl_rel.6042
 6993 1d06 2E       		.uleb128 0x2e
 6994 1d07 940F0000 		.4byte	0xf94
 6995 1d0b 05       		.uleb128 0x5
 6996 1d0c 03       		.byte	0x3
 6997 1d0d E00D0000 		.4byte	tgl_pr.6043
 6998 1d11 2E       		.uleb128 0x2e
 6999 1d12 A00F0000 		.4byte	0xfa0
 7000 1d16 05       		.uleb128 0x5
 7001 1d17 03       		.byte	0x3
 7002 1d18 300E0000 		.4byte	ina.6044
 7003 1d1c 2F       		.uleb128 0x2f
ARM GAS  C:\Users\pearlstl\AppData\Local\Temp\cc5dErme.s 			page 159


 7004 1d1d 58080000 		.4byte	.LVL72
 7005 1d21 C5220000 		.4byte	0x22c5
 7006 1d25 311D0000 		.4byte	0x1d31
 7007 1d29 30       		.uleb128 0x30
 7008 1d2a 01       		.uleb128 0x1
 7009 1d2b 50       		.byte	0x50
 7010 1d2c 03       		.uleb128 0x3
 7011 1d2d 74       		.byte	0x74
 7012 1d2e A019     		.sleb128 3232
 7013 1d30 00       		.byte	0
 7014 1d31 2F       		.uleb128 0x2f
 7015 1d32 8E080000 		.4byte	.LVL73
 7016 1d36 C5220000 		.4byte	0x22c5
 7017 1d3a 461D0000 		.4byte	0x1d46
 7018 1d3e 30       		.uleb128 0x30
 7019 1d3f 01       		.uleb128 0x1
 7020 1d40 50       		.byte	0x50
 7021 1d41 03       		.uleb128 0x3
 7022 1d42 74       		.byte	0x74
 7023 1d43 F019     		.sleb128 3312
 7024 1d45 00       		.byte	0
 7025 1d46 2F       		.uleb128 0x2f
 7026 1d47 C6080000 		.4byte	.LVL74
 7027 1d4b C5220000 		.4byte	0x22c5
 7028 1d4f 611D0000 		.4byte	0x1d61
 7029 1d53 30       		.uleb128 0x30
 7030 1d54 01       		.uleb128 0x1
 7031 1d55 50       		.byte	0x50
 7032 1d56 02       		.uleb128 0x2
 7033 1d57 79       		.byte	0x79
 7034 1d58 00       		.sleb128 0
 7035 1d59 30       		.uleb128 0x30
 7036 1d5a 01       		.uleb128 0x1
 7037 1d5b 51       		.byte	0x51
 7038 1d5c 03       		.uleb128 0x3
 7039 1d5d 74       		.byte	0x74
 7040 1d5e F019     		.sleb128 3312
 7041 1d60 00       		.byte	0
 7042 1d61 2F       		.uleb128 0x2f
 7043 1d62 00090000 		.4byte	.LVL75
 7044 1d66 C5220000 		.4byte	0x22c5
 7045 1d6a 7C1D0000 		.4byte	0x1d7c
 7046 1d6e 30       		.uleb128 0x30
 7047 1d6f 01       		.uleb128 0x1
 7048 1d70 50       		.byte	0x50
 7049 1d71 03       		.uleb128 0x3
 7050 1d72 79       		.byte	0x79
 7051 1d73 D000     		.sleb128 80
 7052 1d75 30       		.uleb128 0x30
 7053 1d76 01       		.uleb128 0x1
 7054 1d77 51       		.byte	0x51
 7055 1d78 02       		.uleb128 0x2
 7056 1d79 79       		.byte	0x79
 7057 1d7a 00       		.sleb128 0
 7058 1d7b 00       		.byte	0
 7059 1d7c 2F       		.uleb128 0x2f
 7060 1d7d 0C090000 		.4byte	.LVL76
ARM GAS  C:\Users\pearlstl\AppData\Local\Temp\cc5dErme.s 			page 160


 7061 1d81 D0220000 		.4byte	0x22d0
 7062 1d85 961D0000 		.4byte	0x1d96
 7063 1d89 30       		.uleb128 0x30
 7064 1d8a 01       		.uleb128 0x1
 7065 1d8b 51       		.byte	0x51
 7066 1d8c 02       		.uleb128 0x2
 7067 1d8d 08       		.byte	0x8
 7068 1d8e 5A       		.byte	0x5a
 7069 1d8f 30       		.uleb128 0x30
 7070 1d90 01       		.uleb128 0x1
 7071 1d91 52       		.byte	0x52
 7072 1d92 02       		.uleb128 0x2
 7073 1d93 08       		.byte	0x8
 7074 1d94 46       		.byte	0x46
 7075 1d95 00       		.byte	0
 7076 1d96 2F       		.uleb128 0x2f
 7077 1d97 20090000 		.4byte	.LVL77
 7078 1d9b D0220000 		.4byte	0x22d0
 7079 1d9f AF1D0000 		.4byte	0x1daf
 7080 1da3 30       		.uleb128 0x30
 7081 1da4 01       		.uleb128 0x1
 7082 1da5 51       		.byte	0x51
 7083 1da6 01       		.uleb128 0x1
 7084 1da7 35       		.byte	0x35
 7085 1da8 30       		.uleb128 0x30
 7086 1da9 01       		.uleb128 0x1
 7087 1daa 52       		.byte	0x52
 7088 1dab 02       		.uleb128 0x2
 7089 1dac 08       		.byte	0x8
 7090 1dad 5F       		.byte	0x5f
 7091 1dae 00       		.byte	0
 7092 1daf 2F       		.uleb128 0x2f
 7093 1db0 30090000 		.4byte	.LVL78
 7094 1db4 C5220000 		.4byte	0x22c5
 7095 1db8 CB1D0000 		.4byte	0x1dcb
 7096 1dbc 30       		.uleb128 0x30
 7097 1dbd 01       		.uleb128 0x1
 7098 1dbe 50       		.byte	0x50
 7099 1dbf 03       		.uleb128 0x3
 7100 1dc0 74       		.byte	0x74
 7101 1dc1 E01B     		.sleb128 3552
 7102 1dc3 30       		.uleb128 0x30
 7103 1dc4 01       		.uleb128 0x1
 7104 1dc5 51       		.byte	0x51
 7105 1dc6 03       		.uleb128 0x3
 7106 1dc7 74       		.byte	0x74
 7107 1dc8 901B     		.sleb128 3472
 7108 1dca 00       		.byte	0
 7109 1dcb 2F       		.uleb128 0x2f
 7110 1dcc 3C090000 		.4byte	.LVL79
 7111 1dd0 D0220000 		.4byte	0x22d0
 7112 1dd4 E51D0000 		.4byte	0x1de5
 7113 1dd8 30       		.uleb128 0x30
 7114 1dd9 01       		.uleb128 0x1
 7115 1dda 51       		.byte	0x51
 7116 1ddb 02       		.uleb128 0x2
 7117 1ddc 08       		.byte	0x8
ARM GAS  C:\Users\pearlstl\AppData\Local\Temp\cc5dErme.s 			page 161


 7118 1ddd 5F       		.byte	0x5f
 7119 1dde 30       		.uleb128 0x30
 7120 1ddf 01       		.uleb128 0x1
 7121 1de0 52       		.byte	0x52
 7122 1de1 02       		.uleb128 0x2
 7123 1de2 08       		.byte	0x8
 7124 1de3 41       		.byte	0x41
 7125 1de4 00       		.byte	0
 7126 1de5 31       		.uleb128 0x31
 7127 1de6 52090000 		.4byte	.LVL80
 7128 1dea C5220000 		.4byte	0x22c5
 7129 1dee 30       		.uleb128 0x30
 7130 1def 01       		.uleb128 0x1
 7131 1df0 50       		.byte	0x50
 7132 1df1 03       		.uleb128 0x3
 7133 1df2 74       		.byte	0x74
 7134 1df3 B01C     		.sleb128 3632
 7135 1df5 30       		.uleb128 0x30
 7136 1df6 01       		.uleb128 0x1
 7137 1df7 51       		.byte	0x51
 7138 1df8 02       		.uleb128 0x2
 7139 1df9 79       		.byte	0x79
 7140 1dfa 00       		.sleb128 0
 7141 1dfb 00       		.byte	0
 7142 1dfc 00       		.byte	0
 7143 1dfd 00       		.byte	0
 7144 1dfe 2C       		.uleb128 0x2c
 7145 1dff 3F0F0000 		.4byte	0xf3f
 7146 1e03 74090000 		.4byte	.LBB317
 7147 1e07 20030000 		.4byte	.Ldebug_ranges0+0x320
 7148 1e0b 01       		.byte	0x1
 7149 1e0c 8603     		.2byte	0x386
 7150 1e0e 351E0000 		.4byte	0x1e35
 7151 1e12 2D       		.uleb128 0x2d
 7152 1e13 20030000 		.4byte	.Ldebug_ranges0+0x320
 7153 1e17 2E       		.uleb128 0x2e
 7154 1e18 4C0F0000 		.4byte	0xf4c
 7155 1e1c 05       		.uleb128 0x5
 7156 1e1d 03       		.byte	0x3
 7157 1e1e 800E0000 		.4byte	rel.6048
 7158 1e22 31       		.uleb128 0x31
 7159 1e23 A0090000 		.4byte	.LVL81
 7160 1e27 C5220000 		.4byte	0x22c5
 7161 1e2b 30       		.uleb128 0x30
 7162 1e2c 01       		.uleb128 0x1
 7163 1e2d 50       		.byte	0x50
 7164 1e2e 03       		.uleb128 0x3
 7165 1e2f 7D       		.byte	0x7d
 7166 1e30 00       		.sleb128 0
 7167 1e31 06       		.byte	0x6
 7168 1e32 00       		.byte	0
 7169 1e33 00       		.byte	0
 7170 1e34 00       		.byte	0
 7171 1e35 2C       		.uleb128 0x2c
 7172 1e36 1A0F0000 		.4byte	0xf1a
 7173 1e3a BE090000 		.4byte	.LBB333
 7174 1e3e 60030000 		.4byte	.Ldebug_ranges0+0x360
ARM GAS  C:\Users\pearlstl\AppData\Local\Temp\cc5dErme.s 			page 162


 7175 1e42 01       		.byte	0x1
 7176 1e43 8703     		.2byte	0x387
 7177 1e45 BF1E0000 		.4byte	0x1ebf
 7178 1e49 2D       		.uleb128 0x2d
 7179 1e4a 60030000 		.4byte	.Ldebug_ranges0+0x360
 7180 1e4e 2E       		.uleb128 0x2e
 7181 1e4f 270F0000 		.4byte	0xf27
 7182 1e53 05       		.uleb128 0x5
 7183 1e54 03       		.byte	0x3
 7184 1e55 200F0000 		.4byte	pr.6052
 7185 1e59 2E       		.uleb128 0x2e
 7186 1e5a 320F0000 		.4byte	0xf32
 7187 1e5e 05       		.uleb128 0x5
 7188 1e5f 03       		.byte	0x3
 7189 1e60 D00E0000 		.4byte	rel.6053
 7190 1e64 2F       		.uleb128 0x2f
 7191 1e65 E0090000 		.4byte	.LVL82
 7192 1e69 C5220000 		.4byte	0x22c5
 7193 1e6d 791E0000 		.4byte	0x1e79
 7194 1e71 30       		.uleb128 0x30
 7195 1e72 01       		.uleb128 0x1
 7196 1e73 50       		.byte	0x50
 7197 1e74 03       		.uleb128 0x3
 7198 1e75 74       		.byte	0x74
 7199 1e76 D01D     		.sleb128 3792
 7200 1e78 00       		.byte	0
 7201 1e79 2F       		.uleb128 0x2f
 7202 1e7a 000A0000 		.4byte	.LVL83
 7203 1e7e D0220000 		.4byte	0x22d0
 7204 1e82 931E0000 		.4byte	0x1e93
 7205 1e86 30       		.uleb128 0x30
 7206 1e87 01       		.uleb128 0x1
 7207 1e88 51       		.byte	0x51
 7208 1e89 02       		.uleb128 0x2
 7209 1e8a 7A       		.byte	0x7a
 7210 1e8b 00       		.sleb128 0
 7211 1e8c 30       		.uleb128 0x30
 7212 1e8d 01       		.uleb128 0x1
 7213 1e8e 52       		.byte	0x52
 7214 1e8f 02       		.uleb128 0x2
 7215 1e90 08       		.byte	0x8
 7216 1e91 4B       		.byte	0x4b
 7217 1e92 00       		.byte	0
 7218 1e93 2F       		.uleb128 0x2f
 7219 1e94 120A0000 		.4byte	.LVL84
 7220 1e98 C5220000 		.4byte	0x22c5
 7221 1e9c A71E0000 		.4byte	0x1ea7
 7222 1ea0 30       		.uleb128 0x30
 7223 1ea1 01       		.uleb128 0x1
 7224 1ea2 50       		.byte	0x50
 7225 1ea3 02       		.uleb128 0x2
 7226 1ea4 77       		.byte	0x77
 7227 1ea5 00       		.sleb128 0
 7228 1ea6 00       		.byte	0
 7229 1ea7 31       		.uleb128 0x31
 7230 1ea8 1E0A0000 		.4byte	.LVL85
 7231 1eac D0220000 		.4byte	0x22d0
ARM GAS  C:\Users\pearlstl\AppData\Local\Temp\cc5dErme.s 			page 163


 7232 1eb0 30       		.uleb128 0x30
 7233 1eb1 01       		.uleb128 0x1
 7234 1eb2 51       		.byte	0x51
 7235 1eb3 02       		.uleb128 0x2
 7236 1eb4 7A       		.byte	0x7a
 7237 1eb5 00       		.sleb128 0
 7238 1eb6 30       		.uleb128 0x30
 7239 1eb7 01       		.uleb128 0x1
 7240 1eb8 52       		.byte	0x52
 7241 1eb9 02       		.uleb128 0x2
 7242 1eba 08       		.byte	0x8
 7243 1ebb 3C       		.byte	0x3c
 7244 1ebc 00       		.byte	0
 7245 1ebd 00       		.byte	0
 7246 1ebe 00       		.byte	0
 7247 1ebf 2C       		.uleb128 0x2c
 7248 1ec0 000F0000 		.4byte	0xf00
 7249 1ec4 220A0000 		.4byte	.LBB345
 7250 1ec8 A0030000 		.4byte	.Ldebug_ranges0+0x3a0
 7251 1ecc 01       		.byte	0x1
 7252 1ecd 8903     		.2byte	0x389
 7253 1ecf FB1E0000 		.4byte	0x1efb
 7254 1ed3 2D       		.uleb128 0x2d
 7255 1ed4 A0030000 		.4byte	.Ldebug_ranges0+0x3a0
 7256 1ed8 2E       		.uleb128 0x2e
 7257 1ed9 0D0F0000 		.4byte	0xf0d
 7258 1edd 05       		.uleb128 0x5
 7259 1ede 03       		.byte	0x3
 7260 1edf 700F0000 		.4byte	oneline.6060
 7261 1ee3 31       		.uleb128 0x31
 7262 1ee4 560A0000 		.4byte	.LVL86
 7263 1ee8 C5220000 		.4byte	0x22c5
 7264 1eec 30       		.uleb128 0x30
 7265 1eed 01       		.uleb128 0x1
 7266 1eee 50       		.byte	0x50
 7267 1eef 02       		.uleb128 0x2
 7268 1ef0 79       		.byte	0x79
 7269 1ef1 00       		.sleb128 0
 7270 1ef2 30       		.uleb128 0x30
 7271 1ef3 01       		.uleb128 0x1
 7272 1ef4 51       		.byte	0x51
 7273 1ef5 02       		.uleb128 0x2
 7274 1ef6 76       		.byte	0x76
 7275 1ef7 00       		.sleb128 0
 7276 1ef8 00       		.byte	0
 7277 1ef9 00       		.byte	0
 7278 1efa 00       		.byte	0
 7279 1efb 33       		.uleb128 0x33
 7280 1efc A10D0000 		.4byte	0xda1
 7281 1f00 3A0A0000 		.4byte	.LBB356
 7282 1f04 E0030000 		.4byte	.Ldebug_ranges0+0x3e0
 7283 1f08 01       		.byte	0x1
 7284 1f09 8803     		.2byte	0x388
 7285 1f0b 33       		.uleb128 0x33
 7286 1f0c 980D0000 		.4byte	0xd98
 7287 1f10 960A0000 		.4byte	.LBB369
 7288 1f14 00040000 		.4byte	.Ldebug_ranges0+0x400
ARM GAS  C:\Users\pearlstl\AppData\Local\Temp\cc5dErme.s 			page 164


 7289 1f18 01       		.byte	0x1
 7290 1f19 8A03     		.2byte	0x38a
 7291 1f1b 2C       		.uleb128 0x2c
 7292 1f1c 860E0000 		.4byte	0xe86
 7293 1f20 CA0B0000 		.4byte	.LBB378
 7294 1f24 20040000 		.4byte	.Ldebug_ranges0+0x420
 7295 1f28 01       		.byte	0x1
 7296 1f29 8C03     		.2byte	0x38c
 7297 1f2b A91F0000 		.4byte	0x1fa9
 7298 1f2f 2D       		.uleb128 0x2d
 7299 1f30 20040000 		.4byte	.Ldebug_ranges0+0x420
 7300 1f34 2E       		.uleb128 0x2e
 7301 1f35 930E0000 		.4byte	0xe93
 7302 1f39 05       		.uleb128 0x5
 7303 1f3a 03       		.byte	0x3
 7304 1f3b A0110000 		.4byte	bg.6076
 7305 1f3f 2E       		.uleb128 0x2e
 7306 1f40 9E0E0000 		.4byte	0xe9e
 7307 1f44 05       		.uleb128 0x5
 7308 1f45 03       		.byte	0x3
 7309 1f46 F0110000 		.4byte	sel.6077
 7310 1f4a 2F       		.uleb128 0x2f
 7311 1f4b 2E0C0000 		.4byte	.LVL96
 7312 1f4f C5220000 		.4byte	0x22c5
 7313 1f53 5E1F0000 		.4byte	0x1f5e
 7314 1f57 30       		.uleb128 0x30
 7315 1f58 01       		.uleb128 0x1
 7316 1f59 50       		.byte	0x50
 7317 1f5a 02       		.uleb128 0x2
 7318 1f5b 79       		.byte	0x79
 7319 1f5c 00       		.sleb128 0
 7320 1f5d 00       		.byte	0
 7321 1f5e 2F       		.uleb128 0x2f
 7322 1f5f 520C0000 		.4byte	.LVL97
 7323 1f63 C5220000 		.4byte	0x22c5
 7324 1f67 781F0000 		.4byte	0x1f78
 7325 1f6b 30       		.uleb128 0x30
 7326 1f6c 01       		.uleb128 0x1
 7327 1f6d 50       		.byte	0x50
 7328 1f6e 02       		.uleb128 0x2
 7329 1f6f 7A       		.byte	0x7a
 7330 1f70 00       		.sleb128 0
 7331 1f71 30       		.uleb128 0x30
 7332 1f72 01       		.uleb128 0x1
 7333 1f73 51       		.byte	0x51
 7334 1f74 02       		.uleb128 0x2
 7335 1f75 79       		.byte	0x79
 7336 1f76 00       		.sleb128 0
 7337 1f77 00       		.byte	0
 7338 1f78 2F       		.uleb128 0x2f
 7339 1f79 5E0C0000 		.4byte	.LVL98
 7340 1f7d D0220000 		.4byte	0x22d0
 7341 1f81 921F0000 		.4byte	0x1f92
 7342 1f85 30       		.uleb128 0x30
 7343 1f86 01       		.uleb128 0x1
 7344 1f87 51       		.byte	0x51
 7345 1f88 02       		.uleb128 0x2
ARM GAS  C:\Users\pearlstl\AppData\Local\Temp\cc5dErme.s 			page 165


 7346 1f89 08       		.byte	0x8
 7347 1f8a 5A       		.byte	0x5a
 7348 1f8b 30       		.uleb128 0x30
 7349 1f8c 01       		.uleb128 0x1
 7350 1f8d 52       		.byte	0x52
 7351 1f8e 02       		.uleb128 0x2
 7352 1f8f 08       		.byte	0x8
 7353 1f90 46       		.byte	0x46
 7354 1f91 00       		.byte	0
 7355 1f92 31       		.uleb128 0x31
 7356 1f93 7A0C0000 		.4byte	.LVL99
 7357 1f97 D0220000 		.4byte	0x22d0
 7358 1f9b 30       		.uleb128 0x30
 7359 1f9c 01       		.uleb128 0x1
 7360 1f9d 51       		.byte	0x51
 7361 1f9e 01       		.uleb128 0x1
 7362 1f9f 35       		.byte	0x35
 7363 1fa0 30       		.uleb128 0x30
 7364 1fa1 01       		.uleb128 0x1
 7365 1fa2 52       		.byte	0x52
 7366 1fa3 02       		.uleb128 0x2
 7367 1fa4 08       		.byte	0x8
 7368 1fa5 5F       		.byte	0x5f
 7369 1fa6 00       		.byte	0
 7370 1fa7 00       		.byte	0
 7371 1fa8 00       		.byte	0
 7372 1fa9 2C       		.uleb128 0x2c
 7373 1faa 600E0000 		.4byte	0xe60
 7374 1fae 7A0C0000 		.4byte	.LBB395
 7375 1fb2 68040000 		.4byte	.Ldebug_ranges0+0x468
 7376 1fb6 01       		.byte	0x1
 7377 1fb7 8D03     		.2byte	0x38d
 7378 1fb9 1E200000 		.4byte	0x201e
 7379 1fbd 2D       		.uleb128 0x2d
 7380 1fbe 68040000 		.4byte	.Ldebug_ranges0+0x468
 7381 1fc2 2E       		.uleb128 0x2e
 7382 1fc3 6D0E0000 		.4byte	0xe6d
 7383 1fc7 05       		.uleb128 0x5
 7384 1fc8 03       		.byte	0x3
 7385 1fc9 40120000 		.4byte	roller_bg.6081
 7386 1fcd 2E       		.uleb128 0x2e
 7387 1fce 790E0000 		.4byte	0xe79
 7388 1fd2 05       		.uleb128 0x5
 7389 1fd3 03       		.byte	0x3
 7390 1fd4 90120000 		.4byte	roller_sel.6082
 7391 1fd8 2F       		.uleb128 0x2f
 7392 1fd9 9A0C0000 		.4byte	.LVL100
 7393 1fdd C5220000 		.4byte	0x22c5
 7394 1fe1 EC1F0000 		.4byte	0x1fec
 7395 1fe5 30       		.uleb128 0x30
 7396 1fe6 01       		.uleb128 0x1
 7397 1fe7 50       		.byte	0x50
 7398 1fe8 02       		.uleb128 0x2
 7399 1fe9 77       		.byte	0x77
 7400 1fea 00       		.sleb128 0
 7401 1feb 00       		.byte	0
 7402 1fec 2F       		.uleb128 0x2f
ARM GAS  C:\Users\pearlstl\AppData\Local\Temp\cc5dErme.s 			page 166


 7403 1fed DA0C0000 		.4byte	.LVL101
 7404 1ff1 C5220000 		.4byte	0x22c5
 7405 1ff5 06200000 		.4byte	0x2006
 7406 1ff9 30       		.uleb128 0x30
 7407 1ffa 01       		.uleb128 0x1
 7408 1ffb 50       		.byte	0x50
 7409 1ffc 02       		.uleb128 0x2
 7410 1ffd 79       		.byte	0x79
 7411 1ffe 00       		.sleb128 0
 7412 1fff 30       		.uleb128 0x30
 7413 2000 01       		.uleb128 0x1
 7414 2001 51       		.byte	0x51
 7415 2002 02       		.uleb128 0x2
 7416 2003 77       		.byte	0x77
 7417 2004 00       		.sleb128 0
 7418 2005 00       		.byte	0
 7419 2006 31       		.uleb128 0x31
 7420 2007 E60C0000 		.4byte	.LVL102
 7421 200b D0220000 		.4byte	0x22d0
 7422 200f 30       		.uleb128 0x30
 7423 2010 01       		.uleb128 0x1
 7424 2011 51       		.byte	0x51
 7425 2012 02       		.uleb128 0x2
 7426 2013 08       		.byte	0x8
 7427 2014 5A       		.byte	0x5a
 7428 2015 30       		.uleb128 0x30
 7429 2016 01       		.uleb128 0x1
 7430 2017 52       		.byte	0x52
 7431 2018 02       		.uleb128 0x2
 7432 2019 08       		.byte	0x8
 7433 201a 46       		.byte	0x46
 7434 201b 00       		.byte	0
 7435 201c 00       		.byte	0
 7436 201d 00       		.byte	0
 7437 201e 2C       		.uleb128 0x2c
 7438 201f 0B0E0000 		.4byte	0xe0b
 7439 2023 E60C0000 		.4byte	.LBB408
 7440 2027 A0040000 		.4byte	.Ldebug_ranges0+0x4a0
 7441 202b 01       		.byte	0x1
 7442 202c 8E03     		.2byte	0x38e
 7443 202e 73210000 		.4byte	0x2173
 7444 2032 2D       		.uleb128 0x2d
 7445 2033 A0040000 		.4byte	.Ldebug_ranges0+0x4a0
 7446 2037 2E       		.uleb128 0x2e
 7447 2038 180E0000 		.4byte	0xe18
 7448 203c 05       		.uleb128 0x5
 7449 203d 03       		.byte	0x3
 7450 203e E0120000 		.4byte	indic.6086
 7451 2042 2E       		.uleb128 0x2e
 7452 2043 240E0000 		.4byte	0xe24
 7453 2047 05       		.uleb128 0x5
 7454 2048 03       		.byte	0x3
 7455 2049 30130000 		.4byte	btn_bg.6087
 7456 204d 2E       		.uleb128 0x2e
 7457 204e 300E0000 		.4byte	0xe30
 7458 2052 05       		.uleb128 0x5
 7459 2053 03       		.byte	0x3
ARM GAS  C:\Users\pearlstl\AppData\Local\Temp\cc5dErme.s 			page 167


 7460 2054 80130000 		.4byte	rel.6088
 7461 2058 2E       		.uleb128 0x2e
 7462 2059 3C0E0000 		.4byte	0xe3c
 7463 205d 05       		.uleb128 0x5
 7464 205e 03       		.byte	0x3
 7465 205f D0130000 		.4byte	pr.6089
 7466 2063 2E       		.uleb128 0x2e
 7467 2064 470E0000 		.4byte	0xe47
 7468 2068 05       		.uleb128 0x5
 7469 2069 03       		.byte	0x3
 7470 206a 20140000 		.4byte	tgl_rel.6090
 7471 206e 2E       		.uleb128 0x2e
 7472 206f 530E0000 		.4byte	0xe53
 7473 2073 05       		.uleb128 0x5
 7474 2074 03       		.byte	0x3
 7475 2075 70140000 		.4byte	tgl_pr.6091
 7476 2079 2F       		.uleb128 0x2f
 7477 207a FC0C0000 		.4byte	.LVL103
 7478 207e C5220000 		.4byte	0x22c5
 7479 2082 94200000 		.4byte	0x2094
 7480 2086 30       		.uleb128 0x30
 7481 2087 01       		.uleb128 0x1
 7482 2088 50       		.byte	0x50
 7483 2089 03       		.uleb128 0x3
 7484 208a 75       		.byte	0x75
 7485 208b E803     		.sleb128 488
 7486 208d 30       		.uleb128 0x30
 7487 208e 01       		.uleb128 0x1
 7488 208f 51       		.byte	0x51
 7489 2090 02       		.uleb128 0x2
 7490 2091 76       		.byte	0x76
 7491 2092 00       		.sleb128 0
 7492 2093 00       		.byte	0
 7493 2094 2F       		.uleb128 0x2f
 7494 2095 080D0000 		.4byte	.LVL104
 7495 2099 D0220000 		.4byte	0x22d0
 7496 209d AE200000 		.4byte	0x20ae
 7497 20a1 30       		.uleb128 0x30
 7498 20a2 01       		.uleb128 0x1
 7499 20a3 51       		.byte	0x51
 7500 20a4 02       		.uleb128 0x2
 7501 20a5 08       		.byte	0x8
 7502 20a6 5A       		.byte	0x5a
 7503 20a7 30       		.uleb128 0x30
 7504 20a8 01       		.uleb128 0x1
 7505 20a9 52       		.byte	0x52
 7506 20aa 02       		.uleb128 0x2
 7507 20ab 08       		.byte	0x8
 7508 20ac 46       		.byte	0x46
 7509 20ad 00       		.byte	0
 7510 20ae 2F       		.uleb128 0x2f
 7511 20af 2E0D0000 		.4byte	.LVL105
 7512 20b3 C5220000 		.4byte	0x22c5
 7513 20b7 C9200000 		.4byte	0x20c9
 7514 20bb 30       		.uleb128 0x30
 7515 20bc 01       		.uleb128 0x1
 7516 20bd 50       		.byte	0x50
ARM GAS  C:\Users\pearlstl\AppData\Local\Temp\cc5dErme.s 			page 168


 7517 20be 03       		.uleb128 0x3
 7518 20bf 91       		.byte	0x91
 7519 20c0 54       		.sleb128 -44
 7520 20c1 06       		.byte	0x6
 7521 20c2 30       		.uleb128 0x30
 7522 20c3 01       		.uleb128 0x1
 7523 20c4 51       		.byte	0x51
 7524 20c5 02       		.uleb128 0x2
 7525 20c6 76       		.byte	0x76
 7526 20c7 00       		.sleb128 0
 7527 20c8 00       		.byte	0
 7528 20c9 2F       		.uleb128 0x2f
 7529 20ca C40D0000 		.4byte	.LVL106
 7530 20ce C5220000 		.4byte	0x22c5
 7531 20d2 DE200000 		.4byte	0x20de
 7532 20d6 30       		.uleb128 0x30
 7533 20d7 01       		.uleb128 0x1
 7534 20d8 50       		.byte	0x50
 7535 20d9 03       		.uleb128 0x3
 7536 20da 75       		.byte	0x75
 7537 20db 8805     		.sleb128 648
 7538 20dd 00       		.byte	0
 7539 20de 2F       		.uleb128 0x2f
 7540 20df E20D0000 		.4byte	.LVL107
 7541 20e3 C5220000 		.4byte	0x22c5
 7542 20e7 F9200000 		.4byte	0x20f9
 7543 20eb 30       		.uleb128 0x30
 7544 20ec 01       		.uleb128 0x1
 7545 20ed 50       		.byte	0x50
 7546 20ee 03       		.uleb128 0x3
 7547 20ef 75       		.byte	0x75
 7548 20f0 D805     		.sleb128 728
 7549 20f2 30       		.uleb128 0x30
 7550 20f3 01       		.uleb128 0x1
 7551 20f4 51       		.byte	0x51
 7552 20f5 02       		.uleb128 0x2
 7553 20f6 76       		.byte	0x76
 7554 20f7 00       		.sleb128 0
 7555 20f8 00       		.byte	0
 7556 20f9 2F       		.uleb128 0x2f
 7557 20fa 440E0000 		.4byte	.LVL108
 7558 20fe C5220000 		.4byte	0x22c5
 7559 2102 0D210000 		.4byte	0x210d
 7560 2106 30       		.uleb128 0x30
 7561 2107 01       		.uleb128 0x1
 7562 2108 50       		.byte	0x50
 7563 2109 02       		.uleb128 0x2
 7564 210a 77       		.byte	0x77
 7565 210b 00       		.sleb128 0
 7566 210c 00       		.byte	0
 7567 210d 2F       		.uleb128 0x2f
 7568 210e 640E0000 		.4byte	.LVL109
 7569 2112 D0220000 		.4byte	0x22d0
 7570 2116 27210000 		.4byte	0x2127
 7571 211a 30       		.uleb128 0x30
 7572 211b 01       		.uleb128 0x1
 7573 211c 51       		.byte	0x51
ARM GAS  C:\Users\pearlstl\AppData\Local\Temp\cc5dErme.s 			page 169


 7574 211d 02       		.uleb128 0x2
 7575 211e 08       		.byte	0x8
 7576 211f 5A       		.byte	0x5a
 7577 2120 30       		.uleb128 0x30
 7578 2121 01       		.uleb128 0x1
 7579 2122 52       		.byte	0x52
 7580 2123 02       		.uleb128 0x2
 7581 2124 08       		.byte	0x8
 7582 2125 46       		.byte	0x46
 7583 2126 00       		.byte	0
 7584 2127 2F       		.uleb128 0x2f
 7585 2128 760E0000 		.4byte	.LVL110
 7586 212c C5220000 		.4byte	0x22c5
 7587 2130 42210000 		.4byte	0x2142
 7588 2134 30       		.uleb128 0x30
 7589 2135 01       		.uleb128 0x1
 7590 2136 50       		.byte	0x50
 7591 2137 02       		.uleb128 0x2
 7592 2138 7A       		.byte	0x7a
 7593 2139 00       		.sleb128 0
 7594 213a 30       		.uleb128 0x30
 7595 213b 01       		.uleb128 0x1
 7596 213c 51       		.byte	0x51
 7597 213d 03       		.uleb128 0x3
 7598 213e 74       		.byte	0x74
 7599 213f B003     		.sleb128 432
 7600 2141 00       		.byte	0
 7601 2142 2F       		.uleb128 0x2f
 7602 2143 820E0000 		.4byte	.LVL111
 7603 2147 D0220000 		.4byte	0x22d0
 7604 214b 5B210000 		.4byte	0x215b
 7605 214f 30       		.uleb128 0x30
 7606 2150 01       		.uleb128 0x1
 7607 2151 51       		.byte	0x51
 7608 2152 01       		.uleb128 0x1
 7609 2153 3F       		.byte	0x3f
 7610 2154 30       		.uleb128 0x30
 7611 2155 01       		.uleb128 0x1
 7612 2156 52       		.byte	0x52
 7613 2157 02       		.uleb128 0x2
 7614 2158 08       		.byte	0x8
 7615 2159 55       		.byte	0x55
 7616 215a 00       		.byte	0
 7617 215b 31       		.uleb128 0x31
 7618 215c A20E0000 		.4byte	.LVL112
 7619 2160 D0220000 		.4byte	0x22d0
 7620 2164 30       		.uleb128 0x30
 7621 2165 01       		.uleb128 0x1
 7622 2166 51       		.byte	0x51
 7623 2167 02       		.uleb128 0x2
 7624 2168 08       		.byte	0x8
 7625 2169 5A       		.byte	0x5a
 7626 216a 30       		.uleb128 0x30
 7627 216b 01       		.uleb128 0x1
 7628 216c 52       		.byte	0x52
 7629 216d 02       		.uleb128 0x2
 7630 216e 08       		.byte	0x8
ARM GAS  C:\Users\pearlstl\AppData\Local\Temp\cc5dErme.s 			page 170


 7631 216f 3C       		.byte	0x3c
 7632 2170 00       		.byte	0
 7633 2171 00       		.byte	0
 7634 2172 00       		.byte	0
 7635 2173 2C       		.uleb128 0x2c
 7636 2174 F10D0000 		.4byte	0xdf1
 7637 2178 A60E0000 		.4byte	.LBB421
 7638 217c E8040000 		.4byte	.Ldebug_ranges0+0x4e8
 7639 2180 01       		.byte	0x1
 7640 2181 9003     		.2byte	0x390
 7641 2183 AA210000 		.4byte	0x21aa
 7642 2187 2D       		.uleb128 0x2d
 7643 2188 E8040000 		.4byte	.Ldebug_ranges0+0x4e8
 7644 218c 2E       		.uleb128 0x2e
 7645 218d FE0D0000 		.4byte	0xdfe
 7646 2191 05       		.uleb128 0x5
 7647 2192 03       		.byte	0x3
 7648 2193 C0140000 		.4byte	cell.6098
 7649 2197 31       		.uleb128 0x31
 7650 2198 F20E0000 		.4byte	.LVL113
 7651 219c C5220000 		.4byte	0x22c5
 7652 21a0 30       		.uleb128 0x30
 7653 21a1 01       		.uleb128 0x1
 7654 21a2 50       		.byte	0x50
 7655 21a3 03       		.uleb128 0x3
 7656 21a4 7D       		.byte	0x7d
 7657 21a5 00       		.sleb128 0
 7658 21a6 06       		.byte	0x6
 7659 21a7 00       		.byte	0
 7660 21a8 00       		.byte	0
 7661 21a9 00       		.byte	0
 7662 21aa 33       		.uleb128 0x33
 7663 21ab 8F0D0000 		.4byte	0xd8f
 7664 21af C40E0000 		.4byte	.LBB430
 7665 21b3 28050000 		.4byte	.Ldebug_ranges0+0x528
 7666 21b7 01       		.byte	0x1
 7667 21b8 8F03     		.2byte	0x38f
 7668 21ba 34       		.uleb128 0x34
 7669 21bb CC0D0000 		.4byte	0xdcc
 7670 21bf F80E0000 		.4byte	.LBB444
 7671 21c3 48050000 		.4byte	.Ldebug_ranges0+0x548
 7672 21c7 01       		.byte	0x1
 7673 21c8 9103     		.2byte	0x391
 7674 21ca 2D       		.uleb128 0x2d
 7675 21cb 48050000 		.4byte	.Ldebug_ranges0+0x548
 7676 21cf 2E       		.uleb128 0x2e
 7677 21d0 D90D0000 		.4byte	0xdd9
 7678 21d4 05       		.uleb128 0x5
 7679 21d5 03       		.byte	0x3
 7680 21d6 10150000 		.4byte	header.6102
 7681 21da 2E       		.uleb128 0x2e
 7682 21db E50D0000 		.4byte	0xde5
 7683 21df 05       		.uleb128 0x5
 7684 21e0 03       		.byte	0x3
 7685 21e1 60150000 		.4byte	pr.6103
 7686 21e5 2F       		.uleb128 0x2f
 7687 21e6 2C0F0000 		.4byte	.LVL114
ARM GAS  C:\Users\pearlstl\AppData\Local\Temp\cc5dErme.s 			page 171


 7688 21ea C5220000 		.4byte	0x22c5
 7689 21ee 00220000 		.4byte	0x2200
 7690 21f2 30       		.uleb128 0x30
 7691 21f3 01       		.uleb128 0x1
 7692 21f4 50       		.byte	0x50
 7693 21f5 02       		.uleb128 0x2
 7694 21f6 79       		.byte	0x79
 7695 21f7 00       		.sleb128 0
 7696 21f8 30       		.uleb128 0x30
 7697 21f9 01       		.uleb128 0x1
 7698 21fa 51       		.byte	0x51
 7699 21fb 03       		.uleb128 0x3
 7700 21fc 74       		.byte	0x74
 7701 21fd B003     		.sleb128 432
 7702 21ff 00       		.byte	0
 7703 2200 31       		.uleb128 0x31
 7704 2201 B60F0000 		.4byte	.LVL115
 7705 2205 C5220000 		.4byte	0x22c5
 7706 2209 30       		.uleb128 0x30
 7707 220a 01       		.uleb128 0x1
 7708 220b 50       		.byte	0x50
 7709 220c 02       		.uleb128 0x2
 7710 220d 77       		.byte	0x77
 7711 220e 00       		.sleb128 0
 7712 220f 30       		.uleb128 0x30
 7713 2210 01       		.uleb128 0x1
 7714 2211 51       		.byte	0x51
 7715 2212 03       		.uleb128 0x3
 7716 2213 74       		.byte	0x74
 7717 2214 B003     		.sleb128 432
 7718 2216 00       		.byte	0
 7719 2217 00       		.byte	0
 7720 2218 00       		.byte	0
 7721 2219 00       		.byte	0
 7722 221a 0D       		.uleb128 0xd
 7723 221b 04       		.byte	0x4
 7724 221c 1B0D0000 		.4byte	0xd1b
 7725 2220 0D       		.uleb128 0xd
 7726 2221 04       		.byte	0x4
 7727 2222 02020000 		.4byte	0x202
 7728 2226 0D       		.uleb128 0xd
 7729 2227 04       		.byte	0x4
 7730 2228 76050000 		.4byte	0x576
 7731 222c 35       		.uleb128 0x35
 7732 222d FD060000 		.4byte	.LASF201
 7733 2231 01       		.byte	0x1
 7734 2232 9F03     		.2byte	0x39f
 7735 2234 1A220000 		.4byte	0x221a
 7736 2238 00000000 		.4byte	.LFB62
 7737 223c 08000000 		.4byte	.LFE62-.LFB62
 7738 2240 01       		.uleb128 0x1
 7739 2241 9C       		.byte	0x9c
 7740 2242 36       		.uleb128 0x36
 7741 2243 9B040000 		.4byte	.LASF187
 7742 2247 01       		.byte	0x1
 7743 2248 1E       		.byte	0x1e
 7744 2249 1B0D0000 		.4byte	0xd1b
ARM GAS  C:\Users\pearlstl\AppData\Local\Temp\cc5dErme.s 			page 172


 7745 224d 05       		.uleb128 0x5
 7746 224e 03       		.byte	0x3
 7747 224f 00000000 		.4byte	theme
 7748 2253 37       		.uleb128 0x37
 7749 2254 64656600 		.ascii	"def\000"
 7750 2258 01       		.byte	0x1
 7751 2259 1F       		.byte	0x1f
 7752 225a 6B050000 		.4byte	0x56b
 7753 225e 05       		.uleb128 0x5
 7754 225f 03       		.byte	0x3
 7755 2260 B0010000 		.4byte	def
 7756 2264 37       		.uleb128 0x37
 7757 2265 736200   		.ascii	"sb\000"
 7758 2268 01       		.byte	0x1
 7759 2269 22       		.byte	0x22
 7760 226a 6B050000 		.4byte	0x56b
 7761 226e 05       		.uleb128 0x5
 7762 226f 03       		.byte	0x3
 7763 2270 F0020000 		.4byte	sb
 7764 2274 36       		.uleb128 0x36
 7765 2275 E1040000 		.4byte	.LASF188
 7766 2279 01       		.byte	0x1
 7767 227a 25       		.byte	0x25
 7768 227b C3000000 		.4byte	0xc3
 7769 227f 05       		.uleb128 0x5
 7770 2280 03       		.byte	0x3
 7771 2281 A8010000 		.4byte	_hue
 7772 2285 36       		.uleb128 0x36
 7773 2286 2A050000 		.4byte	.LASF189
 7774 228a 01       		.byte	0x1
 7775 228b 26       		.byte	0x26
 7776 228c 20220000 		.4byte	0x2220
 7777 2290 05       		.uleb128 0x5
 7778 2291 03       		.byte	0x3
 7779 2292 AC010000 		.4byte	_font
 7780 2296 38       		.uleb128 0x38
 7781 2297 D5010000 		.4byte	.LASF190
 7782 229b 05       		.byte	0x5
 7783 229c 8C       		.byte	0x8c
 7784 229d 02020000 		.4byte	0x202
 7785 22a1 39       		.uleb128 0x39
 7786 22a2 B8080000 		.4byte	.LASF191
 7787 22a6 07       		.byte	0x7
 7788 22a7 0C01     		.2byte	0x10c
 7789 22a9 6B050000 		.4byte	0x56b
 7790 22ad 39       		.uleb128 0x39
 7791 22ae 35050000 		.4byte	.LASF192
 7792 22b2 07       		.byte	0x7
 7793 22b3 0E01     		.2byte	0x10e
 7794 22b5 6B050000 		.4byte	0x56b
 7795 22b9 39       		.uleb128 0x39
 7796 22ba 2D010000 		.4byte	.LASF193
 7797 22be 07       		.byte	0x7
 7798 22bf 0F01     		.2byte	0x10f
 7799 22c1 6B050000 		.4byte	0x56b
 7800 22c5 3A       		.uleb128 0x3a
 7801 22c6 10030000 		.4byte	.LASF194
ARM GAS  C:\Users\pearlstl\AppData\Local\Temp\cc5dErme.s 			page 173


 7802 22ca 10030000 		.4byte	.LASF194
 7803 22ce 07       		.byte	0x7
 7804 22cf A0       		.byte	0xa0
 7805 22d0 3B       		.uleb128 0x3b
 7806 22d1 87040000 		.4byte	.LASF195
 7807 22d5 87040000 		.4byte	.LASF195
 7808 22d9 06       		.byte	0x6
 7809 22da F401     		.2byte	0x1f4
 7810 22dc 00       		.byte	0
 7811              		.section	.debug_abbrev,"",%progbits
 7812              	.Ldebug_abbrev0:
 7813 0000 01       		.uleb128 0x1
 7814 0001 11       		.uleb128 0x11
 7815 0002 01       		.byte	0x1
 7816 0003 25       		.uleb128 0x25
 7817 0004 0E       		.uleb128 0xe
 7818 0005 13       		.uleb128 0x13
 7819 0006 0B       		.uleb128 0xb
 7820 0007 03       		.uleb128 0x3
 7821 0008 0E       		.uleb128 0xe
 7822 0009 1B       		.uleb128 0x1b
 7823 000a 0E       		.uleb128 0xe
 7824 000b 55       		.uleb128 0x55
 7825 000c 17       		.uleb128 0x17
 7826 000d 11       		.uleb128 0x11
 7827 000e 01       		.uleb128 0x1
 7828 000f 10       		.uleb128 0x10
 7829 0010 17       		.uleb128 0x17
 7830 0011 00       		.byte	0
 7831 0012 00       		.byte	0
 7832 0013 02       		.uleb128 0x2
 7833 0014 16       		.uleb128 0x16
 7834 0015 00       		.byte	0
 7835 0016 03       		.uleb128 0x3
 7836 0017 0E       		.uleb128 0xe
 7837 0018 3A       		.uleb128 0x3a
 7838 0019 0B       		.uleb128 0xb
 7839 001a 3B       		.uleb128 0x3b
 7840 001b 0B       		.uleb128 0xb
 7841 001c 49       		.uleb128 0x49
 7842 001d 13       		.uleb128 0x13
 7843 001e 00       		.byte	0
 7844 001f 00       		.byte	0
 7845 0020 03       		.uleb128 0x3
 7846 0021 24       		.uleb128 0x24
 7847 0022 00       		.byte	0
 7848 0023 0B       		.uleb128 0xb
 7849 0024 0B       		.uleb128 0xb
 7850 0025 3E       		.uleb128 0x3e
 7851 0026 0B       		.uleb128 0xb
 7852 0027 03       		.uleb128 0x3
 7853 0028 0E       		.uleb128 0xe
 7854 0029 00       		.byte	0
 7855 002a 00       		.byte	0
 7856 002b 04       		.uleb128 0x4
 7857 002c 24       		.uleb128 0x24
 7858 002d 00       		.byte	0
ARM GAS  C:\Users\pearlstl\AppData\Local\Temp\cc5dErme.s 			page 174


 7859 002e 0B       		.uleb128 0xb
 7860 002f 0B       		.uleb128 0xb
 7861 0030 3E       		.uleb128 0x3e
 7862 0031 0B       		.uleb128 0xb
 7863 0032 03       		.uleb128 0x3
 7864 0033 08       		.uleb128 0x8
 7865 0034 00       		.byte	0
 7866 0035 00       		.byte	0
 7867 0036 05       		.uleb128 0x5
 7868 0037 0F       		.uleb128 0xf
 7869 0038 00       		.byte	0
 7870 0039 0B       		.uleb128 0xb
 7871 003a 0B       		.uleb128 0xb
 7872 003b 00       		.byte	0
 7873 003c 00       		.byte	0
 7874 003d 06       		.uleb128 0x6
 7875 003e 13       		.uleb128 0x13
 7876 003f 01       		.byte	0x1
 7877 0040 0B       		.uleb128 0xb
 7878 0041 0B       		.uleb128 0xb
 7879 0042 3A       		.uleb128 0x3a
 7880 0043 0B       		.uleb128 0xb
 7881 0044 3B       		.uleb128 0x3b
 7882 0045 0B       		.uleb128 0xb
 7883 0046 01       		.uleb128 0x1
 7884 0047 13       		.uleb128 0x13
 7885 0048 00       		.byte	0
 7886 0049 00       		.byte	0
 7887 004a 07       		.uleb128 0x7
 7888 004b 0D       		.uleb128 0xd
 7889 004c 00       		.byte	0
 7890 004d 03       		.uleb128 0x3
 7891 004e 0E       		.uleb128 0xe
 7892 004f 3A       		.uleb128 0x3a
 7893 0050 0B       		.uleb128 0xb
 7894 0051 3B       		.uleb128 0x3b
 7895 0052 0B       		.uleb128 0xb
 7896 0053 49       		.uleb128 0x49
 7897 0054 13       		.uleb128 0x13
 7898 0055 38       		.uleb128 0x38
 7899 0056 0B       		.uleb128 0xb
 7900 0057 00       		.byte	0
 7901 0058 00       		.byte	0
 7902 0059 08       		.uleb128 0x8
 7903 005a 0D       		.uleb128 0xd
 7904 005b 00       		.byte	0
 7905 005c 03       		.uleb128 0x3
 7906 005d 08       		.uleb128 0x8
 7907 005e 3A       		.uleb128 0x3a
 7908 005f 0B       		.uleb128 0xb
 7909 0060 3B       		.uleb128 0x3b
 7910 0061 0B       		.uleb128 0xb
 7911 0062 49       		.uleb128 0x49
 7912 0063 13       		.uleb128 0x13
 7913 0064 38       		.uleb128 0x38
 7914 0065 0B       		.uleb128 0xb
 7915 0066 00       		.byte	0
ARM GAS  C:\Users\pearlstl\AppData\Local\Temp\cc5dErme.s 			page 175


 7916 0067 00       		.byte	0
 7917 0068 09       		.uleb128 0x9
 7918 0069 13       		.uleb128 0x13
 7919 006a 01       		.byte	0x1
 7920 006b 03       		.uleb128 0x3
 7921 006c 0E       		.uleb128 0xe
 7922 006d 0B       		.uleb128 0xb
 7923 006e 0B       		.uleb128 0xb
 7924 006f 3A       		.uleb128 0x3a
 7925 0070 0B       		.uleb128 0xb
 7926 0071 3B       		.uleb128 0x3b
 7927 0072 0B       		.uleb128 0xb
 7928 0073 01       		.uleb128 0x1
 7929 0074 13       		.uleb128 0x13
 7930 0075 00       		.byte	0
 7931 0076 00       		.byte	0
 7932 0077 0A       		.uleb128 0xa
 7933 0078 0D       		.uleb128 0xd
 7934 0079 00       		.byte	0
 7935 007a 03       		.uleb128 0x3
 7936 007b 0E       		.uleb128 0xe
 7937 007c 3A       		.uleb128 0x3a
 7938 007d 0B       		.uleb128 0xb
 7939 007e 3B       		.uleb128 0x3b
 7940 007f 0B       		.uleb128 0xb
 7941 0080 49       		.uleb128 0x49
 7942 0081 13       		.uleb128 0x13
 7943 0082 0B       		.uleb128 0xb
 7944 0083 0B       		.uleb128 0xb
 7945 0084 0D       		.uleb128 0xd
 7946 0085 0B       		.uleb128 0xb
 7947 0086 0C       		.uleb128 0xc
 7948 0087 0B       		.uleb128 0xb
 7949 0088 38       		.uleb128 0x38
 7950 0089 0B       		.uleb128 0xb
 7951 008a 00       		.byte	0
 7952 008b 00       		.byte	0
 7953 008c 0B       		.uleb128 0xb
 7954 008d 15       		.uleb128 0x15
 7955 008e 01       		.byte	0x1
 7956 008f 27       		.uleb128 0x27
 7957 0090 19       		.uleb128 0x19
 7958 0091 49       		.uleb128 0x49
 7959 0092 13       		.uleb128 0x13
 7960 0093 01       		.uleb128 0x1
 7961 0094 13       		.uleb128 0x13
 7962 0095 00       		.byte	0
 7963 0096 00       		.byte	0
 7964 0097 0C       		.uleb128 0xc
 7965 0098 05       		.uleb128 0x5
 7966 0099 00       		.byte	0
 7967 009a 49       		.uleb128 0x49
 7968 009b 13       		.uleb128 0x13
 7969 009c 00       		.byte	0
 7970 009d 00       		.byte	0
 7971 009e 0D       		.uleb128 0xd
 7972 009f 0F       		.uleb128 0xf
ARM GAS  C:\Users\pearlstl\AppData\Local\Temp\cc5dErme.s 			page 176


 7973 00a0 00       		.byte	0
 7974 00a1 0B       		.uleb128 0xb
 7975 00a2 0B       		.uleb128 0xb
 7976 00a3 49       		.uleb128 0x49
 7977 00a4 13       		.uleb128 0x13
 7978 00a5 00       		.byte	0
 7979 00a6 00       		.byte	0
 7980 00a7 0E       		.uleb128 0xe
 7981 00a8 26       		.uleb128 0x26
 7982 00a9 00       		.byte	0
 7983 00aa 49       		.uleb128 0x49
 7984 00ab 13       		.uleb128 0x13
 7985 00ac 00       		.byte	0
 7986 00ad 00       		.byte	0
 7987 00ae 0F       		.uleb128 0xf
 7988 00af 04       		.uleb128 0x4
 7989 00b0 01       		.byte	0x1
 7990 00b1 0B       		.uleb128 0xb
 7991 00b2 0B       		.uleb128 0xb
 7992 00b3 49       		.uleb128 0x49
 7993 00b4 13       		.uleb128 0x13
 7994 00b5 3A       		.uleb128 0x3a
 7995 00b6 0B       		.uleb128 0xb
 7996 00b7 3B       		.uleb128 0x3b
 7997 00b8 0B       		.uleb128 0xb
 7998 00b9 01       		.uleb128 0x1
 7999 00ba 13       		.uleb128 0x13
 8000 00bb 00       		.byte	0
 8001 00bc 00       		.byte	0
 8002 00bd 10       		.uleb128 0x10
 8003 00be 28       		.uleb128 0x28
 8004 00bf 00       		.byte	0
 8005 00c0 03       		.uleb128 0x3
 8006 00c1 0E       		.uleb128 0xe
 8007 00c2 1C       		.uleb128 0x1c
 8008 00c3 0B       		.uleb128 0xb
 8009 00c4 00       		.byte	0
 8010 00c5 00       		.byte	0
 8011 00c6 11       		.uleb128 0x11
 8012 00c7 17       		.uleb128 0x17
 8013 00c8 01       		.byte	0x1
 8014 00c9 0B       		.uleb128 0xb
 8015 00ca 0B       		.uleb128 0xb
 8016 00cb 3A       		.uleb128 0x3a
 8017 00cc 0B       		.uleb128 0xb
 8018 00cd 3B       		.uleb128 0x3b
 8019 00ce 0B       		.uleb128 0xb
 8020 00cf 01       		.uleb128 0x1
 8021 00d0 13       		.uleb128 0x13
 8022 00d1 00       		.byte	0
 8023 00d2 00       		.byte	0
 8024 00d3 12       		.uleb128 0x12
 8025 00d4 0D       		.uleb128 0xd
 8026 00d5 00       		.byte	0
 8027 00d6 03       		.uleb128 0x3
 8028 00d7 08       		.uleb128 0x8
 8029 00d8 3A       		.uleb128 0x3a
ARM GAS  C:\Users\pearlstl\AppData\Local\Temp\cc5dErme.s 			page 177


 8030 00d9 0B       		.uleb128 0xb
 8031 00da 3B       		.uleb128 0x3b
 8032 00db 0B       		.uleb128 0xb
 8033 00dc 49       		.uleb128 0x49
 8034 00dd 13       		.uleb128 0x13
 8035 00de 00       		.byte	0
 8036 00df 00       		.byte	0
 8037 00e0 13       		.uleb128 0x13
 8038 00e1 0D       		.uleb128 0xd
 8039 00e2 00       		.byte	0
 8040 00e3 03       		.uleb128 0x3
 8041 00e4 0E       		.uleb128 0xe
 8042 00e5 3A       		.uleb128 0x3a
 8043 00e6 0B       		.uleb128 0xb
 8044 00e7 3B       		.uleb128 0x3b
 8045 00e8 0B       		.uleb128 0xb
 8046 00e9 49       		.uleb128 0x49
 8047 00ea 13       		.uleb128 0x13
 8048 00eb 00       		.byte	0
 8049 00ec 00       		.byte	0
 8050 00ed 14       		.uleb128 0x14
 8051 00ee 16       		.uleb128 0x16
 8052 00ef 00       		.byte	0
 8053 00f0 03       		.uleb128 0x3
 8054 00f1 0E       		.uleb128 0xe
 8055 00f2 3A       		.uleb128 0x3a
 8056 00f3 0B       		.uleb128 0xb
 8057 00f4 3B       		.uleb128 0x3b
 8058 00f5 05       		.uleb128 0x5
 8059 00f6 49       		.uleb128 0x49
 8060 00f7 13       		.uleb128 0x13
 8061 00f8 00       		.byte	0
 8062 00f9 00       		.byte	0
 8063 00fa 15       		.uleb128 0x15
 8064 00fb 0D       		.uleb128 0xd
 8065 00fc 00       		.byte	0
 8066 00fd 03       		.uleb128 0x3
 8067 00fe 08       		.uleb128 0x8
 8068 00ff 3A       		.uleb128 0x3a
 8069 0100 0B       		.uleb128 0xb
 8070 0101 3B       		.uleb128 0x3b
 8071 0102 05       		.uleb128 0x5
 8072 0103 49       		.uleb128 0x49
 8073 0104 13       		.uleb128 0x13
 8074 0105 38       		.uleb128 0x38
 8075 0106 0B       		.uleb128 0xb
 8076 0107 00       		.byte	0
 8077 0108 00       		.byte	0
 8078 0109 16       		.uleb128 0x16
 8079 010a 0D       		.uleb128 0xd
 8080 010b 00       		.byte	0
 8081 010c 03       		.uleb128 0x3
 8082 010d 0E       		.uleb128 0xe
 8083 010e 3A       		.uleb128 0x3a
 8084 010f 0B       		.uleb128 0xb
 8085 0110 3B       		.uleb128 0x3b
 8086 0111 05       		.uleb128 0x5
ARM GAS  C:\Users\pearlstl\AppData\Local\Temp\cc5dErme.s 			page 178


 8087 0112 49       		.uleb128 0x49
 8088 0113 13       		.uleb128 0x13
 8089 0114 38       		.uleb128 0x38
 8090 0115 0B       		.uleb128 0xb
 8091 0116 00       		.byte	0
 8092 0117 00       		.byte	0
 8093 0118 17       		.uleb128 0x17
 8094 0119 13       		.uleb128 0x13
 8095 011a 01       		.byte	0x1
 8096 011b 0B       		.uleb128 0xb
 8097 011c 0B       		.uleb128 0xb
 8098 011d 3A       		.uleb128 0x3a
 8099 011e 0B       		.uleb128 0xb
 8100 011f 3B       		.uleb128 0x3b
 8101 0120 05       		.uleb128 0x5
 8102 0121 01       		.uleb128 0x1
 8103 0122 13       		.uleb128 0x13
 8104 0123 00       		.byte	0
 8105 0124 00       		.byte	0
 8106 0125 18       		.uleb128 0x18
 8107 0126 13       		.uleb128 0x13
 8108 0127 01       		.byte	0x1
 8109 0128 0B       		.uleb128 0xb
 8110 0129 05       		.uleb128 0x5
 8111 012a 3A       		.uleb128 0x3a
 8112 012b 0B       		.uleb128 0xb
 8113 012c 3B       		.uleb128 0x3b
 8114 012d 0B       		.uleb128 0xb
 8115 012e 01       		.uleb128 0x1
 8116 012f 13       		.uleb128 0x13
 8117 0130 00       		.byte	0
 8118 0131 00       		.byte	0
 8119 0132 19       		.uleb128 0x19
 8120 0133 0D       		.uleb128 0xd
 8121 0134 00       		.byte	0
 8122 0135 03       		.uleb128 0x3
 8123 0136 0E       		.uleb128 0xe
 8124 0137 3A       		.uleb128 0x3a
 8125 0138 0B       		.uleb128 0xb
 8126 0139 3B       		.uleb128 0x3b
 8127 013a 0B       		.uleb128 0xb
 8128 013b 49       		.uleb128 0x49
 8129 013c 13       		.uleb128 0x13
 8130 013d 38       		.uleb128 0x38
 8131 013e 05       		.uleb128 0x5
 8132 013f 00       		.byte	0
 8133 0140 00       		.byte	0
 8134 0141 1A       		.uleb128 0x1a
 8135 0142 0D       		.uleb128 0xd
 8136 0143 00       		.byte	0
 8137 0144 03       		.uleb128 0x3
 8138 0145 08       		.uleb128 0x8
 8139 0146 3A       		.uleb128 0x3a
 8140 0147 0B       		.uleb128 0xb
 8141 0148 3B       		.uleb128 0x3b
 8142 0149 0B       		.uleb128 0xb
 8143 014a 49       		.uleb128 0x49
ARM GAS  C:\Users\pearlstl\AppData\Local\Temp\cc5dErme.s 			page 179


 8144 014b 13       		.uleb128 0x13
 8145 014c 38       		.uleb128 0x38
 8146 014d 05       		.uleb128 0x5
 8147 014e 00       		.byte	0
 8148 014f 00       		.byte	0
 8149 0150 1B       		.uleb128 0x1b
 8150 0151 0D       		.uleb128 0xd
 8151 0152 00       		.byte	0
 8152 0153 03       		.uleb128 0x3
 8153 0154 0E       		.uleb128 0xe
 8154 0155 3A       		.uleb128 0x3a
 8155 0156 0B       		.uleb128 0xb
 8156 0157 3B       		.uleb128 0x3b
 8157 0158 05       		.uleb128 0x5
 8158 0159 49       		.uleb128 0x49
 8159 015a 13       		.uleb128 0x13
 8160 015b 38       		.uleb128 0x38
 8161 015c 05       		.uleb128 0x5
 8162 015d 00       		.byte	0
 8163 015e 00       		.byte	0
 8164 015f 1C       		.uleb128 0x1c
 8165 0160 0D       		.uleb128 0xd
 8166 0161 00       		.byte	0
 8167 0162 03       		.uleb128 0x3
 8168 0163 08       		.uleb128 0x8
 8169 0164 3A       		.uleb128 0x3a
 8170 0165 0B       		.uleb128 0xb
 8171 0166 3B       		.uleb128 0x3b
 8172 0167 05       		.uleb128 0x5
 8173 0168 49       		.uleb128 0x49
 8174 0169 13       		.uleb128 0x13
 8175 016a 38       		.uleb128 0x38
 8176 016b 05       		.uleb128 0x5
 8177 016c 00       		.byte	0
 8178 016d 00       		.byte	0
 8179 016e 1D       		.uleb128 0x1d
 8180 016f 2E       		.uleb128 0x2e
 8181 0170 01       		.byte	0x1
 8182 0171 03       		.uleb128 0x3
 8183 0172 0E       		.uleb128 0xe
 8184 0173 3A       		.uleb128 0x3a
 8185 0174 0B       		.uleb128 0xb
 8186 0175 3B       		.uleb128 0x3b
 8187 0176 05       		.uleb128 0x5
 8188 0177 27       		.uleb128 0x27
 8189 0178 19       		.uleb128 0x19
 8190 0179 49       		.uleb128 0x49
 8191 017a 13       		.uleb128 0x13
 8192 017b 20       		.uleb128 0x20
 8193 017c 0B       		.uleb128 0xb
 8194 017d 01       		.uleb128 0x1
 8195 017e 13       		.uleb128 0x13
 8196 017f 00       		.byte	0
 8197 0180 00       		.byte	0
 8198 0181 1E       		.uleb128 0x1e
 8199 0182 05       		.uleb128 0x5
 8200 0183 00       		.byte	0
ARM GAS  C:\Users\pearlstl\AppData\Local\Temp\cc5dErme.s 			page 180


 8201 0184 03       		.uleb128 0x3
 8202 0185 08       		.uleb128 0x8
 8203 0186 3A       		.uleb128 0x3a
 8204 0187 0B       		.uleb128 0xb
 8205 0188 3B       		.uleb128 0x3b
 8206 0189 05       		.uleb128 0x5
 8207 018a 49       		.uleb128 0x49
 8208 018b 13       		.uleb128 0x13
 8209 018c 00       		.byte	0
 8210 018d 00       		.byte	0
 8211 018e 1F       		.uleb128 0x1f
 8212 018f 2E       		.uleb128 0x2e
 8213 0190 00       		.byte	0
 8214 0191 03       		.uleb128 0x3
 8215 0192 0E       		.uleb128 0xe
 8216 0193 3A       		.uleb128 0x3a
 8217 0194 0B       		.uleb128 0xb
 8218 0195 3B       		.uleb128 0x3b
 8219 0196 05       		.uleb128 0x5
 8220 0197 27       		.uleb128 0x27
 8221 0198 19       		.uleb128 0x19
 8222 0199 20       		.uleb128 0x20
 8223 019a 0B       		.uleb128 0xb
 8224 019b 00       		.byte	0
 8225 019c 00       		.byte	0
 8226 019d 20       		.uleb128 0x20
 8227 019e 2E       		.uleb128 0x2e
 8228 019f 00       		.byte	0
 8229 01a0 03       		.uleb128 0x3
 8230 01a1 0E       		.uleb128 0xe
 8231 01a2 3A       		.uleb128 0x3a
 8232 01a3 0B       		.uleb128 0xb
 8233 01a4 3B       		.uleb128 0x3b
 8234 01a5 0B       		.uleb128 0xb
 8235 01a6 27       		.uleb128 0x27
 8236 01a7 19       		.uleb128 0x19
 8237 01a8 20       		.uleb128 0x20
 8238 01a9 0B       		.uleb128 0xb
 8239 01aa 00       		.byte	0
 8240 01ab 00       		.byte	0
 8241 01ac 21       		.uleb128 0x21
 8242 01ad 2E       		.uleb128 0x2e
 8243 01ae 01       		.byte	0x1
 8244 01af 03       		.uleb128 0x3
 8245 01b0 0E       		.uleb128 0xe
 8246 01b1 3A       		.uleb128 0x3a
 8247 01b2 0B       		.uleb128 0xb
 8248 01b3 3B       		.uleb128 0x3b
 8249 01b4 05       		.uleb128 0x5
 8250 01b5 27       		.uleb128 0x27
 8251 01b6 19       		.uleb128 0x19
 8252 01b7 20       		.uleb128 0x20
 8253 01b8 0B       		.uleb128 0xb
 8254 01b9 01       		.uleb128 0x1
 8255 01ba 13       		.uleb128 0x13
 8256 01bb 00       		.byte	0
 8257 01bc 00       		.byte	0
ARM GAS  C:\Users\pearlstl\AppData\Local\Temp\cc5dErme.s 			page 181


 8258 01bd 22       		.uleb128 0x22
 8259 01be 34       		.uleb128 0x34
 8260 01bf 00       		.byte	0
 8261 01c0 03       		.uleb128 0x3
 8262 01c1 0E       		.uleb128 0xe
 8263 01c2 3A       		.uleb128 0x3a
 8264 01c3 0B       		.uleb128 0xb
 8265 01c4 3B       		.uleb128 0x3b
 8266 01c5 05       		.uleb128 0x5
 8267 01c6 49       		.uleb128 0x49
 8268 01c7 13       		.uleb128 0x13
 8269 01c8 00       		.byte	0
 8270 01c9 00       		.byte	0
 8271 01ca 23       		.uleb128 0x23
 8272 01cb 34       		.uleb128 0x34
 8273 01cc 00       		.byte	0
 8274 01cd 03       		.uleb128 0x3
 8275 01ce 08       		.uleb128 0x8
 8276 01cf 3A       		.uleb128 0x3a
 8277 01d0 0B       		.uleb128 0xb
 8278 01d1 3B       		.uleb128 0x3b
 8279 01d2 05       		.uleb128 0x5
 8280 01d3 49       		.uleb128 0x49
 8281 01d4 13       		.uleb128 0x13
 8282 01d5 00       		.byte	0
 8283 01d6 00       		.byte	0
 8284 01d7 24       		.uleb128 0x24
 8285 01d8 2E       		.uleb128 0x2e
 8286 01d9 01       		.byte	0x1
 8287 01da 03       		.uleb128 0x3
 8288 01db 0E       		.uleb128 0xe
 8289 01dc 3A       		.uleb128 0x3a
 8290 01dd 0B       		.uleb128 0xb
 8291 01de 3B       		.uleb128 0x3b
 8292 01df 0B       		.uleb128 0xb
 8293 01e0 27       		.uleb128 0x27
 8294 01e1 19       		.uleb128 0x19
 8295 01e2 20       		.uleb128 0x20
 8296 01e3 0B       		.uleb128 0xb
 8297 01e4 01       		.uleb128 0x1
 8298 01e5 13       		.uleb128 0x13
 8299 01e6 00       		.byte	0
 8300 01e7 00       		.byte	0
 8301 01e8 25       		.uleb128 0x25
 8302 01e9 34       		.uleb128 0x34
 8303 01ea 00       		.byte	0
 8304 01eb 03       		.uleb128 0x3
 8305 01ec 0E       		.uleb128 0xe
 8306 01ed 3A       		.uleb128 0x3a
 8307 01ee 0B       		.uleb128 0xb
 8308 01ef 3B       		.uleb128 0x3b
 8309 01f0 0B       		.uleb128 0xb
 8310 01f1 49       		.uleb128 0x49
 8311 01f2 13       		.uleb128 0x13
 8312 01f3 00       		.byte	0
 8313 01f4 00       		.byte	0
 8314 01f5 26       		.uleb128 0x26
ARM GAS  C:\Users\pearlstl\AppData\Local\Temp\cc5dErme.s 			page 182


 8315 01f6 34       		.uleb128 0x34
 8316 01f7 00       		.byte	0
 8317 01f8 03       		.uleb128 0x3
 8318 01f9 08       		.uleb128 0x8
 8319 01fa 3A       		.uleb128 0x3a
 8320 01fb 0B       		.uleb128 0xb
 8321 01fc 3B       		.uleb128 0x3b
 8322 01fd 0B       		.uleb128 0xb
 8323 01fe 49       		.uleb128 0x49
 8324 01ff 13       		.uleb128 0x13
 8325 0200 00       		.byte	0
 8326 0201 00       		.byte	0
 8327 0202 27       		.uleb128 0x27
 8328 0203 2E       		.uleb128 0x2e
 8329 0204 01       		.byte	0x1
 8330 0205 3F       		.uleb128 0x3f
 8331 0206 19       		.uleb128 0x19
 8332 0207 03       		.uleb128 0x3
 8333 0208 0E       		.uleb128 0xe
 8334 0209 3A       		.uleb128 0x3a
 8335 020a 0B       		.uleb128 0xb
 8336 020b 3B       		.uleb128 0x3b
 8337 020c 05       		.uleb128 0x5
 8338 020d 27       		.uleb128 0x27
 8339 020e 19       		.uleb128 0x19
 8340 020f 49       		.uleb128 0x49
 8341 0210 13       		.uleb128 0x13
 8342 0211 11       		.uleb128 0x11
 8343 0212 01       		.uleb128 0x1
 8344 0213 12       		.uleb128 0x12
 8345 0214 06       		.uleb128 0x6
 8346 0215 40       		.uleb128 0x40
 8347 0216 18       		.uleb128 0x18
 8348 0217 9742     		.uleb128 0x2117
 8349 0219 19       		.uleb128 0x19
 8350 021a 01       		.uleb128 0x1
 8351 021b 13       		.uleb128 0x13
 8352 021c 00       		.byte	0
 8353 021d 00       		.byte	0
 8354 021e 28       		.uleb128 0x28
 8355 021f 05       		.uleb128 0x5
 8356 0220 00       		.byte	0
 8357 0221 03       		.uleb128 0x3
 8358 0222 08       		.uleb128 0x8
 8359 0223 3A       		.uleb128 0x3a
 8360 0224 0B       		.uleb128 0xb
 8361 0225 3B       		.uleb128 0x3b
 8362 0226 05       		.uleb128 0x5
 8363 0227 49       		.uleb128 0x49
 8364 0228 13       		.uleb128 0x13
 8365 0229 02       		.uleb128 0x2
 8366 022a 17       		.uleb128 0x17
 8367 022b 00       		.byte	0
 8368 022c 00       		.byte	0
 8369 022d 29       		.uleb128 0x29
 8370 022e 05       		.uleb128 0x5
 8371 022f 00       		.byte	0
ARM GAS  C:\Users\pearlstl\AppData\Local\Temp\cc5dErme.s 			page 183


 8372 0230 03       		.uleb128 0x3
 8373 0231 0E       		.uleb128 0xe
 8374 0232 3A       		.uleb128 0x3a
 8375 0233 0B       		.uleb128 0xb
 8376 0234 3B       		.uleb128 0x3b
 8377 0235 05       		.uleb128 0x5
 8378 0236 49       		.uleb128 0x49
 8379 0237 13       		.uleb128 0x13
 8380 0238 02       		.uleb128 0x2
 8381 0239 17       		.uleb128 0x17
 8382 023a 00       		.byte	0
 8383 023b 00       		.byte	0
 8384 023c 2A       		.uleb128 0x2a
 8385 023d 34       		.uleb128 0x34
 8386 023e 00       		.byte	0
 8387 023f 03       		.uleb128 0x3
 8388 0240 08       		.uleb128 0x8
 8389 0241 3A       		.uleb128 0x3a
 8390 0242 0B       		.uleb128 0xb
 8391 0243 3B       		.uleb128 0x3b
 8392 0244 05       		.uleb128 0x5
 8393 0245 49       		.uleb128 0x49
 8394 0246 13       		.uleb128 0x13
 8395 0247 02       		.uleb128 0x2
 8396 0248 17       		.uleb128 0x17
 8397 0249 00       		.byte	0
 8398 024a 00       		.byte	0
 8399 024b 2B       		.uleb128 0x2b
 8400 024c 34       		.uleb128 0x34
 8401 024d 00       		.byte	0
 8402 024e 03       		.uleb128 0x3
 8403 024f 0E       		.uleb128 0xe
 8404 0250 3A       		.uleb128 0x3a
 8405 0251 0B       		.uleb128 0xb
 8406 0252 3B       		.uleb128 0x3b
 8407 0253 05       		.uleb128 0x5
 8408 0254 49       		.uleb128 0x49
 8409 0255 13       		.uleb128 0x13
 8410 0256 02       		.uleb128 0x2
 8411 0257 17       		.uleb128 0x17
 8412 0258 00       		.byte	0
 8413 0259 00       		.byte	0
 8414 025a 2C       		.uleb128 0x2c
 8415 025b 1D       		.uleb128 0x1d
 8416 025c 01       		.byte	0x1
 8417 025d 31       		.uleb128 0x31
 8418 025e 13       		.uleb128 0x13
 8419 025f 52       		.uleb128 0x52
 8420 0260 01       		.uleb128 0x1
 8421 0261 55       		.uleb128 0x55
 8422 0262 17       		.uleb128 0x17
 8423 0263 58       		.uleb128 0x58
 8424 0264 0B       		.uleb128 0xb
 8425 0265 59       		.uleb128 0x59
 8426 0266 05       		.uleb128 0x5
 8427 0267 01       		.uleb128 0x1
 8428 0268 13       		.uleb128 0x13
ARM GAS  C:\Users\pearlstl\AppData\Local\Temp\cc5dErme.s 			page 184


 8429 0269 00       		.byte	0
 8430 026a 00       		.byte	0
 8431 026b 2D       		.uleb128 0x2d
 8432 026c 0B       		.uleb128 0xb
 8433 026d 01       		.byte	0x1
 8434 026e 55       		.uleb128 0x55
 8435 026f 17       		.uleb128 0x17
 8436 0270 00       		.byte	0
 8437 0271 00       		.byte	0
 8438 0272 2E       		.uleb128 0x2e
 8439 0273 34       		.uleb128 0x34
 8440 0274 00       		.byte	0
 8441 0275 31       		.uleb128 0x31
 8442 0276 13       		.uleb128 0x13
 8443 0277 02       		.uleb128 0x2
 8444 0278 18       		.uleb128 0x18
 8445 0279 00       		.byte	0
 8446 027a 00       		.byte	0
 8447 027b 2F       		.uleb128 0x2f
 8448 027c 898201   		.uleb128 0x4109
 8449 027f 01       		.byte	0x1
 8450 0280 11       		.uleb128 0x11
 8451 0281 01       		.uleb128 0x1
 8452 0282 31       		.uleb128 0x31
 8453 0283 13       		.uleb128 0x13
 8454 0284 01       		.uleb128 0x1
 8455 0285 13       		.uleb128 0x13
 8456 0286 00       		.byte	0
 8457 0287 00       		.byte	0
 8458 0288 30       		.uleb128 0x30
 8459 0289 8A8201   		.uleb128 0x410a
 8460 028c 00       		.byte	0
 8461 028d 02       		.uleb128 0x2
 8462 028e 18       		.uleb128 0x18
 8463 028f 9142     		.uleb128 0x2111
 8464 0291 18       		.uleb128 0x18
 8465 0292 00       		.byte	0
 8466 0293 00       		.byte	0
 8467 0294 31       		.uleb128 0x31
 8468 0295 898201   		.uleb128 0x4109
 8469 0298 01       		.byte	0x1
 8470 0299 11       		.uleb128 0x11
 8471 029a 01       		.uleb128 0x1
 8472 029b 31       		.uleb128 0x31
 8473 029c 13       		.uleb128 0x13
 8474 029d 00       		.byte	0
 8475 029e 00       		.byte	0
 8476 029f 32       		.uleb128 0x32
 8477 02a0 1D       		.uleb128 0x1d
 8478 02a1 00       		.byte	0
 8479 02a2 31       		.uleb128 0x31
 8480 02a3 13       		.uleb128 0x13
 8481 02a4 11       		.uleb128 0x11
 8482 02a5 01       		.uleb128 0x1
 8483 02a6 12       		.uleb128 0x12
 8484 02a7 06       		.uleb128 0x6
 8485 02a8 58       		.uleb128 0x58
ARM GAS  C:\Users\pearlstl\AppData\Local\Temp\cc5dErme.s 			page 185


 8486 02a9 0B       		.uleb128 0xb
 8487 02aa 59       		.uleb128 0x59
 8488 02ab 05       		.uleb128 0x5
 8489 02ac 00       		.byte	0
 8490 02ad 00       		.byte	0
 8491 02ae 33       		.uleb128 0x33
 8492 02af 1D       		.uleb128 0x1d
 8493 02b0 00       		.byte	0
 8494 02b1 31       		.uleb128 0x31
 8495 02b2 13       		.uleb128 0x13
 8496 02b3 52       		.uleb128 0x52
 8497 02b4 01       		.uleb128 0x1
 8498 02b5 55       		.uleb128 0x55
 8499 02b6 17       		.uleb128 0x17
 8500 02b7 58       		.uleb128 0x58
 8501 02b8 0B       		.uleb128 0xb
 8502 02b9 59       		.uleb128 0x59
 8503 02ba 05       		.uleb128 0x5
 8504 02bb 00       		.byte	0
 8505 02bc 00       		.byte	0
 8506 02bd 34       		.uleb128 0x34
 8507 02be 1D       		.uleb128 0x1d
 8508 02bf 01       		.byte	0x1
 8509 02c0 31       		.uleb128 0x31
 8510 02c1 13       		.uleb128 0x13
 8511 02c2 52       		.uleb128 0x52
 8512 02c3 01       		.uleb128 0x1
 8513 02c4 55       		.uleb128 0x55
 8514 02c5 17       		.uleb128 0x17
 8515 02c6 58       		.uleb128 0x58
 8516 02c7 0B       		.uleb128 0xb
 8517 02c8 59       		.uleb128 0x59
 8518 02c9 05       		.uleb128 0x5
 8519 02ca 00       		.byte	0
 8520 02cb 00       		.byte	0
 8521 02cc 35       		.uleb128 0x35
 8522 02cd 2E       		.uleb128 0x2e
 8523 02ce 00       		.byte	0
 8524 02cf 3F       		.uleb128 0x3f
 8525 02d0 19       		.uleb128 0x19
 8526 02d1 03       		.uleb128 0x3
 8527 02d2 0E       		.uleb128 0xe
 8528 02d3 3A       		.uleb128 0x3a
 8529 02d4 0B       		.uleb128 0xb
 8530 02d5 3B       		.uleb128 0x3b
 8531 02d6 05       		.uleb128 0x5
 8532 02d7 27       		.uleb128 0x27
 8533 02d8 19       		.uleb128 0x19
 8534 02d9 49       		.uleb128 0x49
 8535 02da 13       		.uleb128 0x13
 8536 02db 11       		.uleb128 0x11
 8537 02dc 01       		.uleb128 0x1
 8538 02dd 12       		.uleb128 0x12
 8539 02de 06       		.uleb128 0x6
 8540 02df 40       		.uleb128 0x40
 8541 02e0 18       		.uleb128 0x18
 8542 02e1 9742     		.uleb128 0x2117
ARM GAS  C:\Users\pearlstl\AppData\Local\Temp\cc5dErme.s 			page 186


 8543 02e3 19       		.uleb128 0x19
 8544 02e4 00       		.byte	0
 8545 02e5 00       		.byte	0
 8546 02e6 36       		.uleb128 0x36
 8547 02e7 34       		.uleb128 0x34
 8548 02e8 00       		.byte	0
 8549 02e9 03       		.uleb128 0x3
 8550 02ea 0E       		.uleb128 0xe
 8551 02eb 3A       		.uleb128 0x3a
 8552 02ec 0B       		.uleb128 0xb
 8553 02ed 3B       		.uleb128 0x3b
 8554 02ee 0B       		.uleb128 0xb
 8555 02ef 49       		.uleb128 0x49
 8556 02f0 13       		.uleb128 0x13
 8557 02f1 02       		.uleb128 0x2
 8558 02f2 18       		.uleb128 0x18
 8559 02f3 00       		.byte	0
 8560 02f4 00       		.byte	0
 8561 02f5 37       		.uleb128 0x37
 8562 02f6 34       		.uleb128 0x34
 8563 02f7 00       		.byte	0
 8564 02f8 03       		.uleb128 0x3
 8565 02f9 08       		.uleb128 0x8
 8566 02fa 3A       		.uleb128 0x3a
 8567 02fb 0B       		.uleb128 0xb
 8568 02fc 3B       		.uleb128 0x3b
 8569 02fd 0B       		.uleb128 0xb
 8570 02fe 49       		.uleb128 0x49
 8571 02ff 13       		.uleb128 0x13
 8572 0300 02       		.uleb128 0x2
 8573 0301 18       		.uleb128 0x18
 8574 0302 00       		.byte	0
 8575 0303 00       		.byte	0
 8576 0304 38       		.uleb128 0x38
 8577 0305 34       		.uleb128 0x34
 8578 0306 00       		.byte	0
 8579 0307 03       		.uleb128 0x3
 8580 0308 0E       		.uleb128 0xe
 8581 0309 3A       		.uleb128 0x3a
 8582 030a 0B       		.uleb128 0xb
 8583 030b 3B       		.uleb128 0x3b
 8584 030c 0B       		.uleb128 0xb
 8585 030d 49       		.uleb128 0x49
 8586 030e 13       		.uleb128 0x13
 8587 030f 3F       		.uleb128 0x3f
 8588 0310 19       		.uleb128 0x19
 8589 0311 3C       		.uleb128 0x3c
 8590 0312 19       		.uleb128 0x19
 8591 0313 00       		.byte	0
 8592 0314 00       		.byte	0
 8593 0315 39       		.uleb128 0x39
 8594 0316 34       		.uleb128 0x34
 8595 0317 00       		.byte	0
 8596 0318 03       		.uleb128 0x3
 8597 0319 0E       		.uleb128 0xe
 8598 031a 3A       		.uleb128 0x3a
 8599 031b 0B       		.uleb128 0xb
ARM GAS  C:\Users\pearlstl\AppData\Local\Temp\cc5dErme.s 			page 187


 8600 031c 3B       		.uleb128 0x3b
 8601 031d 05       		.uleb128 0x5
 8602 031e 49       		.uleb128 0x49
 8603 031f 13       		.uleb128 0x13
 8604 0320 3F       		.uleb128 0x3f
 8605 0321 19       		.uleb128 0x19
 8606 0322 3C       		.uleb128 0x3c
 8607 0323 19       		.uleb128 0x19
 8608 0324 00       		.byte	0
 8609 0325 00       		.byte	0
 8610 0326 3A       		.uleb128 0x3a
 8611 0327 2E       		.uleb128 0x2e
 8612 0328 00       		.byte	0
 8613 0329 3F       		.uleb128 0x3f
 8614 032a 19       		.uleb128 0x19
 8615 032b 3C       		.uleb128 0x3c
 8616 032c 19       		.uleb128 0x19
 8617 032d 6E       		.uleb128 0x6e
 8618 032e 0E       		.uleb128 0xe
 8619 032f 03       		.uleb128 0x3
 8620 0330 0E       		.uleb128 0xe
 8621 0331 3A       		.uleb128 0x3a
 8622 0332 0B       		.uleb128 0xb
 8623 0333 3B       		.uleb128 0x3b
 8624 0334 0B       		.uleb128 0xb
 8625 0335 00       		.byte	0
 8626 0336 00       		.byte	0
 8627 0337 3B       		.uleb128 0x3b
 8628 0338 2E       		.uleb128 0x2e
 8629 0339 00       		.byte	0
 8630 033a 3F       		.uleb128 0x3f
 8631 033b 19       		.uleb128 0x19
 8632 033c 3C       		.uleb128 0x3c
 8633 033d 19       		.uleb128 0x19
 8634 033e 6E       		.uleb128 0x6e
 8635 033f 0E       		.uleb128 0xe
 8636 0340 03       		.uleb128 0x3
 8637 0341 0E       		.uleb128 0xe
 8638 0342 3A       		.uleb128 0x3a
 8639 0343 0B       		.uleb128 0xb
 8640 0344 3B       		.uleb128 0x3b
 8641 0345 05       		.uleb128 0x5
 8642 0346 00       		.byte	0
 8643 0347 00       		.byte	0
 8644 0348 00       		.byte	0
 8645              		.section	.debug_loc,"",%progbits
 8646              	.Ldebug_loc0:
 8647              	.LLST0:
 8648 0000 00000000 		.4byte	.LVL0
 8649 0004 32000000 		.4byte	.LVL5
 8650 0008 0100     		.2byte	0x1
 8651 000a 50       		.byte	0x50
 8652 000b 32000000 		.4byte	.LVL5
 8653 000f 39000000 		.4byte	.LVL7-1
 8654 0013 0500     		.2byte	0x5
 8655 0015 03       		.byte	0x3
 8656 0016 A8010000 		.4byte	_hue
ARM GAS  C:\Users\pearlstl\AppData\Local\Temp\cc5dErme.s 			page 188


 8657 001a 39000000 		.4byte	.LVL7-1
 8658 001e 32100000 		.4byte	.LFE61
 8659 0022 0400     		.2byte	0x4
 8660 0024 F3       		.byte	0xf3
 8661 0025 01       		.uleb128 0x1
 8662 0026 50       		.byte	0x50
 8663 0027 9F       		.byte	0x9f
 8664 0028 00000000 		.4byte	0
 8665 002c 00000000 		.4byte	0
 8666              	.LLST1:
 8667 0030 00000000 		.4byte	.LVL0
 8668 0034 0E000000 		.4byte	.LVL1
 8669 0038 0100     		.2byte	0x1
 8670 003a 51       		.byte	0x51
 8671 003b 0E000000 		.4byte	.LVL1
 8672 003f 34000000 		.4byte	.LVL6
 8673 0043 0100     		.2byte	0x1
 8674 0045 51       		.byte	0x51
 8675 0046 34000000 		.4byte	.LVL6
 8676 004a 39000000 		.4byte	.LVL7-1
 8677 004e 0500     		.2byte	0x5
 8678 0050 03       		.byte	0x3
 8679 0051 AC010000 		.4byte	_font
 8680 0055 00000000 		.4byte	0
 8681 0059 00000000 		.4byte	0
 8682              	.LLST2:
 8683 005d 12000000 		.4byte	.LVL2
 8684 0061 22000000 		.4byte	.LVL3
 8685 0065 0200     		.2byte	0x2
 8686 0067 30       		.byte	0x30
 8687 0068 9F       		.byte	0x9f
 8688 0069 00000000 		.4byte	0
 8689 006d 00000000 		.4byte	0
 8690              	.LLST3:
 8691 0071 12000000 		.4byte	.LVL2
 8692 0075 22000000 		.4byte	.LVL3
 8693 0079 0600     		.2byte	0x6
 8694 007b 03       		.byte	0x3
 8695 007c 00000000 		.4byte	theme
 8696 0080 9F       		.byte	0x9f
 8697 0081 22000000 		.4byte	.LVL3
 8698 0085 39000000 		.4byte	.LVL7-1
 8699 0089 0100     		.2byte	0x1
 8700 008b 53       		.byte	0x53
 8701 008c 00000000 		.4byte	0
 8702 0090 00000000 		.4byte	0
 8703              		.section	.debug_aranges,"",%progbits
 8704 0000 24000000 		.4byte	0x24
 8705 0004 0200     		.2byte	0x2
 8706 0006 00000000 		.4byte	.Ldebug_info0
 8707 000a 04       		.byte	0x4
 8708 000b 00       		.byte	0
 8709 000c 0000     		.2byte	0
 8710 000e 0000     		.2byte	0
 8711 0010 00000000 		.4byte	.LFB61
 8712 0014 32100000 		.4byte	.LFE61-.LFB61
 8713 0018 00000000 		.4byte	.LFB62
ARM GAS  C:\Users\pearlstl\AppData\Local\Temp\cc5dErme.s 			page 189


 8714 001c 08000000 		.4byte	.LFE62-.LFB62
 8715 0020 00000000 		.4byte	0
 8716 0024 00000000 		.4byte	0
 8717              		.section	.debug_ranges,"",%progbits
 8718              	.Ldebug_ranges0:
 8719 0000 30000000 		.4byte	.LBB154
 8720 0004 34000000 		.4byte	.LBE154
 8721 0008 36000000 		.4byte	.LBB169
 8722 000c 52010000 		.4byte	.LBE169
 8723 0010 56010000 		.4byte	.LBB176
 8724 0014 64010000 		.4byte	.LBE176
 8725 0018 66010000 		.4byte	.LBB178
 8726 001c 68010000 		.4byte	.LBE178
 8727 0020 6A010000 		.4byte	.LBB181
 8728 0024 9A010000 		.4byte	.LBE181
 8729 0028 00000000 		.4byte	0
 8730 002c 00000000 		.4byte	0
 8731 0030 34000000 		.4byte	.LBB160
 8732 0034 36000000 		.4byte	.LBE160
 8733 0038 640A0000 		.4byte	.LBB365
 8734 003c 680A0000 		.4byte	.LBE365
 8735 0040 700A0000 		.4byte	.LBB367
 8736 0044 760A0000 		.4byte	.LBE367
 8737 0048 C20A0000 		.4byte	.LBB377
 8738 004c CA0B0000 		.4byte	.LBE377
 8739 0050 CE0B0000 		.4byte	.LBB387
 8740 0054 0E0C0000 		.4byte	.LBE387
 8741 0058 100C0000 		.4byte	.LBB389
 8742 005c 120C0000 		.4byte	.LBE389
 8743 0060 140C0000 		.4byte	.LBB391
 8744 0064 220C0000 		.4byte	.LBE391
 8745 0068 260C0000 		.4byte	.LBB393
 8746 006c 2A0C0000 		.4byte	.LBE393
 8747 0070 00000000 		.4byte	0
 8748 0074 00000000 		.4byte	0
 8749 0078 52010000 		.4byte	.LBB170
 8750 007c 56010000 		.4byte	.LBE170
 8751 0080 64010000 		.4byte	.LBB177
 8752 0084 66010000 		.4byte	.LBE177
 8753 0088 9A010000 		.4byte	.LBB182
 8754 008c CA020000 		.4byte	.LBE182
 8755 0090 CE020000 		.4byte	.LBB188
 8756 0094 F0020000 		.4byte	.LBE188
 8757 0098 F4020000 		.4byte	.LBB190
 8758 009c 00030000 		.4byte	.LBE190
 8759 00a0 00000000 		.4byte	0
 8760 00a4 00000000 		.4byte	0
 8761 00a8 CA020000 		.4byte	.LBB183
 8762 00ac CE020000 		.4byte	.LBE183
 8763 00b0 F0020000 		.4byte	.LBB189
 8764 00b4 F4020000 		.4byte	.LBE189
 8765 00b8 00030000 		.4byte	.LBB191
 8766 00bc 58030000 		.4byte	.LBE191
 8767 00c0 5E030000 		.4byte	.LBB197
 8768 00c4 68030000 		.4byte	.LBE197
 8769 00c8 00000000 		.4byte	0
 8770 00cc 00000000 		.4byte	0
ARM GAS  C:\Users\pearlstl\AppData\Local\Temp\cc5dErme.s 			page 190


 8771 00d0 58030000 		.4byte	.LBB192
 8772 00d4 5E030000 		.4byte	.LBE192
 8773 00d8 68030000 		.4byte	.LBB198
 8774 00dc 9A030000 		.4byte	.LBE198
 8775 00e0 9E030000 		.4byte	.LBB205
 8776 00e4 A2030000 		.4byte	.LBE205
 8777 00e8 A6030000 		.4byte	.LBB207
 8778 00ec B2030000 		.4byte	.LBE207
 8779 00f0 00000000 		.4byte	0
 8780 00f4 00000000 		.4byte	0
 8781 00f8 9A030000 		.4byte	.LBB199
 8782 00fc 9E030000 		.4byte	.LBE199
 8783 0100 A2030000 		.4byte	.LBB206
 8784 0104 A6030000 		.4byte	.LBE206
 8785 0108 B4030000 		.4byte	.LBB210
 8786 010c 26040000 		.4byte	.LBE210
 8787 0110 2A040000 		.4byte	.LBB217
 8788 0114 2E040000 		.4byte	.LBE217
 8789 0118 32040000 		.4byte	.LBB219
 8790 011c 36040000 		.4byte	.LBE219
 8791 0120 00000000 		.4byte	0
 8792 0124 00000000 		.4byte	0
 8793 0128 26040000 		.4byte	.LBB211
 8794 012c 2A040000 		.4byte	.LBE211
 8795 0130 2E040000 		.4byte	.LBB218
 8796 0134 32040000 		.4byte	.LBE218
 8797 0138 36040000 		.4byte	.LBB220
 8798 013c 88040000 		.4byte	.LBE220
 8799 0140 8C040000 		.4byte	.LBB228
 8800 0144 96040000 		.4byte	.LBE228
 8801 0148 9A040000 		.4byte	.LBB230
 8802 014c B0040000 		.4byte	.LBE230
 8803 0150 00000000 		.4byte	0
 8804 0154 00000000 		.4byte	0
 8805 0158 88040000 		.4byte	.LBB221
 8806 015c 8C040000 		.4byte	.LBE221
 8807 0160 96040000 		.4byte	.LBB229
 8808 0164 9A040000 		.4byte	.LBE229
 8809 0168 B0040000 		.4byte	.LBB231
 8810 016c C0040000 		.4byte	.LBE231
 8811 0170 C4040000 		.4byte	.LBB239
 8812 0174 CC040000 		.4byte	.LBE239
 8813 0178 D0040000 		.4byte	.LBB241
 8814 017c DC040000 		.4byte	.LBE241
 8815 0180 E0040000 		.4byte	.LBB243
 8816 0184 E4040000 		.4byte	.LBE243
 8817 0188 00000000 		.4byte	0
 8818 018c 00000000 		.4byte	0
 8819 0190 C0040000 		.4byte	.LBB232
 8820 0194 C4040000 		.4byte	.LBE232
 8821 0198 CC040000 		.4byte	.LBB240
 8822 019c D0040000 		.4byte	.LBE240
 8823 01a0 DC040000 		.4byte	.LBB242
 8824 01a4 E0040000 		.4byte	.LBE242
 8825 01a8 E4040000 		.4byte	.LBB244
 8826 01ac 42050000 		.4byte	.LBE244
 8827 01b0 4A050000 		.4byte	.LBB251
ARM GAS  C:\Users\pearlstl\AppData\Local\Temp\cc5dErme.s 			page 191


 8828 01b4 62050000 		.4byte	.LBE251
 8829 01b8 64050000 		.4byte	.LBB253
 8830 01bc 8E050000 		.4byte	.LBE253
 8831 01c0 00000000 		.4byte	0
 8832 01c4 00000000 		.4byte	0
 8833 01c8 42050000 		.4byte	.LBB245
 8834 01cc 4A050000 		.4byte	.LBE245
 8835 01d0 62050000 		.4byte	.LBB252
 8836 01d4 64050000 		.4byte	.LBE252
 8837 01d8 8E050000 		.4byte	.LBB254
 8838 01dc A2050000 		.4byte	.LBE254
 8839 01e0 A6050000 		.4byte	.LBB261
 8840 01e4 B6050000 		.4byte	.LBE261
 8841 01e8 BA050000 		.4byte	.LBB263
 8842 01ec D2050000 		.4byte	.LBE263
 8843 01f0 00000000 		.4byte	0
 8844 01f4 00000000 		.4byte	0
 8845 01f8 A2050000 		.4byte	.LBB255
 8846 01fc A6050000 		.4byte	.LBE255
 8847 0200 B6050000 		.4byte	.LBB262
 8848 0204 BA050000 		.4byte	.LBE262
 8849 0208 D2050000 		.4byte	.LBB264
 8850 020c 32060000 		.4byte	.LBE264
 8851 0210 38060000 		.4byte	.LBB276
 8852 0214 3C060000 		.4byte	.LBE276
 8853 0218 40060000 		.4byte	.LBB278
 8854 021c 44060000 		.4byte	.LBE278
 8855 0220 00000000 		.4byte	0
 8856 0224 00000000 		.4byte	0
 8857 0228 32060000 		.4byte	.LBB265
 8858 022c 36060000 		.4byte	.LBE265
 8859 0230 3C060000 		.4byte	.LBB277
 8860 0234 40060000 		.4byte	.LBE277
 8861 0238 44060000 		.4byte	.LBB279
 8862 023c 46060000 		.4byte	.LBE279
 8863 0240 4A060000 		.4byte	.LBB281
 8864 0244 7A060000 		.4byte	.LBE281
 8865 0248 7E060000 		.4byte	.LBB288
 8866 024c 84060000 		.4byte	.LBE288
 8867 0250 88060000 		.4byte	.LBB290
 8868 0254 8A060000 		.4byte	.LBE290
 8869 0258 8C060000 		.4byte	.LBB293
 8870 025c 9C060000 		.4byte	.LBE293
 8871 0260 00000000 		.4byte	0
 8872 0264 00000000 		.4byte	0
 8873 0268 36060000 		.4byte	.LBB273
 8874 026c 38060000 		.4byte	.LBE273
 8875 0270 46060000 		.4byte	.LBB280
 8876 0274 4A060000 		.4byte	.LBE280
 8877 0278 00000000 		.4byte	0
 8878 027c 00000000 		.4byte	0
 8879 0280 7A060000 		.4byte	.LBB282
 8880 0284 7E060000 		.4byte	.LBE282
 8881 0288 84060000 		.4byte	.LBB289
 8882 028c 88060000 		.4byte	.LBE289
 8883 0290 9C060000 		.4byte	.LBB294
 8884 0294 42070000 		.4byte	.LBE294
ARM GAS  C:\Users\pearlstl\AppData\Local\Temp\cc5dErme.s 			page 192


 8885 0298 46070000 		.4byte	.LBB301
 8886 029c 52070000 		.4byte	.LBE301
 8887 02a0 56070000 		.4byte	.LBB303
 8888 02a4 94070000 		.4byte	.LBE303
 8889 02a8 00000000 		.4byte	0
 8890 02ac 00000000 		.4byte	0
 8891 02b0 42070000 		.4byte	.LBB295
 8892 02b4 46070000 		.4byte	.LBE295
 8893 02b8 52070000 		.4byte	.LBB302
 8894 02bc 56070000 		.4byte	.LBE302
 8895 02c0 94070000 		.4byte	.LBB304
 8896 02c4 2A080000 		.4byte	.LBE304
 8897 02c8 2E080000 		.4byte	.LBB313
 8898 02cc 40080000 		.4byte	.LBE313
 8899 02d0 42080000 		.4byte	.LBB315
 8900 02d4 54080000 		.4byte	.LBE315
 8901 02d8 00000000 		.4byte	0
 8902 02dc 00000000 		.4byte	0
 8903 02e0 2A080000 		.4byte	.LBB305
 8904 02e4 2E080000 		.4byte	.LBE305
 8905 02e8 40080000 		.4byte	.LBB314
 8906 02ec 42080000 		.4byte	.LBE314
 8907 02f0 54080000 		.4byte	.LBB316
 8908 02f4 74090000 		.4byte	.LBE316
 8909 02f8 78090000 		.4byte	.LBB325
 8910 02fc 82090000 		.4byte	.LBE325
 8911 0300 84090000 		.4byte	.LBB327
 8912 0304 88090000 		.4byte	.LBE327
 8913 0308 8A090000 		.4byte	.LBB329
 8914 030c 8E090000 		.4byte	.LBE329
 8915 0310 90090000 		.4byte	.LBB331
 8916 0314 9C090000 		.4byte	.LBE331
 8917 0318 00000000 		.4byte	0
 8918 031c 00000000 		.4byte	0
 8919 0320 74090000 		.4byte	.LBB317
 8920 0324 78090000 		.4byte	.LBE317
 8921 0328 82090000 		.4byte	.LBB326
 8922 032c 84090000 		.4byte	.LBE326
 8923 0330 88090000 		.4byte	.LBB328
 8924 0334 8A090000 		.4byte	.LBE328
 8925 0338 8E090000 		.4byte	.LBB330
 8926 033c 90090000 		.4byte	.LBE330
 8927 0340 9C090000 		.4byte	.LBB332
 8928 0344 BE090000 		.4byte	.LBE332
 8929 0348 C2090000 		.4byte	.LBB341
 8930 034c CA090000 		.4byte	.LBE341
 8931 0350 CC090000 		.4byte	.LBB343
 8932 0354 DC090000 		.4byte	.LBE343
 8933 0358 00000000 		.4byte	0
 8934 035c 00000000 		.4byte	0
 8935 0360 BE090000 		.4byte	.LBB333
 8936 0364 C2090000 		.4byte	.LBE333
 8937 0368 CA090000 		.4byte	.LBB342
 8938 036c CC090000 		.4byte	.LBE342
 8939 0370 DC090000 		.4byte	.LBB344
 8940 0374 220A0000 		.4byte	.LBE344
 8941 0378 260A0000 		.4byte	.LBB353
ARM GAS  C:\Users\pearlstl\AppData\Local\Temp\cc5dErme.s 			page 193


 8942 037c 320A0000 		.4byte	.LBE353
 8943 0380 360A0000 		.4byte	.LBB355
 8944 0384 3A0A0000 		.4byte	.LBE355
 8945 0388 420A0000 		.4byte	.LBB360
 8946 038c 460A0000 		.4byte	.LBE360
 8947 0390 4A0A0000 		.4byte	.LBB362
 8948 0394 4E0A0000 		.4byte	.LBE362
 8949 0398 00000000 		.4byte	0
 8950 039c 00000000 		.4byte	0
 8951 03a0 220A0000 		.4byte	.LBB345
 8952 03a4 260A0000 		.4byte	.LBE345
 8953 03a8 320A0000 		.4byte	.LBB354
 8954 03ac 360A0000 		.4byte	.LBE354
 8955 03b0 520A0000 		.4byte	.LBB364
 8956 03b4 640A0000 		.4byte	.LBE364
 8957 03b8 680A0000 		.4byte	.LBB366
 8958 03bc 700A0000 		.4byte	.LBE366
 8959 03c0 760A0000 		.4byte	.LBB368
 8960 03c4 960A0000 		.4byte	.LBE368
 8961 03c8 9A0A0000 		.4byte	.LBB373
 8962 03cc 9E0A0000 		.4byte	.LBE373
 8963 03d0 A20A0000 		.4byte	.LBB375
 8964 03d4 BE0A0000 		.4byte	.LBE375
 8965 03d8 00000000 		.4byte	0
 8966 03dc 00000000 		.4byte	0
 8967 03e0 3A0A0000 		.4byte	.LBB356
 8968 03e4 420A0000 		.4byte	.LBE356
 8969 03e8 460A0000 		.4byte	.LBB361
 8970 03ec 4A0A0000 		.4byte	.LBE361
 8971 03f0 4E0A0000 		.4byte	.LBB363
 8972 03f4 520A0000 		.4byte	.LBE363
 8973 03f8 00000000 		.4byte	0
 8974 03fc 00000000 		.4byte	0
 8975 0400 960A0000 		.4byte	.LBB369
 8976 0404 9A0A0000 		.4byte	.LBE369
 8977 0408 9E0A0000 		.4byte	.LBB374
 8978 040c A20A0000 		.4byte	.LBE374
 8979 0410 BE0A0000 		.4byte	.LBB376
 8980 0414 C20A0000 		.4byte	.LBE376
 8981 0418 00000000 		.4byte	0
 8982 041c 00000000 		.4byte	0
 8983 0420 CA0B0000 		.4byte	.LBB378
 8984 0424 CE0B0000 		.4byte	.LBE378
 8985 0428 0E0C0000 		.4byte	.LBB388
 8986 042c 100C0000 		.4byte	.LBE388
 8987 0430 120C0000 		.4byte	.LBB390
 8988 0434 140C0000 		.4byte	.LBE390
 8989 0438 220C0000 		.4byte	.LBB392
 8990 043c 260C0000 		.4byte	.LBE392
 8991 0440 2A0C0000 		.4byte	.LBB394
 8992 0444 7A0C0000 		.4byte	.LBE394
 8993 0448 7E0C0000 		.4byte	.LBB402
 8994 044c 860C0000 		.4byte	.LBE402
 8995 0450 880C0000 		.4byte	.LBB404
 8996 0454 8C0C0000 		.4byte	.LBE404
 8997 0458 8E0C0000 		.4byte	.LBB406
 8998 045c 960C0000 		.4byte	.LBE406
ARM GAS  C:\Users\pearlstl\AppData\Local\Temp\cc5dErme.s 			page 194


 8999 0460 00000000 		.4byte	0
 9000 0464 00000000 		.4byte	0
 9001 0468 7A0C0000 		.4byte	.LBB395
 9002 046c 7E0C0000 		.4byte	.LBE395
 9003 0470 860C0000 		.4byte	.LBB403
 9004 0474 880C0000 		.4byte	.LBE403
 9005 0478 8C0C0000 		.4byte	.LBB405
 9006 047c 8E0C0000 		.4byte	.LBE405
 9007 0480 960C0000 		.4byte	.LBB407
 9008 0484 E60C0000 		.4byte	.LBE407
 9009 0488 E80C0000 		.4byte	.LBB417
 9010 048c EC0C0000 		.4byte	.LBE417
 9011 0490 F00C0000 		.4byte	.LBB419
 9012 0494 F80C0000 		.4byte	.LBE419
 9013 0498 00000000 		.4byte	0
 9014 049c 00000000 		.4byte	0
 9015 04a0 E60C0000 		.4byte	.LBB408
 9016 04a4 E80C0000 		.4byte	.LBE408
 9017 04a8 EC0C0000 		.4byte	.LBB418
 9018 04ac F00C0000 		.4byte	.LBE418
 9019 04b0 F80C0000 		.4byte	.LBB420
 9020 04b4 A60E0000 		.4byte	.LBE420
 9021 04b8 AA0E0000 		.4byte	.LBB429
 9022 04bc C40E0000 		.4byte	.LBE429
 9023 04c0 CE0E0000 		.4byte	.LBB434
 9024 04c4 D40E0000 		.4byte	.LBE434
 9025 04c8 D60E0000 		.4byte	.LBB436
 9026 04cc DA0E0000 		.4byte	.LBE436
 9027 04d0 E20E0000 		.4byte	.LBB440
 9028 04d4 E60E0000 		.4byte	.LBE440
 9029 04d8 EA0E0000 		.4byte	.LBB442
 9030 04dc EE0E0000 		.4byte	.LBE442
 9031 04e0 00000000 		.4byte	0
 9032 04e4 00000000 		.4byte	0
 9033 04e8 A60E0000 		.4byte	.LBB421
 9034 04ec AA0E0000 		.4byte	.LBE421
 9035 04f0 D40E0000 		.4byte	.LBB435
 9036 04f4 D60E0000 		.4byte	.LBE435
 9037 04f8 DA0E0000 		.4byte	.LBB437
 9038 04fc DC0E0000 		.4byte	.LBE437
 9039 0500 E00E0000 		.4byte	.LBB439
 9040 0504 E20E0000 		.4byte	.LBE439
 9041 0508 EE0E0000 		.4byte	.LBB443
 9042 050c F80E0000 		.4byte	.LBE443
 9043 0510 FC0E0000 		.4byte	.LBB449
 9044 0514 060F0000 		.4byte	.LBE449
 9045 0518 0C0F0000 		.4byte	.LBB451
 9046 051c 280F0000 		.4byte	.LBE451
 9047 0520 00000000 		.4byte	0
 9048 0524 00000000 		.4byte	0
 9049 0528 C40E0000 		.4byte	.LBB430
 9050 052c CE0E0000 		.4byte	.LBE430
 9051 0530 DC0E0000 		.4byte	.LBB438
 9052 0534 E00E0000 		.4byte	.LBE438
 9053 0538 E60E0000 		.4byte	.LBB441
 9054 053c EA0E0000 		.4byte	.LBE441
 9055 0540 00000000 		.4byte	0
ARM GAS  C:\Users\pearlstl\AppData\Local\Temp\cc5dErme.s 			page 195


 9056 0544 00000000 		.4byte	0
 9057 0548 F80E0000 		.4byte	.LBB444
 9058 054c FC0E0000 		.4byte	.LBE444
 9059 0550 060F0000 		.4byte	.LBB450
 9060 0554 0C0F0000 		.4byte	.LBE450
 9061 0558 280F0000 		.4byte	.LBB452
 9062 055c DA0F0000 		.4byte	.LBE452
 9063 0560 DC0F0000 		.4byte	.LBB453
 9064 0564 2C100000 		.4byte	.LBE453
 9065 0568 00000000 		.4byte	0
 9066 056c 00000000 		.4byte	0
 9067 0570 00000000 		.4byte	.LFB61
 9068 0574 32100000 		.4byte	.LFE61
 9069 0578 00000000 		.4byte	.LFB62
 9070 057c 08000000 		.4byte	.LFE62
 9071 0580 00000000 		.4byte	0
 9072 0584 00000000 		.4byte	0
 9073              		.section	.debug_line,"",%progbits
 9074              	.Ldebug_line0:
 9075 0000 A4070000 		.section	.debug_str,"MS",%progbits,1
 9075      02009602 
 9075      00000201 
 9075      FB0E0D00 
 9075      01010101 
 9076              	.LASF140:
 9077 0000 6C765F63 		.ascii	"lv_color_hex3\000"
 9077      6F6C6F72 
 9077      5F686578 
 9077      3300
 9078              	.LASF79:
 9079 000e 70616464 		.ascii	"padding\000"
 9079      696E6700 
 9080              	.LASF175:
 9081 0016 736C6964 		.ascii	"slider_init\000"
 9081      65725F69 
 9081      6E697400 
 9082              	.LASF28:
 9083 0022 6765745F 		.ascii	"get_glyph_bitmap\000"
 9083      676C7970 
 9083      685F6269 
 9083      746D6170 
 9083      00
 9084              	.LASF61:
 9085 0033 4C565F42 		.ascii	"LV_BORDER_INTERNAL\000"
 9085      4F524445 
 9085      525F494E 
 9085      5445524E 
 9085      414C00
 9086              	.LASF144:
 9087 0046 70616765 		.ascii	"page_init\000"
 9087      5F696E69 
 9087      7400
 9088              	.LASF38:
 9089 0050 4C565F4F 		.ascii	"LV_OPA_40\000"
 9089      50415F34 
 9089      3000
 9090              	.LASF37:
ARM GAS  C:\Users\pearlstl\AppData\Local\Temp\cc5dErme.s 			page 196


 9091 005a 4C565F4F 		.ascii	"LV_OPA_30\000"
 9091      50415F33 
 9091      3000
 9092              	.LASF113:
 9093 0064 6F6E656C 		.ascii	"oneline\000"
 9093      696E6500 
 9094              	.LASF172:
 9095 006c 73775F69 		.ascii	"sw_indic\000"
 9095      6E646963 
 9095      00
 9096              	.LASF1:
 9097 0075 5F5F7569 		.ascii	"__uint8_t\000"
 9097      6E74385F 
 9097      7400
 9098              	.LASF97:
 9099 007f 6C696768 		.ascii	"light\000"
 9099      7400
 9100              	.LASF167:
 9101 0085 6172635F 		.ascii	"arc_init\000"
 9101      696E6974 
 9101      00
 9102              	.LASF150:
 9103 008e 7461626C 		.ascii	"table_init\000"
 9103      655F696E 
 9103      697400
 9104              	.LASF69:
 9105 0099 74797065 		.ascii	"type\000"
 9105      00
 9106              	.LASF64:
 9107 009e 4C565F53 		.ascii	"LV_SHADOW_FULL\000"
 9107      4841444F 
 9107      575F4655 
 9107      4C4C00
 9108              	.LASF178:
 9109 00ad 6261725F 		.ascii	"bar_indic\000"
 9109      696E6469 
 9109      6300
 9110              	.LASF186:
 9111 00b7 7374796C 		.ascii	"style_p\000"
 9111      655F7000 
 9112              	.LASF12:
 9113 00bf 6C6F6E67 		.ascii	"long long unsigned int\000"
 9113      206C6F6E 
 9113      6720756E 
 9113      7369676E 
 9113      65642069 
 9114              	.LASF32:
 9115 00d6 6C765F66 		.ascii	"lv_font_t\000"
 9115      6F6E745F 
 9115      7400
 9116              	.LASF173:
 9117 00e0 73775F6B 		.ascii	"sw_knob_off\000"
 9117      6E6F625F 
 9117      6F666600 
 9118              	.LASF83:
 9119 00ec 6C696E65 		.ascii	"line_space\000"
 9119      5F737061 
ARM GAS  C:\Users\pearlstl\AppData\Local\Temp\cc5dErme.s 			page 197


 9119      636500
 9120              	.LASF114:
 9121 00f7 63757273 		.ascii	"cursor\000"
 9121      6F7200
 9122              	.LASF123:
 9123 00fe 67617567 		.ascii	"gauge\000"
 9123      6500
 9124              	.LASF89:
 9125 0104 74657874 		.ascii	"text\000"
 9125      00
 9126              	.LASF0:
 9127 0109 5F5F696E 		.ascii	"__int8_t\000"
 9127      74385F74 
 9127      00
 9128              	.LASF50:
 9129 0112 6C765F63 		.ascii	"lv_color32_t\000"
 9129      6F6C6F72 
 9129      33325F74 
 9129      00
 9130              	.LASF87:
 9131 011f 676C6173 		.ascii	"glass\000"
 9131      7300
 9132              	.LASF170:
 9133 0125 73775F69 		.ascii	"sw_init\000"
 9133      6E697400 
 9134              	.LASF193:
 9135 012d 6C765F73 		.ascii	"lv_style_plain\000"
 9135      74796C65 
 9135      5F706C61 
 9135      696E00
 9136              	.LASF157:
 9137 013c 6C697374 		.ascii	"list_init\000"
 9137      5F696E69 
 9137      7400
 9138              	.LASF19:
 9139 0146 6C765F63 		.ascii	"lv_coord_t\000"
 9139      6F6F7264 
 9139      5F7400
 9140              	.LASF152:
 9141 0151 62746E5F 		.ascii	"btn_bg\000"
 9141      626700
 9142              	.LASF72:
 9143 0158 72696768 		.ascii	"right\000"
 9143      7400
 9144              	.LASF16:
 9145 015e 696E7431 		.ascii	"int16_t\000"
 9145      365F7400 
 9146              	.LASF159:
 9147 0166 74615F69 		.ascii	"ta_init\000"
 9147      6E697400 
 9148              	.LASF11:
 9149 016e 6C6F6E67 		.ascii	"long long int\000"
 9149      206C6F6E 
 9149      6720696E 
 9149      7400
 9150              	.LASF2:
 9151 017c 7369676E 		.ascii	"signed char\000"
ARM GAS  C:\Users\pearlstl\AppData\Local\Temp\cc5dErme.s 			page 198


 9151      65642063 
 9151      68617200 
 9152              	.LASF48:
 9153 0188 616C7068 		.ascii	"alpha\000"
 9153      6100
 9154              	.LASF88:
 9155 018e 626F6479 		.ascii	"body\000"
 9155      00
 9156              	.LASF131:
 9157 0193 6C697374 		.ascii	"list\000"
 9157      00
 9158              	.LASF8:
 9159 0198 6C6F6E67 		.ascii	"long int\000"
 9159      20696E74 
 9159      00
 9160              	.LASF163:
 9161 01a1 63625F69 		.ascii	"cb_init\000"
 9161      6E697400 
 9162              	.LASF147:
 9163 01a9 6C696E65 		.ascii	"line_init\000"
 9163      5F696E69 
 9163      7400
 9164              	.LASF74:
 9165 01b3 6D61696E 		.ascii	"main_color\000"
 9165      5F636F6C 
 9165      6F7200
 9166              	.LASF143:
 9167 01be 7370696E 		.ascii	"spinbox_init\000"
 9167      626F785F 
 9167      696E6974 
 9167      00
 9168              	.LASF5:
 9169 01cb 73686F72 		.ascii	"short int\000"
 9169      7420696E 
 9169      7400
 9170              	.LASF190:
 9171 01d5 6C765F66 		.ascii	"lv_font_roboto_16\000"
 9171      6F6E745F 
 9171      726F626F 
 9171      746F5F31 
 9171      3600
 9172              	.LASF45:
 9173 01e7 4C565F4F 		.ascii	"LV_OPA_COVER\000"
 9173      50415F43 
 9173      4F564552 
 9173      00
 9174              	.LASF34:
 9175 01f4 4C565F4F 		.ascii	"LV_OPA_0\000"
 9175      50415F30 
 9175      00
 9176              	.LASF70:
 9177 01fd 626F7474 		.ascii	"bottom\000"
 9177      6F6D00
 9178              	.LASF100:
 9179 0204 696E6469 		.ascii	"indic\000"
 9179      6300
 9180              	.LASF154:
ARM GAS  C:\Users\pearlstl\AppData\Local\Temp\cc5dErme.s 			page 199


 9181 020a 726F6C6C 		.ascii	"roller_bg\000"
 9181      65725F62 
 9181      6700
 9182              	.LASF200:
 9183 0214 6C765F74 		.ascii	"lv_theme_material_init\000"
 9183      68656D65 
 9183      5F6D6174 
 9183      65726961 
 9183      6C5F696E 
 9184              	.LASF9:
 9185 022b 5F5F7569 		.ascii	"__uint32_t\000"
 9185      6E743332 
 9185      5F7400
 9186              	.LASF40:
 9187 0236 4C565F4F 		.ascii	"LV_OPA_60\000"
 9187      50415F36 
 9187      3000
 9188              	.LASF4:
 9189 0240 5F5F696E 		.ascii	"__int16_t\000"
 9189      7431365F 
 9189      7400
 9190              	.LASF55:
 9191 024a 4C565F42 		.ascii	"LV_BORDER_NONE\000"
 9191      4F524445 
 9191      525F4E4F 
 9191      4E4500
 9192              	.LASF155:
 9193 0259 726F6C6C 		.ascii	"roller_sel\000"
 9193      65725F73 
 9193      656C00
 9194              	.LASF197:
 9195 0264 2E2E5C2E 		.ascii	"..\\..\\..\\lvgl\\version_6.1.2\\lvgl\\src\\lv_them"
 9195      2E5C2E2E 
 9195      5C6C7667 
 9195      6C5C7665 
 9195      7273696F 
 9196 0290 65735C6C 		.ascii	"es\\lv_theme_material.c\000"
 9196      765F7468 
 9196      656D655F 
 9196      6D617465 
 9196      7269616C 
 9197              	.LASF141:
 9198 02a7 6C765F63 		.ascii	"lv_color_hex\000"
 9198      6F6C6F72 
 9198      5F686578 
 9198      00
 9199              	.LASF103:
 9200 02b4 6B6E6F62 		.ascii	"knob_on\000"
 9200      5F6F6E00 
 9201              	.LASF13:
 9202 02bc 756E7369 		.ascii	"unsigned int\000"
 9202      676E6564 
 9202      20696E74 
 9202      00
 9203              	.LASF161:
 9204 02c9 6B625F69 		.ascii	"kb_init\000"
 9204      6E697400 
ARM GAS  C:\Users\pearlstl\AppData\Local\Temp\cc5dErme.s 			page 200


 9205              	.LASF17:
 9206 02d1 75696E74 		.ascii	"uint16_t\000"
 9206      31365F74 
 9206      00
 9207              	.LASF27:
 9208 02da 6765745F 		.ascii	"get_glyph_dsc\000"
 9208      676C7970 
 9208      685F6473 
 9208      6300
 9209              	.LASF91:
 9210 02e8 6C696E65 		.ascii	"line\000"
 9210      00
 9211              	.LASF156:
 9212 02ed 64646C69 		.ascii	"ddlist_init\000"
 9212      73745F69 
 9212      6E697400 
 9213              	.LASF10:
 9214 02f9 6C6F6E67 		.ascii	"long unsigned int\000"
 9214      20756E73 
 9214      69676E65 
 9214      6420696E 
 9214      7400
 9215              	.LASF129:
 9216 030b 70616765 		.ascii	"page\000"
 9216      00
 9217              	.LASF194:
 9218 0310 6C765F73 		.ascii	"lv_style_copy\000"
 9218      74796C65 
 9218      5F636F70 
 9218      7900
 9219              	.LASF130:
 9220 031e 7370696E 		.ascii	"spinbox\000"
 9220      626F7800 
 9221              	.LASF67:
 9222 0326 77696474 		.ascii	"width\000"
 9222      6800
 9223              	.LASF146:
 9224 032c 63686172 		.ascii	"chart_init\000"
 9224      745F696E 
 9224      697400
 9225              	.LASF166:
 9226 0337 68696768 		.ascii	"high_days\000"
 9226      5F646179 
 9226      7300
 9227              	.LASF109:
 9228 0341 7765656B 		.ascii	"week_box\000"
 9228      5F626F78 
 9228      00
 9229              	.LASF7:
 9230 034a 73686F72 		.ascii	"short unsigned int\000"
 9230      7420756E 
 9230      7369676E 
 9230      65642069 
 9230      6E7400
 9231              	.LASF148:
 9232 035d 636F6E74 		.ascii	"cont_init\000"
 9232      5F696E69 
ARM GAS  C:\Users\pearlstl\AppData\Local\Temp\cc5dErme.s 			page 201


 9232      7400
 9233              	.LASF29:
 9234 0367 6C696E65 		.ascii	"line_height\000"
 9234      5F686569 
 9234      67687400 
 9235              	.LASF127:
 9236 0373 62746E6D 		.ascii	"btnm\000"
 9236      00
 9237              	.LASF85:
 9238 0378 73756270 		.ascii	"subpx\000"
 9238      7800
 9239              	.LASF108:
 9240 037e 696E6163 		.ascii	"inactive_days\000"
 9240      74697665 
 9240      5F646179 
 9240      7300
 9241              	.LASF198:
 9242 038c 433A5C55 		.ascii	"C:\\Users\\pearlstl\\Documents\\_Research\\projects"
 9242      73657273 
 9242      5C706561 
 9242      726C7374 
 9242      6C5C446F 
 9243 03ba 5C74636F 		.ascii	"\\tcom_engineering\\embed_sw\\tcom_app\\tcom_app_ps"
 9243      6D5F656E 
 9243      67696E65 
 9243      6572696E 
 9243      675C656D 
 9244 03e9 6F63365F 		.ascii	"oc6_lvgl6\\tcom_displ_test_psoc6.cydsn\000"
 9244      6C76676C 
 9244      365C7463 
 9244      6F6D5F64 
 9244      6973706C 
 9245              	.LASF41:
 9246 040f 4C565F4F 		.ascii	"LV_OPA_70\000"
 9246      50415F37 
 9246      3000
 9247              	.LASF106:
 9248 0419 6461795F 		.ascii	"day_names\000"
 9248      6E616D65 
 9248      7300
 9249              	.LASF111:
 9250 0423 7363726C 		.ascii	"scrl\000"
 9250      00
 9251              	.LASF120:
 9252 0428 6C616265 		.ascii	"label\000"
 9252      6C00
 9253              	.LASF169:
 9254 042e 6C6D6574 		.ascii	"lmeter_init\000"
 9254      65725F69 
 9254      6E697400 
 9255              	.LASF107:
 9256 043a 68696768 		.ascii	"highlighted_days\000"
 9256      6C696768 
 9256      7465645F 
 9256      64617973 
 9256      00
 9257              	.LASF181:
ARM GAS  C:\Users\pearlstl\AppData\Local\Temp\cc5dErme.s 			page 202


 9258 044b 696D675F 		.ascii	"img_light\000"
 9258      6C696768 
 9258      7400
 9259              	.LASF149:
 9260 0455 77696E5F 		.ascii	"win_init\000"
 9260      696E6974 
 9260      00
 9261              	.LASF52:
 9262 045e 6C765F6F 		.ascii	"lv_opa_t\000"
 9262      70615F74 
 9262      00
 9263              	.LASF76:
 9264 0467 72616469 		.ascii	"radius\000"
 9264      757300
 9265              	.LASF122:
 9266 046e 6C6D6574 		.ascii	"lmeter\000"
 9266      657200
 9267              	.LASF80:
 9268 0475 73656C5F 		.ascii	"sel_color\000"
 9268      636F6C6F 
 9268      7200
 9269              	.LASF93:
 9270 047f 74676C5F 		.ascii	"tgl_rel\000"
 9270      72656C00 
 9271              	.LASF195:
 9272 0487 6C765F63 		.ascii	"lv_color_hsv_to_rgb\000"
 9272      6F6C6F72 
 9272      5F687376 
 9272      5F746F5F 
 9272      72676200 
 9273              	.LASF187:
 9274 049b 7468656D 		.ascii	"theme\000"
 9274      6500
 9275              	.LASF53:
 9276 04a1 73697A65 		.ascii	"sizetype\000"
 9276      74797065 
 9276      00
 9277              	.LASF151:
 9278 04aa 74616276 		.ascii	"tabview_init\000"
 9278      6965775F 
 9278      696E6974 
 9278      00
 9279              	.LASF33:
 9280 04b7 4C565F4F 		.ascii	"LV_OPA_TRANSP\000"
 9280      50415F54 
 9280      52414E53 
 9280      5000
 9281              	.LASF20:
 9282 04c5 6C6F6E67 		.ascii	"long double\000"
 9282      20646F75 
 9282      626C6500 
 9283              	.LASF49:
 9284 04d1 66756C6C 		.ascii	"full\000"
 9284      00
 9285              	.LASF174:
 9286 04d6 73775F6B 		.ascii	"sw_knob_on\000"
 9286      6E6F625F 
ARM GAS  C:\Users\pearlstl\AppData\Local\Temp\cc5dErme.s 			page 203


 9286      6F6E00
 9287              	.LASF188:
 9288 04e1 5F687565 		.ascii	"_hue\000"
 9288      00
 9289              	.LASF56:
 9290 04e6 4C565F42 		.ascii	"LV_BORDER_BOTTOM\000"
 9290      4F524445 
 9290      525F424F 
 9290      54544F4D 
 9290      00
 9291              	.LASF135:
 9292 04f7 74696C65 		.ascii	"tileview\000"
 9292      76696577 
 9292      00
 9293              	.LASF42:
 9294 0500 4C565F4F 		.ascii	"LV_OPA_80\000"
 9294      50415F38 
 9294      3000
 9295              	.LASF39:
 9296 050a 4C565F4F 		.ascii	"LV_OPA_50\000"
 9296      50415F35 
 9296      3000
 9297              	.LASF86:
 9298 0514 726F756E 		.ascii	"rounded\000"
 9298      64656400 
 9299              	.LASF139:
 9300 051c 6C765F63 		.ascii	"lv_color_make\000"
 9300      6F6C6F72 
 9300      5F6D616B 
 9300      6500
 9301              	.LASF189:
 9302 052a 5F666F6E 		.ascii	"_font\000"
 9302      7400
 9303              	.LASF95:
 9304 0530 7072696D 		.ascii	"prim\000"
 9304      00
 9305              	.LASF192:
 9306 0535 6C765F73 		.ascii	"lv_style_transp_tight\000"
 9306      74796C65 
 9306      5F747261 
 9306      6E73705F 
 9306      74696768 
 9307              	.LASF176:
 9308 054b 6261725F 		.ascii	"bar_init\000"
 9308      696E6974 
 9308      00
 9309              	.LASF82:
 9310 0554 6C657474 		.ascii	"letter_space\000"
 9310      65725F73 
 9310      70616365 
 9310      00
 9311              	.LASF65:
 9312 0561 6C765F73 		.ascii	"lv_shadow_type_t\000"
 9312      6861646F 
 9312      775F7479 
 9312      70655F74 
 9312      00
ARM GAS  C:\Users\pearlstl\AppData\Local\Temp\cc5dErme.s 			page 204


 9313              	.LASF128:
 9314 0572 6D626F78 		.ascii	"mbox\000"
 9314      00
 9315              	.LASF168:
 9316 0577 67617567 		.ascii	"gauge_init\000"
 9316      655F696E 
 9316      697400
 9317              	.LASF101:
 9318 0582 6B6E6F62 		.ascii	"knob\000"
 9318      00
 9319              	.LASF98:
 9320 0587 6461726B 		.ascii	"dark\000"
 9320      00
 9321              	.LASF30:
 9322 058c 62617365 		.ascii	"base_line\000"
 9322      5F6C696E 
 9322      6500
 9323              	.LASF57:
 9324 0596 4C565F42 		.ascii	"LV_BORDER_TOP\000"
 9324      4F524445 
 9324      525F544F 
 9324      5000
 9325              	.LASF35:
 9326 05a4 4C565F4F 		.ascii	"LV_OPA_10\000"
 9326      50415F31 
 9326      3000
 9327              	.LASF102:
 9328 05ae 6B6E6F62 		.ascii	"knob_off\000"
 9328      5F6F6666 
 9328      00
 9329              	.LASF196:
 9330 05b7 474E5520 		.ascii	"GNU C11 5.4.1 20160609 (release) [ARM/embedded-5-br"
 9330      43313120 
 9330      352E342E 
 9330      31203230 
 9330      31363036 
 9331 05ea 616E6368 		.ascii	"anch revision 237715] -mcpu=cortex-m4 -mfloat-abi=s"
 9331      20726576 
 9331      6973696F 
 9331      6E203233 
 9331      37373135 
 9332 061d 6F667466 		.ascii	"oftfp -mfpu=fpv4-sp-d16 -mthumb -g -O3 -ffunction-s"
 9332      70202D6D 
 9332      6670753D 
 9332      66707634 
 9332      2D73702D 
 9333 0650 65637469 		.ascii	"ections -ffat-lto-objects\000"
 9333      6F6E7320 
 9333      2D666661 
 9333      742D6C74 
 9333      6F2D6F62 
 9334              	.LASF3:
 9335 066a 756E7369 		.ascii	"unsigned char\000"
 9335      676E6564 
 9335      20636861 
 9335      7200
 9336              	.LASF92:
ARM GAS  C:\Users\pearlstl\AppData\Local\Temp\cc5dErme.s 			page 205


 9337 0678 6C765F73 		.ascii	"lv_style_t\000"
 9337      74796C65 
 9337      5F7400
 9338              	.LASF77:
 9339 0683 626F7264 		.ascii	"border\000"
 9339      657200
 9340              	.LASF78:
 9341 068a 73686164 		.ascii	"shadow\000"
 9341      6F7700
 9342              	.LASF90:
 9343 0691 696D6167 		.ascii	"image\000"
 9343      6500
 9344              	.LASF112:
 9345 0697 61726561 		.ascii	"area\000"
 9345      00
 9346              	.LASF162:
 9347 069c 62746E6D 		.ascii	"btnm_init\000"
 9347      5F696E69 
 9347      7400
 9348              	.LASF136:
 9349 06a6 7461626C 		.ascii	"table\000"
 9349      6500
 9350              	.LASF43:
 9351 06ac 4C565F4F 		.ascii	"LV_OPA_90\000"
 9351      50415F39 
 9351      3000
 9352              	.LASF180:
 9353 06b6 696D675F 		.ascii	"img_init\000"
 9353      696E6974 
 9353      00
 9354              	.LASF68:
 9355 06bf 70617274 		.ascii	"part\000"
 9355      00
 9356              	.LASF75:
 9357 06c4 67726164 		.ascii	"grad_color\000"
 9357      5F636F6C 
 9357      6F7200
 9358              	.LASF99:
 9359 06cf 6465636F 		.ascii	"decor\000"
 9359      7200
 9360              	.LASF183:
 9361 06d5 6C616265 		.ascii	"label_init\000"
 9361      6C5F696E 
 9361      697400
 9362              	.LASF158:
 9363 06e0 6C697374 		.ascii	"list_bg\000"
 9363      5F626700 
 9364              	.LASF18:
 9365 06e8 75696E74 		.ascii	"uint32_t\000"
 9365      33325F74 
 9365      00
 9366              	.LASF115:
 9367 06f1 63656C6C 		.ascii	"cell\000"
 9367      00
 9368              	.LASF133:
 9369 06f6 726F6C6C 		.ascii	"roller\000"
 9369      657200
ARM GAS  C:\Users\pearlstl\AppData\Local\Temp\cc5dErme.s 			page 206


 9370              	.LASF201:
 9371 06fd 6C765F74 		.ascii	"lv_theme_get_material\000"
 9371      68656D65 
 9371      5F676574 
 9371      5F6D6174 
 9371      65726961 
 9372              	.LASF96:
 9373 0713 68696E74 		.ascii	"hint\000"
 9373      00
 9374              	.LASF116:
 9375 0718 636F6E74 		.ascii	"content\000"
 9375      656E7400 
 9376              	.LASF177:
 9377 0720 6261725F 		.ascii	"bar_bg\000"
 9377      626700
 9378              	.LASF94:
 9379 0727 74676C5F 		.ascii	"tgl_pr\000"
 9379      707200
 9380              	.LASF46:
 9381 072e 626C7565 		.ascii	"blue\000"
 9381      00
 9382              	.LASF182:
 9383 0733 696D675F 		.ascii	"img_dark\000"
 9383      6461726B 
 9383      00
 9384              	.LASF66:
 9385 073c 636F6C6F 		.ascii	"color\000"
 9385      7200
 9386              	.LASF54:
 9387 0742 63686172 		.ascii	"char\000"
 9387      00
 9388              	.LASF36:
 9389 0747 4C565F4F 		.ascii	"LV_OPA_20\000"
 9389      50415F32 
 9389      3000
 9390              	.LASF110:
 9391 0751 746F6461 		.ascii	"today_box\000"
 9391      795F626F 
 9391      7800
 9392              	.LASF6:
 9393 075b 5F5F7569 		.ascii	"__uint16_t\000"
 9393      6E743136 
 9393      5F7400
 9394              	.LASF117:
 9395 0766 70616E65 		.ascii	"panel\000"
 9395      6C00
 9396              	.LASF59:
 9397 076c 4C565F42 		.ascii	"LV_BORDER_RIGHT\000"
 9397      4F524445 
 9397      525F5249 
 9397      47485400 
 9398              	.LASF164:
 9399 077c 63616C65 		.ascii	"calendar_init\000"
 9399      6E646172 
 9399      5F696E69 
 9399      7400
 9400              	.LASF15:
ARM GAS  C:\Users\pearlstl\AppData\Local\Temp\cc5dErme.s 			page 207


 9401 078a 75696E74 		.ascii	"uint8_t\000"
 9401      385F7400 
 9402              	.LASF137:
 9403 0792 7374796C 		.ascii	"style\000"
 9403      6500
 9404              	.LASF51:
 9405 0798 6C765F63 		.ascii	"lv_color_t\000"
 9405      6F6C6F72 
 9405      5F7400
 9406              	.LASF119:
 9407 07a3 696D6762 		.ascii	"imgbtn\000"
 9407      746E00
 9408              	.LASF44:
 9409 07aa 4C565F4F 		.ascii	"LV_OPA_100\000"
 9409      50415F31 
 9409      303000
 9410              	.LASF21:
 9411 07b5 6164765F 		.ascii	"adv_w\000"
 9411      7700
 9412              	.LASF138:
 9413 07bb 6C765F74 		.ascii	"lv_theme_t\000"
 9413      68656D65 
 9413      5F7400
 9414              	.LASF105:
 9415 07c6 68656164 		.ascii	"header_pr\000"
 9415      65725F70 
 9415      7200
 9416              	.LASF160:
 9417 07d0 6D626F78 		.ascii	"mbox_init\000"
 9417      5F696E69 
 9417      7400
 9418              	.LASF23:
 9419 07da 626F785F 		.ascii	"box_h\000"
 9419      6800
 9420              	.LASF14:
 9421 07e0 696E7438 		.ascii	"int8_t\000"
 9421      5F7400
 9422              	.LASF124:
 9423 07e7 7072656C 		.ascii	"preload\000"
 9423      6F616400 
 9424              	.LASF60:
 9425 07ef 4C565F42 		.ascii	"LV_BORDER_FULL\000"
 9425      4F524445 
 9425      525F4655 
 9425      4C4C00
 9426              	.LASF58:
 9427 07fe 4C565F42 		.ascii	"LV_BORDER_LEFT\000"
 9427      4F524445 
 9427      525F4C45 
 9427      465400
 9428              	.LASF171:
 9429 080d 73775F62 		.ascii	"sw_bg\000"
 9429      6700
 9430              	.LASF31:
 9431 0813 5F426F6F 		.ascii	"_Bool\000"
 9431      6C00
 9432              	.LASF184:
ARM GAS  C:\Users\pearlstl\AppData\Local\Temp\cc5dErme.s 			page 208


 9433 0819 62746E5F 		.ascii	"btn_init\000"
 9433      696E6974 
 9433      00
 9434              	.LASF63:
 9435 0822 4C565F53 		.ascii	"LV_SHADOW_BOTTOM\000"
 9435      4841444F 
 9435      575F424F 
 9435      54544F4D 
 9435      00
 9436              	.LASF165:
 9437 0833 696E615F 		.ascii	"ina_days\000"
 9437      64617973 
 9437      00
 9438              	.LASF132:
 9439 083c 64646C69 		.ascii	"ddlist\000"
 9439      737400
 9440              	.LASF81:
 9441 0843 666F6E74 		.ascii	"font\000"
 9441      00
 9442              	.LASF47:
 9443 0848 67726565 		.ascii	"green\000"
 9443      6E00
 9444              	.LASF84:
 9445 084e 696E7465 		.ascii	"intense\000"
 9445      6E736500 
 9446              	.LASF118:
 9447 0856 636F6E74 		.ascii	"cont\000"
 9447      00
 9448              	.LASF126:
 9449 085b 63616C65 		.ascii	"calendar\000"
 9449      6E646172 
 9449      00
 9450              	.LASF22:
 9451 0864 626F785F 		.ascii	"box_w\000"
 9451      7700
 9452              	.LASF125:
 9453 086a 63686172 		.ascii	"chart\000"
 9453      7400
 9454              	.LASF142:
 9455 0870 74696C65 		.ascii	"tileview_init\000"
 9455      76696577 
 9455      5F696E69 
 9455      7400
 9456              	.LASF199:
 9457 087e 5F6C765F 		.ascii	"_lv_font_struct\000"
 9457      666F6E74 
 9457      5F737472 
 9457      75637400 
 9458              	.LASF145:
 9459 088e 7072656C 		.ascii	"preload_init\000"
 9459      6F61645F 
 9459      696E6974 
 9459      00
 9460              	.LASF62:
 9461 089b 6C765F62 		.ascii	"lv_border_part_t\000"
 9461      6F726465 
 9461      725F7061 
ARM GAS  C:\Users\pearlstl\AppData\Local\Temp\cc5dErme.s 			page 209


 9461      72745F74 
 9461      00
 9462              	.LASF24:
 9463 08ac 6F66735F 		.ascii	"ofs_x\000"
 9463      7800
 9464              	.LASF25:
 9465 08b2 6F66735F 		.ascii	"ofs_y\000"
 9465      7900
 9466              	.LASF191:
 9467 08b8 6C765F73 		.ascii	"lv_style_transp\000"
 9467      74796C65 
 9467      5F747261 
 9467      6E737000 
 9468              	.LASF26:
 9469 08c8 6C765F66 		.ascii	"lv_font_glyph_dsc_t\000"
 9469      6F6E745F 
 9469      676C7970 
 9469      685F6473 
 9469      635F7400 
 9470              	.LASF73:
 9471 08dc 696E6E65 		.ascii	"inner\000"
 9471      7200
 9472              	.LASF153:
 9473 08e2 726F6C6C 		.ascii	"roller_init\000"
 9473      65725F69 
 9473      6E697400 
 9474              	.LASF185:
 9475 08ee 62617369 		.ascii	"basic_init\000"
 9475      635F696E 
 9475      697400
 9476              	.LASF71:
 9477 08f9 6C656674 		.ascii	"left\000"
 9477      00
 9478              	.LASF134:
 9479 08fe 74616276 		.ascii	"tabview\000"
 9479      69657700 
 9480              	.LASF104:
 9481 0906 68656164 		.ascii	"header\000"
 9481      657200
 9482              	.LASF121:
 9483 090d 736C6964 		.ascii	"slider\000"
 9483      657200
 9484              	.LASF179:
 9485 0914 6C65645F 		.ascii	"led_init\000"
 9485      696E6974 
 9485      00
 9486              		.ident	"GCC: (GNU Tools for ARM Embedded Processors) 5.4.1 20160609 (release) [ARM/embedded-5-bran
