ARM GAS  C:\Users\pearlstl\AppData\Local\Temp\ccIMJlIA.s 			page 1


   1              		.syntax unified
   2              		.cpu cortex-m4
   3              		.eabi_attribute 27, 1
   4              		.fpu fpv4-sp-d16
   5              		.eabi_attribute 20, 1
   6              		.eabi_attribute 21, 1
   7              		.eabi_attribute 23, 3
   8              		.eabi_attribute 24, 1
   9              		.eabi_attribute 25, 1
  10              		.eabi_attribute 26, 1
  11              		.eabi_attribute 30, 2
  12              		.eabi_attribute 34, 1
  13              		.eabi_attribute 18, 4
  14              		.thumb
  15              		.syntax unified
  16              		.file	"lv_tileview.c"
  17              		.text
  18              	.Ltext0:
  19              		.cfi_sections	.debug_frame
  20              		.section	.text.lv_tileview_scrl_signal,"ax",%progbits
  21              		.align	2
  22              		.thumb
  23              		.thumb_func
  24              		.type	lv_tileview_scrl_signal, %function
  25              	lv_tileview_scrl_signal:
  26              	.LFB59:
  27              		.file 1 "..\\..\\..\\lvgl\\version_6.1.2\\lvgl\\src\\lv_objx\\lv_tileview.c"
   1:..\..\..\lvgl\version_6.1.2\lvgl\src\lv_objx/lv_tileview.c **** /**
   2:..\..\..\lvgl\version_6.1.2\lvgl\src\lv_objx/lv_tileview.c ****  * @file lv_tileview.c
   3:..\..\..\lvgl\version_6.1.2\lvgl\src\lv_objx/lv_tileview.c ****  *
   4:..\..\..\lvgl\version_6.1.2\lvgl\src\lv_objx/lv_tileview.c ****  */
   5:..\..\..\lvgl\version_6.1.2\lvgl\src\lv_objx/lv_tileview.c **** 
   6:..\..\..\lvgl\version_6.1.2\lvgl\src\lv_objx/lv_tileview.c **** /*********************
   7:..\..\..\lvgl\version_6.1.2\lvgl\src\lv_objx/lv_tileview.c ****  *      INCLUDES
   8:..\..\..\lvgl\version_6.1.2\lvgl\src\lv_objx/lv_tileview.c ****  *********************/
   9:..\..\..\lvgl\version_6.1.2\lvgl\src\lv_objx/lv_tileview.c **** #include "lv_tileview.h"
  10:..\..\..\lvgl\version_6.1.2\lvgl\src\lv_objx/lv_tileview.c **** #if LV_USE_TILEVIEW != 0
  11:..\..\..\lvgl\version_6.1.2\lvgl\src\lv_objx/lv_tileview.c **** 
  12:..\..\..\lvgl\version_6.1.2\lvgl\src\lv_objx/lv_tileview.c **** #include <stdbool.h>
  13:..\..\..\lvgl\version_6.1.2\lvgl\src\lv_objx/lv_tileview.c **** #include "lv_cont.h"
  14:..\..\..\lvgl\version_6.1.2\lvgl\src\lv_objx/lv_tileview.c **** #include "../lv_core/lv_debug.h"
  15:..\..\..\lvgl\version_6.1.2\lvgl\src\lv_objx/lv_tileview.c **** #include "../lv_themes/lv_theme.h"
  16:..\..\..\lvgl\version_6.1.2\lvgl\src\lv_objx/lv_tileview.c **** 
  17:..\..\..\lvgl\version_6.1.2\lvgl\src\lv_objx/lv_tileview.c **** /*********************
  18:..\..\..\lvgl\version_6.1.2\lvgl\src\lv_objx/lv_tileview.c ****  *      DEFINES
  19:..\..\..\lvgl\version_6.1.2\lvgl\src\lv_objx/lv_tileview.c ****  *********************/
  20:..\..\..\lvgl\version_6.1.2\lvgl\src\lv_objx/lv_tileview.c **** #define LV_OBJX_NAME "lv_tileview"
  21:..\..\..\lvgl\version_6.1.2\lvgl\src\lv_objx/lv_tileview.c **** 
  22:..\..\..\lvgl\version_6.1.2\lvgl\src\lv_objx/lv_tileview.c **** #if LV_USE_ANIMATION
  23:..\..\..\lvgl\version_6.1.2\lvgl\src\lv_objx/lv_tileview.c **** #ifndef LV_TILEVIEW_DEF_ANIM_TIME
  24:..\..\..\lvgl\version_6.1.2\lvgl\src\lv_objx/lv_tileview.c **** #define LV_TILEVIEW_DEF_ANIM_TIME 300 /*Animation time loading a tile [ms] (0: no animation)  */
  25:..\..\..\lvgl\version_6.1.2\lvgl\src\lv_objx/lv_tileview.c **** #endif
  26:..\..\..\lvgl\version_6.1.2\lvgl\src\lv_objx/lv_tileview.c **** #else
  27:..\..\..\lvgl\version_6.1.2\lvgl\src\lv_objx/lv_tileview.c **** #undef LV_TILEVIEW_DEF_ANIM_TIME
  28:..\..\..\lvgl\version_6.1.2\lvgl\src\lv_objx/lv_tileview.c **** #define LV_TILEVIEW_DEF_ANIM_TIME 0 /*No animations*/
  29:..\..\..\lvgl\version_6.1.2\lvgl\src\lv_objx/lv_tileview.c **** #endif
  30:..\..\..\lvgl\version_6.1.2\lvgl\src\lv_objx/lv_tileview.c **** 
ARM GAS  C:\Users\pearlstl\AppData\Local\Temp\ccIMJlIA.s 			page 2


  31:..\..\..\lvgl\version_6.1.2\lvgl\src\lv_objx/lv_tileview.c **** /**********************
  32:..\..\..\lvgl\version_6.1.2\lvgl\src\lv_objx/lv_tileview.c ****  *      TYPEDEFS
  33:..\..\..\lvgl\version_6.1.2\lvgl\src\lv_objx/lv_tileview.c ****  **********************/
  34:..\..\..\lvgl\version_6.1.2\lvgl\src\lv_objx/lv_tileview.c **** 
  35:..\..\..\lvgl\version_6.1.2\lvgl\src\lv_objx/lv_tileview.c **** /**********************
  36:..\..\..\lvgl\version_6.1.2\lvgl\src\lv_objx/lv_tileview.c ****  *  STATIC PROTOTYPES
  37:..\..\..\lvgl\version_6.1.2\lvgl\src\lv_objx/lv_tileview.c ****  **********************/
  38:..\..\..\lvgl\version_6.1.2\lvgl\src\lv_objx/lv_tileview.c **** static lv_res_t lv_tileview_signal(lv_obj_t * tileview, lv_signal_t sign, void * param);
  39:..\..\..\lvgl\version_6.1.2\lvgl\src\lv_objx/lv_tileview.c **** static lv_res_t lv_tileview_scrl_signal(lv_obj_t * scrl, lv_signal_t sign, void * param);
  40:..\..\..\lvgl\version_6.1.2\lvgl\src\lv_objx/lv_tileview.c **** static void tileview_scrl_event_cb(lv_obj_t * scrl, lv_event_t event);
  41:..\..\..\lvgl\version_6.1.2\lvgl\src\lv_objx/lv_tileview.c **** static void drag_end_handler(lv_obj_t * tileview);
  42:..\..\..\lvgl\version_6.1.2\lvgl\src\lv_objx/lv_tileview.c **** static bool set_valid_drag_dirs(lv_obj_t * tileview);
  43:..\..\..\lvgl\version_6.1.2\lvgl\src\lv_objx/lv_tileview.c **** 
  44:..\..\..\lvgl\version_6.1.2\lvgl\src\lv_objx/lv_tileview.c **** /**********************
  45:..\..\..\lvgl\version_6.1.2\lvgl\src\lv_objx/lv_tileview.c ****  *  STATIC VARIABLES
  46:..\..\..\lvgl\version_6.1.2\lvgl\src\lv_objx/lv_tileview.c ****  **********************/
  47:..\..\..\lvgl\version_6.1.2\lvgl\src\lv_objx/lv_tileview.c **** static lv_signal_cb_t ancestor_signal;
  48:..\..\..\lvgl\version_6.1.2\lvgl\src\lv_objx/lv_tileview.c **** static lv_signal_cb_t ancestor_scrl_signal;
  49:..\..\..\lvgl\version_6.1.2\lvgl\src\lv_objx/lv_tileview.c **** static lv_design_cb_t ancestor_design;
  50:..\..\..\lvgl\version_6.1.2\lvgl\src\lv_objx/lv_tileview.c **** 
  51:..\..\..\lvgl\version_6.1.2\lvgl\src\lv_objx/lv_tileview.c **** /**********************
  52:..\..\..\lvgl\version_6.1.2\lvgl\src\lv_objx/lv_tileview.c ****  *      MACROS
  53:..\..\..\lvgl\version_6.1.2\lvgl\src\lv_objx/lv_tileview.c ****  **********************/
  54:..\..\..\lvgl\version_6.1.2\lvgl\src\lv_objx/lv_tileview.c **** 
  55:..\..\..\lvgl\version_6.1.2\lvgl\src\lv_objx/lv_tileview.c **** /**********************
  56:..\..\..\lvgl\version_6.1.2\lvgl\src\lv_objx/lv_tileview.c ****  *   GLOBAL FUNCTIONS
  57:..\..\..\lvgl\version_6.1.2\lvgl\src\lv_objx/lv_tileview.c ****  **********************/
  58:..\..\..\lvgl\version_6.1.2\lvgl\src\lv_objx/lv_tileview.c **** 
  59:..\..\..\lvgl\version_6.1.2\lvgl\src\lv_objx/lv_tileview.c **** /**
  60:..\..\..\lvgl\version_6.1.2\lvgl\src\lv_objx/lv_tileview.c ****  * Create a tileview object
  61:..\..\..\lvgl\version_6.1.2\lvgl\src\lv_objx/lv_tileview.c ****  * @param par pointer to an object, it will be the parent of the new tileview
  62:..\..\..\lvgl\version_6.1.2\lvgl\src\lv_objx/lv_tileview.c ****  * @param copy pointer to a tileview object, if not NULL then the new object will be copied from it
  63:..\..\..\lvgl\version_6.1.2\lvgl\src\lv_objx/lv_tileview.c ****  * @return pointer to the created tileview
  64:..\..\..\lvgl\version_6.1.2\lvgl\src\lv_objx/lv_tileview.c ****  */
  65:..\..\..\lvgl\version_6.1.2\lvgl\src\lv_objx/lv_tileview.c **** lv_obj_t * lv_tileview_create(lv_obj_t * par, const lv_obj_t * copy)
  66:..\..\..\lvgl\version_6.1.2\lvgl\src\lv_objx/lv_tileview.c **** {
  67:..\..\..\lvgl\version_6.1.2\lvgl\src\lv_objx/lv_tileview.c ****     LV_LOG_TRACE("tileview create started");
  68:..\..\..\lvgl\version_6.1.2\lvgl\src\lv_objx/lv_tileview.c **** 
  69:..\..\..\lvgl\version_6.1.2\lvgl\src\lv_objx/lv_tileview.c ****     /*Create the ancestor of tileview*/
  70:..\..\..\lvgl\version_6.1.2\lvgl\src\lv_objx/lv_tileview.c ****     lv_obj_t * new_tileview = lv_page_create(par, copy);
  71:..\..\..\lvgl\version_6.1.2\lvgl\src\lv_objx/lv_tileview.c ****     LV_ASSERT_MEM(new_tileview);
  72:..\..\..\lvgl\version_6.1.2\lvgl\src\lv_objx/lv_tileview.c ****     if(new_tileview == NULL) return NULL;
  73:..\..\..\lvgl\version_6.1.2\lvgl\src\lv_objx/lv_tileview.c **** 
  74:..\..\..\lvgl\version_6.1.2\lvgl\src\lv_objx/lv_tileview.c ****     /*Allocate the tileview type specific extended data*/
  75:..\..\..\lvgl\version_6.1.2\lvgl\src\lv_objx/lv_tileview.c ****     lv_tileview_ext_t * ext = lv_obj_allocate_ext_attr(new_tileview, sizeof(lv_tileview_ext_t));
  76:..\..\..\lvgl\version_6.1.2\lvgl\src\lv_objx/lv_tileview.c ****     LV_ASSERT_MEM(ext);
  77:..\..\..\lvgl\version_6.1.2\lvgl\src\lv_objx/lv_tileview.c ****     if(ext == NULL) return NULL;
  78:..\..\..\lvgl\version_6.1.2\lvgl\src\lv_objx/lv_tileview.c ****     if(ancestor_signal == NULL) ancestor_signal = lv_obj_get_signal_cb(new_tileview);
  79:..\..\..\lvgl\version_6.1.2\lvgl\src\lv_objx/lv_tileview.c ****     if(ancestor_scrl_signal == NULL) ancestor_scrl_signal = lv_obj_get_signal_cb(lv_page_get_scrl(n
  80:..\..\..\lvgl\version_6.1.2\lvgl\src\lv_objx/lv_tileview.c ****     if(ancestor_design == NULL) ancestor_design = lv_obj_get_design_cb(new_tileview);
  81:..\..\..\lvgl\version_6.1.2\lvgl\src\lv_objx/lv_tileview.c **** 
  82:..\..\..\lvgl\version_6.1.2\lvgl\src\lv_objx/lv_tileview.c ****         /*Initialize the allocated 'ext' */
  83:..\..\..\lvgl\version_6.1.2\lvgl\src\lv_objx/lv_tileview.c **** #if LV_USE_ANIMATION
  84:..\..\..\lvgl\version_6.1.2\lvgl\src\lv_objx/lv_tileview.c ****     ext->anim_time = LV_TILEVIEW_DEF_ANIM_TIME;
  85:..\..\..\lvgl\version_6.1.2\lvgl\src\lv_objx/lv_tileview.c **** #endif
  86:..\..\..\lvgl\version_6.1.2\lvgl\src\lv_objx/lv_tileview.c ****     ext->act_id.x      = 0;
  87:..\..\..\lvgl\version_6.1.2\lvgl\src\lv_objx/lv_tileview.c ****     ext->act_id.y      = 0;
ARM GAS  C:\Users\pearlstl\AppData\Local\Temp\ccIMJlIA.s 			page 3


  88:..\..\..\lvgl\version_6.1.2\lvgl\src\lv_objx/lv_tileview.c ****     ext->valid_pos     = NULL;
  89:..\..\..\lvgl\version_6.1.2\lvgl\src\lv_objx/lv_tileview.c ****     ext->valid_pos_cnt = 0;
  90:..\..\..\lvgl\version_6.1.2\lvgl\src\lv_objx/lv_tileview.c **** 
  91:..\..\..\lvgl\version_6.1.2\lvgl\src\lv_objx/lv_tileview.c ****     /*The signal and design functions are not copied so set them here*/
  92:..\..\..\lvgl\version_6.1.2\lvgl\src\lv_objx/lv_tileview.c ****     lv_obj_set_signal_cb(new_tileview, lv_tileview_signal);
  93:..\..\..\lvgl\version_6.1.2\lvgl\src\lv_objx/lv_tileview.c ****     lv_obj_set_signal_cb(lv_page_get_scrl(new_tileview), lv_tileview_scrl_signal);
  94:..\..\..\lvgl\version_6.1.2\lvgl\src\lv_objx/lv_tileview.c **** 
  95:..\..\..\lvgl\version_6.1.2\lvgl\src\lv_objx/lv_tileview.c ****     /*Init the new tileview*/
  96:..\..\..\lvgl\version_6.1.2\lvgl\src\lv_objx/lv_tileview.c ****     if(copy == NULL) {
  97:..\..\..\lvgl\version_6.1.2\lvgl\src\lv_objx/lv_tileview.c ****         /* Set a size which fits into the parent.
  98:..\..\..\lvgl\version_6.1.2\lvgl\src\lv_objx/lv_tileview.c ****          * Don't use `par` directly because if the tileview is created on a page it is moved to the
  99:..\..\..\lvgl\version_6.1.2\lvgl\src\lv_objx/lv_tileview.c ****          * scrollable so the parent has changed */
 100:..\..\..\lvgl\version_6.1.2\lvgl\src\lv_objx/lv_tileview.c ****         lv_coord_t w;
 101:..\..\..\lvgl\version_6.1.2\lvgl\src\lv_objx/lv_tileview.c ****         lv_coord_t h;
 102:..\..\..\lvgl\version_6.1.2\lvgl\src\lv_objx/lv_tileview.c ****         if(par) {
 103:..\..\..\lvgl\version_6.1.2\lvgl\src\lv_objx/lv_tileview.c ****             w = lv_obj_get_width_fit(lv_obj_get_parent(new_tileview));
 104:..\..\..\lvgl\version_6.1.2\lvgl\src\lv_objx/lv_tileview.c ****             h = lv_obj_get_height_fit(lv_obj_get_parent(new_tileview));
 105:..\..\..\lvgl\version_6.1.2\lvgl\src\lv_objx/lv_tileview.c ****         } else {
 106:..\..\..\lvgl\version_6.1.2\lvgl\src\lv_objx/lv_tileview.c ****             w = lv_disp_get_hor_res(NULL);
 107:..\..\..\lvgl\version_6.1.2\lvgl\src\lv_objx/lv_tileview.c ****             h = lv_disp_get_ver_res(NULL);
 108:..\..\..\lvgl\version_6.1.2\lvgl\src\lv_objx/lv_tileview.c ****         }
 109:..\..\..\lvgl\version_6.1.2\lvgl\src\lv_objx/lv_tileview.c **** 
 110:..\..\..\lvgl\version_6.1.2\lvgl\src\lv_objx/lv_tileview.c ****         lv_obj_set_size(new_tileview, w, h);
 111:..\..\..\lvgl\version_6.1.2\lvgl\src\lv_objx/lv_tileview.c **** 
 112:..\..\..\lvgl\version_6.1.2\lvgl\src\lv_objx/lv_tileview.c ****         lv_obj_set_drag_throw(lv_page_get_scrl(new_tileview), false);
 113:..\..\..\lvgl\version_6.1.2\lvgl\src\lv_objx/lv_tileview.c ****         lv_page_set_scrl_fit(new_tileview, LV_FIT_TIGHT);
 114:..\..\..\lvgl\version_6.1.2\lvgl\src\lv_objx/lv_tileview.c ****         lv_obj_set_event_cb(ext->page.scrl, tileview_scrl_event_cb);
 115:..\..\..\lvgl\version_6.1.2\lvgl\src\lv_objx/lv_tileview.c ****         /*Set the default styles*/
 116:..\..\..\lvgl\version_6.1.2\lvgl\src\lv_objx/lv_tileview.c ****         lv_theme_t * th = lv_theme_get_current();
 117:..\..\..\lvgl\version_6.1.2\lvgl\src\lv_objx/lv_tileview.c ****         if(th) {
 118:..\..\..\lvgl\version_6.1.2\lvgl\src\lv_objx/lv_tileview.c ****             lv_page_set_style(new_tileview, LV_PAGE_STYLE_BG, th->style.tileview.bg);
 119:..\..\..\lvgl\version_6.1.2\lvgl\src\lv_objx/lv_tileview.c ****             lv_page_set_style(new_tileview, LV_PAGE_STYLE_SCRL, th->style.tileview.scrl);
 120:..\..\..\lvgl\version_6.1.2\lvgl\src\lv_objx/lv_tileview.c ****             lv_page_set_style(new_tileview, LV_PAGE_STYLE_SB, th->style.tileview.sb);
 121:..\..\..\lvgl\version_6.1.2\lvgl\src\lv_objx/lv_tileview.c ****         } else {
 122:..\..\..\lvgl\version_6.1.2\lvgl\src\lv_objx/lv_tileview.c ****             lv_page_set_style(new_tileview, LV_PAGE_STYLE_BG, &lv_style_transp_tight);
 123:..\..\..\lvgl\version_6.1.2\lvgl\src\lv_objx/lv_tileview.c ****             lv_page_set_style(new_tileview, LV_PAGE_STYLE_SCRL, &lv_style_transp_tight);
 124:..\..\..\lvgl\version_6.1.2\lvgl\src\lv_objx/lv_tileview.c ****         }
 125:..\..\..\lvgl\version_6.1.2\lvgl\src\lv_objx/lv_tileview.c ****     }
 126:..\..\..\lvgl\version_6.1.2\lvgl\src\lv_objx/lv_tileview.c ****     /*Copy an existing tileview*/
 127:..\..\..\lvgl\version_6.1.2\lvgl\src\lv_objx/lv_tileview.c ****     else {
 128:..\..\..\lvgl\version_6.1.2\lvgl\src\lv_objx/lv_tileview.c ****         lv_tileview_ext_t * copy_ext = lv_obj_get_ext_attr(copy);
 129:..\..\..\lvgl\version_6.1.2\lvgl\src\lv_objx/lv_tileview.c ****         ext->act_id.x                = copy_ext->act_id.x;
 130:..\..\..\lvgl\version_6.1.2\lvgl\src\lv_objx/lv_tileview.c ****         ext->act_id.y                = copy_ext->act_id.y;
 131:..\..\..\lvgl\version_6.1.2\lvgl\src\lv_objx/lv_tileview.c ****         ext->valid_pos               = copy_ext->valid_pos;
 132:..\..\..\lvgl\version_6.1.2\lvgl\src\lv_objx/lv_tileview.c ****         ext->valid_pos_cnt           = copy_ext->valid_pos_cnt;
 133:..\..\..\lvgl\version_6.1.2\lvgl\src\lv_objx/lv_tileview.c **** #if LV_USE_ANIMATION
 134:..\..\..\lvgl\version_6.1.2\lvgl\src\lv_objx/lv_tileview.c ****         ext->anim_time = copy_ext->anim_time;
 135:..\..\..\lvgl\version_6.1.2\lvgl\src\lv_objx/lv_tileview.c **** #endif
 136:..\..\..\lvgl\version_6.1.2\lvgl\src\lv_objx/lv_tileview.c **** 
 137:..\..\..\lvgl\version_6.1.2\lvgl\src\lv_objx/lv_tileview.c ****         /*Refresh the style with new signal function*/
 138:..\..\..\lvgl\version_6.1.2\lvgl\src\lv_objx/lv_tileview.c ****         lv_obj_refresh_style(new_tileview);
 139:..\..\..\lvgl\version_6.1.2\lvgl\src\lv_objx/lv_tileview.c ****     }
 140:..\..\..\lvgl\version_6.1.2\lvgl\src\lv_objx/lv_tileview.c **** 
 141:..\..\..\lvgl\version_6.1.2\lvgl\src\lv_objx/lv_tileview.c ****     LV_LOG_INFO("tileview created");
 142:..\..\..\lvgl\version_6.1.2\lvgl\src\lv_objx/lv_tileview.c **** 
 143:..\..\..\lvgl\version_6.1.2\lvgl\src\lv_objx/lv_tileview.c ****     return new_tileview;
 144:..\..\..\lvgl\version_6.1.2\lvgl\src\lv_objx/lv_tileview.c **** }
ARM GAS  C:\Users\pearlstl\AppData\Local\Temp\ccIMJlIA.s 			page 4


 145:..\..\..\lvgl\version_6.1.2\lvgl\src\lv_objx/lv_tileview.c **** 
 146:..\..\..\lvgl\version_6.1.2\lvgl\src\lv_objx/lv_tileview.c **** /*======================
 147:..\..\..\lvgl\version_6.1.2\lvgl\src\lv_objx/lv_tileview.c ****  * Add/remove functions
 148:..\..\..\lvgl\version_6.1.2\lvgl\src\lv_objx/lv_tileview.c ****  *=====================*/
 149:..\..\..\lvgl\version_6.1.2\lvgl\src\lv_objx/lv_tileview.c **** 
 150:..\..\..\lvgl\version_6.1.2\lvgl\src\lv_objx/lv_tileview.c **** /**
 151:..\..\..\lvgl\version_6.1.2\lvgl\src\lv_objx/lv_tileview.c ****  * Register an object on the tileview. The register object will able to slide the tileview
 152:..\..\..\lvgl\version_6.1.2\lvgl\src\lv_objx/lv_tileview.c ****  * @param tileview pointer to a Tileview object
 153:..\..\..\lvgl\version_6.1.2\lvgl\src\lv_objx/lv_tileview.c ****  * @param element pointer to an object
 154:..\..\..\lvgl\version_6.1.2\lvgl\src\lv_objx/lv_tileview.c ****  */
 155:..\..\..\lvgl\version_6.1.2\lvgl\src\lv_objx/lv_tileview.c **** void lv_tileview_add_element(lv_obj_t * tileview, lv_obj_t * element)
 156:..\..\..\lvgl\version_6.1.2\lvgl\src\lv_objx/lv_tileview.c **** {
 157:..\..\..\lvgl\version_6.1.2\lvgl\src\lv_objx/lv_tileview.c ****     LV_ASSERT_OBJ(tileview, LV_OBJX_NAME);
 158:..\..\..\lvgl\version_6.1.2\lvgl\src\lv_objx/lv_tileview.c ****     LV_ASSERT_NULL(tileview);
 159:..\..\..\lvgl\version_6.1.2\lvgl\src\lv_objx/lv_tileview.c **** 
 160:..\..\..\lvgl\version_6.1.2\lvgl\src\lv_objx/lv_tileview.c ****     /* Let the objects event to propagate to the scrollable part of the tileview.
 161:..\..\..\lvgl\version_6.1.2\lvgl\src\lv_objx/lv_tileview.c ****      * It is required the handle dargging of the tileview with the element.*/
 162:..\..\..\lvgl\version_6.1.2\lvgl\src\lv_objx/lv_tileview.c ****     element->parent_event = 1;
 163:..\..\..\lvgl\version_6.1.2\lvgl\src\lv_objx/lv_tileview.c ****     lv_obj_set_drag_parent(element, true);
 164:..\..\..\lvgl\version_6.1.2\lvgl\src\lv_objx/lv_tileview.c **** 
 165:..\..\..\lvgl\version_6.1.2\lvgl\src\lv_objx/lv_tileview.c ****     /* When adding a new element the coordinates may shift.
 166:..\..\..\lvgl\version_6.1.2\lvgl\src\lv_objx/lv_tileview.c ****      * For example y=1 can become y=1 if an element is added to the top.
 167:..\..\..\lvgl\version_6.1.2\lvgl\src\lv_objx/lv_tileview.c ****      * So be sure the current tile is correctly shown*/
 168:..\..\..\lvgl\version_6.1.2\lvgl\src\lv_objx/lv_tileview.c ****     lv_tileview_ext_t * ext = lv_obj_get_ext_attr(tileview);
 169:..\..\..\lvgl\version_6.1.2\lvgl\src\lv_objx/lv_tileview.c ****     lv_tileview_set_tile_act(tileview, ext->act_id.x, ext->act_id.y, false);
 170:..\..\..\lvgl\version_6.1.2\lvgl\src\lv_objx/lv_tileview.c **** }
 171:..\..\..\lvgl\version_6.1.2\lvgl\src\lv_objx/lv_tileview.c **** 
 172:..\..\..\lvgl\version_6.1.2\lvgl\src\lv_objx/lv_tileview.c **** /*=====================
 173:..\..\..\lvgl\version_6.1.2\lvgl\src\lv_objx/lv_tileview.c ****  * Setter functions
 174:..\..\..\lvgl\version_6.1.2\lvgl\src\lv_objx/lv_tileview.c ****  *====================*/
 175:..\..\..\lvgl\version_6.1.2\lvgl\src\lv_objx/lv_tileview.c **** 
 176:..\..\..\lvgl\version_6.1.2\lvgl\src\lv_objx/lv_tileview.c **** /**
 177:..\..\..\lvgl\version_6.1.2\lvgl\src\lv_objx/lv_tileview.c ****  * Set the valid position's indices. The scrolling will be possible only to these positions.
 178:..\..\..\lvgl\version_6.1.2\lvgl\src\lv_objx/lv_tileview.c ****  * @param tileview pointer to a Tileview object
 179:..\..\..\lvgl\version_6.1.2\lvgl\src\lv_objx/lv_tileview.c ****  * @param valid_pos array width the indices. E.g. `lv_point_t p[] = {{0,0}, {1,0}, {1,1}`.
 180:..\..\..\lvgl\version_6.1.2\lvgl\src\lv_objx/lv_tileview.c ****  * Only the pointer is saved so can't be a local variable.
 181:..\..\..\lvgl\version_6.1.2\lvgl\src\lv_objx/lv_tileview.c ****  * @param valid_pos_cnt numner of elements in `valid_pos` array
 182:..\..\..\lvgl\version_6.1.2\lvgl\src\lv_objx/lv_tileview.c ****  */
 183:..\..\..\lvgl\version_6.1.2\lvgl\src\lv_objx/lv_tileview.c **** void lv_tileview_set_valid_positions(lv_obj_t * tileview, const lv_point_t valid_pos[], uint16_t va
 184:..\..\..\lvgl\version_6.1.2\lvgl\src\lv_objx/lv_tileview.c **** {
 185:..\..\..\lvgl\version_6.1.2\lvgl\src\lv_objx/lv_tileview.c ****     LV_ASSERT_OBJ(tileview, LV_OBJX_NAME);
 186:..\..\..\lvgl\version_6.1.2\lvgl\src\lv_objx/lv_tileview.c ****     LV_ASSERT_NULL(valid_pos);
 187:..\..\..\lvgl\version_6.1.2\lvgl\src\lv_objx/lv_tileview.c **** 
 188:..\..\..\lvgl\version_6.1.2\lvgl\src\lv_objx/lv_tileview.c ****     lv_tileview_ext_t * ext = lv_obj_get_ext_attr(tileview);
 189:..\..\..\lvgl\version_6.1.2\lvgl\src\lv_objx/lv_tileview.c ****     ext->valid_pos          = valid_pos;
 190:..\..\..\lvgl\version_6.1.2\lvgl\src\lv_objx/lv_tileview.c ****     ext->valid_pos_cnt      = valid_pos_cnt;
 191:..\..\..\lvgl\version_6.1.2\lvgl\src\lv_objx/lv_tileview.c **** 
 192:..\..\..\lvgl\version_6.1.2\lvgl\src\lv_objx/lv_tileview.c ****     /*If valid pos. is selected do nothing*/
 193:..\..\..\lvgl\version_6.1.2\lvgl\src\lv_objx/lv_tileview.c ****     uint16_t i;
 194:..\..\..\lvgl\version_6.1.2\lvgl\src\lv_objx/lv_tileview.c ****     for(i = 0; i < valid_pos_cnt; i++) {
 195:..\..\..\lvgl\version_6.1.2\lvgl\src\lv_objx/lv_tileview.c ****         if(valid_pos[i].x == ext->act_id.x && valid_pos[i].y == ext->act_id.y) {
 196:..\..\..\lvgl\version_6.1.2\lvgl\src\lv_objx/lv_tileview.c ****             return;
 197:..\..\..\lvgl\version_6.1.2\lvgl\src\lv_objx/lv_tileview.c ****         }
 198:..\..\..\lvgl\version_6.1.2\lvgl\src\lv_objx/lv_tileview.c ****     }
 199:..\..\..\lvgl\version_6.1.2\lvgl\src\lv_objx/lv_tileview.c **** 
 200:..\..\..\lvgl\version_6.1.2\lvgl\src\lv_objx/lv_tileview.c ****     /*Set a valid position if now an invalid is selected*/
 201:..\..\..\lvgl\version_6.1.2\lvgl\src\lv_objx/lv_tileview.c ****     if(valid_pos_cnt > 0) {
ARM GAS  C:\Users\pearlstl\AppData\Local\Temp\ccIMJlIA.s 			page 5


 202:..\..\..\lvgl\version_6.1.2\lvgl\src\lv_objx/lv_tileview.c ****         lv_tileview_set_tile_act(tileview, valid_pos[0].x, valid_pos[0].y, LV_ANIM_OFF);
 203:..\..\..\lvgl\version_6.1.2\lvgl\src\lv_objx/lv_tileview.c ****     }
 204:..\..\..\lvgl\version_6.1.2\lvgl\src\lv_objx/lv_tileview.c **** }
 205:..\..\..\lvgl\version_6.1.2\lvgl\src\lv_objx/lv_tileview.c **** 
 206:..\..\..\lvgl\version_6.1.2\lvgl\src\lv_objx/lv_tileview.c **** /**
 207:..\..\..\lvgl\version_6.1.2\lvgl\src\lv_objx/lv_tileview.c ****  * Set the tile to be shown
 208:..\..\..\lvgl\version_6.1.2\lvgl\src\lv_objx/lv_tileview.c ****  * @param tileview pointer to a tileview object
 209:..\..\..\lvgl\version_6.1.2\lvgl\src\lv_objx/lv_tileview.c ****  * @param x column id (0, 1, 2...)
 210:..\..\..\lvgl\version_6.1.2\lvgl\src\lv_objx/lv_tileview.c ****  * @param y line id (0, 1, 2...)
 211:..\..\..\lvgl\version_6.1.2\lvgl\src\lv_objx/lv_tileview.c ****  * @param anim LV_ANIM_ON: set the value with an animation; LV_ANIM_OFF: change the value immediate
 212:..\..\..\lvgl\version_6.1.2\lvgl\src\lv_objx/lv_tileview.c ****  */
 213:..\..\..\lvgl\version_6.1.2\lvgl\src\lv_objx/lv_tileview.c **** void lv_tileview_set_tile_act(lv_obj_t * tileview, lv_coord_t x, lv_coord_t y, lv_anim_enable_t ani
 214:..\..\..\lvgl\version_6.1.2\lvgl\src\lv_objx/lv_tileview.c **** {
 215:..\..\..\lvgl\version_6.1.2\lvgl\src\lv_objx/lv_tileview.c ****     LV_ASSERT_OBJ(tileview, LV_OBJX_NAME);
 216:..\..\..\lvgl\version_6.1.2\lvgl\src\lv_objx/lv_tileview.c **** 
 217:..\..\..\lvgl\version_6.1.2\lvgl\src\lv_objx/lv_tileview.c **** #if LV_USE_ANIMATION == 0
 218:..\..\..\lvgl\version_6.1.2\lvgl\src\lv_objx/lv_tileview.c ****     anim = LV_ANIM_OFF;
 219:..\..\..\lvgl\version_6.1.2\lvgl\src\lv_objx/lv_tileview.c **** #endif
 220:..\..\..\lvgl\version_6.1.2\lvgl\src\lv_objx/lv_tileview.c **** 
 221:..\..\..\lvgl\version_6.1.2\lvgl\src\lv_objx/lv_tileview.c ****     lv_tileview_ext_t * ext = lv_obj_get_ext_attr(tileview);
 222:..\..\..\lvgl\version_6.1.2\lvgl\src\lv_objx/lv_tileview.c **** 
 223:..\..\..\lvgl\version_6.1.2\lvgl\src\lv_objx/lv_tileview.c ****     uint32_t tile_id;
 224:..\..\..\lvgl\version_6.1.2\lvgl\src\lv_objx/lv_tileview.c ****     bool valid = false;
 225:..\..\..\lvgl\version_6.1.2\lvgl\src\lv_objx/lv_tileview.c ****     for(tile_id = 0; tile_id < ext->valid_pos_cnt; tile_id++) {
 226:..\..\..\lvgl\version_6.1.2\lvgl\src\lv_objx/lv_tileview.c ****         if(ext->valid_pos[tile_id].x == x && ext->valid_pos[tile_id].y == y) {
 227:..\..\..\lvgl\version_6.1.2\lvgl\src\lv_objx/lv_tileview.c ****             valid = true;
 228:..\..\..\lvgl\version_6.1.2\lvgl\src\lv_objx/lv_tileview.c ****             break;
 229:..\..\..\lvgl\version_6.1.2\lvgl\src\lv_objx/lv_tileview.c ****         }
 230:..\..\..\lvgl\version_6.1.2\lvgl\src\lv_objx/lv_tileview.c ****     }
 231:..\..\..\lvgl\version_6.1.2\lvgl\src\lv_objx/lv_tileview.c **** 
 232:..\..\..\lvgl\version_6.1.2\lvgl\src\lv_objx/lv_tileview.c ****     if(valid == false) return; /*Don't load not valid tiles*/
 233:..\..\..\lvgl\version_6.1.2\lvgl\src\lv_objx/lv_tileview.c **** 
 234:..\..\..\lvgl\version_6.1.2\lvgl\src\lv_objx/lv_tileview.c ****     ext->act_id.x = x;
 235:..\..\..\lvgl\version_6.1.2\lvgl\src\lv_objx/lv_tileview.c ****     ext->act_id.y = y;
 236:..\..\..\lvgl\version_6.1.2\lvgl\src\lv_objx/lv_tileview.c **** 
 237:..\..\..\lvgl\version_6.1.2\lvgl\src\lv_objx/lv_tileview.c ****     lv_coord_t x_coord = -x * lv_obj_get_width(tileview);
 238:..\..\..\lvgl\version_6.1.2\lvgl\src\lv_objx/lv_tileview.c ****     lv_coord_t y_coord = -y * lv_obj_get_height(tileview);
 239:..\..\..\lvgl\version_6.1.2\lvgl\src\lv_objx/lv_tileview.c ****     lv_obj_t * scrl    = lv_page_get_scrl(tileview);
 240:..\..\..\lvgl\version_6.1.2\lvgl\src\lv_objx/lv_tileview.c ****     if(anim) {
 241:..\..\..\lvgl\version_6.1.2\lvgl\src\lv_objx/lv_tileview.c **** #if LV_USE_ANIMATION
 242:..\..\..\lvgl\version_6.1.2\lvgl\src\lv_objx/lv_tileview.c ****         lv_coord_t x_act = lv_obj_get_x(scrl);
 243:..\..\..\lvgl\version_6.1.2\lvgl\src\lv_objx/lv_tileview.c ****         lv_coord_t y_act = lv_obj_get_y(scrl);
 244:..\..\..\lvgl\version_6.1.2\lvgl\src\lv_objx/lv_tileview.c **** 
 245:..\..\..\lvgl\version_6.1.2\lvgl\src\lv_objx/lv_tileview.c ****         lv_anim_t a;
 246:..\..\..\lvgl\version_6.1.2\lvgl\src\lv_objx/lv_tileview.c ****         a.var            = scrl;
 247:..\..\..\lvgl\version_6.1.2\lvgl\src\lv_objx/lv_tileview.c ****         a.exec_cb        = (lv_anim_exec_xcb_t)lv_obj_set_x;
 248:..\..\..\lvgl\version_6.1.2\lvgl\src\lv_objx/lv_tileview.c ****         a.path_cb        = lv_anim_path_linear;
 249:..\..\..\lvgl\version_6.1.2\lvgl\src\lv_objx/lv_tileview.c ****         a.ready_cb       = NULL;
 250:..\..\..\lvgl\version_6.1.2\lvgl\src\lv_objx/lv_tileview.c ****         a.act_time       = 0;
 251:..\..\..\lvgl\version_6.1.2\lvgl\src\lv_objx/lv_tileview.c ****         a.time           = ext->anim_time;
 252:..\..\..\lvgl\version_6.1.2\lvgl\src\lv_objx/lv_tileview.c ****         a.playback       = 0;
 253:..\..\..\lvgl\version_6.1.2\lvgl\src\lv_objx/lv_tileview.c ****         a.playback_pause = 0;
 254:..\..\..\lvgl\version_6.1.2\lvgl\src\lv_objx/lv_tileview.c ****         a.repeat         = 0;
 255:..\..\..\lvgl\version_6.1.2\lvgl\src\lv_objx/lv_tileview.c ****         a.repeat_pause   = 0;
 256:..\..\..\lvgl\version_6.1.2\lvgl\src\lv_objx/lv_tileview.c **** 
 257:..\..\..\lvgl\version_6.1.2\lvgl\src\lv_objx/lv_tileview.c ****         if(x_coord != x_act) {
 258:..\..\..\lvgl\version_6.1.2\lvgl\src\lv_objx/lv_tileview.c ****             a.start = x_act;
ARM GAS  C:\Users\pearlstl\AppData\Local\Temp\ccIMJlIA.s 			page 6


 259:..\..\..\lvgl\version_6.1.2\lvgl\src\lv_objx/lv_tileview.c ****             a.end   = x_coord;
 260:..\..\..\lvgl\version_6.1.2\lvgl\src\lv_objx/lv_tileview.c ****             lv_anim_create(&a);
 261:..\..\..\lvgl\version_6.1.2\lvgl\src\lv_objx/lv_tileview.c ****         }
 262:..\..\..\lvgl\version_6.1.2\lvgl\src\lv_objx/lv_tileview.c **** 
 263:..\..\..\lvgl\version_6.1.2\lvgl\src\lv_objx/lv_tileview.c ****         if(y_coord != y_act) {
 264:..\..\..\lvgl\version_6.1.2\lvgl\src\lv_objx/lv_tileview.c ****             a.start   = y_act;
 265:..\..\..\lvgl\version_6.1.2\lvgl\src\lv_objx/lv_tileview.c ****             a.end     = y_coord;
 266:..\..\..\lvgl\version_6.1.2\lvgl\src\lv_objx/lv_tileview.c ****             a.exec_cb = (lv_anim_exec_xcb_t)lv_obj_set_y;
 267:..\..\..\lvgl\version_6.1.2\lvgl\src\lv_objx/lv_tileview.c ****             lv_anim_create(&a);
 268:..\..\..\lvgl\version_6.1.2\lvgl\src\lv_objx/lv_tileview.c ****         }
 269:..\..\..\lvgl\version_6.1.2\lvgl\src\lv_objx/lv_tileview.c **** #endif
 270:..\..\..\lvgl\version_6.1.2\lvgl\src\lv_objx/lv_tileview.c ****     } else {
 271:..\..\..\lvgl\version_6.1.2\lvgl\src\lv_objx/lv_tileview.c ****         lv_obj_set_pos(scrl, x_coord, y_coord);
 272:..\..\..\lvgl\version_6.1.2\lvgl\src\lv_objx/lv_tileview.c ****     }
 273:..\..\..\lvgl\version_6.1.2\lvgl\src\lv_objx/lv_tileview.c **** 
 274:..\..\..\lvgl\version_6.1.2\lvgl\src\lv_objx/lv_tileview.c ****     lv_res_t res = LV_RES_OK;
 275:..\..\..\lvgl\version_6.1.2\lvgl\src\lv_objx/lv_tileview.c ****     res          = lv_event_send(tileview, LV_EVENT_VALUE_CHANGED, &tile_id);
 276:..\..\..\lvgl\version_6.1.2\lvgl\src\lv_objx/lv_tileview.c ****     if(res != LV_RES_OK) return; /*Prevent the tile loading*/
 277:..\..\..\lvgl\version_6.1.2\lvgl\src\lv_objx/lv_tileview.c **** }
 278:..\..\..\lvgl\version_6.1.2\lvgl\src\lv_objx/lv_tileview.c **** 
 279:..\..\..\lvgl\version_6.1.2\lvgl\src\lv_objx/lv_tileview.c **** /**
 280:..\..\..\lvgl\version_6.1.2\lvgl\src\lv_objx/lv_tileview.c ****  * Set a style of a tileview.
 281:..\..\..\lvgl\version_6.1.2\lvgl\src\lv_objx/lv_tileview.c ****  * @param tileview pointer to tileview object
 282:..\..\..\lvgl\version_6.1.2\lvgl\src\lv_objx/lv_tileview.c ****  * @param type which style should be set
 283:..\..\..\lvgl\version_6.1.2\lvgl\src\lv_objx/lv_tileview.c ****  * @param style pointer to a style
 284:..\..\..\lvgl\version_6.1.2\lvgl\src\lv_objx/lv_tileview.c ****  */
 285:..\..\..\lvgl\version_6.1.2\lvgl\src\lv_objx/lv_tileview.c **** void lv_tileview_set_style(lv_obj_t * tileview, lv_tileview_style_t type, const lv_style_t * style)
 286:..\..\..\lvgl\version_6.1.2\lvgl\src\lv_objx/lv_tileview.c **** {
 287:..\..\..\lvgl\version_6.1.2\lvgl\src\lv_objx/lv_tileview.c ****     LV_ASSERT_OBJ(tileview, LV_OBJX_NAME);
 288:..\..\..\lvgl\version_6.1.2\lvgl\src\lv_objx/lv_tileview.c **** 
 289:..\..\..\lvgl\version_6.1.2\lvgl\src\lv_objx/lv_tileview.c ****     switch(type) {
 290:..\..\..\lvgl\version_6.1.2\lvgl\src\lv_objx/lv_tileview.c ****         case LV_TILEVIEW_STYLE_MAIN: lv_obj_set_style(tileview, style); break;
 291:..\..\..\lvgl\version_6.1.2\lvgl\src\lv_objx/lv_tileview.c ****     }
 292:..\..\..\lvgl\version_6.1.2\lvgl\src\lv_objx/lv_tileview.c **** }
 293:..\..\..\lvgl\version_6.1.2\lvgl\src\lv_objx/lv_tileview.c **** 
 294:..\..\..\lvgl\version_6.1.2\lvgl\src\lv_objx/lv_tileview.c **** /*=====================
 295:..\..\..\lvgl\version_6.1.2\lvgl\src\lv_objx/lv_tileview.c ****  * Getter functions
 296:..\..\..\lvgl\version_6.1.2\lvgl\src\lv_objx/lv_tileview.c ****  *====================*/
 297:..\..\..\lvgl\version_6.1.2\lvgl\src\lv_objx/lv_tileview.c **** 
 298:..\..\..\lvgl\version_6.1.2\lvgl\src\lv_objx/lv_tileview.c **** /*
 299:..\..\..\lvgl\version_6.1.2\lvgl\src\lv_objx/lv_tileview.c ****  * New object specific "get" functions come here
 300:..\..\..\lvgl\version_6.1.2\lvgl\src\lv_objx/lv_tileview.c ****  */
 301:..\..\..\lvgl\version_6.1.2\lvgl\src\lv_objx/lv_tileview.c **** 
 302:..\..\..\lvgl\version_6.1.2\lvgl\src\lv_objx/lv_tileview.c **** /**
 303:..\..\..\lvgl\version_6.1.2\lvgl\src\lv_objx/lv_tileview.c ****  * Get style of a tileview.
 304:..\..\..\lvgl\version_6.1.2\lvgl\src\lv_objx/lv_tileview.c ****  * @param tileview pointer to tileview object
 305:..\..\..\lvgl\version_6.1.2\lvgl\src\lv_objx/lv_tileview.c ****  * @param type which style should be get
 306:..\..\..\lvgl\version_6.1.2\lvgl\src\lv_objx/lv_tileview.c ****  * @return style pointer to the style
 307:..\..\..\lvgl\version_6.1.2\lvgl\src\lv_objx/lv_tileview.c ****  */
 308:..\..\..\lvgl\version_6.1.2\lvgl\src\lv_objx/lv_tileview.c **** const lv_style_t * lv_tileview_get_style(const lv_obj_t * tileview, lv_tileview_style_t type)
 309:..\..\..\lvgl\version_6.1.2\lvgl\src\lv_objx/lv_tileview.c **** {
 310:..\..\..\lvgl\version_6.1.2\lvgl\src\lv_objx/lv_tileview.c ****     LV_ASSERT_OBJ(tileview, LV_OBJX_NAME);
 311:..\..\..\lvgl\version_6.1.2\lvgl\src\lv_objx/lv_tileview.c **** 
 312:..\..\..\lvgl\version_6.1.2\lvgl\src\lv_objx/lv_tileview.c ****     const lv_style_t * style = NULL;
 313:..\..\..\lvgl\version_6.1.2\lvgl\src\lv_objx/lv_tileview.c ****     switch(type) {
 314:..\..\..\lvgl\version_6.1.2\lvgl\src\lv_objx/lv_tileview.c ****         case LV_TILEVIEW_STYLE_MAIN: style = lv_obj_get_style(tileview); break;
 315:..\..\..\lvgl\version_6.1.2\lvgl\src\lv_objx/lv_tileview.c ****         default: style = NULL;
ARM GAS  C:\Users\pearlstl\AppData\Local\Temp\ccIMJlIA.s 			page 7


 316:..\..\..\lvgl\version_6.1.2\lvgl\src\lv_objx/lv_tileview.c ****     }
 317:..\..\..\lvgl\version_6.1.2\lvgl\src\lv_objx/lv_tileview.c **** 
 318:..\..\..\lvgl\version_6.1.2\lvgl\src\lv_objx/lv_tileview.c ****     return style;
 319:..\..\..\lvgl\version_6.1.2\lvgl\src\lv_objx/lv_tileview.c **** }
 320:..\..\..\lvgl\version_6.1.2\lvgl\src\lv_objx/lv_tileview.c **** 
 321:..\..\..\lvgl\version_6.1.2\lvgl\src\lv_objx/lv_tileview.c **** /*=====================
 322:..\..\..\lvgl\version_6.1.2\lvgl\src\lv_objx/lv_tileview.c ****  * Other functions
 323:..\..\..\lvgl\version_6.1.2\lvgl\src\lv_objx/lv_tileview.c ****  *====================*/
 324:..\..\..\lvgl\version_6.1.2\lvgl\src\lv_objx/lv_tileview.c **** 
 325:..\..\..\lvgl\version_6.1.2\lvgl\src\lv_objx/lv_tileview.c **** /*
 326:..\..\..\lvgl\version_6.1.2\lvgl\src\lv_objx/lv_tileview.c ****  * New object specific "other" functions come here
 327:..\..\..\lvgl\version_6.1.2\lvgl\src\lv_objx/lv_tileview.c ****  */
 328:..\..\..\lvgl\version_6.1.2\lvgl\src\lv_objx/lv_tileview.c **** 
 329:..\..\..\lvgl\version_6.1.2\lvgl\src\lv_objx/lv_tileview.c **** /**********************
 330:..\..\..\lvgl\version_6.1.2\lvgl\src\lv_objx/lv_tileview.c ****  *   STATIC FUNCTIONS
 331:..\..\..\lvgl\version_6.1.2\lvgl\src\lv_objx/lv_tileview.c ****  **********************/
 332:..\..\..\lvgl\version_6.1.2\lvgl\src\lv_objx/lv_tileview.c **** 
 333:..\..\..\lvgl\version_6.1.2\lvgl\src\lv_objx/lv_tileview.c **** /**
 334:..\..\..\lvgl\version_6.1.2\lvgl\src\lv_objx/lv_tileview.c ****  * Signal function of the tileview
 335:..\..\..\lvgl\version_6.1.2\lvgl\src\lv_objx/lv_tileview.c ****  * @param tileview pointer to a tileview object
 336:..\..\..\lvgl\version_6.1.2\lvgl\src\lv_objx/lv_tileview.c ****  * @param sign a signal type from lv_signal_t enum
 337:..\..\..\lvgl\version_6.1.2\lvgl\src\lv_objx/lv_tileview.c ****  * @param param pointer to a signal specific variable
 338:..\..\..\lvgl\version_6.1.2\lvgl\src\lv_objx/lv_tileview.c ****  * @return LV_RES_OK: the object is not deleted in the function; LV_RES_INV: the object is deleted
 339:..\..\..\lvgl\version_6.1.2\lvgl\src\lv_objx/lv_tileview.c ****  */
 340:..\..\..\lvgl\version_6.1.2\lvgl\src\lv_objx/lv_tileview.c **** static lv_res_t lv_tileview_signal(lv_obj_t * tileview, lv_signal_t sign, void * param)
 341:..\..\..\lvgl\version_6.1.2\lvgl\src\lv_objx/lv_tileview.c **** {
 342:..\..\..\lvgl\version_6.1.2\lvgl\src\lv_objx/lv_tileview.c ****     lv_res_t res;
 343:..\..\..\lvgl\version_6.1.2\lvgl\src\lv_objx/lv_tileview.c **** 
 344:..\..\..\lvgl\version_6.1.2\lvgl\src\lv_objx/lv_tileview.c ****     /* Include the ancient signal function */
 345:..\..\..\lvgl\version_6.1.2\lvgl\src\lv_objx/lv_tileview.c ****     res = ancestor_signal(tileview, sign, param);
 346:..\..\..\lvgl\version_6.1.2\lvgl\src\lv_objx/lv_tileview.c ****     if(res != LV_RES_OK) return res;
 347:..\..\..\lvgl\version_6.1.2\lvgl\src\lv_objx/lv_tileview.c ****     if(sign == LV_SIGNAL_GET_TYPE) return lv_obj_handle_get_type_signal(param, LV_OBJX_NAME);
 348:..\..\..\lvgl\version_6.1.2\lvgl\src\lv_objx/lv_tileview.c **** 
 349:..\..\..\lvgl\version_6.1.2\lvgl\src\lv_objx/lv_tileview.c ****     if(sign == LV_SIGNAL_CLEANUP) {
 350:..\..\..\lvgl\version_6.1.2\lvgl\src\lv_objx/lv_tileview.c ****         /*Nothing to cleanup. (No dynamically allocated memory in 'ext')*/
 351:..\..\..\lvgl\version_6.1.2\lvgl\src\lv_objx/lv_tileview.c ****     }
 352:..\..\..\lvgl\version_6.1.2\lvgl\src\lv_objx/lv_tileview.c **** 
 353:..\..\..\lvgl\version_6.1.2\lvgl\src\lv_objx/lv_tileview.c ****     return res;
 354:..\..\..\lvgl\version_6.1.2\lvgl\src\lv_objx/lv_tileview.c **** }
 355:..\..\..\lvgl\version_6.1.2\lvgl\src\lv_objx/lv_tileview.c **** 
 356:..\..\..\lvgl\version_6.1.2\lvgl\src\lv_objx/lv_tileview.c **** /**
 357:..\..\..\lvgl\version_6.1.2\lvgl\src\lv_objx/lv_tileview.c ****  * Signal function of the tileview scrollable
 358:..\..\..\lvgl\version_6.1.2\lvgl\src\lv_objx/lv_tileview.c ****  * @param tileview pointer to the scrollable part of the tileview object
 359:..\..\..\lvgl\version_6.1.2\lvgl\src\lv_objx/lv_tileview.c ****  * @param sign a signal type from lv_signal_t enum
 360:..\..\..\lvgl\version_6.1.2\lvgl\src\lv_objx/lv_tileview.c ****  * @param param pointer to a signal specific variable
 361:..\..\..\lvgl\version_6.1.2\lvgl\src\lv_objx/lv_tileview.c ****  * @return LV_RES_OK: the object is not deleted in the function; LV_RES_INV: the object is deleted
 362:..\..\..\lvgl\version_6.1.2\lvgl\src\lv_objx/lv_tileview.c ****  */
 363:..\..\..\lvgl\version_6.1.2\lvgl\src\lv_objx/lv_tileview.c **** static lv_res_t lv_tileview_scrl_signal(lv_obj_t * scrl, lv_signal_t sign, void * param)
 364:..\..\..\lvgl\version_6.1.2\lvgl\src\lv_objx/lv_tileview.c **** {
  28              		.loc 1 364 0
  29              		.cfi_startproc
  30              		@ args = 0, pretend = 0, frame = 8
  31              		@ frame_needed = 0, uses_anonymous_args = 0
  32              	.LVL0:
  33 0000 2DE9F04F 		push	{r4, r5, r6, r7, r8, r9, r10, fp, lr}
  34              		.cfi_def_cfa_offset 36
  35              		.cfi_offset 4, -36
ARM GAS  C:\Users\pearlstl\AppData\Local\Temp\ccIMJlIA.s 			page 8


  36              		.cfi_offset 5, -32
  37              		.cfi_offset 6, -28
  38              		.cfi_offset 7, -24
  39              		.cfi_offset 8, -20
  40              		.cfi_offset 9, -16
  41              		.cfi_offset 10, -12
  42              		.cfi_offset 11, -8
  43              		.cfi_offset 14, -4
 365:..\..\..\lvgl\version_6.1.2\lvgl\src\lv_objx/lv_tileview.c **** 
 366:..\..\..\lvgl\version_6.1.2\lvgl\src\lv_objx/lv_tileview.c ****     lv_res_t res;
 367:..\..\..\lvgl\version_6.1.2\lvgl\src\lv_objx/lv_tileview.c **** 
 368:..\..\..\lvgl\version_6.1.2\lvgl\src\lv_objx/lv_tileview.c ****     /* Include the ancient signal function */
 369:..\..\..\lvgl\version_6.1.2\lvgl\src\lv_objx/lv_tileview.c ****     res = ancestor_scrl_signal(scrl, sign, param);
  44              		.loc 1 369 0
  45 0004 B54B     		ldr	r3, .L68
 364:..\..\..\lvgl\version_6.1.2\lvgl\src\lv_objx/lv_tileview.c **** 
  46              		.loc 1 364 0
  47 0006 83B0     		sub	sp, sp, #12
  48              		.cfi_def_cfa_offset 48
  49              		.loc 1 369 0
  50 0008 1B68     		ldr	r3, [r3]
 364:..\..\..\lvgl\version_6.1.2\lvgl\src\lv_objx/lv_tileview.c **** 
  51              		.loc 1 364 0
  52 000a 0546     		mov	r5, r0
  53 000c 0C46     		mov	r4, r1
  54 000e 1646     		mov	r6, r2
  55              		.loc 1 369 0
  56 0010 9847     		blx	r3
  57              	.LVL1:
 370:..\..\..\lvgl\version_6.1.2\lvgl\src\lv_objx/lv_tileview.c ****     if(res != LV_RES_OK) return res;
  58              		.loc 1 370 0
  59 0012 0128     		cmp	r0, #1
  60 0014 02D0     		beq	.L58
 371:..\..\..\lvgl\version_6.1.2\lvgl\src\lv_objx/lv_tileview.c ****     if(sign == LV_SIGNAL_GET_TYPE) return lv_obj_handle_get_type_signal(param, "");
 372:..\..\..\lvgl\version_6.1.2\lvgl\src\lv_objx/lv_tileview.c **** 
 373:..\..\..\lvgl\version_6.1.2\lvgl\src\lv_objx/lv_tileview.c ****     lv_obj_t * tileview         = lv_obj_get_parent(scrl);
 374:..\..\..\lvgl\version_6.1.2\lvgl\src\lv_objx/lv_tileview.c ****     const lv_style_t * style_bg = lv_tileview_get_style(tileview, LV_TILEVIEW_STYLE_MAIN);
 375:..\..\..\lvgl\version_6.1.2\lvgl\src\lv_objx/lv_tileview.c **** 
 376:..\..\..\lvgl\version_6.1.2\lvgl\src\lv_objx/lv_tileview.c ****     /*Apply constraint on moving of the tileview*/
 377:..\..\..\lvgl\version_6.1.2\lvgl\src\lv_objx/lv_tileview.c ****     if(sign == LV_SIGNAL_CORD_CHG) {
 378:..\..\..\lvgl\version_6.1.2\lvgl\src\lv_objx/lv_tileview.c ****         lv_indev_t * indev = lv_indev_get_act();
 379:..\..\..\lvgl\version_6.1.2\lvgl\src\lv_objx/lv_tileview.c ****         if(indev) {
 380:..\..\..\lvgl\version_6.1.2\lvgl\src\lv_objx/lv_tileview.c ****             lv_tileview_ext_t * ext = lv_obj_get_ext_attr(tileview);
 381:..\..\..\lvgl\version_6.1.2\lvgl\src\lv_objx/lv_tileview.c **** 
 382:..\..\..\lvgl\version_6.1.2\lvgl\src\lv_objx/lv_tileview.c ****             /*Set horizontal drag constraint if no vertical constraint an dragged to valid x
 383:..\..\..\lvgl\version_6.1.2\lvgl\src\lv_objx/lv_tileview.c ****              * direction */
 384:..\..\..\lvgl\version_6.1.2\lvgl\src\lv_objx/lv_tileview.c ****             if(ext->drag_ver == 0 &&
 385:..\..\..\lvgl\version_6.1.2\lvgl\src\lv_objx/lv_tileview.c ****                ((ext->drag_right_en && indev->proc.types.pointer.drag_sum.x <= -LV_INDEV_DEF_DRAG_L
 386:..\..\..\lvgl\version_6.1.2\lvgl\src\lv_objx/lv_tileview.c ****                 (ext->drag_left_en && indev->proc.types.pointer.drag_sum.x >= LV_INDEV_DEF_DRAG_LIM
 387:..\..\..\lvgl\version_6.1.2\lvgl\src\lv_objx/lv_tileview.c ****                 ext->drag_hor = 1;
 388:..\..\..\lvgl\version_6.1.2\lvgl\src\lv_objx/lv_tileview.c ****             }
 389:..\..\..\lvgl\version_6.1.2\lvgl\src\lv_objx/lv_tileview.c ****             /*Set vertical drag constraint if no horizontal constraint an dragged to valid y
 390:..\..\..\lvgl\version_6.1.2\lvgl\src\lv_objx/lv_tileview.c ****              * direction */
 391:..\..\..\lvgl\version_6.1.2\lvgl\src\lv_objx/lv_tileview.c ****             if(ext->drag_hor == 0 &&
 392:..\..\..\lvgl\version_6.1.2\lvgl\src\lv_objx/lv_tileview.c ****                ((ext->drag_bottom_en && indev->proc.types.pointer.drag_sum.y <= -LV_INDEV_DEF_DRAG_
 393:..\..\..\lvgl\version_6.1.2\lvgl\src\lv_objx/lv_tileview.c ****                 (ext->drag_top_en && indev->proc.types.pointer.drag_sum.y >= LV_INDEV_DEF_DRAG_LIMI
 394:..\..\..\lvgl\version_6.1.2\lvgl\src\lv_objx/lv_tileview.c ****                 ext->drag_ver = 1;
ARM GAS  C:\Users\pearlstl\AppData\Local\Temp\ccIMJlIA.s 			page 9


 395:..\..\..\lvgl\version_6.1.2\lvgl\src\lv_objx/lv_tileview.c ****             }
 396:..\..\..\lvgl\version_6.1.2\lvgl\src\lv_objx/lv_tileview.c **** 
 397:..\..\..\lvgl\version_6.1.2\lvgl\src\lv_objx/lv_tileview.c **** #if LV_USE_ANIMATION
 398:..\..\..\lvgl\version_6.1.2\lvgl\src\lv_objx/lv_tileview.c ****             if(ext->drag_hor) {
 399:..\..\..\lvgl\version_6.1.2\lvgl\src\lv_objx/lv_tileview.c ****                 ext->page.edge_flash.top_ip    = 0;
 400:..\..\..\lvgl\version_6.1.2\lvgl\src\lv_objx/lv_tileview.c ****                 ext->page.edge_flash.bottom_ip = 0;
 401:..\..\..\lvgl\version_6.1.2\lvgl\src\lv_objx/lv_tileview.c ****             }
 402:..\..\..\lvgl\version_6.1.2\lvgl\src\lv_objx/lv_tileview.c **** 
 403:..\..\..\lvgl\version_6.1.2\lvgl\src\lv_objx/lv_tileview.c ****             if(ext->drag_ver) {
 404:..\..\..\lvgl\version_6.1.2\lvgl\src\lv_objx/lv_tileview.c ****                 ext->page.edge_flash.right_ip = 0;
 405:..\..\..\lvgl\version_6.1.2\lvgl\src\lv_objx/lv_tileview.c ****                 ext->page.edge_flash.left_ip  = 0;
 406:..\..\..\lvgl\version_6.1.2\lvgl\src\lv_objx/lv_tileview.c ****             }
 407:..\..\..\lvgl\version_6.1.2\lvgl\src\lv_objx/lv_tileview.c **** #endif
 408:..\..\..\lvgl\version_6.1.2\lvgl\src\lv_objx/lv_tileview.c **** 
 409:..\..\..\lvgl\version_6.1.2\lvgl\src\lv_objx/lv_tileview.c ****             lv_coord_t x = lv_obj_get_x(scrl);
 410:..\..\..\lvgl\version_6.1.2\lvgl\src\lv_objx/lv_tileview.c ****             lv_coord_t y = lv_obj_get_y(scrl);
 411:..\..\..\lvgl\version_6.1.2\lvgl\src\lv_objx/lv_tileview.c ****             lv_coord_t h = lv_obj_get_height(tileview);
 412:..\..\..\lvgl\version_6.1.2\lvgl\src\lv_objx/lv_tileview.c ****             lv_coord_t w = lv_obj_get_width(tileview);
 413:..\..\..\lvgl\version_6.1.2\lvgl\src\lv_objx/lv_tileview.c ****             if(ext->drag_top_en == 0) {
 414:..\..\..\lvgl\version_6.1.2\lvgl\src\lv_objx/lv_tileview.c ****                 if(y > -(ext->act_id.y * h) && indev->proc.types.pointer.vect.y > 0 && ext->drag_ho
 415:..\..\..\lvgl\version_6.1.2\lvgl\src\lv_objx/lv_tileview.c **** #if LV_USE_ANIMATION
 416:..\..\..\lvgl\version_6.1.2\lvgl\src\lv_objx/lv_tileview.c ****                     if(ext->page.edge_flash.enabled && ext->page.edge_flash.left_ip == 0 &&
 417:..\..\..\lvgl\version_6.1.2\lvgl\src\lv_objx/lv_tileview.c ****                        ext->page.edge_flash.right_ip == 0 && ext->page.edge_flash.top_ip == 0 &&
 418:..\..\..\lvgl\version_6.1.2\lvgl\src\lv_objx/lv_tileview.c ****                        ext->page.edge_flash.bottom_ip == 0) {
 419:..\..\..\lvgl\version_6.1.2\lvgl\src\lv_objx/lv_tileview.c ****                         ext->page.edge_flash.top_ip = 1;
 420:..\..\..\lvgl\version_6.1.2\lvgl\src\lv_objx/lv_tileview.c ****                         lv_page_start_edge_flash(tileview);
 421:..\..\..\lvgl\version_6.1.2\lvgl\src\lv_objx/lv_tileview.c ****                     }
 422:..\..\..\lvgl\version_6.1.2\lvgl\src\lv_objx/lv_tileview.c **** #endif
 423:..\..\..\lvgl\version_6.1.2\lvgl\src\lv_objx/lv_tileview.c **** 
 424:..\..\..\lvgl\version_6.1.2\lvgl\src\lv_objx/lv_tileview.c ****                     lv_obj_set_y(scrl, -ext->act_id.y * h + style_bg->body.padding.top);
 425:..\..\..\lvgl\version_6.1.2\lvgl\src\lv_objx/lv_tileview.c ****                 }
 426:..\..\..\lvgl\version_6.1.2\lvgl\src\lv_objx/lv_tileview.c ****             }
 427:..\..\..\lvgl\version_6.1.2\lvgl\src\lv_objx/lv_tileview.c ****             if(ext->drag_bottom_en == 0 && indev->proc.types.pointer.vect.y < 0 && ext->drag_hor ==
 428:..\..\..\lvgl\version_6.1.2\lvgl\src\lv_objx/lv_tileview.c ****                 if(y < -(ext->act_id.y * h)) {
 429:..\..\..\lvgl\version_6.1.2\lvgl\src\lv_objx/lv_tileview.c **** #if LV_USE_ANIMATION
 430:..\..\..\lvgl\version_6.1.2\lvgl\src\lv_objx/lv_tileview.c ****                     if(ext->page.edge_flash.enabled && ext->page.edge_flash.left_ip == 0 &&
 431:..\..\..\lvgl\version_6.1.2\lvgl\src\lv_objx/lv_tileview.c ****                        ext->page.edge_flash.right_ip == 0 && ext->page.edge_flash.top_ip == 0 &&
 432:..\..\..\lvgl\version_6.1.2\lvgl\src\lv_objx/lv_tileview.c ****                        ext->page.edge_flash.bottom_ip == 0) {
 433:..\..\..\lvgl\version_6.1.2\lvgl\src\lv_objx/lv_tileview.c ****                         ext->page.edge_flash.bottom_ip = 1;
 434:..\..\..\lvgl\version_6.1.2\lvgl\src\lv_objx/lv_tileview.c ****                         lv_page_start_edge_flash(tileview);
 435:..\..\..\lvgl\version_6.1.2\lvgl\src\lv_objx/lv_tileview.c ****                     }
 436:..\..\..\lvgl\version_6.1.2\lvgl\src\lv_objx/lv_tileview.c **** #endif
 437:..\..\..\lvgl\version_6.1.2\lvgl\src\lv_objx/lv_tileview.c ****                 }
 438:..\..\..\lvgl\version_6.1.2\lvgl\src\lv_objx/lv_tileview.c **** 
 439:..\..\..\lvgl\version_6.1.2\lvgl\src\lv_objx/lv_tileview.c ****                 lv_obj_set_y(scrl, -ext->act_id.y * h + style_bg->body.padding.top);
 440:..\..\..\lvgl\version_6.1.2\lvgl\src\lv_objx/lv_tileview.c ****             }
 441:..\..\..\lvgl\version_6.1.2\lvgl\src\lv_objx/lv_tileview.c ****             if(ext->drag_left_en == 0) {
 442:..\..\..\lvgl\version_6.1.2\lvgl\src\lv_objx/lv_tileview.c ****                 if(x > -(ext->act_id.x * w) && indev->proc.types.pointer.vect.x > 0 && ext->drag_ve
 443:..\..\..\lvgl\version_6.1.2\lvgl\src\lv_objx/lv_tileview.c **** #if LV_USE_ANIMATION
 444:..\..\..\lvgl\version_6.1.2\lvgl\src\lv_objx/lv_tileview.c ****                     if(ext->page.edge_flash.enabled && ext->page.edge_flash.left_ip == 0 &&
 445:..\..\..\lvgl\version_6.1.2\lvgl\src\lv_objx/lv_tileview.c ****                        ext->page.edge_flash.right_ip == 0 && ext->page.edge_flash.top_ip == 0 &&
 446:..\..\..\lvgl\version_6.1.2\lvgl\src\lv_objx/lv_tileview.c ****                        ext->page.edge_flash.bottom_ip == 0) {
 447:..\..\..\lvgl\version_6.1.2\lvgl\src\lv_objx/lv_tileview.c ****                         ext->page.edge_flash.left_ip = 1;
 448:..\..\..\lvgl\version_6.1.2\lvgl\src\lv_objx/lv_tileview.c ****                         lv_page_start_edge_flash(tileview);
 449:..\..\..\lvgl\version_6.1.2\lvgl\src\lv_objx/lv_tileview.c ****                     }
 450:..\..\..\lvgl\version_6.1.2\lvgl\src\lv_objx/lv_tileview.c **** #endif
 451:..\..\..\lvgl\version_6.1.2\lvgl\src\lv_objx/lv_tileview.c **** 
ARM GAS  C:\Users\pearlstl\AppData\Local\Temp\ccIMJlIA.s 			page 10


 452:..\..\..\lvgl\version_6.1.2\lvgl\src\lv_objx/lv_tileview.c ****                     lv_obj_set_x(scrl, -ext->act_id.x * w + style_bg->body.padding.left);
 453:..\..\..\lvgl\version_6.1.2\lvgl\src\lv_objx/lv_tileview.c ****                 }
 454:..\..\..\lvgl\version_6.1.2\lvgl\src\lv_objx/lv_tileview.c ****             }
 455:..\..\..\lvgl\version_6.1.2\lvgl\src\lv_objx/lv_tileview.c ****             if(ext->drag_right_en == 0 && indev->proc.types.pointer.vect.x < 0 && ext->drag_ver == 
 456:..\..\..\lvgl\version_6.1.2\lvgl\src\lv_objx/lv_tileview.c ****                 if(x < -(ext->act_id.x * w)) {
 457:..\..\..\lvgl\version_6.1.2\lvgl\src\lv_objx/lv_tileview.c **** #if LV_USE_ANIMATION
 458:..\..\..\lvgl\version_6.1.2\lvgl\src\lv_objx/lv_tileview.c ****                     if(ext->page.edge_flash.enabled && ext->page.edge_flash.left_ip == 0 &&
 459:..\..\..\lvgl\version_6.1.2\lvgl\src\lv_objx/lv_tileview.c ****                        ext->page.edge_flash.right_ip == 0 && ext->page.edge_flash.top_ip == 0 &&
 460:..\..\..\lvgl\version_6.1.2\lvgl\src\lv_objx/lv_tileview.c ****                        ext->page.edge_flash.bottom_ip == 0) {
 461:..\..\..\lvgl\version_6.1.2\lvgl\src\lv_objx/lv_tileview.c ****                         ext->page.edge_flash.right_ip = 1;
 462:..\..\..\lvgl\version_6.1.2\lvgl\src\lv_objx/lv_tileview.c ****                         lv_page_start_edge_flash(tileview);
 463:..\..\..\lvgl\version_6.1.2\lvgl\src\lv_objx/lv_tileview.c ****                     }
 464:..\..\..\lvgl\version_6.1.2\lvgl\src\lv_objx/lv_tileview.c **** #endif
 465:..\..\..\lvgl\version_6.1.2\lvgl\src\lv_objx/lv_tileview.c ****                 }
 466:..\..\..\lvgl\version_6.1.2\lvgl\src\lv_objx/lv_tileview.c **** 
 467:..\..\..\lvgl\version_6.1.2\lvgl\src\lv_objx/lv_tileview.c ****                 lv_obj_set_x(scrl, -ext->act_id.x * w + style_bg->body.padding.top);
 468:..\..\..\lvgl\version_6.1.2\lvgl\src\lv_objx/lv_tileview.c ****             }
 469:..\..\..\lvgl\version_6.1.2\lvgl\src\lv_objx/lv_tileview.c **** 
 470:..\..\..\lvgl\version_6.1.2\lvgl\src\lv_objx/lv_tileview.c ****             /*Apply the drag constraints*/
 471:..\..\..\lvgl\version_6.1.2\lvgl\src\lv_objx/lv_tileview.c ****             if(ext->drag_ver == 0)
 472:..\..\..\lvgl\version_6.1.2\lvgl\src\lv_objx/lv_tileview.c ****                 lv_obj_set_y(scrl, -ext->act_id.y * lv_obj_get_height(tileview) + style_bg->body.pa
 473:..\..\..\lvgl\version_6.1.2\lvgl\src\lv_objx/lv_tileview.c ****             if(ext->drag_hor == 0)
 474:..\..\..\lvgl\version_6.1.2\lvgl\src\lv_objx/lv_tileview.c ****                 lv_obj_set_x(scrl, -ext->act_id.x * lv_obj_get_width(tileview) + style_bg->body.pad
 475:..\..\..\lvgl\version_6.1.2\lvgl\src\lv_objx/lv_tileview.c ****         }
 476:..\..\..\lvgl\version_6.1.2\lvgl\src\lv_objx/lv_tileview.c ****     }
 477:..\..\..\lvgl\version_6.1.2\lvgl\src\lv_objx/lv_tileview.c ****     return res;
 478:..\..\..\lvgl\version_6.1.2\lvgl\src\lv_objx/lv_tileview.c **** }
  61              		.loc 1 478 0
  62 0016 03B0     		add	sp, sp, #12
  63              		.cfi_remember_state
  64              		.cfi_def_cfa_offset 36
  65              		@ sp needed
  66 0018 BDE8F08F 		pop	{r4, r5, r6, r7, r8, r9, r10, fp, pc}
  67              	.LVL2:
  68              	.L58:
  69              		.cfi_restore_state
 371:..\..\..\lvgl\version_6.1.2\lvgl\src\lv_objx/lv_tileview.c ****     if(sign == LV_SIGNAL_GET_TYPE) return lv_obj_handle_get_type_signal(param, "");
  70              		.loc 1 371 0
  71 001c 072C     		cmp	r4, #7
  72 001e 0CD0     		beq	.L59
 373:..\..\..\lvgl\version_6.1.2\lvgl\src\lv_objx/lv_tileview.c ****     const lv_style_t * style_bg = lv_tileview_get_style(tileview, LV_TILEVIEW_STYLE_MAIN);
  73              		.loc 1 373 0
  74 0020 2846     		mov	r0, r5
  75              	.LVL3:
  76 0022 FFF7FEFF 		bl	lv_obj_get_parent
  77              	.LVL4:
  78 0026 0646     		mov	r6, r0
  79              	.LVL5:
  80              	.LBB10:
  81              	.LBB11:
 314:..\..\..\lvgl\version_6.1.2\lvgl\src\lv_objx/lv_tileview.c ****         default: style = NULL;
  82              		.loc 1 314 0
  83 0028 FFF7FEFF 		bl	lv_obj_get_style
  84              	.LVL6:
  85              	.LBE11:
  86              	.LBE10:
 377:..\..\..\lvgl\version_6.1.2\lvgl\src\lv_objx/lv_tileview.c ****         lv_indev_t * indev = lv_indev_get_act();
ARM GAS  C:\Users\pearlstl\AppData\Local\Temp\ccIMJlIA.s 			page 11


  87              		.loc 1 377 0
  88 002c 022C     		cmp	r4, #2
  89              	.LBB13:
  90              	.LBB12:
 314:..\..\..\lvgl\version_6.1.2\lvgl\src\lv_objx/lv_tileview.c ****         default: style = NULL;
  91              		.loc 1 314 0
  92 002e 0746     		mov	r7, r0
  93              	.LVL7:
  94              	.LBE12:
  95              	.LBE13:
 377:..\..\..\lvgl\version_6.1.2\lvgl\src\lv_objx/lv_tileview.c ****         lv_indev_t * indev = lv_indev_get_act();
  96              		.loc 1 377 0
  97 0030 0AD0     		beq	.L60
  98              	.L56:
  99              	.LBB14:
 100              	.LBB15:
 474:..\..\..\lvgl\version_6.1.2\lvgl\src\lv_objx/lv_tileview.c ****         }
 101              		.loc 1 474 0
 102 0032 0120     		movs	r0, #1
 103              	.LBE15:
 104              	.LBE14:
 105              		.loc 1 478 0
 106 0034 03B0     		add	sp, sp, #12
 107              		.cfi_remember_state
 108              		.cfi_def_cfa_offset 36
 109              		@ sp needed
 110 0036 BDE8F08F 		pop	{r4, r5, r6, r7, r8, r9, r10, fp, pc}
 111              	.LVL8:
 112              	.L59:
 113              		.cfi_restore_state
 371:..\..\..\lvgl\version_6.1.2\lvgl\src\lv_objx/lv_tileview.c **** 
 114              		.loc 1 371 0 discriminator 1
 115 003a A949     		ldr	r1, .L68+4
 116 003c 3046     		mov	r0, r6
 117              	.LVL9:
 118              		.loc 1 478 0 discriminator 1
 119 003e 03B0     		add	sp, sp, #12
 120              		.cfi_remember_state
 121              		.cfi_def_cfa_offset 36
 122              		@ sp needed
 123 0040 BDE8F04F 		pop	{r4, r5, r6, r7, r8, r9, r10, fp, lr}
 124              		.cfi_restore 14
 125              		.cfi_restore 11
 126              		.cfi_restore 10
 127              		.cfi_restore 9
 128              		.cfi_restore 8
 129              		.cfi_restore 7
 130              		.cfi_restore 6
 131              		.cfi_restore 5
 132              		.cfi_restore 4
 133              		.cfi_def_cfa_offset 0
 134              	.LVL10:
 371:..\..\..\lvgl\version_6.1.2\lvgl\src\lv_objx/lv_tileview.c **** 
 135              		.loc 1 371 0 discriminator 1
 136 0044 FFF7FEBF 		b	lv_obj_handle_get_type_signal
 137              	.LVL11:
 138              	.L60:
ARM GAS  C:\Users\pearlstl\AppData\Local\Temp\ccIMJlIA.s 			page 12


 139              		.cfi_restore_state
 140              	.LBB17:
 378:..\..\..\lvgl\version_6.1.2\lvgl\src\lv_objx/lv_tileview.c ****         if(indev) {
 141              		.loc 1 378 0
 142 0048 FFF7FEFF 		bl	lv_indev_get_act
 143              	.LVL12:
 379:..\..\..\lvgl\version_6.1.2\lvgl\src\lv_objx/lv_tileview.c ****             lv_tileview_ext_t * ext = lv_obj_get_ext_attr(tileview);
 144              		.loc 1 379 0
 145 004c 8046     		mov	r8, r0
 146 004e 0028     		cmp	r0, #0
 147 0050 EFD0     		beq	.L56
 148              	.LBB16:
 380:..\..\..\lvgl\version_6.1.2\lvgl\src\lv_objx/lv_tileview.c **** 
 149              		.loc 1 380 0
 150 0052 3046     		mov	r0, r6
 151              	.LVL13:
 152 0054 FFF7FEFF 		bl	lv_obj_get_ext_attr
 153              	.LVL14:
 384:..\..\..\lvgl\version_6.1.2\lvgl\src\lv_objx/lv_tileview.c ****                ((ext->drag_right_en && indev->proc.types.pointer.drag_sum.x <= -LV_INDEV_DEF_DRAG_L
 154              		.loc 1 384 0
 155 0058 90F83C30 		ldrb	r3, [r0, #60]	@ zero_extendqisi2
 156 005c 9A06     		lsls	r2, r3, #26
 380:..\..\..\lvgl\version_6.1.2\lvgl\src\lv_objx/lv_tileview.c **** 
 157              		.loc 1 380 0
 158 005e 0446     		mov	r4, r0
 159              	.LVL15:
 384:..\..\..\lvgl\version_6.1.2\lvgl\src\lv_objx/lv_tileview.c ****                ((ext->drag_right_en && indev->proc.types.pointer.drag_sum.x <= -LV_INDEV_DEF_DRAG_L
 160              		.loc 1 384 0
 161 0060 0DD4     		bmi	.L6
 384:..\..\..\lvgl\version_6.1.2\lvgl\src\lv_objx/lv_tileview.c ****                ((ext->drag_right_en && indev->proc.types.pointer.drag_sum.x <= -LV_INDEV_DEF_DRAG_L
 162              		.loc 1 384 0 is_stmt 0 discriminator 1
 163 0062 1807     		lsls	r0, r3, #28
 164              	.LVL16:
 165 0064 40F1B580 		bpl	.L7
 385:..\..\..\lvgl\version_6.1.2\lvgl\src\lv_objx/lv_tileview.c ****                 (ext->drag_left_en && indev->proc.types.pointer.drag_sum.x >= LV_INDEV_DEF_DRAG_LIM
 166              		.loc 1 385 0 is_stmt 1
 167 0068 B8F92C20 		ldrsh	r2, [r8, #44]
 168 006c 0932     		adds	r2, r2, #9
 169 006e 80F2B080 		bge	.L7
 170              	.L8:
 387:..\..\..\lvgl\version_6.1.2\lvgl\src\lv_objx/lv_tileview.c ****             }
 171              		.loc 1 387 0
 172 0072 94F83C30 		ldrb	r3, [r4, #60]	@ zero_extendqisi2
 173 0076 43F01003 		orr	r3, r3, #16
 174 007a 84F83C30 		strb	r3, [r4, #60]
 175              	.L6:
 391:..\..\..\lvgl\version_6.1.2\lvgl\src\lv_objx/lv_tileview.c ****                ((ext->drag_bottom_en && indev->proc.types.pointer.drag_sum.y <= -LV_INDEV_DEF_DRAG_
 176              		.loc 1 391 0
 177 007e DA06     		lsls	r2, r3, #27
 178 0080 00F19580 		bmi	.L9
 391:..\..\..\lvgl\version_6.1.2\lvgl\src\lv_objx/lv_tileview.c ****                ((ext->drag_bottom_en && indev->proc.types.pointer.drag_sum.y <= -LV_INDEV_DEF_DRAG_
 179              		.loc 1 391 0 is_stmt 0 discriminator 1
 180 0084 9807     		lsls	r0, r3, #30
 181 0086 40F19B80 		bpl	.L10
 392:..\..\..\lvgl\version_6.1.2\lvgl\src\lv_objx/lv_tileview.c ****                 (ext->drag_top_en && indev->proc.types.pointer.drag_sum.y >= LV_INDEV_DEF_DRAG_LIMI
 182              		.loc 1 392 0 is_stmt 1
 183 008a B8F92E20 		ldrsh	r2, [r8, #46]
ARM GAS  C:\Users\pearlstl\AppData\Local\Temp\ccIMJlIA.s 			page 13


 184 008e 0932     		adds	r2, r2, #9
 185 0090 80F29680 		bge	.L10
 186              	.L11:
 394:..\..\..\lvgl\version_6.1.2\lvgl\src\lv_objx/lv_tileview.c ****             }
 187              		.loc 1 394 0
 188 0094 94F83C20 		ldrb	r2, [r4, #60]	@ zero_extendqisi2
 189 0098 42F02002 		orr	r2, r2, #32
 398:..\..\..\lvgl\version_6.1.2\lvgl\src\lv_objx/lv_tileview.c ****                 ext->page.edge_flash.top_ip    = 0;
 190              		.loc 1 398 0
 191 009c 1346     		mov	r3, r2
 394:..\..\..\lvgl\version_6.1.2\lvgl\src\lv_objx/lv_tileview.c ****             }
 192              		.loc 1 394 0
 193 009e 84F83C20 		strb	r2, [r4, #60]
 398:..\..\..\lvgl\version_6.1.2\lvgl\src\lv_objx/lv_tileview.c ****                 ext->page.edge_flash.top_ip    = 0;
 194              		.loc 1 398 0
 195 00a2 DA06     		lsls	r2, r3, #27
 196 00a4 00F18380 		bmi	.L9
 197              	.L12:
 403:..\..\..\lvgl\version_6.1.2\lvgl\src\lv_objx/lv_tileview.c ****                 ext->page.edge_flash.right_ip = 0;
 198              		.loc 1 403 0
 199 00a8 9B06     		lsls	r3, r3, #26
 200 00aa 07D5     		bpl	.L13
 404:..\..\..\lvgl\version_6.1.2\lvgl\src\lv_objx/lv_tileview.c ****                 ext->page.edge_flash.left_ip  = 0;
 201              		.loc 1 404 0
 202 00ac 94F82830 		ldrb	r3, [r4, #40]	@ zero_extendqisi2
 405:..\..\..\lvgl\version_6.1.2\lvgl\src\lv_objx/lv_tileview.c ****             }
 203              		.loc 1 405 0
 204 00b0 03F0F703 		and	r3, r3, #247
 205 00b4 6FF30413 		bfc	r3, #4, #1
 206 00b8 84F82830 		strb	r3, [r4, #40]
 207              	.L13:
 409:..\..\..\lvgl\version_6.1.2\lvgl\src\lv_objx/lv_tileview.c ****             lv_coord_t y = lv_obj_get_y(scrl);
 208              		.loc 1 409 0
 209 00bc 2846     		mov	r0, r5
 210 00be FFF7FEFF 		bl	lv_obj_get_x
 211              	.LVL17:
 212 00c2 8246     		mov	r10, r0
 213              	.LVL18:
 410:..\..\..\lvgl\version_6.1.2\lvgl\src\lv_objx/lv_tileview.c ****             lv_coord_t h = lv_obj_get_height(tileview);
 214              		.loc 1 410 0
 215 00c4 2846     		mov	r0, r5
 216 00c6 FFF7FEFF 		bl	lv_obj_get_y
 217              	.LVL19:
 218 00ca 8346     		mov	fp, r0
 219              	.LVL20:
 411:..\..\..\lvgl\version_6.1.2\lvgl\src\lv_objx/lv_tileview.c ****             lv_coord_t w = lv_obj_get_width(tileview);
 220              		.loc 1 411 0
 221 00cc 3046     		mov	r0, r6
 222 00ce FFF7FEFF 		bl	lv_obj_get_height
 223              	.LVL21:
 224 00d2 8146     		mov	r9, r0
 225              	.LVL22:
 412:..\..\..\lvgl\version_6.1.2\lvgl\src\lv_objx/lv_tileview.c ****             if(ext->drag_top_en == 0) {
 226              		.loc 1 412 0
 227 00d4 3046     		mov	r0, r6
 228 00d6 FFF7FEFF 		bl	lv_obj_get_width
 229              	.LVL23:
ARM GAS  C:\Users\pearlstl\AppData\Local\Temp\ccIMJlIA.s 			page 14


 413:..\..\..\lvgl\version_6.1.2\lvgl\src\lv_objx/lv_tileview.c ****                 if(y > -(ext->act_id.y * h) && indev->proc.types.pointer.vect.y > 0 && ext->drag_ho
 230              		.loc 1 413 0
 231 00da 94F83C30 		ldrb	r3, [r4, #60]	@ zero_extendqisi2
 412:..\..\..\lvgl\version_6.1.2\lvgl\src\lv_objx/lv_tileview.c ****             if(ext->drag_top_en == 0) {
 232              		.loc 1 412 0
 233 00de 0246     		mov	r2, r0
 234              	.LVL24:
 413:..\..\..\lvgl\version_6.1.2\lvgl\src\lv_objx/lv_tileview.c ****                 if(y > -(ext->act_id.y * h) && indev->proc.types.pointer.vect.y > 0 && ext->drag_ho
 235              		.loc 1 413 0
 236 00e0 D807     		lsls	r0, r3, #31
 237 00e2 1FD4     		bmi	.L14
 414:..\..\..\lvgl\version_6.1.2\lvgl\src\lv_objx/lv_tileview.c **** #if LV_USE_ANIMATION
 238              		.loc 1 414 0
 239 00e4 B4F93A00 		ldrsh	r0, [r4, #58]
 240 00e8 00FB09F1 		mul	r1, r0, r9
 241 00ec 4942     		negs	r1, r1
 242 00ee 8B45     		cmp	fp, r1
 243 00f0 18DD     		ble	.L14
 414:..\..\..\lvgl\version_6.1.2\lvgl\src\lv_objx/lv_tileview.c **** #if LV_USE_ANIMATION
 244              		.loc 1 414 0 is_stmt 0 discriminator 1
 245 00f2 B8F92A10 		ldrsh	r1, [r8, #42]
 246 00f6 0029     		cmp	r1, #0
 247 00f8 14DD     		ble	.L14
 414:..\..\..\lvgl\version_6.1.2\lvgl\src\lv_objx/lv_tileview.c **** #if LV_USE_ANIMATION
 248              		.loc 1 414 0 discriminator 2
 249 00fa D906     		lsls	r1, r3, #27
 250 00fc 12D4     		bmi	.L14
 416:..\..\..\lvgl\version_6.1.2\lvgl\src\lv_objx/lv_tileview.c ****                        ext->page.edge_flash.right_ip == 0 && ext->page.edge_flash.top_ip == 0 &&
 251              		.loc 1 416 0 is_stmt 1
 252 00fe 94F82830 		ldrb	r3, [r4, #40]	@ zero_extendqisi2
 253 0102 03F01F01 		and	r1, r3, #31
 254 0106 0129     		cmp	r1, #1
 255 0108 00F0C480 		beq	.L61
 256              	.LVL25:
 257              	.L15:
 424:..\..\..\lvgl\version_6.1.2\lvgl\src\lv_objx/lv_tileview.c ****                 }
 258              		.loc 1 424 0
 259 010c 398C     		ldrh	r1, [r7, #32]
 260 010e 0192     		str	r2, [sp, #4]
 261 0110 4042     		negs	r0, r0
 262 0112 10FB0911 		smlabb	r1, r0, r9, r1
 263 0116 09B2     		sxth	r1, r1
 264 0118 2846     		mov	r0, r5
 265 011a FFF7FEFF 		bl	lv_obj_set_y
 266              	.LVL26:
 267 011e 94F83C30 		ldrb	r3, [r4, #60]	@ zero_extendqisi2
 268 0122 019A     		ldr	r2, [sp, #4]
 269              	.L14:
 427:..\..\..\lvgl\version_6.1.2\lvgl\src\lv_objx/lv_tileview.c ****                 if(y < -(ext->act_id.y * h)) {
 270              		.loc 1 427 0
 271 0124 9807     		lsls	r0, r3, #30
 272 0126 03D4     		bmi	.L16
 427:..\..\..\lvgl\version_6.1.2\lvgl\src\lv_objx/lv_tileview.c ****                 if(y < -(ext->act_id.y * h)) {
 273              		.loc 1 427 0 is_stmt 0 discriminator 1
 274 0128 B8F92A10 		ldrsh	r1, [r8, #42]
 275 012c 0029     		cmp	r1, #0
 276 012e 6CDB     		blt	.L62
ARM GAS  C:\Users\pearlstl\AppData\Local\Temp\ccIMJlIA.s 			page 15


 277              	.L16:
 441:..\..\..\lvgl\version_6.1.2\lvgl\src\lv_objx/lv_tileview.c ****                 if(x > -(ext->act_id.x * w) && indev->proc.types.pointer.vect.x > 0 && ext->drag_ve
 278              		.loc 1 441 0 is_stmt 1
 279 0130 5807     		lsls	r0, r3, #29
 280 0132 21D4     		bmi	.L18
 442:..\..\..\lvgl\version_6.1.2\lvgl\src\lv_objx/lv_tileview.c **** #if LV_USE_ANIMATION
 281              		.loc 1 442 0
 282 0134 B4F93800 		ldrsh	r0, [r4, #56]
 283 0138 00FB02F1 		mul	r1, r0, r2
 284 013c 4942     		negs	r1, r1
 285 013e 8A45     		cmp	r10, r1
 286 0140 1ADD     		ble	.L18
 442:..\..\..\lvgl\version_6.1.2\lvgl\src\lv_objx/lv_tileview.c **** #if LV_USE_ANIMATION
 287              		.loc 1 442 0 is_stmt 0 discriminator 1
 288 0142 B8F92810 		ldrsh	r1, [r8, #40]
 289 0146 0029     		cmp	r1, #0
 290 0148 16DD     		ble	.L18
 442:..\..\..\lvgl\version_6.1.2\lvgl\src\lv_objx/lv_tileview.c **** #if LV_USE_ANIMATION
 291              		.loc 1 442 0 discriminator 2
 292 014a 13F02001 		ands	r1, r3, #32
 293 014e 40F09280 		bne	.L19
 444:..\..\..\lvgl\version_6.1.2\lvgl\src\lv_objx/lv_tileview.c ****                        ext->page.edge_flash.right_ip == 0 && ext->page.edge_flash.top_ip == 0 &&
 294              		.loc 1 444 0 is_stmt 1
 295 0152 94F82830 		ldrb	r3, [r4, #40]	@ zero_extendqisi2
 296 0156 03F01F01 		and	r1, r3, #31
 297 015a 0129     		cmp	r1, #1
 298 015c 00F08E80 		beq	.L63
 299              	.L20:
 452:..\..\..\lvgl\version_6.1.2\lvgl\src\lv_objx/lv_tileview.c ****                 }
 300              		.loc 1 452 0
 301 0160 B98C     		ldrh	r1, [r7, #36]
 302 0162 0192     		str	r2, [sp, #4]
 303 0164 4042     		negs	r0, r0
 304 0166 10FB0211 		smlabb	r1, r0, r2, r1
 305 016a 09B2     		sxth	r1, r1
 306 016c 2846     		mov	r0, r5
 307 016e FFF7FEFF 		bl	lv_obj_set_x
 308              	.LVL27:
 309 0172 94F83C30 		ldrb	r3, [r4, #60]	@ zero_extendqisi2
 310 0176 019A     		ldr	r2, [sp, #4]
 311              	.L18:
 455:..\..\..\lvgl\version_6.1.2\lvgl\src\lv_objx/lv_tileview.c ****                 if(x < -(ext->act_id.x * w)) {
 312              		.loc 1 455 0
 313 0178 1907     		lsls	r1, r3, #28
 314 017a 03D4     		bmi	.L55
 315 017c B8F92810 		ldrsh	r1, [r8, #40]
 316 0180 0029     		cmp	r1, #0
 317 0182 5EDB     		blt	.L64
 318              	.L55:
 319 0184 03F02001 		and	r1, r3, #32
 320              	.L21:
 471:..\..\..\lvgl\version_6.1.2\lvgl\src\lv_objx/lv_tileview.c ****                 lv_obj_set_y(scrl, -ext->act_id.y * lv_obj_get_height(tileview) + style_bg->body.pa
 321              		.loc 1 471 0
 322 0188 61B3     		cbz	r1, .L65
 323              	.LVL28:
 324              	.L22:
 473:..\..\..\lvgl\version_6.1.2\lvgl\src\lv_objx/lv_tileview.c ****                 lv_obj_set_x(scrl, -ext->act_id.x * lv_obj_get_width(tileview) + style_bg->body.pad
ARM GAS  C:\Users\pearlstl\AppData\Local\Temp\ccIMJlIA.s 			page 16


 325              		.loc 1 473 0
 326 018a D906     		lsls	r1, r3, #27
 327 018c 3FF551AF 		bmi	.L56
 474:..\..\..\lvgl\version_6.1.2\lvgl\src\lv_objx/lv_tileview.c ****         }
 328              		.loc 1 474 0
 329 0190 B4F93840 		ldrsh	r4, [r4, #56]
 330              	.LVL29:
 331 0194 3046     		mov	r0, r6
 332 0196 FFF7FEFF 		bl	lv_obj_get_width
 333              	.LVL30:
 334 019a 6442     		negs	r4, r4
 335 019c B98C     		ldrh	r1, [r7, #36]
 336 019e A4B2     		uxth	r4, r4
 337 01a0 10FB0411 		smlabb	r1, r0, r4, r1
 338 01a4 09B2     		sxth	r1, r1
 339 01a6 2846     		mov	r0, r5
 340 01a8 FFF7FEFF 		bl	lv_obj_set_x
 341              	.LVL31:
 342 01ac 41E7     		b	.L56
 343              	.LVL32:
 344              	.L9:
 399:..\..\..\lvgl\version_6.1.2\lvgl\src\lv_objx/lv_tileview.c ****                 ext->page.edge_flash.bottom_ip = 0;
 345              		.loc 1 399 0
 346 01ae 94F82820 		ldrb	r2, [r4, #40]	@ zero_extendqisi2
 400:..\..\..\lvgl\version_6.1.2\lvgl\src\lv_objx/lv_tileview.c ****             }
 347              		.loc 1 400 0
 348 01b2 02F0FD02 		and	r2, r2, #253
 349 01b6 6FF38202 		bfc	r2, #2, #1
 350 01ba 84F82820 		strb	r2, [r4, #40]
 351 01be 73E7     		b	.L12
 352              	.L10:
 392:..\..\..\lvgl\version_6.1.2\lvgl\src\lv_objx/lv_tileview.c ****                 (ext->drag_top_en && indev->proc.types.pointer.drag_sum.y >= LV_INDEV_DEF_DRAG_LIMI
 353              		.loc 1 392 0 discriminator 1
 354 01c0 D907     		lsls	r1, r3, #31
 355 01c2 7FF571AF 		bpl	.L12
 393:..\..\..\lvgl\version_6.1.2\lvgl\src\lv_objx/lv_tileview.c ****                 ext->drag_ver = 1;
 356              		.loc 1 393 0
 357 01c6 B8F92E20 		ldrsh	r2, [r8, #46]
 358 01ca 092A     		cmp	r2, #9
 359 01cc 7FF76CAF 		ble	.L12
 360 01d0 60E7     		b	.L11
 361              	.L7:
 385:..\..\..\lvgl\version_6.1.2\lvgl\src\lv_objx/lv_tileview.c ****                 (ext->drag_left_en && indev->proc.types.pointer.drag_sum.x >= LV_INDEV_DEF_DRAG_LIM
 362              		.loc 1 385 0 discriminator 1
 363 01d2 5907     		lsls	r1, r3, #29
 364 01d4 7FF553AF 		bpl	.L6
 386:..\..\..\lvgl\version_6.1.2\lvgl\src\lv_objx/lv_tileview.c ****                 ext->drag_hor = 1;
 365              		.loc 1 386 0
 366 01d8 B8F92C20 		ldrsh	r2, [r8, #44]
 367 01dc 092A     		cmp	r2, #9
 368 01de 7FF74EAF 		ble	.L6
 369 01e2 46E7     		b	.L8
 370              	.LVL33:
 371              	.L65:
 472:..\..\..\lvgl\version_6.1.2\lvgl\src\lv_objx/lv_tileview.c ****             if(ext->drag_hor == 0)
 372              		.loc 1 472 0
 373 01e4 B4F93A80 		ldrsh	r8, [r4, #58]
ARM GAS  C:\Users\pearlstl\AppData\Local\Temp\ccIMJlIA.s 			page 17


 374              	.LVL34:
 375 01e8 3046     		mov	r0, r6
 376 01ea FFF7FEFF 		bl	lv_obj_get_height
 377              	.LVL35:
 378 01ee C8F10008 		rsb	r8, r8, #0
 379 01f2 398C     		ldrh	r1, [r7, #32]
 380 01f4 1FFA88F8 		uxth	r8, r8
 381 01f8 10FB0811 		smlabb	r1, r0, r8, r1
 382 01fc 09B2     		sxth	r1, r1
 383 01fe 2846     		mov	r0, r5
 384 0200 FFF7FEFF 		bl	lv_obj_set_y
 385              	.LVL36:
 386 0204 94F83C30 		ldrb	r3, [r4, #60]	@ zero_extendqisi2
 387 0208 BFE7     		b	.L22
 388              	.LVL37:
 389              	.L62:
 427:..\..\..\lvgl\version_6.1.2\lvgl\src\lv_objx/lv_tileview.c ****                 if(y < -(ext->act_id.y * h)) {
 390              		.loc 1 427 0 discriminator 2
 391 020a D906     		lsls	r1, r3, #27
 392 020c 90D4     		bmi	.L16
 428:..\..\..\lvgl\version_6.1.2\lvgl\src\lv_objx/lv_tileview.c **** #if LV_USE_ANIMATION
 393              		.loc 1 428 0
 394 020e B4F93A30 		ldrsh	r3, [r4, #58]
 395 0212 03FB09F1 		mul	r1, r3, r9
 396 0216 4942     		negs	r1, r1
 397 0218 8B45     		cmp	fp, r1
 398 021a 05DA     		bge	.L17
 430:..\..\..\lvgl\version_6.1.2\lvgl\src\lv_objx/lv_tileview.c ****                        ext->page.edge_flash.right_ip == 0 && ext->page.edge_flash.top_ip == 0 &&
 399              		.loc 1 430 0
 400 021c 94F82810 		ldrb	r1, [r4, #40]	@ zero_extendqisi2
 401 0220 01F01F00 		and	r0, r1, #31
 402 0224 0128     		cmp	r0, #1
 403 0226 4DD0     		beq	.L66
 404              	.L17:
 439:..\..\..\lvgl\version_6.1.2\lvgl\src\lv_objx/lv_tileview.c ****             }
 405              		.loc 1 439 0
 406 0228 398C     		ldrh	r1, [r7, #32]
 407 022a 0192     		str	r2, [sp, #4]
 408 022c 5B42     		negs	r3, r3
 409 022e 13FB0911 		smlabb	r1, r3, r9, r1
 410 0232 09B2     		sxth	r1, r1
 411 0234 2846     		mov	r0, r5
 412 0236 FFF7FEFF 		bl	lv_obj_set_y
 413              	.LVL38:
 414 023a 94F83C30 		ldrb	r3, [r4, #60]	@ zero_extendqisi2
 415 023e 019A     		ldr	r2, [sp, #4]
 416 0240 76E7     		b	.L16
 417              	.L64:
 455:..\..\..\lvgl\version_6.1.2\lvgl\src\lv_objx/lv_tileview.c ****                 if(x < -(ext->act_id.x * w)) {
 418              		.loc 1 455 0 discriminator 2
 419 0242 9806     		lsls	r0, r3, #26
 420 0244 A1D4     		bmi	.L22
 456:..\..\..\lvgl\version_6.1.2\lvgl\src\lv_objx/lv_tileview.c **** #if LV_USE_ANIMATION
 421              		.loc 1 456 0
 422 0246 B4F93830 		ldrsh	r3, [r4, #56]
 423 024a 03FB02F1 		mul	r1, r3, r2
 424 024e 4942     		negs	r1, r1
ARM GAS  C:\Users\pearlstl\AppData\Local\Temp\ccIMJlIA.s 			page 18


 425 0250 8A45     		cmp	r10, r1
 426 0252 05DA     		bge	.L23
 458:..\..\..\lvgl\version_6.1.2\lvgl\src\lv_objx/lv_tileview.c ****                        ext->page.edge_flash.right_ip == 0 && ext->page.edge_flash.top_ip == 0 &&
 427              		.loc 1 458 0
 428 0254 94F82810 		ldrb	r1, [r4, #40]	@ zero_extendqisi2
 429 0258 01F01F00 		and	r0, r1, #31
 430 025c 0128     		cmp	r0, #1
 431 025e 25D0     		beq	.L67
 432              	.L23:
 467:..\..\..\lvgl\version_6.1.2\lvgl\src\lv_objx/lv_tileview.c ****             }
 433              		.loc 1 467 0
 434 0260 398C     		ldrh	r1, [r7, #32]
 435 0262 5B42     		negs	r3, r3
 436 0264 13FB0211 		smlabb	r1, r3, r2, r1
 437 0268 09B2     		sxth	r1, r1
 438 026a 2846     		mov	r0, r5
 439 026c FFF7FEFF 		bl	lv_obj_set_x
 440              	.LVL39:
 441 0270 94F83C30 		ldrb	r3, [r4, #60]	@ zero_extendqisi2
 442 0274 86E7     		b	.L55
 443              	.L19:
 455:..\..\..\lvgl\version_6.1.2\lvgl\src\lv_objx/lv_tileview.c ****                 if(x < -(ext->act_id.x * w)) {
 444              		.loc 1 455 0
 445 0276 1A07     		lsls	r2, r3, #28
 446 0278 86D5     		bpl	.L21
 447 027a 86E7     		b	.L22
 448              	.L63:
 447:..\..\..\lvgl\version_6.1.2\lvgl\src\lv_objx/lv_tileview.c ****                         lv_page_start_edge_flash(tileview);
 449              		.loc 1 447 0
 450 027c 43F01003 		orr	r3, r3, #16
 448:..\..\..\lvgl\version_6.1.2\lvgl\src\lv_objx/lv_tileview.c ****                     }
 451              		.loc 1 448 0
 452 0280 3046     		mov	r0, r6
 447:..\..\..\lvgl\version_6.1.2\lvgl\src\lv_objx/lv_tileview.c ****                         lv_page_start_edge_flash(tileview);
 453              		.loc 1 447 0
 454 0282 84F82830 		strb	r3, [r4, #40]
 455 0286 0192     		str	r2, [sp, #4]
 448:..\..\..\lvgl\version_6.1.2\lvgl\src\lv_objx/lv_tileview.c ****                     }
 456              		.loc 1 448 0
 457 0288 FFF7FEFF 		bl	lv_page_start_edge_flash
 458              	.LVL40:
 459 028c B4F93800 		ldrsh	r0, [r4, #56]
 460 0290 019A     		ldr	r2, [sp, #4]
 461 0292 65E7     		b	.L20
 462              	.LVL41:
 463              	.L61:
 419:..\..\..\lvgl\version_6.1.2\lvgl\src\lv_objx/lv_tileview.c ****                         lv_page_start_edge_flash(tileview);
 464              		.loc 1 419 0
 465 0294 43F00203 		orr	r3, r3, #2
 420:..\..\..\lvgl\version_6.1.2\lvgl\src\lv_objx/lv_tileview.c ****                     }
 466              		.loc 1 420 0
 467 0298 3046     		mov	r0, r6
 419:..\..\..\lvgl\version_6.1.2\lvgl\src\lv_objx/lv_tileview.c ****                         lv_page_start_edge_flash(tileview);
 468              		.loc 1 419 0
 469 029a 84F82830 		strb	r3, [r4, #40]
 470 029e 0192     		str	r2, [sp, #4]
 420:..\..\..\lvgl\version_6.1.2\lvgl\src\lv_objx/lv_tileview.c ****                     }
ARM GAS  C:\Users\pearlstl\AppData\Local\Temp\ccIMJlIA.s 			page 19


 471              		.loc 1 420 0
 472 02a0 FFF7FEFF 		bl	lv_page_start_edge_flash
 473              	.LVL42:
 474 02a4 B4F93A00 		ldrsh	r0, [r4, #58]
 475 02a8 019A     		ldr	r2, [sp, #4]
 476 02aa 2FE7     		b	.L15
 477              	.L67:
 461:..\..\..\lvgl\version_6.1.2\lvgl\src\lv_objx/lv_tileview.c ****                         lv_page_start_edge_flash(tileview);
 478              		.loc 1 461 0
 479 02ac 41F00801 		orr	r1, r1, #8
 480 02b0 84F82810 		strb	r1, [r4, #40]
 462:..\..\..\lvgl\version_6.1.2\lvgl\src\lv_objx/lv_tileview.c ****                     }
 481              		.loc 1 462 0
 482 02b4 3046     		mov	r0, r6
 483 02b6 0192     		str	r2, [sp, #4]
 484 02b8 FFF7FEFF 		bl	lv_page_start_edge_flash
 485              	.LVL43:
 486 02bc B4F93830 		ldrsh	r3, [r4, #56]
 487 02c0 019A     		ldr	r2, [sp, #4]
 488 02c2 CDE7     		b	.L23
 489              	.L66:
 433:..\..\..\lvgl\version_6.1.2\lvgl\src\lv_objx/lv_tileview.c ****                         lv_page_start_edge_flash(tileview);
 490              		.loc 1 433 0
 491 02c4 41F00401 		orr	r1, r1, #4
 492 02c8 84F82810 		strb	r1, [r4, #40]
 434:..\..\..\lvgl\version_6.1.2\lvgl\src\lv_objx/lv_tileview.c ****                     }
 493              		.loc 1 434 0
 494 02cc 3046     		mov	r0, r6
 495 02ce 0192     		str	r2, [sp, #4]
 496 02d0 FFF7FEFF 		bl	lv_page_start_edge_flash
 497              	.LVL44:
 498 02d4 B4F93A30 		ldrsh	r3, [r4, #58]
 499 02d8 019A     		ldr	r2, [sp, #4]
 500 02da A5E7     		b	.L17
 501              	.L69:
 502              		.align	2
 503              	.L68:
 504 02dc 00000000 		.word	.LANCHOR0
 505 02e0 00000000 		.word	.LC0
 506              	.LBE16:
 507              	.LBE17:
 508              		.cfi_endproc
 509              	.LFE59:
 510              		.size	lv_tileview_scrl_signal, .-lv_tileview_scrl_signal
 511              		.section	.text.lv_tileview_signal,"ax",%progbits
 512              		.align	2
 513              		.thumb
 514              		.thumb_func
 515              		.type	lv_tileview_signal, %function
 516              	lv_tileview_signal:
 517              	.LFB58:
 341:..\..\..\lvgl\version_6.1.2\lvgl\src\lv_objx/lv_tileview.c ****     lv_res_t res;
 518              		.loc 1 341 0
 519              		.cfi_startproc
 520              		@ args = 0, pretend = 0, frame = 0
 521              		@ frame_needed = 0, uses_anonymous_args = 0
 522              	.LVL45:
ARM GAS  C:\Users\pearlstl\AppData\Local\Temp\ccIMJlIA.s 			page 20


 523 0000 38B5     		push	{r3, r4, r5, lr}
 524              		.cfi_def_cfa_offset 16
 525              		.cfi_offset 3, -16
 526              		.cfi_offset 4, -12
 527              		.cfi_offset 5, -8
 528              		.cfi_offset 14, -4
 345:..\..\..\lvgl\version_6.1.2\lvgl\src\lv_objx/lv_tileview.c ****     if(res != LV_RES_OK) return res;
 529              		.loc 1 345 0
 530 0002 084B     		ldr	r3, .L76
 531 0004 5B68     		ldr	r3, [r3, #4]
 341:..\..\..\lvgl\version_6.1.2\lvgl\src\lv_objx/lv_tileview.c ****     lv_res_t res;
 532              		.loc 1 341 0
 533 0006 0C46     		mov	r4, r1
 534 0008 1546     		mov	r5, r2
 345:..\..\..\lvgl\version_6.1.2\lvgl\src\lv_objx/lv_tileview.c ****     if(res != LV_RES_OK) return res;
 535              		.loc 1 345 0
 536 000a 9847     		blx	r3
 537              	.LVL46:
 346:..\..\..\lvgl\version_6.1.2\lvgl\src\lv_objx/lv_tileview.c ****     if(sign == LV_SIGNAL_GET_TYPE) return lv_obj_handle_get_type_signal(param, LV_OBJX_NAME);
 538              		.loc 1 346 0
 539 000c 0128     		cmp	r0, #1
 540 000e 00D0     		beq	.L75
 541              	.L71:
 354:..\..\..\lvgl\version_6.1.2\lvgl\src\lv_objx/lv_tileview.c **** 
 542              		.loc 1 354 0
 543 0010 38BD     		pop	{r3, r4, r5, pc}
 544              	.LVL47:
 545              	.L75:
 347:..\..\..\lvgl\version_6.1.2\lvgl\src\lv_objx/lv_tileview.c **** 
 546              		.loc 1 347 0
 547 0012 072C     		cmp	r4, #7
 548 0014 FCD1     		bne	.L71
 549              	.LVL48:
 550              	.LBB20:
 551              	.LBB21:
 552 0016 2846     		mov	r0, r5
 553              	.LVL49:
 554 0018 0349     		ldr	r1, .L76+4
 555              	.LBE21:
 556              	.LBE20:
 354:..\..\..\lvgl\version_6.1.2\lvgl\src\lv_objx/lv_tileview.c **** 
 557              		.loc 1 354 0
 558 001a BDE83840 		pop	{r3, r4, r5, lr}
 559              		.cfi_restore 14
 560              		.cfi_restore 5
 561              		.cfi_restore 4
 562              		.cfi_restore 3
 563              		.cfi_def_cfa_offset 0
 564              	.LVL50:
 565              	.LBB23:
 566              	.LBB22:
 347:..\..\..\lvgl\version_6.1.2\lvgl\src\lv_objx/lv_tileview.c **** 
 567              		.loc 1 347 0
 568 001e FFF7FEBF 		b	lv_obj_handle_get_type_signal
 569              	.LVL51:
 570              	.L77:
 571 0022 00BF     		.align	2
ARM GAS  C:\Users\pearlstl\AppData\Local\Temp\ccIMJlIA.s 			page 21


 572              	.L76:
 573 0024 00000000 		.word	.LANCHOR0
 574 0028 04000000 		.word	.LC1
 575              	.LBE22:
 576              	.LBE23:
 577              		.cfi_endproc
 578              	.LFE58:
 579              		.size	lv_tileview_signal, .-lv_tileview_signal
 580              		.section	.text.lv_tileview_create,"ax",%progbits
 581              		.align	2
 582              		.global	lv_tileview_create
 583              		.thumb
 584              		.thumb_func
 585              		.type	lv_tileview_create, %function
 586              	lv_tileview_create:
 587              	.LFB52:
  66:..\..\..\lvgl\version_6.1.2\lvgl\src\lv_objx/lv_tileview.c ****     LV_LOG_TRACE("tileview create started");
 588              		.loc 1 66 0
 589              		.cfi_startproc
 590              		@ args = 0, pretend = 0, frame = 8
 591              		@ frame_needed = 0, uses_anonymous_args = 0
 592              	.LVL52:
 593 0000 2DE9F041 		push	{r4, r5, r6, r7, r8, lr}
 594              		.cfi_def_cfa_offset 24
 595              		.cfi_offset 4, -24
 596              		.cfi_offset 5, -20
 597              		.cfi_offset 6, -16
 598              		.cfi_offset 7, -12
 599              		.cfi_offset 8, -8
 600              		.cfi_offset 14, -4
 601 0004 84B0     		sub	sp, sp, #16
 602              		.cfi_def_cfa_offset 40
  66:..\..\..\lvgl\version_6.1.2\lvgl\src\lv_objx/lv_tileview.c ****     LV_LOG_TRACE("tileview create started");
 603              		.loc 1 66 0
 604 0006 8046     		mov	r8, r0
 605 0008 0F46     		mov	r7, r1
  70:..\..\..\lvgl\version_6.1.2\lvgl\src\lv_objx/lv_tileview.c ****     LV_ASSERT_MEM(new_tileview);
 606              		.loc 1 70 0
 607 000a FFF7FEFF 		bl	lv_page_create
 608              	.LVL53:
  72:..\..\..\lvgl\version_6.1.2\lvgl\src\lv_objx/lv_tileview.c **** 
 609              		.loc 1 72 0
 610 000e 0028     		cmp	r0, #0
 611 0010 7ED0     		beq	.L81
  75:..\..\..\lvgl\version_6.1.2\lvgl\src\lv_objx/lv_tileview.c ****     LV_ASSERT_MEM(ext);
 612              		.loc 1 75 0
 613 0012 4021     		movs	r1, #64
 614 0014 0546     		mov	r5, r0
 615 0016 FFF7FEFF 		bl	lv_obj_allocate_ext_attr
 616              	.LVL54:
  77:..\..\..\lvgl\version_6.1.2\lvgl\src\lv_objx/lv_tileview.c ****     if(ancestor_signal == NULL) ancestor_signal = lv_obj_get_signal_cb(new_tileview);
 617              		.loc 1 77 0
 618 001a 0446     		mov	r4, r0
 619 001c 0028     		cmp	r0, #0
 620 001e 77D0     		beq	.L81
  78:..\..\..\lvgl\version_6.1.2\lvgl\src\lv_objx/lv_tileview.c ****     if(ancestor_scrl_signal == NULL) ancestor_scrl_signal = lv_obj_get_signal_cb(lv_page_get_scrl(n
 621              		.loc 1 78 0
ARM GAS  C:\Users\pearlstl\AppData\Local\Temp\ccIMJlIA.s 			page 22


 622 0020 504E     		ldr	r6, .L97
 623 0022 7368     		ldr	r3, [r6, #4]
 624 0024 002B     		cmp	r3, #0
 625 0026 00F08380 		beq	.L93
 626              	.LVL55:
 627              	.L82:
  79:..\..\..\lvgl\version_6.1.2\lvgl\src\lv_objx/lv_tileview.c ****     if(ancestor_design == NULL) ancestor_design = lv_obj_get_design_cb(new_tileview);
 628              		.loc 1 79 0
 629 002a 3368     		ldr	r3, [r6]
 630 002c 4D4A     		ldr	r2, .L97
 631 002e 002B     		cmp	r3, #0
 632 0030 70D0     		beq	.L94
 633              	.L83:
  80:..\..\..\lvgl\version_6.1.2\lvgl\src\lv_objx/lv_tileview.c **** 
 634              		.loc 1 80 0
 635 0032 B368     		ldr	r3, [r6, #8]
 636 0034 4B4E     		ldr	r6, .L97
 637 0036 002B     		cmp	r3, #0
 638 0038 75D0     		beq	.L95
 639              	.L84:
  86:..\..\..\lvgl\version_6.1.2\lvgl\src\lv_objx/lv_tileview.c ****     ext->act_id.y      = 0;
 640              		.loc 1 86 0
 641 003a 0023     		movs	r3, #0
  84:..\..\..\lvgl\version_6.1.2\lvgl\src\lv_objx/lv_tileview.c **** #endif
 642              		.loc 1 84 0
 643 003c 4FF49672 		mov	r2, #300
  92:..\..\..\lvgl\version_6.1.2\lvgl\src\lv_objx/lv_tileview.c ****     lv_obj_set_signal_cb(lv_page_get_scrl(new_tileview), lv_tileview_scrl_signal);
 644              		.loc 1 92 0
 645 0040 4949     		ldr	r1, .L97+4
  84:..\..\..\lvgl\version_6.1.2\lvgl\src\lv_objx/lv_tileview.c **** #endif
 646              		.loc 1 84 0
 647 0042 E286     		strh	r2, [r4, #54]	@ movhi
  86:..\..\..\lvgl\version_6.1.2\lvgl\src\lv_objx/lv_tileview.c ****     ext->act_id.y      = 0;
 648              		.loc 1 86 0
 649 0044 2387     		strh	r3, [r4, #56]	@ movhi
  87:..\..\..\lvgl\version_6.1.2\lvgl\src\lv_objx/lv_tileview.c ****     ext->valid_pos     = NULL;
 650              		.loc 1 87 0
 651 0046 6387     		strh	r3, [r4, #58]	@ movhi
  88:..\..\..\lvgl\version_6.1.2\lvgl\src\lv_objx/lv_tileview.c ****     ext->valid_pos_cnt = 0;
 652              		.loc 1 88 0
 653 0048 2363     		str	r3, [r4, #48]
  89:..\..\..\lvgl\version_6.1.2\lvgl\src\lv_objx/lv_tileview.c **** 
 654              		.loc 1 89 0
 655 004a A386     		strh	r3, [r4, #52]	@ movhi
  92:..\..\..\lvgl\version_6.1.2\lvgl\src\lv_objx/lv_tileview.c ****     lv_obj_set_signal_cb(lv_page_get_scrl(new_tileview), lv_tileview_scrl_signal);
 656              		.loc 1 92 0
 657 004c 2846     		mov	r0, r5
 658 004e FFF7FEFF 		bl	lv_obj_set_signal_cb
 659              	.LVL56:
  93:..\..\..\lvgl\version_6.1.2\lvgl\src\lv_objx/lv_tileview.c **** 
 660              		.loc 1 93 0
 661 0052 2846     		mov	r0, r5
 662 0054 FFF7FEFF 		bl	lv_page_get_scrl
 663              	.LVL57:
 664 0058 4449     		ldr	r1, .L97+8
 665 005a FFF7FEFF 		bl	lv_obj_set_signal_cb
 666              	.LVL58:
ARM GAS  C:\Users\pearlstl\AppData\Local\Temp\ccIMJlIA.s 			page 23


  96:..\..\..\lvgl\version_6.1.2\lvgl\src\lv_objx/lv_tileview.c ****         /* Set a size which fits into the parent.
 667              		.loc 1 96 0
 668 005e B7B1     		cbz	r7, .L96
 669              	.LBB30:
 128:..\..\..\lvgl\version_6.1.2\lvgl\src\lv_objx/lv_tileview.c ****         ext->act_id.x                = copy_ext->act_id.x;
 670              		.loc 1 128 0
 671 0060 3846     		mov	r0, r7
 672 0062 FFF7FEFF 		bl	lv_obj_get_ext_attr
 673              	.LVL59:
 674 0066 0346     		mov	r3, r0
 675              	.LVL60:
 138:..\..\..\lvgl\version_6.1.2\lvgl\src\lv_objx/lv_tileview.c ****     }
 676              		.loc 1 138 0
 677 0068 2846     		mov	r0, r5
 678              	.LVL61:
 129:..\..\..\lvgl\version_6.1.2\lvgl\src\lv_objx/lv_tileview.c ****         ext->act_id.y                = copy_ext->act_id.y;
 679              		.loc 1 129 0
 680 006a B3F93870 		ldrsh	r7, [r3, #56]
 681              	.LVL62:
 130:..\..\..\lvgl\version_6.1.2\lvgl\src\lv_objx/lv_tileview.c ****         ext->valid_pos               = copy_ext->valid_pos;
 682              		.loc 1 130 0
 683 006e B3F93A60 		ldrsh	r6, [r3, #58]
 131:..\..\..\lvgl\version_6.1.2\lvgl\src\lv_objx/lv_tileview.c ****         ext->valid_pos_cnt           = copy_ext->valid_pos_cnt;
 684              		.loc 1 131 0
 685 0072 196B     		ldr	r1, [r3, #48]
 132:..\..\..\lvgl\version_6.1.2\lvgl\src\lv_objx/lv_tileview.c **** #if LV_USE_ANIMATION
 686              		.loc 1 132 0
 687 0074 9A8E     		ldrh	r2, [r3, #52]
 134:..\..\..\lvgl\version_6.1.2\lvgl\src\lv_objx/lv_tileview.c **** #endif
 688              		.loc 1 134 0
 689 0076 DB8E     		ldrh	r3, [r3, #54]
 690              	.LVL63:
 691 0078 E386     		strh	r3, [r4, #54]	@ movhi
 129:..\..\..\lvgl\version_6.1.2\lvgl\src\lv_objx/lv_tileview.c ****         ext->act_id.y                = copy_ext->act_id.y;
 692              		.loc 1 129 0
 693 007a 2787     		strh	r7, [r4, #56]	@ movhi
 130:..\..\..\lvgl\version_6.1.2\lvgl\src\lv_objx/lv_tileview.c ****         ext->valid_pos               = copy_ext->valid_pos;
 694              		.loc 1 130 0
 695 007c 6687     		strh	r6, [r4, #58]	@ movhi
 131:..\..\..\lvgl\version_6.1.2\lvgl\src\lv_objx/lv_tileview.c ****         ext->valid_pos_cnt           = copy_ext->valid_pos_cnt;
 696              		.loc 1 131 0
 697 007e 2163     		str	r1, [r4, #48]
 132:..\..\..\lvgl\version_6.1.2\lvgl\src\lv_objx/lv_tileview.c **** #if LV_USE_ANIMATION
 698              		.loc 1 132 0
 699 0080 A286     		strh	r2, [r4, #52]	@ movhi
 138:..\..\..\lvgl\version_6.1.2\lvgl\src\lv_objx/lv_tileview.c ****     }
 700              		.loc 1 138 0
 701 0082 FFF7FEFF 		bl	lv_obj_refresh_style
 702              	.LVL64:
 703 0086 2846     		mov	r0, r5
 704              	.LVL65:
 705              	.L80:
 706              	.LBE30:
 144:..\..\..\lvgl\version_6.1.2\lvgl\src\lv_objx/lv_tileview.c **** 
 707              		.loc 1 144 0
 708 0088 04B0     		add	sp, sp, #16
 709              		.cfi_remember_state
ARM GAS  C:\Users\pearlstl\AppData\Local\Temp\ccIMJlIA.s 			page 24


 710              		.cfi_def_cfa_offset 24
 711              		@ sp needed
 712 008a BDE8F081 		pop	{r4, r5, r6, r7, r8, pc}
 713              	.LVL66:
 714              	.L96:
 715              		.cfi_restore_state
 716              	.LBB31:
 102:..\..\..\lvgl\version_6.1.2\lvgl\src\lv_objx/lv_tileview.c ****             w = lv_obj_get_width_fit(lv_obj_get_parent(new_tileview));
 717              		.loc 1 102 0
 718 008e B8F1000F 		cmp	r8, #0
 719 0092 5ED0     		beq	.L86
 103:..\..\..\lvgl\version_6.1.2\lvgl\src\lv_objx/lv_tileview.c ****             h = lv_obj_get_height_fit(lv_obj_get_parent(new_tileview));
 720              		.loc 1 103 0
 721 0094 2846     		mov	r0, r5
 722 0096 FFF7FEFF 		bl	lv_obj_get_parent
 723              	.LVL67:
 724 009a FFF7FEFF 		bl	lv_obj_get_width_fit
 725              	.LVL68:
 726 009e 0646     		mov	r6, r0
 727              	.LVL69:
 104:..\..\..\lvgl\version_6.1.2\lvgl\src\lv_objx/lv_tileview.c ****         } else {
 728              		.loc 1 104 0
 729 00a0 2846     		mov	r0, r5
 730 00a2 FFF7FEFF 		bl	lv_obj_get_parent
 731              	.LVL70:
 732 00a6 FFF7FEFF 		bl	lv_obj_get_height_fit
 733              	.LVL71:
 734 00aa 0246     		mov	r2, r0
 735              	.LVL72:
 736              	.L87:
 110:..\..\..\lvgl\version_6.1.2\lvgl\src\lv_objx/lv_tileview.c **** 
 737              		.loc 1 110 0
 738 00ac 3146     		mov	r1, r6
 739 00ae 2846     		mov	r0, r5
 740 00b0 FFF7FEFF 		bl	lv_obj_set_size
 741              	.LVL73:
 112:..\..\..\lvgl\version_6.1.2\lvgl\src\lv_objx/lv_tileview.c ****         lv_page_set_scrl_fit(new_tileview, LV_FIT_TIGHT);
 742              		.loc 1 112 0
 743 00b4 2846     		mov	r0, r5
 744 00b6 FFF7FEFF 		bl	lv_page_get_scrl
 745              	.LVL74:
 746 00ba 0021     		movs	r1, #0
 747 00bc FFF7FEFF 		bl	lv_obj_set_drag_throw
 748              	.LVL75:
 749              	.LBB32:
 750              	.LBB33:
 751              	.LBB34:
 752              	.LBB35:
 753              		.file 2 "..\\..\\..\\lvgl\\version_6.1.2\\lvgl\\src\\lv_objx\\../lv_objx/lv_cont.h"
   1:..\..\..\lvgl\version_6.1.2\lvgl\src\lv_objx\../lv_objx/lv_cont.h **** /**
   2:..\..\..\lvgl\version_6.1.2\lvgl\src\lv_objx\../lv_objx/lv_cont.h ****  * @file lv_cont.h
   3:..\..\..\lvgl\version_6.1.2\lvgl\src\lv_objx\../lv_objx/lv_cont.h ****  *
   4:..\..\..\lvgl\version_6.1.2\lvgl\src\lv_objx\../lv_objx/lv_cont.h ****  */
   5:..\..\..\lvgl\version_6.1.2\lvgl\src\lv_objx\../lv_objx/lv_cont.h **** 
   6:..\..\..\lvgl\version_6.1.2\lvgl\src\lv_objx\../lv_objx/lv_cont.h **** #ifndef LV_CONT_H
   7:..\..\..\lvgl\version_6.1.2\lvgl\src\lv_objx\../lv_objx/lv_cont.h **** #define LV_CONT_H
   8:..\..\..\lvgl\version_6.1.2\lvgl\src\lv_objx\../lv_objx/lv_cont.h **** 
ARM GAS  C:\Users\pearlstl\AppData\Local\Temp\ccIMJlIA.s 			page 25


   9:..\..\..\lvgl\version_6.1.2\lvgl\src\lv_objx\../lv_objx/lv_cont.h **** #ifdef __cplusplus
  10:..\..\..\lvgl\version_6.1.2\lvgl\src\lv_objx\../lv_objx/lv_cont.h **** extern "C" {
  11:..\..\..\lvgl\version_6.1.2\lvgl\src\lv_objx\../lv_objx/lv_cont.h **** #endif
  12:..\..\..\lvgl\version_6.1.2\lvgl\src\lv_objx\../lv_objx/lv_cont.h **** 
  13:..\..\..\lvgl\version_6.1.2\lvgl\src\lv_objx\../lv_objx/lv_cont.h **** /*********************
  14:..\..\..\lvgl\version_6.1.2\lvgl\src\lv_objx\../lv_objx/lv_cont.h ****  *      INCLUDES
  15:..\..\..\lvgl\version_6.1.2\lvgl\src\lv_objx\../lv_objx/lv_cont.h ****  *********************/
  16:..\..\..\lvgl\version_6.1.2\lvgl\src\lv_objx\../lv_objx/lv_cont.h **** #ifdef LV_CONF_INCLUDE_SIMPLE
  17:..\..\..\lvgl\version_6.1.2\lvgl\src\lv_objx\../lv_objx/lv_cont.h **** #include "lv_conf.h"
  18:..\..\..\lvgl\version_6.1.2\lvgl\src\lv_objx\../lv_objx/lv_cont.h **** #else
  19:..\..\..\lvgl\version_6.1.2\lvgl\src\lv_objx\../lv_objx/lv_cont.h **** #include "../../../lv_conf.h"
  20:..\..\..\lvgl\version_6.1.2\lvgl\src\lv_objx\../lv_objx/lv_cont.h **** #endif
  21:..\..\..\lvgl\version_6.1.2\lvgl\src\lv_objx\../lv_objx/lv_cont.h **** 
  22:..\..\..\lvgl\version_6.1.2\lvgl\src\lv_objx\../lv_objx/lv_cont.h **** #if LV_USE_CONT != 0
  23:..\..\..\lvgl\version_6.1.2\lvgl\src\lv_objx\../lv_objx/lv_cont.h **** 
  24:..\..\..\lvgl\version_6.1.2\lvgl\src\lv_objx\../lv_objx/lv_cont.h **** #include "../lv_core/lv_obj.h"
  25:..\..\..\lvgl\version_6.1.2\lvgl\src\lv_objx\../lv_objx/lv_cont.h **** 
  26:..\..\..\lvgl\version_6.1.2\lvgl\src\lv_objx\../lv_objx/lv_cont.h **** /*********************
  27:..\..\..\lvgl\version_6.1.2\lvgl\src\lv_objx\../lv_objx/lv_cont.h ****  *      DEFINES
  28:..\..\..\lvgl\version_6.1.2\lvgl\src\lv_objx\../lv_objx/lv_cont.h ****  *********************/
  29:..\..\..\lvgl\version_6.1.2\lvgl\src\lv_objx\../lv_objx/lv_cont.h **** 
  30:..\..\..\lvgl\version_6.1.2\lvgl\src\lv_objx\../lv_objx/lv_cont.h **** /**********************
  31:..\..\..\lvgl\version_6.1.2\lvgl\src\lv_objx\../lv_objx/lv_cont.h ****  *      TYPEDEFS
  32:..\..\..\lvgl\version_6.1.2\lvgl\src\lv_objx\../lv_objx/lv_cont.h ****  **********************/
  33:..\..\..\lvgl\version_6.1.2\lvgl\src\lv_objx\../lv_objx/lv_cont.h **** 
  34:..\..\..\lvgl\version_6.1.2\lvgl\src\lv_objx\../lv_objx/lv_cont.h **** /** Container layout options*/
  35:..\..\..\lvgl\version_6.1.2\lvgl\src\lv_objx\../lv_objx/lv_cont.h **** enum {
  36:..\..\..\lvgl\version_6.1.2\lvgl\src\lv_objx\../lv_objx/lv_cont.h ****     LV_LAYOUT_OFF = 0, /**< No layout */
  37:..\..\..\lvgl\version_6.1.2\lvgl\src\lv_objx\../lv_objx/lv_cont.h ****     LV_LAYOUT_CENTER, /**< Center objects */
  38:..\..\..\lvgl\version_6.1.2\lvgl\src\lv_objx\../lv_objx/lv_cont.h ****     LV_LAYOUT_COL_L,  /**< Column left align*/
  39:..\..\..\lvgl\version_6.1.2\lvgl\src\lv_objx\../lv_objx/lv_cont.h ****     LV_LAYOUT_COL_M,  /**< Column middle align*/
  40:..\..\..\lvgl\version_6.1.2\lvgl\src\lv_objx\../lv_objx/lv_cont.h ****     LV_LAYOUT_COL_R,  /**< Column right align*/
  41:..\..\..\lvgl\version_6.1.2\lvgl\src\lv_objx\../lv_objx/lv_cont.h ****     LV_LAYOUT_ROW_T,  /**< Row top align*/
  42:..\..\..\lvgl\version_6.1.2\lvgl\src\lv_objx\../lv_objx/lv_cont.h ****     LV_LAYOUT_ROW_M,  /**< Row middle align*/
  43:..\..\..\lvgl\version_6.1.2\lvgl\src\lv_objx\../lv_objx/lv_cont.h ****     LV_LAYOUT_ROW_B,  /**< Row bottom align*/
  44:..\..\..\lvgl\version_6.1.2\lvgl\src\lv_objx\../lv_objx/lv_cont.h ****     LV_LAYOUT_PRETTY, /**< Put as many object as possible in row and begin a new row*/
  45:..\..\..\lvgl\version_6.1.2\lvgl\src\lv_objx\../lv_objx/lv_cont.h ****     LV_LAYOUT_GRID,   /**< Align same-sized object into a grid*/
  46:..\..\..\lvgl\version_6.1.2\lvgl\src\lv_objx\../lv_objx/lv_cont.h ****     _LV_LAYOUT_NUM
  47:..\..\..\lvgl\version_6.1.2\lvgl\src\lv_objx\../lv_objx/lv_cont.h **** };
  48:..\..\..\lvgl\version_6.1.2\lvgl\src\lv_objx\../lv_objx/lv_cont.h **** typedef uint8_t lv_layout_t;
  49:..\..\..\lvgl\version_6.1.2\lvgl\src\lv_objx\../lv_objx/lv_cont.h **** 
  50:..\..\..\lvgl\version_6.1.2\lvgl\src\lv_objx\../lv_objx/lv_cont.h **** /**
  51:..\..\..\lvgl\version_6.1.2\lvgl\src\lv_objx\../lv_objx/lv_cont.h ****  * How to resize the container around the children.
  52:..\..\..\lvgl\version_6.1.2\lvgl\src\lv_objx\../lv_objx/lv_cont.h ****  */
  53:..\..\..\lvgl\version_6.1.2\lvgl\src\lv_objx\../lv_objx/lv_cont.h **** enum {
  54:..\..\..\lvgl\version_6.1.2\lvgl\src\lv_objx\../lv_objx/lv_cont.h ****     LV_FIT_NONE,  /**< Do not change the size automatically*/
  55:..\..\..\lvgl\version_6.1.2\lvgl\src\lv_objx\../lv_objx/lv_cont.h ****     LV_FIT_TIGHT, /**< Shrink wrap around the children */
  56:..\..\..\lvgl\version_6.1.2\lvgl\src\lv_objx\../lv_objx/lv_cont.h ****     LV_FIT_FLOOD, /**< Align the size to the parent's edge*/
  57:..\..\..\lvgl\version_6.1.2\lvgl\src\lv_objx\../lv_objx/lv_cont.h ****     LV_FIT_FILL,  /**< Align the size to the parent's edge first but if there is an object out of i
  58:..\..\..\lvgl\version_6.1.2\lvgl\src\lv_objx\../lv_objx/lv_cont.h ****                      then get larger */
  59:..\..\..\lvgl\version_6.1.2\lvgl\src\lv_objx\../lv_objx/lv_cont.h ****     _LV_FIT_NUM
  60:..\..\..\lvgl\version_6.1.2\lvgl\src\lv_objx\../lv_objx/lv_cont.h **** };
  61:..\..\..\lvgl\version_6.1.2\lvgl\src\lv_objx\../lv_objx/lv_cont.h **** typedef uint8_t lv_fit_t;
  62:..\..\..\lvgl\version_6.1.2\lvgl\src\lv_objx\../lv_objx/lv_cont.h **** 
  63:..\..\..\lvgl\version_6.1.2\lvgl\src\lv_objx\../lv_objx/lv_cont.h **** typedef struct
  64:..\..\..\lvgl\version_6.1.2\lvgl\src\lv_objx\../lv_objx/lv_cont.h **** {
  65:..\..\..\lvgl\version_6.1.2\lvgl\src\lv_objx\../lv_objx/lv_cont.h ****     /*Inherited from 'base_obj' so no inherited ext. */ /*Ext. of ancestor*/
ARM GAS  C:\Users\pearlstl\AppData\Local\Temp\ccIMJlIA.s 			page 26


  66:..\..\..\lvgl\version_6.1.2\lvgl\src\lv_objx\../lv_objx/lv_cont.h ****     /*New data for this type */
  67:..\..\..\lvgl\version_6.1.2\lvgl\src\lv_objx\../lv_objx/lv_cont.h ****     uint8_t layout : 4;     /*A layout from 'lv_layout_t' enum*/
  68:..\..\..\lvgl\version_6.1.2\lvgl\src\lv_objx\../lv_objx/lv_cont.h ****     uint8_t fit_left : 2;   /*A fit type from `lv_fit_t` enum */
  69:..\..\..\lvgl\version_6.1.2\lvgl\src\lv_objx\../lv_objx/lv_cont.h ****     uint8_t fit_right : 2;  /*A fit type from `lv_fit_t` enum */
  70:..\..\..\lvgl\version_6.1.2\lvgl\src\lv_objx\../lv_objx/lv_cont.h ****     uint8_t fit_top : 2;    /*A fit type from `lv_fit_t` enum */
  71:..\..\..\lvgl\version_6.1.2\lvgl\src\lv_objx\../lv_objx/lv_cont.h ****     uint8_t fit_bottom : 2; /*A fit type from `lv_fit_t` enum */
  72:..\..\..\lvgl\version_6.1.2\lvgl\src\lv_objx\../lv_objx/lv_cont.h **** } lv_cont_ext_t;
  73:..\..\..\lvgl\version_6.1.2\lvgl\src\lv_objx\../lv_objx/lv_cont.h **** 
  74:..\..\..\lvgl\version_6.1.2\lvgl\src\lv_objx\../lv_objx/lv_cont.h **** /*Styles*/
  75:..\..\..\lvgl\version_6.1.2\lvgl\src\lv_objx\../lv_objx/lv_cont.h **** enum {
  76:..\..\..\lvgl\version_6.1.2\lvgl\src\lv_objx\../lv_objx/lv_cont.h ****     LV_CONT_STYLE_MAIN,
  77:..\..\..\lvgl\version_6.1.2\lvgl\src\lv_objx\../lv_objx/lv_cont.h **** };
  78:..\..\..\lvgl\version_6.1.2\lvgl\src\lv_objx\../lv_objx/lv_cont.h **** typedef uint8_t lv_cont_style_t;
  79:..\..\..\lvgl\version_6.1.2\lvgl\src\lv_objx\../lv_objx/lv_cont.h **** 
  80:..\..\..\lvgl\version_6.1.2\lvgl\src\lv_objx\../lv_objx/lv_cont.h **** /**********************
  81:..\..\..\lvgl\version_6.1.2\lvgl\src\lv_objx\../lv_objx/lv_cont.h ****  * GLOBAL PROTOTYPES
  82:..\..\..\lvgl\version_6.1.2\lvgl\src\lv_objx\../lv_objx/lv_cont.h ****  **********************/
  83:..\..\..\lvgl\version_6.1.2\lvgl\src\lv_objx\../lv_objx/lv_cont.h **** 
  84:..\..\..\lvgl\version_6.1.2\lvgl\src\lv_objx\../lv_objx/lv_cont.h **** /**
  85:..\..\..\lvgl\version_6.1.2\lvgl\src\lv_objx\../lv_objx/lv_cont.h ****  * Create a container objects
  86:..\..\..\lvgl\version_6.1.2\lvgl\src\lv_objx\../lv_objx/lv_cont.h ****  * @param par pointer to an object, it will be the parent of the new container
  87:..\..\..\lvgl\version_6.1.2\lvgl\src\lv_objx\../lv_objx/lv_cont.h ****  * @param copy pointer to a container object, if not NULL then the new object will be copied from i
  88:..\..\..\lvgl\version_6.1.2\lvgl\src\lv_objx\../lv_objx/lv_cont.h ****  * @return pointer to the created container
  89:..\..\..\lvgl\version_6.1.2\lvgl\src\lv_objx\../lv_objx/lv_cont.h ****  */
  90:..\..\..\lvgl\version_6.1.2\lvgl\src\lv_objx\../lv_objx/lv_cont.h **** lv_obj_t * lv_cont_create(lv_obj_t * par, const lv_obj_t * copy);
  91:..\..\..\lvgl\version_6.1.2\lvgl\src\lv_objx\../lv_objx/lv_cont.h **** 
  92:..\..\..\lvgl\version_6.1.2\lvgl\src\lv_objx\../lv_objx/lv_cont.h **** /*=====================
  93:..\..\..\lvgl\version_6.1.2\lvgl\src\lv_objx\../lv_objx/lv_cont.h ****  * Setter functions
  94:..\..\..\lvgl\version_6.1.2\lvgl\src\lv_objx\../lv_objx/lv_cont.h ****  *====================*/
  95:..\..\..\lvgl\version_6.1.2\lvgl\src\lv_objx\../lv_objx/lv_cont.h **** 
  96:..\..\..\lvgl\version_6.1.2\lvgl\src\lv_objx\../lv_objx/lv_cont.h **** /**
  97:..\..\..\lvgl\version_6.1.2\lvgl\src\lv_objx\../lv_objx/lv_cont.h ****  * Set a layout on a container
  98:..\..\..\lvgl\version_6.1.2\lvgl\src\lv_objx\../lv_objx/lv_cont.h ****  * @param cont pointer to a container object
  99:..\..\..\lvgl\version_6.1.2\lvgl\src\lv_objx\../lv_objx/lv_cont.h ****  * @param layout a layout from 'lv_cont_layout_t'
 100:..\..\..\lvgl\version_6.1.2\lvgl\src\lv_objx\../lv_objx/lv_cont.h ****  */
 101:..\..\..\lvgl\version_6.1.2\lvgl\src\lv_objx\../lv_objx/lv_cont.h **** void lv_cont_set_layout(lv_obj_t * cont, lv_layout_t layout);
 102:..\..\..\lvgl\version_6.1.2\lvgl\src\lv_objx\../lv_objx/lv_cont.h **** 
 103:..\..\..\lvgl\version_6.1.2\lvgl\src\lv_objx\../lv_objx/lv_cont.h **** /**
 104:..\..\..\lvgl\version_6.1.2\lvgl\src\lv_objx\../lv_objx/lv_cont.h ****  * Set the fit policy in all 4 directions separately.
 105:..\..\..\lvgl\version_6.1.2\lvgl\src\lv_objx\../lv_objx/lv_cont.h ****  * It tell how to change the container's size automatically.
 106:..\..\..\lvgl\version_6.1.2\lvgl\src\lv_objx\../lv_objx/lv_cont.h ****  * @param cont pointer to a container object
 107:..\..\..\lvgl\version_6.1.2\lvgl\src\lv_objx\../lv_objx/lv_cont.h ****  * @param left left fit policy from `lv_fit_t`
 108:..\..\..\lvgl\version_6.1.2\lvgl\src\lv_objx\../lv_objx/lv_cont.h ****  * @param right right fit policy from `lv_fit_t`
 109:..\..\..\lvgl\version_6.1.2\lvgl\src\lv_objx\../lv_objx/lv_cont.h ****  * @param top top fit policy from `lv_fit_t`
 110:..\..\..\lvgl\version_6.1.2\lvgl\src\lv_objx\../lv_objx/lv_cont.h ****  * @param bottom bottom fit policy from `lv_fit_t`
 111:..\..\..\lvgl\version_6.1.2\lvgl\src\lv_objx\../lv_objx/lv_cont.h ****  */
 112:..\..\..\lvgl\version_6.1.2\lvgl\src\lv_objx\../lv_objx/lv_cont.h **** void lv_cont_set_fit4(lv_obj_t * cont, lv_fit_t left, lv_fit_t right, lv_fit_t top, lv_fit_t bottom
 113:..\..\..\lvgl\version_6.1.2\lvgl\src\lv_objx\../lv_objx/lv_cont.h **** 
 114:..\..\..\lvgl\version_6.1.2\lvgl\src\lv_objx\../lv_objx/lv_cont.h **** /**
 115:..\..\..\lvgl\version_6.1.2\lvgl\src\lv_objx\../lv_objx/lv_cont.h ****  * Set the fit policy horizontally and vertically separately.
 116:..\..\..\lvgl\version_6.1.2\lvgl\src\lv_objx\../lv_objx/lv_cont.h ****  * It tells how to change the container's size automatically.
 117:..\..\..\lvgl\version_6.1.2\lvgl\src\lv_objx\../lv_objx/lv_cont.h ****  * @param cont pointer to a container object
 118:..\..\..\lvgl\version_6.1.2\lvgl\src\lv_objx\../lv_objx/lv_cont.h ****  * @param hor horizontal fit policy from `lv_fit_t`
 119:..\..\..\lvgl\version_6.1.2\lvgl\src\lv_objx\../lv_objx/lv_cont.h ****  * @param ver vertical fit policy from `lv_fit_t`
 120:..\..\..\lvgl\version_6.1.2\lvgl\src\lv_objx\../lv_objx/lv_cont.h ****  */
 121:..\..\..\lvgl\version_6.1.2\lvgl\src\lv_objx\../lv_objx/lv_cont.h **** static inline void lv_cont_set_fit2(lv_obj_t * cont, lv_fit_t hor, lv_fit_t ver)
 122:..\..\..\lvgl\version_6.1.2\lvgl\src\lv_objx\../lv_objx/lv_cont.h **** {
ARM GAS  C:\Users\pearlstl\AppData\Local\Temp\ccIMJlIA.s 			page 27


 123:..\..\..\lvgl\version_6.1.2\lvgl\src\lv_objx\../lv_objx/lv_cont.h ****     lv_cont_set_fit4(cont, hor, hor, ver, ver);
 124:..\..\..\lvgl\version_6.1.2\lvgl\src\lv_objx\../lv_objx/lv_cont.h **** }
 125:..\..\..\lvgl\version_6.1.2\lvgl\src\lv_objx\../lv_objx/lv_cont.h **** 
 126:..\..\..\lvgl\version_6.1.2\lvgl\src\lv_objx\../lv_objx/lv_cont.h **** /**
 127:..\..\..\lvgl\version_6.1.2\lvgl\src\lv_objx\../lv_objx/lv_cont.h ****  * Set the fit policy in all 4 direction at once.
 128:..\..\..\lvgl\version_6.1.2\lvgl\src\lv_objx\../lv_objx/lv_cont.h ****  * It tells how to change the container's size automatically.
 129:..\..\..\lvgl\version_6.1.2\lvgl\src\lv_objx\../lv_objx/lv_cont.h ****  * @param cont pointer to a container object
 130:..\..\..\lvgl\version_6.1.2\lvgl\src\lv_objx\../lv_objx/lv_cont.h ****  * @param fit fit policy from `lv_fit_t`
 131:..\..\..\lvgl\version_6.1.2\lvgl\src\lv_objx\../lv_objx/lv_cont.h ****  */
 132:..\..\..\lvgl\version_6.1.2\lvgl\src\lv_objx\../lv_objx/lv_cont.h **** static inline void lv_cont_set_fit(lv_obj_t * cont, lv_fit_t fit)
 133:..\..\..\lvgl\version_6.1.2\lvgl\src\lv_objx\../lv_objx/lv_cont.h **** {
 134:..\..\..\lvgl\version_6.1.2\lvgl\src\lv_objx\../lv_objx/lv_cont.h ****     lv_cont_set_fit4(cont, fit, fit, fit, fit);
 754              		.loc 2 134 0
 755 00c0 0126     		movs	r6, #1
 756              	.LVL76:
 757              	.LBE35:
 758              	.LBE34:
 759              		.file 3 "..\\..\\..\\lvgl\\version_6.1.2\\lvgl\\src\\lv_objx\\../lv_objx/lv_page.h"
   1:..\..\..\lvgl\version_6.1.2\lvgl\src\lv_objx\../lv_objx/lv_page.h **** /**
   2:..\..\..\lvgl\version_6.1.2\lvgl\src\lv_objx\../lv_objx/lv_page.h ****  * @file lv_page.h
   3:..\..\..\lvgl\version_6.1.2\lvgl\src\lv_objx\../lv_objx/lv_page.h ****  *
   4:..\..\..\lvgl\version_6.1.2\lvgl\src\lv_objx\../lv_objx/lv_page.h ****  */
   5:..\..\..\lvgl\version_6.1.2\lvgl\src\lv_objx\../lv_objx/lv_page.h **** 
   6:..\..\..\lvgl\version_6.1.2\lvgl\src\lv_objx\../lv_objx/lv_page.h **** #ifndef LV_PAGE_H
   7:..\..\..\lvgl\version_6.1.2\lvgl\src\lv_objx\../lv_objx/lv_page.h **** #define LV_PAGE_H
   8:..\..\..\lvgl\version_6.1.2\lvgl\src\lv_objx\../lv_objx/lv_page.h **** 
   9:..\..\..\lvgl\version_6.1.2\lvgl\src\lv_objx\../lv_objx/lv_page.h **** #ifdef __cplusplus
  10:..\..\..\lvgl\version_6.1.2\lvgl\src\lv_objx\../lv_objx/lv_page.h **** extern "C" {
  11:..\..\..\lvgl\version_6.1.2\lvgl\src\lv_objx\../lv_objx/lv_page.h **** #endif
  12:..\..\..\lvgl\version_6.1.2\lvgl\src\lv_objx\../lv_objx/lv_page.h **** 
  13:..\..\..\lvgl\version_6.1.2\lvgl\src\lv_objx\../lv_objx/lv_page.h **** /*********************
  14:..\..\..\lvgl\version_6.1.2\lvgl\src\lv_objx\../lv_objx/lv_page.h ****  *      INCLUDES
  15:..\..\..\lvgl\version_6.1.2\lvgl\src\lv_objx\../lv_objx/lv_page.h ****  *********************/
  16:..\..\..\lvgl\version_6.1.2\lvgl\src\lv_objx\../lv_objx/lv_page.h **** #ifdef LV_CONF_INCLUDE_SIMPLE
  17:..\..\..\lvgl\version_6.1.2\lvgl\src\lv_objx\../lv_objx/lv_page.h **** #include "lv_conf.h"
  18:..\..\..\lvgl\version_6.1.2\lvgl\src\lv_objx\../lv_objx/lv_page.h **** #else
  19:..\..\..\lvgl\version_6.1.2\lvgl\src\lv_objx\../lv_objx/lv_page.h **** #include "../../../lv_conf.h"
  20:..\..\..\lvgl\version_6.1.2\lvgl\src\lv_objx\../lv_objx/lv_page.h **** #endif
  21:..\..\..\lvgl\version_6.1.2\lvgl\src\lv_objx\../lv_objx/lv_page.h **** 
  22:..\..\..\lvgl\version_6.1.2\lvgl\src\lv_objx\../lv_objx/lv_page.h **** #if LV_USE_PAGE != 0
  23:..\..\..\lvgl\version_6.1.2\lvgl\src\lv_objx\../lv_objx/lv_page.h **** 
  24:..\..\..\lvgl\version_6.1.2\lvgl\src\lv_objx\../lv_objx/lv_page.h **** /*Testing of dependencies*/
  25:..\..\..\lvgl\version_6.1.2\lvgl\src\lv_objx\../lv_objx/lv_page.h **** #if LV_USE_CONT == 0
  26:..\..\..\lvgl\version_6.1.2\lvgl\src\lv_objx\../lv_objx/lv_page.h **** #error "lv_page: lv_cont is required. Enable it in lv_conf.h (LV_USE_CONT  1) "
  27:..\..\..\lvgl\version_6.1.2\lvgl\src\lv_objx\../lv_objx/lv_page.h **** #endif
  28:..\..\..\lvgl\version_6.1.2\lvgl\src\lv_objx\../lv_objx/lv_page.h **** 
  29:..\..\..\lvgl\version_6.1.2\lvgl\src\lv_objx\../lv_objx/lv_page.h **** #include "lv_cont.h"
  30:..\..\..\lvgl\version_6.1.2\lvgl\src\lv_objx\../lv_objx/lv_page.h **** #include "../lv_core/lv_indev.h"
  31:..\..\..\lvgl\version_6.1.2\lvgl\src\lv_objx\../lv_objx/lv_page.h **** #include "../lv_misc/lv_anim.h"
  32:..\..\..\lvgl\version_6.1.2\lvgl\src\lv_objx\../lv_objx/lv_page.h **** 
  33:..\..\..\lvgl\version_6.1.2\lvgl\src\lv_objx\../lv_objx/lv_page.h **** /*********************
  34:..\..\..\lvgl\version_6.1.2\lvgl\src\lv_objx\../lv_objx/lv_page.h ****  *      DEFINES
  35:..\..\..\lvgl\version_6.1.2\lvgl\src\lv_objx\../lv_objx/lv_page.h ****  *********************/
  36:..\..\..\lvgl\version_6.1.2\lvgl\src\lv_objx\../lv_objx/lv_page.h **** 
  37:..\..\..\lvgl\version_6.1.2\lvgl\src\lv_objx\../lv_objx/lv_page.h **** /**********************
  38:..\..\..\lvgl\version_6.1.2\lvgl\src\lv_objx\../lv_objx/lv_page.h ****  *      TYPEDEFS
  39:..\..\..\lvgl\version_6.1.2\lvgl\src\lv_objx\../lv_objx/lv_page.h ****  **********************/
ARM GAS  C:\Users\pearlstl\AppData\Local\Temp\ccIMJlIA.s 			page 28


  40:..\..\..\lvgl\version_6.1.2\lvgl\src\lv_objx\../lv_objx/lv_page.h **** 
  41:..\..\..\lvgl\version_6.1.2\lvgl\src\lv_objx\../lv_objx/lv_page.h **** /** Scrollbar modes: shows when should the scrollbars be visible*/
  42:..\..\..\lvgl\version_6.1.2\lvgl\src\lv_objx\../lv_objx/lv_page.h **** enum {
  43:..\..\..\lvgl\version_6.1.2\lvgl\src\lv_objx\../lv_objx/lv_page.h ****     LV_SB_MODE_OFF    = 0x0, /**< Never show scrollbars*/
  44:..\..\..\lvgl\version_6.1.2\lvgl\src\lv_objx\../lv_objx/lv_page.h ****     LV_SB_MODE_ON     = 0x1, /**< Always show scrollbars*/
  45:..\..\..\lvgl\version_6.1.2\lvgl\src\lv_objx\../lv_objx/lv_page.h ****     LV_SB_MODE_DRAG   = 0x2, /**< Show scrollbars when page is being dragged*/
  46:..\..\..\lvgl\version_6.1.2\lvgl\src\lv_objx\../lv_objx/lv_page.h ****     LV_SB_MODE_AUTO   = 0x3, /**< Show scrollbars when the scrollable container is large enough to 
  47:..\..\..\lvgl\version_6.1.2\lvgl\src\lv_objx\../lv_objx/lv_page.h ****     LV_SB_MODE_HIDE   = 0x4, /**< Hide the scroll bar temporally*/
  48:..\..\..\lvgl\version_6.1.2\lvgl\src\lv_objx\../lv_objx/lv_page.h ****     LV_SB_MODE_UNHIDE = 0x5, /**< Unhide the previously hidden scrollbar. Recover it's type too*/
  49:..\..\..\lvgl\version_6.1.2\lvgl\src\lv_objx\../lv_objx/lv_page.h **** };
  50:..\..\..\lvgl\version_6.1.2\lvgl\src\lv_objx\../lv_objx/lv_page.h **** typedef uint8_t lv_sb_mode_t;
  51:..\..\..\lvgl\version_6.1.2\lvgl\src\lv_objx\../lv_objx/lv_page.h **** 
  52:..\..\..\lvgl\version_6.1.2\lvgl\src\lv_objx\../lv_objx/lv_page.h **** /** Edges: describes the four edges of the page*/
  53:..\..\..\lvgl\version_6.1.2\lvgl\src\lv_objx\../lv_objx/lv_page.h **** enum { LV_PAGE_EDGE_LEFT = 0x1, LV_PAGE_EDGE_TOP = 0x2, LV_PAGE_EDGE_RIGHT = 0x4, LV_PAGE_EDGE_BOTT
  54:..\..\..\lvgl\version_6.1.2\lvgl\src\lv_objx\../lv_objx/lv_page.h **** typedef uint8_t lv_page_edge_t;
  55:..\..\..\lvgl\version_6.1.2\lvgl\src\lv_objx\../lv_objx/lv_page.h **** 
  56:..\..\..\lvgl\version_6.1.2\lvgl\src\lv_objx\../lv_objx/lv_page.h **** /*Data of page*/
  57:..\..\..\lvgl\version_6.1.2\lvgl\src\lv_objx\../lv_objx/lv_page.h **** typedef struct
  58:..\..\..\lvgl\version_6.1.2\lvgl\src\lv_objx\../lv_objx/lv_page.h **** {
  59:..\..\..\lvgl\version_6.1.2\lvgl\src\lv_objx\../lv_objx/lv_page.h ****     lv_cont_ext_t bg; /*Ext. of ancestor*/
  60:..\..\..\lvgl\version_6.1.2\lvgl\src\lv_objx\../lv_objx/lv_page.h ****     /*New data for this type */
  61:..\..\..\lvgl\version_6.1.2\lvgl\src\lv_objx\../lv_objx/lv_page.h ****     lv_obj_t * scrl; /*The scrollable object on the background*/
  62:..\..\..\lvgl\version_6.1.2\lvgl\src\lv_objx\../lv_objx/lv_page.h ****     struct
  63:..\..\..\lvgl\version_6.1.2\lvgl\src\lv_objx\../lv_objx/lv_page.h ****     {
  64:..\..\..\lvgl\version_6.1.2\lvgl\src\lv_objx\../lv_objx/lv_page.h ****         const lv_style_t * style; /*Style of scrollbars*/
  65:..\..\..\lvgl\version_6.1.2\lvgl\src\lv_objx\../lv_objx/lv_page.h ****         lv_area_t hor_area;       /*Horizontal scrollbar area relative to the page. (Handled by the
  66:..\..\..\lvgl\version_6.1.2\lvgl\src\lv_objx\../lv_objx/lv_page.h ****         lv_area_t ver_area;       /*Vertical scrollbar area relative to the page (Handled by the li
  67:..\..\..\lvgl\version_6.1.2\lvgl\src\lv_objx\../lv_objx/lv_page.h ****         uint8_t hor_draw : 1;     /*1: horizontal scrollbar is visible now (Handled by the library)
  68:..\..\..\lvgl\version_6.1.2\lvgl\src\lv_objx\../lv_objx/lv_page.h ****         uint8_t ver_draw : 1;     /*1: vertical scrollbar is visible now (Handled by the library)*/
  69:..\..\..\lvgl\version_6.1.2\lvgl\src\lv_objx\../lv_objx/lv_page.h ****         lv_sb_mode_t mode : 3;    /*Scrollbar visibility from 'lv_page_sb_mode_t'*/
  70:..\..\..\lvgl\version_6.1.2\lvgl\src\lv_objx\../lv_objx/lv_page.h ****     } sb;
  71:..\..\..\lvgl\version_6.1.2\lvgl\src\lv_objx\../lv_objx/lv_page.h **** #if LV_USE_ANIMATION
  72:..\..\..\lvgl\version_6.1.2\lvgl\src\lv_objx\../lv_objx/lv_page.h ****     struct
  73:..\..\..\lvgl\version_6.1.2\lvgl\src\lv_objx\../lv_objx/lv_page.h ****     {
  74:..\..\..\lvgl\version_6.1.2\lvgl\src\lv_objx\../lv_objx/lv_page.h ****         lv_anim_value_t state;    /*Store the current size of the edge flash effect*/
  75:..\..\..\lvgl\version_6.1.2\lvgl\src\lv_objx\../lv_objx/lv_page.h ****         const lv_style_t * style; /*Style of edge flash effect (usually homogeneous circle)*/
  76:..\..\..\lvgl\version_6.1.2\lvgl\src\lv_objx\../lv_objx/lv_page.h ****         uint8_t enabled : 1;      /*1: Show a flash animation on the edge*/
  77:..\..\..\lvgl\version_6.1.2\lvgl\src\lv_objx\../lv_objx/lv_page.h ****         uint8_t top_ip : 1;       /*Used internally to show that top most position is reached (flas
  78:..\..\..\lvgl\version_6.1.2\lvgl\src\lv_objx\../lv_objx/lv_page.h ****                                      Progress)*/
  79:..\..\..\lvgl\version_6.1.2\lvgl\src\lv_objx\../lv_objx/lv_page.h ****         uint8_t bottom_ip : 1;    /*Used internally to show that bottom most position is reached (f
  80:..\..\..\lvgl\version_6.1.2\lvgl\src\lv_objx\../lv_objx/lv_page.h ****                                      is In Progress)*/
  81:..\..\..\lvgl\version_6.1.2\lvgl\src\lv_objx\../lv_objx/lv_page.h ****         uint8_t right_ip : 1;     /*Used internally to show that right most position is reached (fl
  82:..\..\..\lvgl\version_6.1.2\lvgl\src\lv_objx\../lv_objx/lv_page.h ****                                      is In Progress)*/
  83:..\..\..\lvgl\version_6.1.2\lvgl\src\lv_objx\../lv_objx/lv_page.h ****         uint8_t left_ip : 1;      /*Used internally to show that left most position is reached (fla
  84:..\..\..\lvgl\version_6.1.2\lvgl\src\lv_objx\../lv_objx/lv_page.h ****                                      In Progress)*/
  85:..\..\..\lvgl\version_6.1.2\lvgl\src\lv_objx\../lv_objx/lv_page.h ****     } edge_flash;
  86:..\..\..\lvgl\version_6.1.2\lvgl\src\lv_objx\../lv_objx/lv_page.h **** 
  87:..\..\..\lvgl\version_6.1.2\lvgl\src\lv_objx\../lv_objx/lv_page.h ****     uint16_t anim_time; /*Scroll animation time*/
  88:..\..\..\lvgl\version_6.1.2\lvgl\src\lv_objx\../lv_objx/lv_page.h **** #endif
  89:..\..\..\lvgl\version_6.1.2\lvgl\src\lv_objx\../lv_objx/lv_page.h **** 
  90:..\..\..\lvgl\version_6.1.2\lvgl\src\lv_objx\../lv_objx/lv_page.h ****     uint8_t scroll_prop : 1;    /*1: Propagate the scrolling the the parent if the edge is reached*
  91:..\..\..\lvgl\version_6.1.2\lvgl\src\lv_objx\../lv_objx/lv_page.h ****     uint8_t scroll_prop_ip : 1; /*1: Scroll propagation is in progress (used by the library)*/
  92:..\..\..\lvgl\version_6.1.2\lvgl\src\lv_objx\../lv_objx/lv_page.h **** } lv_page_ext_t;
  93:..\..\..\lvgl\version_6.1.2\lvgl\src\lv_objx\../lv_objx/lv_page.h **** 
  94:..\..\..\lvgl\version_6.1.2\lvgl\src\lv_objx\../lv_objx/lv_page.h **** enum {
  95:..\..\..\lvgl\version_6.1.2\lvgl\src\lv_objx\../lv_objx/lv_page.h ****     LV_PAGE_STYLE_BG,
  96:..\..\..\lvgl\version_6.1.2\lvgl\src\lv_objx\../lv_objx/lv_page.h ****     LV_PAGE_STYLE_SCRL,
ARM GAS  C:\Users\pearlstl\AppData\Local\Temp\ccIMJlIA.s 			page 29


  97:..\..\..\lvgl\version_6.1.2\lvgl\src\lv_objx\../lv_objx/lv_page.h ****     LV_PAGE_STYLE_SB,
  98:..\..\..\lvgl\version_6.1.2\lvgl\src\lv_objx\../lv_objx/lv_page.h ****     LV_PAGE_STYLE_EDGE_FLASH,
  99:..\..\..\lvgl\version_6.1.2\lvgl\src\lv_objx\../lv_objx/lv_page.h **** };
 100:..\..\..\lvgl\version_6.1.2\lvgl\src\lv_objx\../lv_objx/lv_page.h **** typedef uint8_t lv_page_style_t;
 101:..\..\..\lvgl\version_6.1.2\lvgl\src\lv_objx\../lv_objx/lv_page.h **** 
 102:..\..\..\lvgl\version_6.1.2\lvgl\src\lv_objx\../lv_objx/lv_page.h **** /**********************
 103:..\..\..\lvgl\version_6.1.2\lvgl\src\lv_objx\../lv_objx/lv_page.h ****  * GLOBAL PROTOTYPES
 104:..\..\..\lvgl\version_6.1.2\lvgl\src\lv_objx\../lv_objx/lv_page.h ****  **********************/
 105:..\..\..\lvgl\version_6.1.2\lvgl\src\lv_objx\../lv_objx/lv_page.h **** 
 106:..\..\..\lvgl\version_6.1.2\lvgl\src\lv_objx\../lv_objx/lv_page.h **** /**
 107:..\..\..\lvgl\version_6.1.2\lvgl\src\lv_objx\../lv_objx/lv_page.h ****  * Create a page objects
 108:..\..\..\lvgl\version_6.1.2\lvgl\src\lv_objx\../lv_objx/lv_page.h ****  * @param par pointer to an object, it will be the parent of the new page
 109:..\..\..\lvgl\version_6.1.2\lvgl\src\lv_objx\../lv_objx/lv_page.h ****  * @param copy pointer to a page object, if not NULL then the new object will be copied from it
 110:..\..\..\lvgl\version_6.1.2\lvgl\src\lv_objx\../lv_objx/lv_page.h ****  * @return pointer to the created page
 111:..\..\..\lvgl\version_6.1.2\lvgl\src\lv_objx\../lv_objx/lv_page.h ****  */
 112:..\..\..\lvgl\version_6.1.2\lvgl\src\lv_objx\../lv_objx/lv_page.h **** lv_obj_t * lv_page_create(lv_obj_t * par, const lv_obj_t * copy);
 113:..\..\..\lvgl\version_6.1.2\lvgl\src\lv_objx\../lv_objx/lv_page.h **** 
 114:..\..\..\lvgl\version_6.1.2\lvgl\src\lv_objx\../lv_objx/lv_page.h **** /**
 115:..\..\..\lvgl\version_6.1.2\lvgl\src\lv_objx\../lv_objx/lv_page.h ****  * Delete all children of the scrl object, without deleting scrl child.
 116:..\..\..\lvgl\version_6.1.2\lvgl\src\lv_objx\../lv_objx/lv_page.h ****  * @param page pointer to an object
 117:..\..\..\lvgl\version_6.1.2\lvgl\src\lv_objx\../lv_objx/lv_page.h ****  */
 118:..\..\..\lvgl\version_6.1.2\lvgl\src\lv_objx\../lv_objx/lv_page.h **** void lv_page_clean(lv_obj_t * page);
 119:..\..\..\lvgl\version_6.1.2\lvgl\src\lv_objx\../lv_objx/lv_page.h **** 
 120:..\..\..\lvgl\version_6.1.2\lvgl\src\lv_objx\../lv_objx/lv_page.h **** /**
 121:..\..\..\lvgl\version_6.1.2\lvgl\src\lv_objx\../lv_objx/lv_page.h ****  * Get the scrollable object of a page
 122:..\..\..\lvgl\version_6.1.2\lvgl\src\lv_objx\../lv_objx/lv_page.h ****  * @param page pointer to a page object
 123:..\..\..\lvgl\version_6.1.2\lvgl\src\lv_objx\../lv_objx/lv_page.h ****  * @return pointer to a container which is the scrollable part of the page
 124:..\..\..\lvgl\version_6.1.2\lvgl\src\lv_objx\../lv_objx/lv_page.h ****  */
 125:..\..\..\lvgl\version_6.1.2\lvgl\src\lv_objx\../lv_objx/lv_page.h **** lv_obj_t * lv_page_get_scrl(const lv_obj_t * page);
 126:..\..\..\lvgl\version_6.1.2\lvgl\src\lv_objx\../lv_objx/lv_page.h **** 
 127:..\..\..\lvgl\version_6.1.2\lvgl\src\lv_objx\../lv_objx/lv_page.h **** /**
 128:..\..\..\lvgl\version_6.1.2\lvgl\src\lv_objx\../lv_objx/lv_page.h ****  * Get the animation time
 129:..\..\..\lvgl\version_6.1.2\lvgl\src\lv_objx\../lv_objx/lv_page.h ****  * @param page pointer to a page object
 130:..\..\..\lvgl\version_6.1.2\lvgl\src\lv_objx\../lv_objx/lv_page.h ****  * @return the animation time in milliseconds
 131:..\..\..\lvgl\version_6.1.2\lvgl\src\lv_objx\../lv_objx/lv_page.h ****  */
 132:..\..\..\lvgl\version_6.1.2\lvgl\src\lv_objx\../lv_objx/lv_page.h **** uint16_t lv_page_get_anim_time(const lv_obj_t * page);
 133:..\..\..\lvgl\version_6.1.2\lvgl\src\lv_objx\../lv_objx/lv_page.h **** 
 134:..\..\..\lvgl\version_6.1.2\lvgl\src\lv_objx\../lv_objx/lv_page.h **** /*=====================
 135:..\..\..\lvgl\version_6.1.2\lvgl\src\lv_objx\../lv_objx/lv_page.h ****  * Setter functions
 136:..\..\..\lvgl\version_6.1.2\lvgl\src\lv_objx\../lv_objx/lv_page.h ****  *====================*/
 137:..\..\..\lvgl\version_6.1.2\lvgl\src\lv_objx\../lv_objx/lv_page.h **** 
 138:..\..\..\lvgl\version_6.1.2\lvgl\src\lv_objx\../lv_objx/lv_page.h **** /**
 139:..\..\..\lvgl\version_6.1.2\lvgl\src\lv_objx\../lv_objx/lv_page.h ****  * Set the scroll bar mode on a page
 140:..\..\..\lvgl\version_6.1.2\lvgl\src\lv_objx\../lv_objx/lv_page.h ****  * @param page pointer to a page object
 141:..\..\..\lvgl\version_6.1.2\lvgl\src\lv_objx\../lv_objx/lv_page.h ****  * @param sb_mode the new mode from 'lv_page_sb.mode_t' enum
 142:..\..\..\lvgl\version_6.1.2\lvgl\src\lv_objx\../lv_objx/lv_page.h ****  */
 143:..\..\..\lvgl\version_6.1.2\lvgl\src\lv_objx\../lv_objx/lv_page.h **** void lv_page_set_sb_mode(lv_obj_t * page, lv_sb_mode_t sb_mode);
 144:..\..\..\lvgl\version_6.1.2\lvgl\src\lv_objx\../lv_objx/lv_page.h **** 
 145:..\..\..\lvgl\version_6.1.2\lvgl\src\lv_objx\../lv_objx/lv_page.h **** /**
 146:..\..\..\lvgl\version_6.1.2\lvgl\src\lv_objx\../lv_objx/lv_page.h ****  * Set the animation time for the page
 147:..\..\..\lvgl\version_6.1.2\lvgl\src\lv_objx\../lv_objx/lv_page.h ****  * @param page pointer to a page object
 148:..\..\..\lvgl\version_6.1.2\lvgl\src\lv_objx\../lv_objx/lv_page.h ****  * @param anim_time animation time in milliseconds
 149:..\..\..\lvgl\version_6.1.2\lvgl\src\lv_objx\../lv_objx/lv_page.h ****  */
 150:..\..\..\lvgl\version_6.1.2\lvgl\src\lv_objx\../lv_objx/lv_page.h **** void lv_page_set_anim_time(lv_obj_t * page, uint16_t anim_time);
 151:..\..\..\lvgl\version_6.1.2\lvgl\src\lv_objx\../lv_objx/lv_page.h **** 
 152:..\..\..\lvgl\version_6.1.2\lvgl\src\lv_objx\../lv_objx/lv_page.h **** /**
 153:..\..\..\lvgl\version_6.1.2\lvgl\src\lv_objx\../lv_objx/lv_page.h ****  * Enable the scroll propagation feature. If enabled then the page will move its parent if there is
ARM GAS  C:\Users\pearlstl\AppData\Local\Temp\ccIMJlIA.s 			page 30


 154:..\..\..\lvgl\version_6.1.2\lvgl\src\lv_objx\../lv_objx/lv_page.h ****  * no more space to scroll.
 155:..\..\..\lvgl\version_6.1.2\lvgl\src\lv_objx\../lv_objx/lv_page.h ****  * @param page pointer to a Page
 156:..\..\..\lvgl\version_6.1.2\lvgl\src\lv_objx\../lv_objx/lv_page.h ****  * @param en true or false to enable/disable scroll propagation
 157:..\..\..\lvgl\version_6.1.2\lvgl\src\lv_objx\../lv_objx/lv_page.h ****  */
 158:..\..\..\lvgl\version_6.1.2\lvgl\src\lv_objx\../lv_objx/lv_page.h **** void lv_page_set_scroll_propagation(lv_obj_t * page, bool en);
 159:..\..\..\lvgl\version_6.1.2\lvgl\src\lv_objx\../lv_objx/lv_page.h **** 
 160:..\..\..\lvgl\version_6.1.2\lvgl\src\lv_objx\../lv_objx/lv_page.h **** /**
 161:..\..\..\lvgl\version_6.1.2\lvgl\src\lv_objx\../lv_objx/lv_page.h ****  * Enable the edge flash effect. (Show an arc when the an edge is reached)
 162:..\..\..\lvgl\version_6.1.2\lvgl\src\lv_objx\../lv_objx/lv_page.h ****  * @param page pointer to a Page
 163:..\..\..\lvgl\version_6.1.2\lvgl\src\lv_objx\../lv_objx/lv_page.h ****  * @param en true or false to enable/disable end flash
 164:..\..\..\lvgl\version_6.1.2\lvgl\src\lv_objx\../lv_objx/lv_page.h ****  */
 165:..\..\..\lvgl\version_6.1.2\lvgl\src\lv_objx\../lv_objx/lv_page.h **** void lv_page_set_edge_flash(lv_obj_t * page, bool en);
 166:..\..\..\lvgl\version_6.1.2\lvgl\src\lv_objx\../lv_objx/lv_page.h **** 
 167:..\..\..\lvgl\version_6.1.2\lvgl\src\lv_objx\../lv_objx/lv_page.h **** /**
 168:..\..\..\lvgl\version_6.1.2\lvgl\src\lv_objx\../lv_objx/lv_page.h ****  * Set the fit policy in all 4 directions separately.
 169:..\..\..\lvgl\version_6.1.2\lvgl\src\lv_objx\../lv_objx/lv_page.h ****  * It tell how to change the page size automatically.
 170:..\..\..\lvgl\version_6.1.2\lvgl\src\lv_objx\../lv_objx/lv_page.h ****  * @param page pointer to a page object
 171:..\..\..\lvgl\version_6.1.2\lvgl\src\lv_objx\../lv_objx/lv_page.h ****  * @param left left fit policy from `lv_fit_t`
 172:..\..\..\lvgl\version_6.1.2\lvgl\src\lv_objx\../lv_objx/lv_page.h ****  * @param right right fit policy from `lv_fit_t`
 173:..\..\..\lvgl\version_6.1.2\lvgl\src\lv_objx\../lv_objx/lv_page.h ****  * @param top bottom fit policy from `lv_fit_t`
 174:..\..\..\lvgl\version_6.1.2\lvgl\src\lv_objx\../lv_objx/lv_page.h ****  * @param bottom bottom fit policy from `lv_fit_t`
 175:..\..\..\lvgl\version_6.1.2\lvgl\src\lv_objx\../lv_objx/lv_page.h ****  */
 176:..\..\..\lvgl\version_6.1.2\lvgl\src\lv_objx\../lv_objx/lv_page.h **** static inline void lv_page_set_scrl_fit4(lv_obj_t * page, lv_fit_t left, lv_fit_t right, lv_fit_t t
 177:..\..\..\lvgl\version_6.1.2\lvgl\src\lv_objx\../lv_objx/lv_page.h **** {
 178:..\..\..\lvgl\version_6.1.2\lvgl\src\lv_objx\../lv_objx/lv_page.h ****     lv_cont_set_fit4(lv_page_get_scrl(page), left, right, top, bottom);
 179:..\..\..\lvgl\version_6.1.2\lvgl\src\lv_objx\../lv_objx/lv_page.h **** }
 180:..\..\..\lvgl\version_6.1.2\lvgl\src\lv_objx\../lv_objx/lv_page.h **** 
 181:..\..\..\lvgl\version_6.1.2\lvgl\src\lv_objx\../lv_objx/lv_page.h **** /**
 182:..\..\..\lvgl\version_6.1.2\lvgl\src\lv_objx\../lv_objx/lv_page.h ****  * Set the fit policy horizontally and vertically separately.
 183:..\..\..\lvgl\version_6.1.2\lvgl\src\lv_objx\../lv_objx/lv_page.h ****  * It tell how to change the page size automatically.
 184:..\..\..\lvgl\version_6.1.2\lvgl\src\lv_objx\../lv_objx/lv_page.h ****  * @param page pointer to a page object
 185:..\..\..\lvgl\version_6.1.2\lvgl\src\lv_objx\../lv_objx/lv_page.h ****  * @param hot horizontal fit policy from `lv_fit_t`
 186:..\..\..\lvgl\version_6.1.2\lvgl\src\lv_objx\../lv_objx/lv_page.h ****  * @param ver vertical fit policy from `lv_fit_t`
 187:..\..\..\lvgl\version_6.1.2\lvgl\src\lv_objx\../lv_objx/lv_page.h ****  */
 188:..\..\..\lvgl\version_6.1.2\lvgl\src\lv_objx\../lv_objx/lv_page.h **** static inline void lv_page_set_scrl_fit2(lv_obj_t * page, lv_fit_t hor, lv_fit_t ver)
 189:..\..\..\lvgl\version_6.1.2\lvgl\src\lv_objx\../lv_objx/lv_page.h **** {
 190:..\..\..\lvgl\version_6.1.2\lvgl\src\lv_objx\../lv_objx/lv_page.h ****     lv_cont_set_fit2(lv_page_get_scrl(page), hor, ver);
 191:..\..\..\lvgl\version_6.1.2\lvgl\src\lv_objx\../lv_objx/lv_page.h **** }
 192:..\..\..\lvgl\version_6.1.2\lvgl\src\lv_objx\../lv_objx/lv_page.h **** 
 193:..\..\..\lvgl\version_6.1.2\lvgl\src\lv_objx\../lv_objx/lv_page.h **** /**
 194:..\..\..\lvgl\version_6.1.2\lvgl\src\lv_objx\../lv_objx/lv_page.h ****  * Set the fit policyin all 4 direction at once.
 195:..\..\..\lvgl\version_6.1.2\lvgl\src\lv_objx\../lv_objx/lv_page.h ****  * It tell how to change the page size automatically.
 196:..\..\..\lvgl\version_6.1.2\lvgl\src\lv_objx\../lv_objx/lv_page.h ****  * @param page pointer to a button object
 197:..\..\..\lvgl\version_6.1.2\lvgl\src\lv_objx\../lv_objx/lv_page.h ****  * @param fit fit policy from `lv_fit_t`
 198:..\..\..\lvgl\version_6.1.2\lvgl\src\lv_objx\../lv_objx/lv_page.h ****  */
 199:..\..\..\lvgl\version_6.1.2\lvgl\src\lv_objx\../lv_objx/lv_page.h **** static inline void lv_page_set_scrl_fit(lv_obj_t * page, lv_fit_t fit)
 200:..\..\..\lvgl\version_6.1.2\lvgl\src\lv_objx\../lv_objx/lv_page.h **** {
 201:..\..\..\lvgl\version_6.1.2\lvgl\src\lv_objx\../lv_objx/lv_page.h ****     lv_cont_set_fit(lv_page_get_scrl(page), fit);
 760              		.loc 3 201 0
 761 00c2 2846     		mov	r0, r5
 762 00c4 FFF7FEFF 		bl	lv_page_get_scrl
 763              	.LVL77:
 764              	.LBB37:
 765              	.LBB36:
 766              		.loc 2 134 0
 767 00c8 3346     		mov	r3, r6
 768 00ca 3246     		mov	r2, r6
ARM GAS  C:\Users\pearlstl\AppData\Local\Temp\ccIMJlIA.s 			page 31


 769 00cc 3146     		mov	r1, r6
 770 00ce 0096     		str	r6, [sp]
 771 00d0 FFF7FEFF 		bl	lv_cont_set_fit4
 772              	.LVL78:
 773              	.LBE36:
 774              	.LBE37:
 775              	.LBE33:
 776              	.LBE32:
 114:..\..\..\lvgl\version_6.1.2\lvgl\src\lv_objx/lv_tileview.c ****         /*Set the default styles*/
 777              		.loc 1 114 0
 778 00d4 6068     		ldr	r0, [r4, #4]
 779 00d6 2649     		ldr	r1, .L97+12
 780 00d8 FFF7FEFF 		bl	lv_obj_set_event_cb
 781              	.LVL79:
 116:..\..\..\lvgl\version_6.1.2\lvgl\src\lv_objx/lv_tileview.c ****         if(th) {
 782              		.loc 1 116 0
 783 00dc FFF7FEFF 		bl	lv_theme_get_current
 784              	.LVL80:
 117:..\..\..\lvgl\version_6.1.2\lvgl\src\lv_objx/lv_tileview.c ****             lv_page_set_style(new_tileview, LV_PAGE_STYLE_BG, th->style.tileview.bg);
 785              		.loc 1 117 0
 786 00e0 0446     		mov	r4, r0
 787              	.LVL81:
 788 00e2 50B3     		cbz	r0, .L88
 118:..\..\..\lvgl\version_6.1.2\lvgl\src\lv_objx/lv_tileview.c ****             lv_page_set_style(new_tileview, LV_PAGE_STYLE_SCRL, th->style.tileview.scrl);
 789              		.loc 1 118 0
 790 00e4 D0F87C21 		ldr	r2, [r0, #380]
 791 00e8 0021     		movs	r1, #0
 792 00ea 2846     		mov	r0, r5
 793              	.LVL82:
 794 00ec FFF7FEFF 		bl	lv_page_set_style
 795              	.LVL83:
 119:..\..\..\lvgl\version_6.1.2\lvgl\src\lv_objx/lv_tileview.c ****             lv_page_set_style(new_tileview, LV_PAGE_STYLE_SB, th->style.tileview.sb);
 796              		.loc 1 119 0
 797 00f0 3146     		mov	r1, r6
 798 00f2 D4F88021 		ldr	r2, [r4, #384]
 799 00f6 2846     		mov	r0, r5
 800 00f8 FFF7FEFF 		bl	lv_page_set_style
 801              	.LVL84:
 120:..\..\..\lvgl\version_6.1.2\lvgl\src\lv_objx/lv_tileview.c ****         } else {
 802              		.loc 1 120 0
 803 00fc 2846     		mov	r0, r5
 804 00fe D4F88421 		ldr	r2, [r4, #388]
 805 0102 0221     		movs	r1, #2
 806 0104 FFF7FEFF 		bl	lv_page_set_style
 807              	.LVL85:
 808 0108 2846     		mov	r0, r5
 809              	.LBE31:
 144:..\..\..\lvgl\version_6.1.2\lvgl\src\lv_objx/lv_tileview.c **** 
 810              		.loc 1 144 0
 811 010a 04B0     		add	sp, sp, #16
 812              		.cfi_remember_state
 813              		.cfi_def_cfa_offset 24
 814              		@ sp needed
 815 010c BDE8F081 		pop	{r4, r5, r6, r7, r8, pc}
 816              	.LVL86:
 817              	.L81:
 818              		.cfi_restore_state
ARM GAS  C:\Users\pearlstl\AppData\Local\Temp\ccIMJlIA.s 			page 32


  72:..\..\..\lvgl\version_6.1.2\lvgl\src\lv_objx/lv_tileview.c **** 
 819              		.loc 1 72 0
 820 0110 0020     		movs	r0, #0
 821 0112 B9E7     		b	.L80
 822              	.LVL87:
 823              	.L94:
  79:..\..\..\lvgl\version_6.1.2\lvgl\src\lv_objx/lv_tileview.c ****     if(ancestor_design == NULL) ancestor_design = lv_obj_get_design_cb(new_tileview);
 824              		.loc 1 79 0 discriminator 1
 825 0114 2846     		mov	r0, r5
 826 0116 0392     		str	r2, [sp, #12]
 827 0118 FFF7FEFF 		bl	lv_page_get_scrl
 828              	.LVL88:
 829 011c FFF7FEFF 		bl	lv_obj_get_signal_cb
 830              	.LVL89:
 831 0120 039A     		ldr	r2, [sp, #12]
 832 0122 1060     		str	r0, [r2]
 833 0124 85E7     		b	.L83
 834              	.L95:
  80:..\..\..\lvgl\version_6.1.2\lvgl\src\lv_objx/lv_tileview.c **** 
 835              		.loc 1 80 0 discriminator 1
 836 0126 2846     		mov	r0, r5
 837 0128 FFF7FEFF 		bl	lv_obj_get_design_cb
 838              	.LVL90:
 839 012c B060     		str	r0, [r6, #8]
 840 012e 84E7     		b	.L84
 841              	.LVL91:
 842              	.L93:
  78:..\..\..\lvgl\version_6.1.2\lvgl\src\lv_objx/lv_tileview.c ****     if(ancestor_scrl_signal == NULL) ancestor_scrl_signal = lv_obj_get_signal_cb(lv_page_get_scrl(n
 843              		.loc 1 78 0 discriminator 1
 844 0130 2846     		mov	r0, r5
 845              	.LVL92:
 846 0132 FFF7FEFF 		bl	lv_obj_get_signal_cb
 847              	.LVL93:
 848 0136 7060     		str	r0, [r6, #4]
 849 0138 77E7     		b	.L82
 850              	.LVL94:
 851              	.L88:
 852              	.LBB38:
 122:..\..\..\lvgl\version_6.1.2\lvgl\src\lv_objx/lv_tileview.c ****             lv_page_set_style(new_tileview, LV_PAGE_STYLE_SCRL, &lv_style_transp_tight);
 853              		.loc 1 122 0
 854 013a 0146     		mov	r1, r0
 855 013c 0D4A     		ldr	r2, .L97+16
 856 013e 2846     		mov	r0, r5
 857              	.LVL95:
 858 0140 FFF7FEFF 		bl	lv_page_set_style
 859              	.LVL96:
 123:..\..\..\lvgl\version_6.1.2\lvgl\src\lv_objx/lv_tileview.c ****         }
 860              		.loc 1 123 0
 861 0144 2846     		mov	r0, r5
 862 0146 3146     		mov	r1, r6
 863 0148 0A4A     		ldr	r2, .L97+16
 864 014a FFF7FEFF 		bl	lv_page_set_style
 865              	.LVL97:
 866 014e 2846     		mov	r0, r5
 867 0150 9AE7     		b	.L80
 868              	.LVL98:
 869              	.L86:
ARM GAS  C:\Users\pearlstl\AppData\Local\Temp\ccIMJlIA.s 			page 33


 106:..\..\..\lvgl\version_6.1.2\lvgl\src\lv_objx/lv_tileview.c ****             h = lv_disp_get_ver_res(NULL);
 870              		.loc 1 106 0
 871 0152 4046     		mov	r0, r8
 872 0154 FFF7FEFF 		bl	lv_disp_get_hor_res
 873              	.LVL99:
 874 0158 0646     		mov	r6, r0
 875              	.LVL100:
 107:..\..\..\lvgl\version_6.1.2\lvgl\src\lv_objx/lv_tileview.c ****         }
 876              		.loc 1 107 0
 877 015a 4046     		mov	r0, r8
 878 015c FFF7FEFF 		bl	lv_disp_get_ver_res
 879              	.LVL101:
 880 0160 0246     		mov	r2, r0
 881              	.LVL102:
 882 0162 A3E7     		b	.L87
 883              	.L98:
 884              		.align	2
 885              	.L97:
 886 0164 00000000 		.word	.LANCHOR0
 887 0168 00000000 		.word	lv_tileview_signal
 888 016c 00000000 		.word	lv_tileview_scrl_signal
 889 0170 00000000 		.word	tileview_scrl_event_cb
 890 0174 00000000 		.word	lv_style_transp_tight
 891              	.LBE38:
 892              		.cfi_endproc
 893              	.LFE52:
 894              		.size	lv_tileview_create, .-lv_tileview_create
 895              		.section	.text.lv_tileview_add_element,"ax",%progbits
 896              		.align	2
 897              		.global	lv_tileview_add_element
 898              		.thumb
 899              		.thumb_func
 900              		.type	lv_tileview_add_element, %function
 901              	lv_tileview_add_element:
 902              	.LFB53:
 156:..\..\..\lvgl\version_6.1.2\lvgl\src\lv_objx/lv_tileview.c ****     LV_ASSERT_OBJ(tileview, LV_OBJX_NAME);
 903              		.loc 1 156 0
 904              		.cfi_startproc
 905              		@ args = 0, pretend = 0, frame = 8
 906              		@ frame_needed = 0, uses_anonymous_args = 0
 907              	.LVL103:
 908 0000 2DE9F041 		push	{r4, r5, r6, r7, r8, lr}
 909              		.cfi_def_cfa_offset 24
 910              		.cfi_offset 4, -24
 911              		.cfi_offset 5, -20
 912              		.cfi_offset 6, -16
 913              		.cfi_offset 7, -12
 914              		.cfi_offset 8, -8
 915              		.cfi_offset 14, -4
 162:..\..\..\lvgl\version_6.1.2\lvgl\src\lv_objx/lv_tileview.c ****     lv_obj_set_drag_parent(element, true);
 916              		.loc 1 162 0
 917 0004 91F82C30 		ldrb	r3, [r1, #44]	@ zero_extendqisi2
 918 0008 43F08003 		orr	r3, r3, #128
 156:..\..\..\lvgl\version_6.1.2\lvgl\src\lv_objx/lv_tileview.c ****     LV_ASSERT_OBJ(tileview, LV_OBJX_NAME);
 919              		.loc 1 156 0
 920 000c 82B0     		sub	sp, sp, #8
 921              		.cfi_def_cfa_offset 32
ARM GAS  C:\Users\pearlstl\AppData\Local\Temp\ccIMJlIA.s 			page 34


 162:..\..\..\lvgl\version_6.1.2\lvgl\src\lv_objx/lv_tileview.c ****     lv_obj_set_drag_parent(element, true);
 922              		.loc 1 162 0
 923 000e 81F82C30 		strb	r3, [r1, #44]
 156:..\..\..\lvgl\version_6.1.2\lvgl\src\lv_objx/lv_tileview.c ****     LV_ASSERT_OBJ(tileview, LV_OBJX_NAME);
 924              		.loc 1 156 0
 925 0012 0646     		mov	r6, r0
 163:..\..\..\lvgl\version_6.1.2\lvgl\src\lv_objx/lv_tileview.c **** 
 926              		.loc 1 163 0
 927 0014 0846     		mov	r0, r1
 928              	.LVL104:
 929 0016 0121     		movs	r1, #1
 930              	.LVL105:
 931 0018 FFF7FEFF 		bl	lv_obj_set_drag_parent
 932              	.LVL106:
 168:..\..\..\lvgl\version_6.1.2\lvgl\src\lv_objx/lv_tileview.c ****     lv_tileview_set_tile_act(tileview, ext->act_id.x, ext->act_id.y, false);
 933              		.loc 1 168 0
 934 001c 3046     		mov	r0, r6
 935 001e FFF7FEFF 		bl	lv_obj_get_ext_attr
 936              	.LVL107:
 937 0022 0346     		mov	r3, r0
 938              	.LVL108:
 939              	.LBB42:
 940              	.LBB43:
 221:..\..\..\lvgl\version_6.1.2\lvgl\src\lv_objx/lv_tileview.c **** 
 941              		.loc 1 221 0
 942 0024 3046     		mov	r0, r6
 943              	.LVL109:
 944              	.LBE43:
 945              	.LBE42:
 169:..\..\..\lvgl\version_6.1.2\lvgl\src\lv_objx/lv_tileview.c **** }
 946              		.loc 1 169 0
 947 0026 B3F93850 		ldrsh	r5, [r3, #56]
 948 002a B3F93A80 		ldrsh	r8, [r3, #58]
 949              	.LVL110:
 950              	.LBB45:
 951              	.LBB44:
 221:..\..\..\lvgl\version_6.1.2\lvgl\src\lv_objx/lv_tileview.c **** 
 952              		.loc 1 221 0
 953 002e FFF7FEFF 		bl	lv_obj_get_ext_attr
 954              	.LVL111:
 225:..\..\..\lvgl\version_6.1.2\lvgl\src\lv_objx/lv_tileview.c ****         if(ext->valid_pos[tile_id].x == x && ext->valid_pos[tile_id].y == y) {
 955              		.loc 1 225 0
 956 0032 B0F834E0 		ldrh	lr, [r0, #52]
 957 0036 0024     		movs	r4, #0
 958 0038 0194     		str	r4, [sp, #4]
 959 003a BEF1000F 		cmp	lr, #0
 960 003e 31D0     		beq	.L99
 961 0040 076B     		ldr	r7, [r0, #48]
 962 0042 2346     		mov	r3, r4
 963 0044 3A46     		mov	r2, r7
 964 0046 06E0     		b	.L103
 965              	.L101:
 966 0048 0133     		adds	r3, r3, #1
 967 004a 7345     		cmp	r3, lr
 968 004c 02F10402 		add	r2, r2, #4
 969 0050 4FF00104 		mov	r4, #1
 970 0054 26D0     		beq	.L99
ARM GAS  C:\Users\pearlstl\AppData\Local\Temp\ccIMJlIA.s 			page 35


 971              	.L103:
 226:..\..\..\lvgl\version_6.1.2\lvgl\src\lv_objx/lv_tileview.c ****             valid = true;
 972              		.loc 1 226 0
 973 0056 37F92310 		ldrsh	r1, [r7, r3, lsl #2]
 974 005a A942     		cmp	r1, r5
 975 005c F4D1     		bne	.L101
 976 005e B2F90210 		ldrsh	r1, [r2, #2]
 977 0062 4145     		cmp	r1, r8
 978 0064 F0D1     		bne	.L101
 979 0066 04BB     		cbnz	r4, .L114
 980              	.L104:
 981              	.LVL112:
 234:..\..\..\lvgl\version_6.1.2\lvgl\src\lv_objx/lv_tileview.c ****     ext->act_id.y = y;
 982              		.loc 1 234 0
 983 0068 0587     		strh	r5, [r0, #56]	@ movhi
 235:..\..\..\lvgl\version_6.1.2\lvgl\src\lv_objx/lv_tileview.c **** 
 984              		.loc 1 235 0
 985 006a A0F83A80 		strh	r8, [r0, #58]	@ movhi
 237:..\..\..\lvgl\version_6.1.2\lvgl\src\lv_objx/lv_tileview.c ****     lv_coord_t y_coord = -y * lv_obj_get_height(tileview);
 986              		.loc 1 237 0
 987 006e 3046     		mov	r0, r6
 988              	.LVL113:
 989 0070 FFF7FEFF 		bl	lv_obj_get_width
 990              	.LVL114:
 991 0074 0746     		mov	r7, r0
 992              	.LVL115:
 238:..\..\..\lvgl\version_6.1.2\lvgl\src\lv_objx/lv_tileview.c ****     lv_obj_t * scrl    = lv_page_get_scrl(tileview);
 993              		.loc 1 238 0
 994 0076 3046     		mov	r0, r6
 995 0078 FFF7FEFF 		bl	lv_obj_get_height
 996              	.LVL116:
 271:..\..\..\lvgl\version_6.1.2\lvgl\src\lv_objx/lv_tileview.c ****     }
 997              		.loc 1 271 0
 998 007c 6D42     		negs	r5, r5
 999              	.LVL117:
 238:..\..\..\lvgl\version_6.1.2\lvgl\src\lv_objx/lv_tileview.c ****     lv_obj_t * scrl    = lv_page_get_scrl(tileview);
 1000              		.loc 1 238 0
 1001 007e 0446     		mov	r4, r0
 1002              	.LVL118:
 271:..\..\..\lvgl\version_6.1.2\lvgl\src\lv_objx/lv_tileview.c ****     }
 1003              		.loc 1 271 0
 1004 0080 C8F10008 		rsb	r8, r8, #0
 1005              	.LVL119:
 239:..\..\..\lvgl\version_6.1.2\lvgl\src\lv_objx/lv_tileview.c ****     if(anim) {
 1006              		.loc 1 239 0
 1007 0084 3046     		mov	r0, r6
 1008 0086 FFF7FEFF 		bl	lv_page_get_scrl
 1009              	.LVL120:
 271:..\..\..\lvgl\version_6.1.2\lvgl\src\lv_objx/lv_tileview.c ****     }
 1010              		.loc 1 271 0
 1011 008a 15FB07F1 		smulbb	r1, r5, r7
 1012 008e 18FB04F2 		smulbb	r2, r8, r4
 1013 0092 09B2     		sxth	r1, r1
 1014 0094 12B2     		sxth	r2, r2
 1015 0096 FFF7FEFF 		bl	lv_obj_set_pos
 1016              	.LVL121:
 275:..\..\..\lvgl\version_6.1.2\lvgl\src\lv_objx/lv_tileview.c ****     if(res != LV_RES_OK) return; /*Prevent the tile loading*/
ARM GAS  C:\Users\pearlstl\AppData\Local\Temp\ccIMJlIA.s 			page 36


 1017              		.loc 1 275 0
 1018 009a 3046     		mov	r0, r6
 1019 009c 01AA     		add	r2, sp, #4
 1020 009e 0E21     		movs	r1, #14
 1021 00a0 FFF7FEFF 		bl	lv_event_send
 1022              	.LVL122:
 1023              	.L99:
 1024              	.LBE44:
 1025              	.LBE45:
 170:..\..\..\lvgl\version_6.1.2\lvgl\src\lv_objx/lv_tileview.c **** 
 1026              		.loc 1 170 0
 1027 00a4 02B0     		add	sp, sp, #8
 1028              		.cfi_remember_state
 1029              		.cfi_def_cfa_offset 24
 1030              		@ sp needed
 1031 00a6 BDE8F081 		pop	{r4, r5, r6, r7, r8, pc}
 1032              	.LVL123:
 1033              	.L114:
 1034              		.cfi_restore_state
 1035 00aa 0193     		str	r3, [sp, #4]
 1036 00ac DCE7     		b	.L104
 1037              		.cfi_endproc
 1038              	.LFE53:
 1039              		.size	lv_tileview_add_element, .-lv_tileview_add_element
 1040 00ae 00BF     		.section	.text.lv_tileview_set_valid_positions,"ax",%progbits
 1041              		.align	2
 1042              		.global	lv_tileview_set_valid_positions
 1043              		.thumb
 1044              		.thumb_func
 1045              		.type	lv_tileview_set_valid_positions, %function
 1046              	lv_tileview_set_valid_positions:
 1047              	.LFB54:
 184:..\..\..\lvgl\version_6.1.2\lvgl\src\lv_objx/lv_tileview.c ****     LV_ASSERT_OBJ(tileview, LV_OBJX_NAME);
 1048              		.loc 1 184 0
 1049              		.cfi_startproc
 1050              		@ args = 0, pretend = 0, frame = 8
 1051              		@ frame_needed = 0, uses_anonymous_args = 0
 1052              	.LVL124:
 1053 0000 2DE9F041 		push	{r4, r5, r6, r7, r8, lr}
 1054              		.cfi_def_cfa_offset 24
 1055              		.cfi_offset 4, -24
 1056              		.cfi_offset 5, -20
 1057              		.cfi_offset 6, -16
 1058              		.cfi_offset 7, -12
 1059              		.cfi_offset 8, -8
 1060              		.cfi_offset 14, -4
 1061 0004 82B0     		sub	sp, sp, #8
 1062              		.cfi_def_cfa_offset 32
 184:..\..\..\lvgl\version_6.1.2\lvgl\src\lv_objx/lv_tileview.c ****     LV_ASSERT_OBJ(tileview, LV_OBJX_NAME);
 1063              		.loc 1 184 0
 1064 0006 0F46     		mov	r7, r1
 1065 0008 1446     		mov	r4, r2
 1066 000a 0546     		mov	r5, r0
 188:..\..\..\lvgl\version_6.1.2\lvgl\src\lv_objx/lv_tileview.c ****     ext->valid_pos          = valid_pos;
 1067              		.loc 1 188 0
 1068 000c FFF7FEFF 		bl	lv_obj_get_ext_attr
 1069              	.LVL125:
ARM GAS  C:\Users\pearlstl\AppData\Local\Temp\ccIMJlIA.s 			page 37


 189:..\..\..\lvgl\version_6.1.2\lvgl\src\lv_objx/lv_tileview.c ****     ext->valid_pos_cnt      = valid_pos_cnt;
 1070              		.loc 1 189 0
 1071 0010 0763     		str	r7, [r0, #48]
 190:..\..\..\lvgl\version_6.1.2\lvgl\src\lv_objx/lv_tileview.c **** 
 1072              		.loc 1 190 0
 1073 0012 8486     		strh	r4, [r0, #52]	@ movhi
 1074              	.LVL126:
 194:..\..\..\lvgl\version_6.1.2\lvgl\src\lv_objx/lv_tileview.c ****         if(valid_pos[i].x == ext->act_id.x && valid_pos[i].y == ext->act_id.y) {
 1075              		.loc 1 194 0
 1076 0014 ACB1     		cbz	r4, .L115
 1077 0016 013C     		subs	r4, r4, #1
 1078 0018 A4B2     		uxth	r4, r4
 1079 001a 0134     		adds	r4, r4, #1
 1080 001c B0F93860 		ldrsh	r6, [r0, #56]
 1081 0020 07EB8404 		add	r4, r7, r4, lsl #2
 1082 0024 3B46     		mov	r3, r7
 1083 0026 02E0     		b	.L118
 1084              	.LVL127:
 1085              	.L117:
 1086 0028 0433     		adds	r3, r3, #4
 194:..\..\..\lvgl\version_6.1.2\lvgl\src\lv_objx/lv_tileview.c ****         if(valid_pos[i].x == ext->act_id.x && valid_pos[i].y == ext->act_id.y) {
 1087              		.loc 1 194 0 is_stmt 0 discriminator 2
 1088 002a 9C42     		cmp	r4, r3
 1089 002c 0CD0     		beq	.L136
 1090              	.L118:
 195:..\..\..\lvgl\version_6.1.2\lvgl\src\lv_objx/lv_tileview.c ****             return;
 1091              		.loc 1 195 0 is_stmt 1
 1092 002e B3F90020 		ldrsh	r2, [r3]
 1093 0032 B242     		cmp	r2, r6
 1094 0034 F8D1     		bne	.L117
 195:..\..\..\lvgl\version_6.1.2\lvgl\src\lv_objx/lv_tileview.c ****             return;
 1095              		.loc 1 195 0 is_stmt 0 discriminator 1
 1096 0036 B3F90210 		ldrsh	r1, [r3, #2]
 1097 003a B0F93A20 		ldrsh	r2, [r0, #58]
 1098 003e 9142     		cmp	r1, r2
 1099 0040 F2D1     		bne	.L117
 1100              	.LVL128:
 1101              	.L115:
 204:..\..\..\lvgl\version_6.1.2\lvgl\src\lv_objx/lv_tileview.c **** 
 1102              		.loc 1 204 0 is_stmt 1
 1103 0042 02B0     		add	sp, sp, #8
 1104              		.cfi_remember_state
 1105              		.cfi_def_cfa_offset 24
 1106              		@ sp needed
 1107 0044 BDE8F081 		pop	{r4, r5, r6, r7, r8, pc}
 1108              	.LVL129:
 1109              	.L136:
 1110              		.cfi_restore_state
 1111              	.LBB49:
 1112              	.LBB50:
 221:..\..\..\lvgl\version_6.1.2\lvgl\src\lv_objx/lv_tileview.c **** 
 1113              		.loc 1 221 0
 1114 0048 2846     		mov	r0, r5
 1115              	.LVL130:
 1116              	.LBE50:
 1117              	.LBE49:
 202:..\..\..\lvgl\version_6.1.2\lvgl\src\lv_objx/lv_tileview.c ****     }
ARM GAS  C:\Users\pearlstl\AppData\Local\Temp\ccIMJlIA.s 			page 38


 1118              		.loc 1 202 0
 1119 004a B7F90060 		ldrsh	r6, [r7]
 1120 004e B7F90280 		ldrsh	r8, [r7, #2]
 1121              	.LVL131:
 1122              	.LBB52:
 1123              	.LBB51:
 221:..\..\..\lvgl\version_6.1.2\lvgl\src\lv_objx/lv_tileview.c **** 
 1124              		.loc 1 221 0
 1125 0052 FFF7FEFF 		bl	lv_obj_get_ext_attr
 1126              	.LVL132:
 225:..\..\..\lvgl\version_6.1.2\lvgl\src\lv_objx/lv_tileview.c ****         if(ext->valid_pos[tile_id].x == x && ext->valid_pos[tile_id].y == y) {
 1127              		.loc 1 225 0
 1128 0056 B0F834E0 		ldrh	lr, [r0, #52]
 1129 005a 0024     		movs	r4, #0
 1130 005c 0194     		str	r4, [sp, #4]
 1131 005e BEF1000F 		cmp	lr, #0
 1132 0062 EED0     		beq	.L115
 1133 0064 076B     		ldr	r7, [r0, #48]
 1134              	.LVL133:
 1135 0066 2346     		mov	r3, r4
 1136 0068 3A46     		mov	r2, r7
 1137 006a 06E0     		b	.L122
 1138              	.L120:
 1139 006c 0133     		adds	r3, r3, #1
 1140 006e 7345     		cmp	r3, lr
 1141 0070 02F10402 		add	r2, r2, #4
 1142 0074 4FF00104 		mov	r4, #1
 1143 0078 E3D0     		beq	.L115
 1144              	.L122:
 226:..\..\..\lvgl\version_6.1.2\lvgl\src\lv_objx/lv_tileview.c ****             valid = true;
 1145              		.loc 1 226 0
 1146 007a 37F92310 		ldrsh	r1, [r7, r3, lsl #2]
 1147 007e B142     		cmp	r1, r6
 1148 0080 F4D1     		bne	.L120
 1149 0082 B2F90210 		ldrsh	r1, [r2, #2]
 1150 0086 4145     		cmp	r1, r8
 1151 0088 F0D1     		bne	.L120
 1152 008a F4B9     		cbnz	r4, .L137
 1153              	.L123:
 1154              	.LVL134:
 234:..\..\..\lvgl\version_6.1.2\lvgl\src\lv_objx/lv_tileview.c ****     ext->act_id.y = y;
 1155              		.loc 1 234 0
 1156 008c 0687     		strh	r6, [r0, #56]	@ movhi
 235:..\..\..\lvgl\version_6.1.2\lvgl\src\lv_objx/lv_tileview.c **** 
 1157              		.loc 1 235 0
 1158 008e A0F83A80 		strh	r8, [r0, #58]	@ movhi
 237:..\..\..\lvgl\version_6.1.2\lvgl\src\lv_objx/lv_tileview.c ****     lv_coord_t y_coord = -y * lv_obj_get_height(tileview);
 1159              		.loc 1 237 0
 1160 0092 2846     		mov	r0, r5
 1161              	.LVL135:
 1162 0094 FFF7FEFF 		bl	lv_obj_get_width
 1163              	.LVL136:
 1164 0098 0746     		mov	r7, r0
 1165              	.LVL137:
 238:..\..\..\lvgl\version_6.1.2\lvgl\src\lv_objx/lv_tileview.c ****     lv_obj_t * scrl    = lv_page_get_scrl(tileview);
 1166              		.loc 1 238 0
 1167 009a 2846     		mov	r0, r5
ARM GAS  C:\Users\pearlstl\AppData\Local\Temp\ccIMJlIA.s 			page 39


 1168 009c FFF7FEFF 		bl	lv_obj_get_height
 1169              	.LVL138:
 271:..\..\..\lvgl\version_6.1.2\lvgl\src\lv_objx/lv_tileview.c ****     }
 1170              		.loc 1 271 0
 1171 00a0 7642     		negs	r6, r6
 1172              	.LVL139:
 238:..\..\..\lvgl\version_6.1.2\lvgl\src\lv_objx/lv_tileview.c ****     lv_obj_t * scrl    = lv_page_get_scrl(tileview);
 1173              		.loc 1 238 0
 1174 00a2 0446     		mov	r4, r0
 1175              	.LVL140:
 271:..\..\..\lvgl\version_6.1.2\lvgl\src\lv_objx/lv_tileview.c ****     }
 1176              		.loc 1 271 0
 1177 00a4 C8F10008 		rsb	r8, r8, #0
 1178              	.LVL141:
 239:..\..\..\lvgl\version_6.1.2\lvgl\src\lv_objx/lv_tileview.c ****     if(anim) {
 1179              		.loc 1 239 0
 1180 00a8 2846     		mov	r0, r5
 1181 00aa FFF7FEFF 		bl	lv_page_get_scrl
 1182              	.LVL142:
 271:..\..\..\lvgl\version_6.1.2\lvgl\src\lv_objx/lv_tileview.c ****     }
 1183              		.loc 1 271 0
 1184 00ae 16FB07F1 		smulbb	r1, r6, r7
 1185 00b2 18FB04F2 		smulbb	r2, r8, r4
 1186 00b6 09B2     		sxth	r1, r1
 1187 00b8 12B2     		sxth	r2, r2
 1188 00ba FFF7FEFF 		bl	lv_obj_set_pos
 1189              	.LVL143:
 275:..\..\..\lvgl\version_6.1.2\lvgl\src\lv_objx/lv_tileview.c ****     if(res != LV_RES_OK) return; /*Prevent the tile loading*/
 1190              		.loc 1 275 0
 1191 00be 2846     		mov	r0, r5
 1192 00c0 01AA     		add	r2, sp, #4
 1193 00c2 0E21     		movs	r1, #14
 1194 00c4 FFF7FEFF 		bl	lv_event_send
 1195              	.LVL144:
 1196 00c8 BBE7     		b	.L115
 1197              	.LVL145:
 1198              	.L137:
 1199 00ca 0193     		str	r3, [sp, #4]
 1200 00cc DEE7     		b	.L123
 1201              	.LBE51:
 1202              	.LBE52:
 1203              		.cfi_endproc
 1204              	.LFE54:
 1205              		.size	lv_tileview_set_valid_positions, .-lv_tileview_set_valid_positions
 1206 00ce 00BF     		.section	.text.lv_tileview_set_tile_act,"ax",%progbits
 1207              		.align	2
 1208              		.global	lv_tileview_set_tile_act
 1209              		.thumb
 1210              		.thumb_func
 1211              		.type	lv_tileview_set_tile_act, %function
 1212              	lv_tileview_set_tile_act:
 1213              	.LFB55:
 214:..\..\..\lvgl\version_6.1.2\lvgl\src\lv_objx/lv_tileview.c ****     LV_ASSERT_OBJ(tileview, LV_OBJX_NAME);
 1214              		.loc 1 214 0
 1215              		.cfi_startproc
 1216              		@ args = 0, pretend = 0, frame = 40
 1217              		@ frame_needed = 0, uses_anonymous_args = 0
ARM GAS  C:\Users\pearlstl\AppData\Local\Temp\ccIMJlIA.s 			page 40


 1218              	.LVL146:
 1219 0000 2DE9F047 		push	{r4, r5, r6, r7, r8, r9, r10, lr}
 1220              		.cfi_def_cfa_offset 32
 1221              		.cfi_offset 4, -32
 1222              		.cfi_offset 5, -28
 1223              		.cfi_offset 6, -24
 1224              		.cfi_offset 7, -20
 1225              		.cfi_offset 8, -16
 1226              		.cfi_offset 9, -12
 1227              		.cfi_offset 10, -8
 1228              		.cfi_offset 14, -4
 1229 0004 8AB0     		sub	sp, sp, #40
 1230              		.cfi_def_cfa_offset 72
 214:..\..\..\lvgl\version_6.1.2\lvgl\src\lv_objx/lv_tileview.c ****     LV_ASSERT_OBJ(tileview, LV_OBJX_NAME);
 1231              		.loc 1 214 0
 1232 0006 0E46     		mov	r6, r1
 1233 0008 9146     		mov	r9, r2
 1234 000a 9846     		mov	r8, r3
 1235 000c 0746     		mov	r7, r0
 221:..\..\..\lvgl\version_6.1.2\lvgl\src\lv_objx/lv_tileview.c **** 
 1236              		.loc 1 221 0
 1237 000e FFF7FEFF 		bl	lv_obj_get_ext_attr
 1238              	.LVL147:
 225:..\..\..\lvgl\version_6.1.2\lvgl\src\lv_objx/lv_tileview.c ****         if(ext->valid_pos[tile_id].x == x && ext->valid_pos[tile_id].y == y) {
 1239              		.loc 1 225 0
 1240 0012 818E     		ldrh	r1, [r0, #52]
 1241 0014 0025     		movs	r5, #0
 1242 0016 0095     		str	r5, [sp]
 1243 0018 0029     		cmp	r1, #0
 1244 001a 6BD0     		beq	.L138
 1245 001c 026B     		ldr	r2, [r0, #48]
 1246 001e 8246     		mov	r10, r0
 1247 0020 2B46     		mov	r3, r5
 1248 0022 1046     		mov	r0, r2
 1249              	.LVL148:
 1250 0024 06E0     		b	.L142
 1251              	.L140:
 225:..\..\..\lvgl\version_6.1.2\lvgl\src\lv_objx/lv_tileview.c ****         if(ext->valid_pos[tile_id].x == x && ext->valid_pos[tile_id].y == y) {
 1252              		.loc 1 225 0 is_stmt 0 discriminator 2
 1253 0026 0133     		adds	r3, r3, #1
 1254 0028 9942     		cmp	r1, r3
 1255 002a 00F10400 		add	r0, r0, #4
 1256 002e 4FF00105 		mov	r5, #1
 1257 0032 5FD0     		beq	.L138
 1258              	.L142:
 226:..\..\..\lvgl\version_6.1.2\lvgl\src\lv_objx/lv_tileview.c ****             valid = true;
 1259              		.loc 1 226 0 is_stmt 1
 1260 0034 32F92340 		ldrsh	r4, [r2, r3, lsl #2]
 1261 0038 B442     		cmp	r4, r6
 1262 003a F4D1     		bne	.L140
 226:..\..\..\lvgl\version_6.1.2\lvgl\src\lv_objx/lv_tileview.c ****             valid = true;
 1263              		.loc 1 226 0 is_stmt 0 discriminator 1
 1264 003c B0F90240 		ldrsh	r4, [r0, #2]
 1265 0040 4C45     		cmp	r4, r9
 1266 0042 F0D1     		bne	.L140
 1267 0044 002D     		cmp	r5, #0
 1268 0046 58D1     		bne	.L160
ARM GAS  C:\Users\pearlstl\AppData\Local\Temp\ccIMJlIA.s 			page 41


 1269              	.L146:
 1270              	.LVL149:
 234:..\..\..\lvgl\version_6.1.2\lvgl\src\lv_objx/lv_tileview.c ****     ext->act_id.y = y;
 1271              		.loc 1 234 0 is_stmt 1
 1272 0048 AAF83860 		strh	r6, [r10, #56]	@ movhi
 235:..\..\..\lvgl\version_6.1.2\lvgl\src\lv_objx/lv_tileview.c **** 
 1273              		.loc 1 235 0
 1274 004c AAF83A90 		strh	r9, [r10, #58]	@ movhi
 237:..\..\..\lvgl\version_6.1.2\lvgl\src\lv_objx/lv_tileview.c ****     lv_coord_t y_coord = -y * lv_obj_get_height(tileview);
 1275              		.loc 1 237 0
 1276 0050 3846     		mov	r0, r7
 1277 0052 FFF7FEFF 		bl	lv_obj_get_width
 1278              	.LVL150:
 1279 0056 7442     		negs	r4, r6
 1280 0058 14FB00F4 		smulbb	r4, r4, r0
 238:..\..\..\lvgl\version_6.1.2\lvgl\src\lv_objx/lv_tileview.c ****     lv_obj_t * scrl    = lv_page_get_scrl(tileview);
 1281              		.loc 1 238 0
 1282 005c 3846     		mov	r0, r7
 1283 005e FFF7FEFF 		bl	lv_obj_get_height
 1284              	.LVL151:
 1285 0062 C9F10005 		rsb	r5, r9, #0
 1286 0066 15FB00F5 		smulbb	r5, r5, r0
 239:..\..\..\lvgl\version_6.1.2\lvgl\src\lv_objx/lv_tileview.c ****     if(anim) {
 1287              		.loc 1 239 0
 1288 006a 3846     		mov	r0, r7
 1289 006c FFF7FEFF 		bl	lv_page_get_scrl
 1290              	.LVL152:
 237:..\..\..\lvgl\version_6.1.2\lvgl\src\lv_objx/lv_tileview.c ****     lv_coord_t y_coord = -y * lv_obj_get_height(tileview);
 1291              		.loc 1 237 0
 1292 0070 24B2     		sxth	r4, r4
 1293              	.LVL153:
 238:..\..\..\lvgl\version_6.1.2\lvgl\src\lv_objx/lv_tileview.c ****     lv_obj_t * scrl    = lv_page_get_scrl(tileview);
 1294              		.loc 1 238 0
 1295 0072 2DB2     		sxth	r5, r5
 1296              	.LVL154:
 239:..\..\..\lvgl\version_6.1.2\lvgl\src\lv_objx/lv_tileview.c ****     if(anim) {
 1297              		.loc 1 239 0
 1298 0074 0646     		mov	r6, r0
 1299              	.LVL155:
 240:..\..\..\lvgl\version_6.1.2\lvgl\src\lv_objx/lv_tileview.c **** #if LV_USE_ANIMATION
 1300              		.loc 1 240 0
 1301 0076 B8F1000F 		cmp	r8, #0
 1302 007a 32D0     		beq	.L161
 1303              	.LBB53:
 242:..\..\..\lvgl\version_6.1.2\lvgl\src\lv_objx/lv_tileview.c ****         lv_coord_t y_act = lv_obj_get_y(scrl);
 1304              		.loc 1 242 0
 1305 007c FFF7FEFF 		bl	lv_obj_get_x
 1306              	.LVL156:
 1307 0080 8146     		mov	r9, r0
 1308              	.LVL157:
 243:..\..\..\lvgl\version_6.1.2\lvgl\src\lv_objx/lv_tileview.c **** 
 1309              		.loc 1 243 0
 1310 0082 3046     		mov	r0, r6
 1311 0084 FFF7FEFF 		bl	lv_obj_get_y
 1312              	.LVL158:
 252:..\..\..\lvgl\version_6.1.2\lvgl\src\lv_objx/lv_tileview.c ****         a.playback_pause = 0;
 1313              		.loc 1 252 0
ARM GAS  C:\Users\pearlstl\AppData\Local\Temp\ccIMJlIA.s 			page 42


 1314 0088 9DF82420 		ldrb	r2, [sp, #36]	@ zero_extendqisi2
 251:..\..\..\lvgl\version_6.1.2\lvgl\src\lv_objx/lv_tileview.c ****         a.playback       = 0;
 1315              		.loc 1 251 0
 1316 008c BAF83630 		ldrh	r3, [r10, #54]
 1317 0090 ADF81C30 		strh	r3, [sp, #28]	@ movhi
 254:..\..\..\lvgl\version_6.1.2\lvgl\src\lv_objx/lv_tileview.c ****         a.repeat_pause   = 0;
 1318              		.loc 1 254 0
 1319 0094 02F0FE02 		and	r2, r2, #254
 249:..\..\..\lvgl\version_6.1.2\lvgl\src\lv_objx/lv_tileview.c ****         a.act_time       = 0;
 1320              		.loc 1 249 0
 1321 0098 0023     		movs	r3, #0
 254:..\..\..\lvgl\version_6.1.2\lvgl\src\lv_objx/lv_tileview.c ****         a.repeat_pause   = 0;
 1322              		.loc 1 254 0
 1323 009a 63F34102 		bfi	r2, r3, #1, #1
 247:..\..\..\lvgl\version_6.1.2\lvgl\src\lv_objx/lv_tileview.c ****         a.path_cb        = lv_anim_path_linear;
 1324              		.loc 1 247 0
 1325 009e 1849     		ldr	r1, .L162
 254:..\..\..\lvgl\version_6.1.2\lvgl\src\lv_objx/lv_tileview.c ****         a.repeat_pause   = 0;
 1326              		.loc 1 254 0
 1327 00a0 8DF82420 		strb	r2, [sp, #36]
 257:..\..\..\lvgl\version_6.1.2\lvgl\src\lv_objx/lv_tileview.c ****             a.start = x_act;
 1328              		.loc 1 257 0
 1329 00a4 4C45     		cmp	r4, r9
 248:..\..\..\lvgl\version_6.1.2\lvgl\src\lv_objx/lv_tileview.c ****         a.ready_cb       = NULL;
 1330              		.loc 1 248 0
 1331 00a6 174A     		ldr	r2, .L162+4
 246:..\..\..\lvgl\version_6.1.2\lvgl\src\lv_objx/lv_tileview.c ****         a.exec_cb        = (lv_anim_exec_xcb_t)lv_obj_set_x;
 1332              		.loc 1 246 0
 1333 00a8 0196     		str	r6, [sp, #4]
 243:..\..\..\lvgl\version_6.1.2\lvgl\src\lv_objx/lv_tileview.c **** 
 1334              		.loc 1 243 0
 1335 00aa 8046     		mov	r8, r0
 1336              	.LVL159:
 249:..\..\..\lvgl\version_6.1.2\lvgl\src\lv_objx/lv_tileview.c ****         a.act_time       = 0;
 1337              		.loc 1 249 0
 1338 00ac 0493     		str	r3, [sp, #16]
 250:..\..\..\lvgl\version_6.1.2\lvgl\src\lv_objx/lv_tileview.c ****         a.time           = ext->anim_time;
 1339              		.loc 1 250 0
 1340 00ae ADF81E30 		strh	r3, [sp, #30]	@ movhi
 253:..\..\..\lvgl\version_6.1.2\lvgl\src\lv_objx/lv_tileview.c ****         a.repeat         = 0;
 1341              		.loc 1 253 0
 1342 00b2 ADF82030 		strh	r3, [sp, #32]	@ movhi
 255:..\..\..\lvgl\version_6.1.2\lvgl\src\lv_objx/lv_tileview.c **** 
 1343              		.loc 1 255 0
 1344 00b6 ADF82230 		strh	r3, [sp, #34]	@ movhi
 247:..\..\..\lvgl\version_6.1.2\lvgl\src\lv_objx/lv_tileview.c ****         a.path_cb        = lv_anim_path_linear;
 1345              		.loc 1 247 0
 1346 00ba 0291     		str	r1, [sp, #8]
 248:..\..\..\lvgl\version_6.1.2\lvgl\src\lv_objx/lv_tileview.c ****         a.ready_cb       = NULL;
 1347              		.loc 1 248 0
 1348 00bc 0392     		str	r2, [sp, #12]
 257:..\..\..\lvgl\version_6.1.2\lvgl\src\lv_objx/lv_tileview.c ****             a.start = x_act;
 1349              		.loc 1 257 0
 1350 00be 05D0     		beq	.L143
 260:..\..\..\lvgl\version_6.1.2\lvgl\src\lv_objx/lv_tileview.c ****         }
 1351              		.loc 1 260 0
 1352 00c0 01A8     		add	r0, sp, #4
ARM GAS  C:\Users\pearlstl\AppData\Local\Temp\ccIMJlIA.s 			page 43


 258:..\..\..\lvgl\version_6.1.2\lvgl\src\lv_objx/lv_tileview.c ****             a.end   = x_coord;
 1353              		.loc 1 258 0
 1354 00c2 CDF81490 		str	r9, [sp, #20]
 259:..\..\..\lvgl\version_6.1.2\lvgl\src\lv_objx/lv_tileview.c ****             lv_anim_create(&a);
 1355              		.loc 1 259 0
 1356 00c6 0694     		str	r4, [sp, #24]
 260:..\..\..\lvgl\version_6.1.2\lvgl\src\lv_objx/lv_tileview.c ****         }
 1357              		.loc 1 260 0
 1358 00c8 FFF7FEFF 		bl	lv_anim_create
 1359              	.LVL160:
 1360              	.L143:
 263:..\..\..\lvgl\version_6.1.2\lvgl\src\lv_objx/lv_tileview.c ****             a.start   = y_act;
 1361              		.loc 1 263 0
 1362 00cc 4545     		cmp	r5, r8
 1363 00ce 0CD0     		beq	.L145
 266:..\..\..\lvgl\version_6.1.2\lvgl\src\lv_objx/lv_tileview.c ****             lv_anim_create(&a);
 1364              		.loc 1 266 0
 1365 00d0 0D4B     		ldr	r3, .L162+8
 264:..\..\..\lvgl\version_6.1.2\lvgl\src\lv_objx/lv_tileview.c ****             a.end     = y_coord;
 1366              		.loc 1 264 0
 1367 00d2 CDF81480 		str	r8, [sp, #20]
 267:..\..\..\lvgl\version_6.1.2\lvgl\src\lv_objx/lv_tileview.c ****         }
 1368              		.loc 1 267 0
 1369 00d6 01A8     		add	r0, sp, #4
 265:..\..\..\lvgl\version_6.1.2\lvgl\src\lv_objx/lv_tileview.c ****             a.exec_cb = (lv_anim_exec_xcb_t)lv_obj_set_y;
 1370              		.loc 1 265 0
 1371 00d8 0695     		str	r5, [sp, #24]
 266:..\..\..\lvgl\version_6.1.2\lvgl\src\lv_objx/lv_tileview.c ****             lv_anim_create(&a);
 1372              		.loc 1 266 0
 1373 00da 0293     		str	r3, [sp, #8]
 267:..\..\..\lvgl\version_6.1.2\lvgl\src\lv_objx/lv_tileview.c ****         }
 1374              		.loc 1 267 0
 1375 00dc FFF7FEFF 		bl	lv_anim_create
 1376              	.LVL161:
 1377 00e0 03E0     		b	.L145
 1378              	.LVL162:
 1379              	.L161:
 1380              	.LBE53:
 271:..\..\..\lvgl\version_6.1.2\lvgl\src\lv_objx/lv_tileview.c ****     }
 1381              		.loc 1 271 0
 1382 00e2 2A46     		mov	r2, r5
 1383 00e4 2146     		mov	r1, r4
 1384 00e6 FFF7FEFF 		bl	lv_obj_set_pos
 1385              	.LVL163:
 1386              	.L145:
 275:..\..\..\lvgl\version_6.1.2\lvgl\src\lv_objx/lv_tileview.c ****     if(res != LV_RES_OK) return; /*Prevent the tile loading*/
 1387              		.loc 1 275 0
 1388 00ea 3846     		mov	r0, r7
 1389 00ec 6A46     		mov	r2, sp
 1390 00ee 0E21     		movs	r1, #14
 1391 00f0 FFF7FEFF 		bl	lv_event_send
 1392              	.LVL164:
 1393              	.L138:
 277:..\..\..\lvgl\version_6.1.2\lvgl\src\lv_objx/lv_tileview.c **** 
 1394              		.loc 1 277 0
 1395 00f4 0AB0     		add	sp, sp, #40
 1396              		.cfi_remember_state
ARM GAS  C:\Users\pearlstl\AppData\Local\Temp\ccIMJlIA.s 			page 44


 1397              		.cfi_def_cfa_offset 32
 1398              		@ sp needed
 1399 00f6 BDE8F087 		pop	{r4, r5, r6, r7, r8, r9, r10, pc}
 1400              	.LVL165:
 1401              	.L160:
 1402              		.cfi_restore_state
 1403 00fa 0093     		str	r3, [sp]
 1404 00fc A4E7     		b	.L146
 1405              	.L163:
 1406 00fe 00BF     		.align	2
 1407              	.L162:
 1408 0100 00000000 		.word	lv_obj_set_x
 1409 0104 00000000 		.word	lv_anim_path_linear
 1410 0108 00000000 		.word	lv_obj_set_y
 1411              		.cfi_endproc
 1412              	.LFE55:
 1413              		.size	lv_tileview_set_tile_act, .-lv_tileview_set_tile_act
 1414              		.section	.text.tileview_scrl_event_cb,"ax",%progbits
 1415              		.align	2
 1416              		.thumb
 1417              		.thumb_func
 1418              		.type	tileview_scrl_event_cb, %function
 1419              	tileview_scrl_event_cb:
 1420              	.LFB60:
 479:..\..\..\lvgl\version_6.1.2\lvgl\src\lv_objx/lv_tileview.c **** 
 480:..\..\..\lvgl\version_6.1.2\lvgl\src\lv_objx/lv_tileview.c **** static void tileview_scrl_event_cb(lv_obj_t * scrl, lv_event_t event)
 481:..\..\..\lvgl\version_6.1.2\lvgl\src\lv_objx/lv_tileview.c **** {
 1421              		.loc 1 481 0
 1422              		.cfi_startproc
 1423              		@ args = 0, pretend = 0, frame = 8
 1424              		@ frame_needed = 0, uses_anonymous_args = 0
 1425              	.LVL166:
 1426 0000 2DE9F04F 		push	{r4, r5, r6, r7, r8, r9, r10, fp, lr}
 1427              		.cfi_def_cfa_offset 36
 1428              		.cfi_offset 4, -36
 1429              		.cfi_offset 5, -32
 1430              		.cfi_offset 6, -28
 1431              		.cfi_offset 7, -24
 1432              		.cfi_offset 8, -20
 1433              		.cfi_offset 9, -16
 1434              		.cfi_offset 10, -12
 1435              		.cfi_offset 11, -8
 1436              		.cfi_offset 14, -4
 1437 0004 83B0     		sub	sp, sp, #12
 1438              		.cfi_def_cfa_offset 48
 1439              		.loc 1 481 0
 1440 0006 0C46     		mov	r4, r1
 482:..\..\..\lvgl\version_6.1.2\lvgl\src\lv_objx/lv_tileview.c ****     lv_obj_t * tileview = lv_obj_get_parent(scrl);
 1441              		.loc 1 482 0
 1442 0008 FFF7FEFF 		bl	lv_obj_get_parent
 1443              	.LVL167:
 1444 000c 0546     		mov	r5, r0
 1445              	.LVL168:
 483:..\..\..\lvgl\version_6.1.2\lvgl\src\lv_objx/lv_tileview.c **** 
 484:..\..\..\lvgl\version_6.1.2\lvgl\src\lv_objx/lv_tileview.c ****     /*Initialize some variables on PRESS*/
 485:..\..\..\lvgl\version_6.1.2\lvgl\src\lv_objx/lv_tileview.c ****     if(event == LV_EVENT_PRESSED) {
 1446              		.loc 1 485 0
ARM GAS  C:\Users\pearlstl\AppData\Local\Temp\ccIMJlIA.s 			page 45


 1447 000e 002C     		cmp	r4, #0
 1448 0010 77D0     		beq	.L213
 486:..\..\..\lvgl\version_6.1.2\lvgl\src\lv_objx/lv_tileview.c ****         lv_tileview_ext_t * ext = lv_obj_get_ext_attr(tileview);
 487:..\..\..\lvgl\version_6.1.2\lvgl\src\lv_objx/lv_tileview.c ****         ext->drag_hor           = 0;
 488:..\..\..\lvgl\version_6.1.2\lvgl\src\lv_objx/lv_tileview.c ****         ext->drag_ver           = 0;
 489:..\..\..\lvgl\version_6.1.2\lvgl\src\lv_objx/lv_tileview.c ****         set_valid_drag_dirs(tileview);
 490:..\..\..\lvgl\version_6.1.2\lvgl\src\lv_objx/lv_tileview.c ****     }
 491:..\..\..\lvgl\version_6.1.2\lvgl\src\lv_objx/lv_tileview.c ****     /*Animate the tabview to the correct location on RELEASE*/
 492:..\..\..\lvgl\version_6.1.2\lvgl\src\lv_objx/lv_tileview.c ****     else if(event == LV_EVENT_PRESS_LOST || event == LV_EVENT_RELEASED) {
 1449              		.loc 1 492 0
 1450 0012 022C     		cmp	r4, #2
 1451 0014 04D0     		beq	.L174
 1452              		.loc 1 492 0 is_stmt 0 discriminator 1
 1453 0016 072C     		cmp	r4, #7
 1454 0018 02D0     		beq	.L174
 1455              	.LVL169:
 1456              	.L164:
 493:..\..\..\lvgl\version_6.1.2\lvgl\src\lv_objx/lv_tileview.c ****         /* If the element was dragged and it moved the tileview finish the drag manually to
 494:..\..\..\lvgl\version_6.1.2\lvgl\src\lv_objx/lv_tileview.c ****          * let the tileview to finish the move.*/
 495:..\..\..\lvgl\version_6.1.2\lvgl\src\lv_objx/lv_tileview.c ****         lv_indev_t * indev      = lv_indev_get_act();
 496:..\..\..\lvgl\version_6.1.2\lvgl\src\lv_objx/lv_tileview.c ****         lv_tileview_ext_t * ext = lv_obj_get_ext_attr(tileview);
 497:..\..\..\lvgl\version_6.1.2\lvgl\src\lv_objx/lv_tileview.c ****         if(lv_indev_is_dragging(indev) && (ext->drag_hor || ext->drag_ver)) {
 498:..\..\..\lvgl\version_6.1.2\lvgl\src\lv_objx/lv_tileview.c ****             indev->proc.types.pointer.drag_in_prog = 0;
 499:..\..\..\lvgl\version_6.1.2\lvgl\src\lv_objx/lv_tileview.c ****             drag_end_handler(tileview);
 500:..\..\..\lvgl\version_6.1.2\lvgl\src\lv_objx/lv_tileview.c ****         }
 501:..\..\..\lvgl\version_6.1.2\lvgl\src\lv_objx/lv_tileview.c **** 
 502:..\..\..\lvgl\version_6.1.2\lvgl\src\lv_objx/lv_tileview.c ****     }
 503:..\..\..\lvgl\version_6.1.2\lvgl\src\lv_objx/lv_tileview.c **** }
 1457              		.loc 1 503 0 is_stmt 1
 1458 001a 03B0     		add	sp, sp, #12
 1459              		.cfi_remember_state
 1460              		.cfi_def_cfa_offset 36
 1461              		@ sp needed
 1462 001c BDE8F08F 		pop	{r4, r5, r6, r7, r8, r9, r10, fp, pc}
 1463              	.LVL170:
 1464              	.L174:
 1465              		.cfi_restore_state
 1466              	.LBB62:
 495:..\..\..\lvgl\version_6.1.2\lvgl\src\lv_objx/lv_tileview.c ****         lv_tileview_ext_t * ext = lv_obj_get_ext_attr(tileview);
 1467              		.loc 1 495 0
 1468 0020 FFF7FEFF 		bl	lv_indev_get_act
 1469              	.LVL171:
 1470 0024 0446     		mov	r4, r0
 1471              	.LVL172:
 496:..\..\..\lvgl\version_6.1.2\lvgl\src\lv_objx/lv_tileview.c ****         if(lv_indev_is_dragging(indev) && (ext->drag_hor || ext->drag_ver)) {
 1472              		.loc 1 496 0
 1473 0026 2846     		mov	r0, r5
 1474              	.LVL173:
 1475 0028 FFF7FEFF 		bl	lv_obj_get_ext_attr
 1476              	.LVL174:
 1477 002c 0646     		mov	r6, r0
 1478              	.LVL175:
 497:..\..\..\lvgl\version_6.1.2\lvgl\src\lv_objx/lv_tileview.c ****             indev->proc.types.pointer.drag_in_prog = 0;
 1479              		.loc 1 497 0
 1480 002e 2046     		mov	r0, r4
 1481              	.LVL176:
 1482 0030 FFF7FEFF 		bl	lv_indev_is_dragging
ARM GAS  C:\Users\pearlstl\AppData\Local\Temp\ccIMJlIA.s 			page 46


 1483              	.LVL177:
 1484 0034 0028     		cmp	r0, #0
 1485 0036 F0D0     		beq	.L164
 497:..\..\..\lvgl\version_6.1.2\lvgl\src\lv_objx/lv_tileview.c ****             indev->proc.types.pointer.drag_in_prog = 0;
 1486              		.loc 1 497 0 is_stmt 0 discriminator 1
 1487 0038 96F83C30 		ldrb	r3, [r6, #60]	@ zero_extendqisi2
 1488 003c 13F0300F 		tst	r3, #48
 1489 0040 EBD0     		beq	.L164
 498:..\..\..\lvgl\version_6.1.2\lvgl\src\lv_objx/lv_tileview.c ****             drag_end_handler(tileview);
 1490              		.loc 1 498 0 is_stmt 1
 1491 0042 94F84030 		ldrb	r3, [r4, #64]	@ zero_extendqisi2
 1492 0046 6FF34103 		bfc	r3, #1, #1
 1493 004a 84F84030 		strb	r3, [r4, #64]
 1494              	.LVL178:
 1495              	.LBB63:
 1496              	.LBB64:
 504:..\..\..\lvgl\version_6.1.2\lvgl\src\lv_objx/lv_tileview.c **** 
 505:..\..\..\lvgl\version_6.1.2\lvgl\src\lv_objx/lv_tileview.c **** /**
 506:..\..\..\lvgl\version_6.1.2\lvgl\src\lv_objx/lv_tileview.c ****  * Called when the user releases an element of the tileview after dragging it.
 507:..\..\..\lvgl\version_6.1.2\lvgl\src\lv_objx/lv_tileview.c ****  * @param tileview pointer to a tileview object
 508:..\..\..\lvgl\version_6.1.2\lvgl\src\lv_objx/lv_tileview.c ****  */
 509:..\..\..\lvgl\version_6.1.2\lvgl\src\lv_objx/lv_tileview.c **** static void drag_end_handler(lv_obj_t * tileview)
 510:..\..\..\lvgl\version_6.1.2\lvgl\src\lv_objx/lv_tileview.c **** {
 511:..\..\..\lvgl\version_6.1.2\lvgl\src\lv_objx/lv_tileview.c ****     lv_tileview_ext_t * ext = lv_obj_get_ext_attr(tileview);
 1497              		.loc 1 511 0
 1498 004e 2846     		mov	r0, r5
 1499 0050 FFF7FEFF 		bl	lv_obj_get_ext_attr
 1500              	.LVL179:
 1501 0054 0446     		mov	r4, r0
 1502              	.LVL180:
 512:..\..\..\lvgl\version_6.1.2\lvgl\src\lv_objx/lv_tileview.c ****     lv_indev_t * indev      = lv_indev_get_act();
 1503              		.loc 1 512 0
 1504 0056 FFF7FEFF 		bl	lv_indev_get_act
 1505              	.LVL181:
 513:..\..\..\lvgl\version_6.1.2\lvgl\src\lv_objx/lv_tileview.c ****     lv_point_t point_act;
 514:..\..\..\lvgl\version_6.1.2\lvgl\src\lv_objx/lv_tileview.c ****     lv_indev_get_point(indev, &point_act);
 1506              		.loc 1 514 0
 1507 005a 6946     		mov	r1, sp
 512:..\..\..\lvgl\version_6.1.2\lvgl\src\lv_objx/lv_tileview.c ****     lv_indev_t * indev      = lv_indev_get_act();
 1508              		.loc 1 512 0
 1509 005c 8346     		mov	fp, r0
 1510              	.LVL182:
 1511              		.loc 1 514 0
 1512 005e FFF7FEFF 		bl	lv_indev_get_point
 1513              	.LVL183:
 515:..\..\..\lvgl\version_6.1.2\lvgl\src\lv_objx/lv_tileview.c ****     lv_obj_t * scrl = lv_page_get_scrl(tileview);
 1514              		.loc 1 515 0
 1515 0062 2846     		mov	r0, r5
 1516 0064 FFF7FEFF 		bl	lv_page_get_scrl
 1517              	.LVL184:
 1518 0068 0646     		mov	r6, r0
 1519              	.LVL185:
 516:..\..\..\lvgl\version_6.1.2\lvgl\src\lv_objx/lv_tileview.c ****     lv_point_t p;
 517:..\..\..\lvgl\version_6.1.2\lvgl\src\lv_objx/lv_tileview.c **** 
 518:..\..\..\lvgl\version_6.1.2\lvgl\src\lv_objx/lv_tileview.c ****     p.x = -(scrl->coords.x1 - lv_obj_get_width(tileview) / 2);
 1520              		.loc 1 518 0
 1521 006a 2846     		mov	r0, r5
ARM GAS  C:\Users\pearlstl\AppData\Local\Temp\ccIMJlIA.s 			page 47


 1522              	.LVL186:
 1523 006c FFF7FEFF 		bl	lv_obj_get_width
 1524              	.LVL187:
 1525 0070 338A     		ldrh	r3, [r6, #16]
 1526 0072 00EBD070 		add	r0, r0, r0, lsr #31
 1527 0076 C3EB6007 		rsb	r7, r3, r0, asr #1
 519:..\..\..\lvgl\version_6.1.2\lvgl\src\lv_objx/lv_tileview.c ****     p.y = -(scrl->coords.y1 - lv_obj_get_height(tileview) / 2);
 1528              		.loc 1 519 0
 1529 007a 2846     		mov	r0, r5
 1530 007c FFF7FEFF 		bl	lv_obj_get_height
 1531              	.LVL188:
 1532 0080 738A     		ldrh	r3, [r6, #18]
 520:..\..\..\lvgl\version_6.1.2\lvgl\src\lv_objx/lv_tileview.c **** 
 521:..\..\..\lvgl\version_6.1.2\lvgl\src\lv_objx/lv_tileview.c ****     /*From the drag vector (drag throw) predict the end position*/
 522:..\..\..\lvgl\version_6.1.2\lvgl\src\lv_objx/lv_tileview.c ****     if(ext->drag_hor) {
 1533              		.loc 1 522 0
 1534 0082 94F83C20 		ldrb	r2, [r4, #60]	@ zero_extendqisi2
 519:..\..\..\lvgl\version_6.1.2\lvgl\src\lv_objx/lv_tileview.c ****     p.y = -(scrl->coords.y1 - lv_obj_get_height(tileview) / 2);
 1535              		.loc 1 519 0
 1536 0086 00EBD070 		add	r0, r0, r0, lsr #31
 1537 008a C3EB6009 		rsb	r9, r3, r0, asr #1
 518:..\..\..\lvgl\version_6.1.2\lvgl\src\lv_objx/lv_tileview.c ****     p.y = -(scrl->coords.y1 - lv_obj_get_height(tileview) / 2);
 1538              		.loc 1 518 0
 1539 008e BFB2     		uxth	r7, r7
 519:..\..\..\lvgl\version_6.1.2\lvgl\src\lv_objx/lv_tileview.c ****     p.y = -(scrl->coords.y1 - lv_obj_get_height(tileview) / 2);
 1540              		.loc 1 519 0
 1541 0090 1FFA89F9 		uxth	r9, r9
 1542              		.loc 1 522 0
 1543 0094 02F01003 		and	r3, r2, #16
 518:..\..\..\lvgl\version_6.1.2\lvgl\src\lv_objx/lv_tileview.c ****     p.y = -(scrl->coords.y1 - lv_obj_get_height(tileview) / 2);
 1544              		.loc 1 518 0
 1545 0098 0FFA87F8 		sxth	r8, r7
 1546              	.LVL189:
 519:..\..\..\lvgl\version_6.1.2\lvgl\src\lv_objx/lv_tileview.c ****     p.y = -(scrl->coords.y1 - lv_obj_get_height(tileview) / 2);
 1547              		.loc 1 519 0
 1548 009c 0FFA89F6 		sxth	r6, r9
 1549              	.LVL190:
 1550              		.loc 1 522 0
 1551 00a0 03F0FF0A 		and	r10, r3, #255
 1552 00a4 002B     		cmp	r3, #0
 1553 00a6 40F0C680 		bne	.L214
 523:..\..\..\lvgl\version_6.1.2\lvgl\src\lv_objx/lv_tileview.c ****         lv_point_t vect;
 524:..\..\..\lvgl\version_6.1.2\lvgl\src\lv_objx/lv_tileview.c ****         lv_indev_get_vect(indev, &vect);
 525:..\..\..\lvgl\version_6.1.2\lvgl\src\lv_objx/lv_tileview.c ****         lv_coord_t predict = 0;
 526:..\..\..\lvgl\version_6.1.2\lvgl\src\lv_objx/lv_tileview.c **** 
 527:..\..\..\lvgl\version_6.1.2\lvgl\src\lv_objx/lv_tileview.c ****         while(vect.x != 0) {
 528:..\..\..\lvgl\version_6.1.2\lvgl\src\lv_objx/lv_tileview.c ****             predict += vect.x;
 529:..\..\..\lvgl\version_6.1.2\lvgl\src\lv_objx/lv_tileview.c ****             vect.x = vect.x * (100 - LV_INDEV_DEF_DRAG_THROW) / 100;
 530:..\..\..\lvgl\version_6.1.2\lvgl\src\lv_objx/lv_tileview.c ****         }
 531:..\..\..\lvgl\version_6.1.2\lvgl\src\lv_objx/lv_tileview.c **** 
 532:..\..\..\lvgl\version_6.1.2\lvgl\src\lv_objx/lv_tileview.c ****         p.x -= predict;
 533:..\..\..\lvgl\version_6.1.2\lvgl\src\lv_objx/lv_tileview.c ****     } else if(ext->drag_ver) {
 1554              		.loc 1 533 0
 1555 00aa 9306     		lsls	r3, r2, #26
 1556 00ac 00F1A780 		bmi	.L215
 1557              	.L178:
 534:..\..\..\lvgl\version_6.1.2\lvgl\src\lv_objx/lv_tileview.c ****         lv_point_t vect;
ARM GAS  C:\Users\pearlstl\AppData\Local\Temp\ccIMJlIA.s 			page 48


 535:..\..\..\lvgl\version_6.1.2\lvgl\src\lv_objx/lv_tileview.c ****         lv_indev_get_vect(indev, &vect);
 536:..\..\..\lvgl\version_6.1.2\lvgl\src\lv_objx/lv_tileview.c ****         lv_coord_t predict = 0;
 537:..\..\..\lvgl\version_6.1.2\lvgl\src\lv_objx/lv_tileview.c **** 
 538:..\..\..\lvgl\version_6.1.2\lvgl\src\lv_objx/lv_tileview.c ****         while(vect.y != 0) {
 539:..\..\..\lvgl\version_6.1.2\lvgl\src\lv_objx/lv_tileview.c ****             predict += vect.y;
 540:..\..\..\lvgl\version_6.1.2\lvgl\src\lv_objx/lv_tileview.c ****             vect.y = vect.y * (100 - LV_INDEV_DEF_DRAG_THROW) / 100;
 541:..\..\..\lvgl\version_6.1.2\lvgl\src\lv_objx/lv_tileview.c ****         }
 542:..\..\..\lvgl\version_6.1.2\lvgl\src\lv_objx/lv_tileview.c **** 
 543:..\..\..\lvgl\version_6.1.2\lvgl\src\lv_objx/lv_tileview.c ****         p.y -= predict;
 544:..\..\..\lvgl\version_6.1.2\lvgl\src\lv_objx/lv_tileview.c ****     }
 545:..\..\..\lvgl\version_6.1.2\lvgl\src\lv_objx/lv_tileview.c **** 
 546:..\..\..\lvgl\version_6.1.2\lvgl\src\lv_objx/lv_tileview.c ****     /*Get the index of the tile*/
 547:..\..\..\lvgl\version_6.1.2\lvgl\src\lv_objx/lv_tileview.c ****     p.x = p.x / lv_obj_get_width(tileview);
 1558              		.loc 1 547 0
 1559 00b0 2846     		mov	r0, r5
 1560 00b2 FFF7FEFF 		bl	lv_obj_get_width
 1561              	.LVL191:
 1562 00b6 98FBF0F8 		sdiv	r8, r8, r0
 1563              	.LVL192:
 548:..\..\..\lvgl\version_6.1.2\lvgl\src\lv_objx/lv_tileview.c ****     p.y = p.y / lv_obj_get_height(tileview);
 1564              		.loc 1 548 0
 1565 00ba 2846     		mov	r0, r5
 1566 00bc FFF7FEFF 		bl	lv_obj_get_height
 1567              	.LVL193:
 549:..\..\..\lvgl\version_6.1.2\lvgl\src\lv_objx/lv_tileview.c **** 
 550:..\..\..\lvgl\version_6.1.2\lvgl\src\lv_objx/lv_tileview.c ****     /*Max +- move*/
 551:..\..\..\lvgl\version_6.1.2\lvgl\src\lv_objx/lv_tileview.c ****     lv_coord_t x_move = p.x - ext->act_id.x;
 1568              		.loc 1 551 0
 1569 00c0 218F     		ldrh	r1, [r4, #56]
 552:..\..\..\lvgl\version_6.1.2\lvgl\src\lv_objx/lv_tileview.c ****     lv_coord_t y_move = p.y - ext->act_id.y;
 1570              		.loc 1 552 0
 1571 00c2 648F     		ldrh	r4, [r4, #58]
 1572              	.LVL194:
 1573 00c4 96FBF0F0 		sdiv	r0, r6, r0
 1574              	.LVL195:
 551:..\..\..\lvgl\version_6.1.2\lvgl\src\lv_objx/lv_tileview.c ****     lv_coord_t y_move = p.y - ext->act_id.y;
 1575              		.loc 1 551 0
 1576 00c8 C1EB0808 		rsb	r8, r1, r8
 1577              	.LVL196:
 1578 00cc 1FFA88F3 		uxth	r3, r8
 1579              		.loc 1 552 0
 1580 00d0 001B     		subs	r0, r0, r4
 551:..\..\..\lvgl\version_6.1.2\lvgl\src\lv_objx/lv_tileview.c ****     lv_coord_t y_move = p.y - ext->act_id.y;
 1581              		.loc 1 551 0
 1582 00d2 1EB2     		sxth	r6, r3
 1583              	.LVL197:
 1584              		.loc 1 552 0
 1585 00d4 82B2     		uxth	r2, r0
 553:..\..\..\lvgl\version_6.1.2\lvgl\src\lv_objx/lv_tileview.c ****     if(x_move < -1) x_move = -1;
 1586              		.loc 1 553 0
 1587 00d6 771C     		adds	r7, r6, #1
 552:..\..\..\lvgl\version_6.1.2\lvgl\src\lv_objx/lv_tileview.c ****     lv_coord_t y_move = p.y - ext->act_id.y;
 1588              		.loc 1 552 0
 1589 00d8 10B2     		sxth	r0, r2
 1590              	.LVL198:
 1591              		.loc 1 553 0
 1592 00da C0F2CE80 		blt	.L190
ARM GAS  C:\Users\pearlstl\AppData\Local\Temp\ccIMJlIA.s 			page 49


 554:..\..\..\lvgl\version_6.1.2\lvgl\src\lv_objx/lv_tileview.c ****     if(x_move > 1) x_move = 1;
 1593              		.loc 1 554 0
 1594 00de 022E     		cmp	r6, #2
 1595 00e0 A8BF     		it	ge
 1596 00e2 0123     		movge	r3, #1
 1597              	.LVL199:
 1598              	.L182:
 555:..\..\..\lvgl\version_6.1.2\lvgl\src\lv_objx/lv_tileview.c ****     if(y_move < -1) y_move = -1;
 1599              		.loc 1 555 0
 1600 00e4 461C     		adds	r6, r0, #1
 1601 00e6 C0F2C580 		blt	.L192
 556:..\..\..\lvgl\version_6.1.2\lvgl\src\lv_objx/lv_tileview.c ****     if(y_move > 1) y_move = 1;
 1602              		.loc 1 556 0
 1603 00ea 0228     		cmp	r0, #2
 1604 00ec A8BF     		it	ge
 1605 00ee 0122     		movge	r2, #1
 1606              	.LVL200:
 1607              	.L184:
 557:..\..\..\lvgl\version_6.1.2\lvgl\src\lv_objx/lv_tileview.c **** 
 558:..\..\..\lvgl\version_6.1.2\lvgl\src\lv_objx/lv_tileview.c ****     /*Set the new tile*/
 559:..\..\..\lvgl\version_6.1.2\lvgl\src\lv_objx/lv_tileview.c ****     lv_tileview_set_tile_act(tileview, ext->act_id.x + x_move, ext->act_id.y + y_move, true);
 1608              		.loc 1 559 0
 1609 00f0 2244     		add	r2, r2, r4
 1610 00f2 1944     		add	r1, r1, r3
 1611 00f4 12B2     		sxth	r2, r2
 1612 00f6 09B2     		sxth	r1, r1
 1613 00f8 2846     		mov	r0, r5
 1614 00fa 0123     		movs	r3, #1
 1615 00fc FFF7FEFF 		bl	lv_tileview_set_tile_act
 1616              	.LVL201:
 1617              	.LBE64:
 1618              	.LBE63:
 1619              	.LBE62:
 503:..\..\..\lvgl\version_6.1.2\lvgl\src\lv_objx/lv_tileview.c **** 
 1620              		.loc 1 503 0
 1621 0100 8BE7     		b	.L164
 1622              	.LVL202:
 1623              	.L213:
 1624              	.LBB71:
 486:..\..\..\lvgl\version_6.1.2\lvgl\src\lv_objx/lv_tileview.c ****         ext->drag_hor           = 0;
 1625              		.loc 1 486 0
 1626 0102 FFF7FEFF 		bl	lv_obj_get_ext_attr
 1627              	.LVL203:
 1628 0106 0246     		mov	r2, r0
 1629              	.LVL204:
 1630              	.LBB72:
 1631              	.LBB73:
 560:..\..\..\lvgl\version_6.1.2\lvgl\src\lv_objx/lv_tileview.c **** }
 561:..\..\..\lvgl\version_6.1.2\lvgl\src\lv_objx/lv_tileview.c **** 
 562:..\..\..\lvgl\version_6.1.2\lvgl\src\lv_objx/lv_tileview.c **** static bool set_valid_drag_dirs(lv_obj_t * tileview)
 563:..\..\..\lvgl\version_6.1.2\lvgl\src\lv_objx/lv_tileview.c **** {
 564:..\..\..\lvgl\version_6.1.2\lvgl\src\lv_objx/lv_tileview.c **** 
 565:..\..\..\lvgl\version_6.1.2\lvgl\src\lv_objx/lv_tileview.c ****     lv_tileview_ext_t * ext = lv_obj_get_ext_attr(tileview);
 1632              		.loc 1 565 0
 1633 0108 2846     		mov	r0, r5
 1634              	.LVL205:
 1635              	.LBE73:
ARM GAS  C:\Users\pearlstl\AppData\Local\Temp\ccIMJlIA.s 			page 50


 1636              	.LBE72:
 487:..\..\..\lvgl\version_6.1.2\lvgl\src\lv_objx/lv_tileview.c ****         ext->drag_ver           = 0;
 1637              		.loc 1 487 0
 1638 010a 92F83C30 		ldrb	r3, [r2, #60]	@ zero_extendqisi2
 1639 010e 64F30413 		bfi	r3, r4, #4, #1
 488:..\..\..\lvgl\version_6.1.2\lvgl\src\lv_objx/lv_tileview.c ****         set_valid_drag_dirs(tileview);
 1640              		.loc 1 488 0
 1641 0112 64F34513 		bfi	r3, r4, #5, #1
 1642 0116 82F83C30 		strb	r3, [r2, #60]
 1643              	.LVL206:
 1644              	.LBB75:
 1645              	.LBB74:
 1646              		.loc 1 565 0
 1647 011a FFF7FEFF 		bl	lv_obj_get_ext_attr
 1648              	.LVL207:
 566:..\..\..\lvgl\version_6.1.2\lvgl\src\lv_objx/lv_tileview.c ****     if(ext->valid_pos == NULL) return false;
 1649              		.loc 1 566 0
 1650 011e 026B     		ldr	r2, [r0, #48]
 1651 0120 002A     		cmp	r2, #0
 1652 0122 3FF47AAF 		beq	.L164
 567:..\..\..\lvgl\version_6.1.2\lvgl\src\lv_objx/lv_tileview.c **** 
 568:..\..\..\lvgl\version_6.1.2\lvgl\src\lv_objx/lv_tileview.c ****     ext->drag_bottom_en = 0;
 1653              		.loc 1 568 0
 1654 0126 90F83C30 		ldrb	r3, [r0, #60]	@ zero_extendqisi2
 569:..\..\..\lvgl\version_6.1.2\lvgl\src\lv_objx/lv_tileview.c ****     ext->drag_top_en    = 0;
 570:..\..\..\lvgl\version_6.1.2\lvgl\src\lv_objx/lv_tileview.c ****     ext->drag_left_en   = 0;
 571:..\..\..\lvgl\version_6.1.2\lvgl\src\lv_objx/lv_tileview.c ****     ext->drag_right_en  = 0;
 572:..\..\..\lvgl\version_6.1.2\lvgl\src\lv_objx/lv_tileview.c **** 
 573:..\..\..\lvgl\version_6.1.2\lvgl\src\lv_objx/lv_tileview.c ****     uint16_t i;
 574:..\..\..\lvgl\version_6.1.2\lvgl\src\lv_objx/lv_tileview.c ****     for(i = 0; i < ext->valid_pos_cnt; i++) {
 1655              		.loc 1 574 0
 1656 012a 818E     		ldrh	r1, [r0, #52]
 568:..\..\..\lvgl\version_6.1.2\lvgl\src\lv_objx/lv_tileview.c ****     ext->drag_top_en    = 0;
 1657              		.loc 1 568 0
 1658 012c 64F34103 		bfi	r3, r4, #1, #1
 569:..\..\..\lvgl\version_6.1.2\lvgl\src\lv_objx/lv_tileview.c ****     ext->drag_top_en    = 0;
 1659              		.loc 1 569 0
 1660 0130 64F30003 		bfi	r3, r4, #0, #1
 570:..\..\..\lvgl\version_6.1.2\lvgl\src\lv_objx/lv_tileview.c ****     ext->drag_right_en  = 0;
 1661              		.loc 1 570 0
 1662 0134 64F38203 		bfi	r3, r4, #2, #1
 571:..\..\..\lvgl\version_6.1.2\lvgl\src\lv_objx/lv_tileview.c **** 
 1663              		.loc 1 571 0
 1664 0138 64F3C303 		bfi	r3, r4, #3, #1
 1665 013c 80F83C30 		strb	r3, [r0, #60]
 1666              	.LVL208:
 1667              		.loc 1 574 0
 1668 0140 0029     		cmp	r1, #0
 1669 0142 3FF46AAF 		beq	.L164
 1670 0146 4C1E     		subs	r4, r1, #1
 1671 0148 B0F938E0 		ldrsh	lr, [r0, #56]
 1672 014c A4B2     		uxth	r4, r4
 1673 014e 0134     		adds	r4, r4, #1
 1674 0150 02EB8404 		add	r4, r2, r4, lsl #2
 1675 0154 911C     		adds	r1, r2, #2
 1676 0156 0EF1FF36 		add	r6, lr, #-1
 575:..\..\..\lvgl\version_6.1.2\lvgl\src\lv_objx/lv_tileview.c ****         if(ext->valid_pos[i].x == ext->act_id.x && ext->valid_pos[i].y == ext->act_id.y - 1) ext->d
ARM GAS  C:\Users\pearlstl\AppData\Local\Temp\ccIMJlIA.s 			page 51


 576:..\..\..\lvgl\version_6.1.2\lvgl\src\lv_objx/lv_tileview.c ****         if(ext->valid_pos[i].x == ext->act_id.x && ext->valid_pos[i].y == ext->act_id.y + 1) ext->d
 577:..\..\..\lvgl\version_6.1.2\lvgl\src\lv_objx/lv_tileview.c ****         if(ext->valid_pos[i].x == ext->act_id.x - 1 && ext->valid_pos[i].y == ext->act_id.y) ext->d
 578:..\..\..\lvgl\version_6.1.2\lvgl\src\lv_objx/lv_tileview.c ****         if(ext->valid_pos[i].x == ext->act_id.x + 1 && ext->valid_pos[i].y == ext->act_id.y) ext->d
 1677              		.loc 1 578 0
 1678 015a 0EF10107 		add	r7, lr, #1
 1679 015e 09E0     		b	.L173
 1680              	.LVL209:
 1681              	.L169:
 577:..\..\..\lvgl\version_6.1.2\lvgl\src\lv_objx/lv_tileview.c ****         if(ext->valid_pos[i].x == ext->act_id.x + 1 && ext->valid_pos[i].y == ext->act_id.y) ext->d
 1682              		.loc 1 577 0
 1683 0160 B342     		cmp	r3, r6
 1684 0162 19D0     		beq	.L216
 1685              	.L171:
 1686              		.loc 1 578 0
 1687 0164 9F42     		cmp	r7, r3
 1688 0166 27D0     		beq	.L217
 1689              	.L172:
 1690 0168 0432     		adds	r2, r2, #4
 574:..\..\..\lvgl\version_6.1.2\lvgl\src\lv_objx/lv_tileview.c ****         if(ext->valid_pos[i].x == ext->act_id.x && ext->valid_pos[i].y == ext->act_id.y - 1) ext->d
 1691              		.loc 1 574 0
 1692 016a 9442     		cmp	r4, r2
 1693 016c 01F10401 		add	r1, r1, #4
 1694 0170 3FF453AF 		beq	.L164
 1695              	.L173:
 575:..\..\..\lvgl\version_6.1.2\lvgl\src\lv_objx/lv_tileview.c ****         if(ext->valid_pos[i].x == ext->act_id.x && ext->valid_pos[i].y == ext->act_id.y - 1) ext->d
 1696              		.loc 1 575 0
 1697 0174 31F9023C 		ldrsh	r3, [r1, #-2]
 1698 0178 7345     		cmp	r3, lr
 1699 017a F1D1     		bne	.L169
 1700 017c B0F93A50 		ldrsh	r5, [r0, #58]
 1701 0180 B2F90230 		ldrsh	r3, [r2, #2]
 1702 0184 05F1FF3C 		add	ip, r5, #-1
 1703 0188 6345     		cmp	r3, ip
 1704 018a 2BD0     		beq	.L218
 1705              	.L170:
 576:..\..\..\lvgl\version_6.1.2\lvgl\src\lv_objx/lv_tileview.c ****         if(ext->valid_pos[i].x == ext->act_id.x - 1 && ext->valid_pos[i].y == ext->act_id.y) ext->d
 1706              		.loc 1 576 0
 1707 018c 0135     		adds	r5, r5, #1
 1708 018e 9D42     		cmp	r5, r3
 1709 0190 1FD0     		beq	.L219
 1710 0192 7346     		mov	r3, lr
 577:..\..\..\lvgl\version_6.1.2\lvgl\src\lv_objx/lv_tileview.c ****         if(ext->valid_pos[i].x == ext->act_id.x + 1 && ext->valid_pos[i].y == ext->act_id.y) ext->d
 1711              		.loc 1 577 0
 1712 0194 B342     		cmp	r3, r6
 1713 0196 E5D1     		bne	.L171
 1714              	.L216:
 1715 0198 B2F90250 		ldrsh	r5, [r2, #2]
 1716 019c B0F93A30 		ldrsh	r3, [r0, #58]
 1717 01a0 9D42     		cmp	r5, r3
 1718 01a2 E1D1     		bne	.L172
 1719 01a4 90F83C30 		ldrb	r3, [r0, #60]	@ zero_extendqisi2
 1720 01a8 43F00403 		orr	r3, r3, #4
 1721 01ac 80F83C30 		strb	r3, [r0, #60]
 1722 01b0 31F9023C 		ldrsh	r3, [r1, #-2]
 1723              		.loc 1 578 0
 1724 01b4 9F42     		cmp	r7, r3
 1725 01b6 D7D1     		bne	.L172
ARM GAS  C:\Users\pearlstl\AppData\Local\Temp\ccIMJlIA.s 			page 52


 1726              	.L217:
 1727 01b8 B2F90250 		ldrsh	r5, [r2, #2]
 1728 01bc B0F93A30 		ldrsh	r3, [r0, #58]
 1729 01c0 9D42     		cmp	r5, r3
 1730 01c2 D1D1     		bne	.L172
 1731 01c4 90F83C30 		ldrb	r3, [r0, #60]	@ zero_extendqisi2
 1732 01c8 43F00803 		orr	r3, r3, #8
 1733 01cc 80F83C30 		strb	r3, [r0, #60]
 1734 01d0 CAE7     		b	.L172
 1735              	.L219:
 576:..\..\..\lvgl\version_6.1.2\lvgl\src\lv_objx/lv_tileview.c ****         if(ext->valid_pos[i].x == ext->act_id.x - 1 && ext->valid_pos[i].y == ext->act_id.y) ext->d
 1736              		.loc 1 576 0
 1737 01d2 90F83C30 		ldrb	r3, [r0, #60]	@ zero_extendqisi2
 1738 01d6 43F00203 		orr	r3, r3, #2
 1739 01da 80F83C30 		strb	r3, [r0, #60]
 1740 01de 31F9023C 		ldrsh	r3, [r1, #-2]
 1741 01e2 BDE7     		b	.L169
 1742              	.L218:
 575:..\..\..\lvgl\version_6.1.2\lvgl\src\lv_objx/lv_tileview.c ****         if(ext->valid_pos[i].x == ext->act_id.x && ext->valid_pos[i].y == ext->act_id.y + 1) ext->d
 1743              		.loc 1 575 0
 1744 01e4 90F83C30 		ldrb	r3, [r0, #60]	@ zero_extendqisi2
 1745 01e8 43F00103 		orr	r3, r3, #1
 1746 01ec 80F83C30 		strb	r3, [r0, #60]
 576:..\..\..\lvgl\version_6.1.2\lvgl\src\lv_objx/lv_tileview.c ****         if(ext->valid_pos[i].x == ext->act_id.x - 1 && ext->valid_pos[i].y == ext->act_id.y) ext->d
 1747              		.loc 1 576 0
 1748 01f0 31F9023C 		ldrsh	r3, [r1, #-2]
 1749 01f4 7345     		cmp	r3, lr
 1750 01f6 B3D1     		bne	.L169
 1751 01f8 B2F90230 		ldrsh	r3, [r2, #2]
 1752 01fc C6E7     		b	.L170
 1753              	.LVL210:
 1754              	.L215:
 1755              	.LBE74:
 1756              	.LBE75:
 1757              	.LBE71:
 1758              	.LBB76:
 1759              	.LBB70:
 1760              	.LBB69:
 1761              	.LBB65:
 535:..\..\..\lvgl\version_6.1.2\lvgl\src\lv_objx/lv_tileview.c ****         lv_coord_t predict = 0;
 1762              		.loc 1 535 0
 1763 01fe 5846     		mov	r0, fp
 1764 0200 01A9     		add	r1, sp, #4
 1765 0202 FFF7FEFF 		bl	lv_indev_get_vect
 1766              	.LVL211:
 538:..\..\..\lvgl\version_6.1.2\lvgl\src\lv_objx/lv_tileview.c ****             predict += vect.y;
 1767              		.loc 1 538 0
 1768 0206 BDF90600 		ldrsh	r0, [sp, #6]
 1769 020a 0028     		cmp	r0, #0
 1770 020c 3AD0     		beq	.L189
 540:..\..\..\lvgl\version_6.1.2\lvgl\src\lv_objx/lv_tileview.c ****         }
 1771              		.loc 1 540 0
 1772 020e 1E4F     		ldr	r7, .L220
 538:..\..\..\lvgl\version_6.1.2\lvgl\src\lv_objx/lv_tileview.c ****             predict += vect.y;
 1773              		.loc 1 538 0
 1774 0210 5146     		mov	r1, r10
 1775              	.LVL212:
ARM GAS  C:\Users\pearlstl\AppData\Local\Temp\ccIMJlIA.s 			page 53


 1776              	.L180:
 540:..\..\..\lvgl\version_6.1.2\lvgl\src\lv_objx/lv_tileview.c ****         }
 1777              		.loc 1 540 0
 1778 0212 00EB8002 		add	r2, r0, r0, lsl #2
 1779 0216 1201     		lsls	r2, r2, #4
 539:..\..\..\lvgl\version_6.1.2\lvgl\src\lv_objx/lv_tileview.c ****             vect.y = vect.y * (100 - LV_INDEV_DEF_DRAG_THROW) / 100;
 1780              		.loc 1 539 0
 1781 0218 0144     		add	r1, r1, r0
 1782              	.LVL213:
 540:..\..\..\lvgl\version_6.1.2\lvgl\src\lv_objx/lv_tileview.c ****         }
 1783              		.loc 1 540 0
 1784 021a 87FB0203 		smull	r0, r3, r7, r2
 1785 021e D217     		asrs	r2, r2, #31
 539:..\..\..\lvgl\version_6.1.2\lvgl\src\lv_objx/lv_tileview.c ****             vect.y = vect.y * (100 - LV_INDEV_DEF_DRAG_THROW) / 100;
 1786              		.loc 1 539 0
 1787 0220 8EB2     		uxth	r6, r1
 540:..\..\..\lvgl\version_6.1.2\lvgl\src\lv_objx/lv_tileview.c ****         }
 1788              		.loc 1 540 0
 1789 0222 C2EB6313 		rsb	r3, r2, r3, asr #5
 1790 0226 18B2     		sxth	r0, r3
 539:..\..\..\lvgl\version_6.1.2\lvgl\src\lv_objx/lv_tileview.c ****             vect.y = vect.y * (100 - LV_INDEV_DEF_DRAG_THROW) / 100;
 1791              		.loc 1 539 0
 1792 0228 31B2     		sxth	r1, r6
 1793              	.LVL214:
 538:..\..\..\lvgl\version_6.1.2\lvgl\src\lv_objx/lv_tileview.c ****             predict += vect.y;
 1794              		.loc 1 538 0
 1795 022a 002B     		cmp	r3, #0
 1796 022c F1D1     		bne	.L180
 1797              	.LVL215:
 1798              	.L179:
 543:..\..\..\lvgl\version_6.1.2\lvgl\src\lv_objx/lv_tileview.c ****     }
 1799              		.loc 1 543 0
 1800 022e C6EB0906 		rsb	r6, r6, r9
 1801 0232 36B2     		sxth	r6, r6
 1802              	.LVL216:
 1803 0234 3CE7     		b	.L178
 1804              	.L214:
 1805              	.LBE65:
 1806              	.LBB66:
 524:..\..\..\lvgl\version_6.1.2\lvgl\src\lv_objx/lv_tileview.c ****         lv_coord_t predict = 0;
 1807              		.loc 1 524 0
 1808 0236 01A9     		add	r1, sp, #4
 1809 0238 5846     		mov	r0, fp
 1810 023a FFF7FEFF 		bl	lv_indev_get_vect
 1811              	.LVL217:
 527:..\..\..\lvgl\version_6.1.2\lvgl\src\lv_objx/lv_tileview.c ****             predict += vect.x;
 1812              		.loc 1 527 0
 1813 023e BDF90410 		ldrsh	r1, [sp, #4]
 1814 0242 E9B1     		cbz	r1, .L188
 529:..\..\..\lvgl\version_6.1.2\lvgl\src\lv_objx/lv_tileview.c ****         }
 1815              		.loc 1 529 0
 1816 0244 DFF840C0 		ldr	ip, .L220
 527:..\..\..\lvgl\version_6.1.2\lvgl\src\lv_objx/lv_tileview.c ****             predict += vect.x;
 1817              		.loc 1 527 0
 1818 0248 0020     		movs	r0, #0
 1819              	.LVL218:
 1820              	.L177:
ARM GAS  C:\Users\pearlstl\AppData\Local\Temp\ccIMJlIA.s 			page 54


 529:..\..\..\lvgl\version_6.1.2\lvgl\src\lv_objx/lv_tileview.c ****         }
 1821              		.loc 1 529 0
 1822 024a 01EB8102 		add	r2, r1, r1, lsl #2
 1823 024e 1201     		lsls	r2, r2, #4
 528:..\..\..\lvgl\version_6.1.2\lvgl\src\lv_objx/lv_tileview.c ****             vect.x = vect.x * (100 - LV_INDEV_DEF_DRAG_THROW) / 100;
 1824              		.loc 1 528 0
 1825 0250 0144     		add	r1, r1, r0
 529:..\..\..\lvgl\version_6.1.2\lvgl\src\lv_objx/lv_tileview.c ****         }
 1826              		.loc 1 529 0
 1827 0252 8CFB0203 		smull	r0, r3, ip, r2
 1828              	.LVL219:
 1829 0256 D217     		asrs	r2, r2, #31
 528:..\..\..\lvgl\version_6.1.2\lvgl\src\lv_objx/lv_tileview.c ****             vect.x = vect.x * (100 - LV_INDEV_DEF_DRAG_THROW) / 100;
 1830              		.loc 1 528 0
 1831 0258 1FFA81FE 		uxth	lr, r1
 529:..\..\..\lvgl\version_6.1.2\lvgl\src\lv_objx/lv_tileview.c ****         }
 1832              		.loc 1 529 0
 1833 025c C2EB6313 		rsb	r3, r2, r3, asr #5
 1834 0260 19B2     		sxth	r1, r3
 528:..\..\..\lvgl\version_6.1.2\lvgl\src\lv_objx/lv_tileview.c ****             vect.x = vect.x * (100 - LV_INDEV_DEF_DRAG_THROW) / 100;
 1835              		.loc 1 528 0
 1836 0262 0FFA8EF0 		sxth	r0, lr
 1837              	.LVL220:
 527:..\..\..\lvgl\version_6.1.2\lvgl\src\lv_objx/lv_tileview.c ****             predict += vect.x;
 1838              		.loc 1 527 0
 1839 0266 002B     		cmp	r3, #0
 1840 0268 EFD1     		bne	.L177
 1841              	.LVL221:
 1842              	.L176:
 532:..\..\..\lvgl\version_6.1.2\lvgl\src\lv_objx/lv_tileview.c ****     } else if(ext->drag_ver) {
 1843              		.loc 1 532 0
 1844 026a CEEB0701 		rsb	r1, lr, r7
 1845 026e 0FFA81F8 		sxth	r8, r1
 1846              	.LVL222:
 1847 0272 1DE7     		b	.L178
 1848              	.LVL223:
 1849              	.L192:
 1850              	.LBE66:
 555:..\..\..\lvgl\version_6.1.2\lvgl\src\lv_objx/lv_tileview.c ****     if(y_move > 1) y_move = 1;
 1851              		.loc 1 555 0
 1852 0274 4FF6FF72 		movw	r2, #65535
 1853              	.LVL224:
 1854 0278 3AE7     		b	.L184
 1855              	.LVL225:
 1856              	.L190:
 553:..\..\..\lvgl\version_6.1.2\lvgl\src\lv_objx/lv_tileview.c ****     if(x_move > 1) x_move = 1;
 1857              		.loc 1 553 0
 1858 027a 4FF6FF73 		movw	r3, #65535
 1859              	.LVL226:
 1860 027e 31E7     		b	.L182
 1861              	.LVL227:
 1862              	.L188:
 1863              	.LBB67:
 527:..\..\..\lvgl\version_6.1.2\lvgl\src\lv_objx/lv_tileview.c ****             predict += vect.x;
 1864              		.loc 1 527 0
 1865 0280 8E46     		mov	lr, r1
 1866 0282 F2E7     		b	.L176
ARM GAS  C:\Users\pearlstl\AppData\Local\Temp\ccIMJlIA.s 			page 55


 1867              	.LVL228:
 1868              	.L189:
 1869              	.LBE67:
 1870              	.LBB68:
 538:..\..\..\lvgl\version_6.1.2\lvgl\src\lv_objx/lv_tileview.c ****             predict += vect.y;
 1871              		.loc 1 538 0
 1872 0284 0646     		mov	r6, r0
 1873              	.LVL229:
 1874 0286 D2E7     		b	.L179
 1875              	.L221:
 1876              		.align	2
 1877              	.L220:
 1878 0288 1F85EB51 		.word	1374389535
 1879              	.LBE68:
 1880              	.LBE69:
 1881              	.LBE70:
 1882              	.LBE76:
 1883              		.cfi_endproc
 1884              	.LFE60:
 1885              		.size	tileview_scrl_event_cb, .-tileview_scrl_event_cb
 1886              		.section	.text.lv_tileview_set_style,"ax",%progbits
 1887              		.align	2
 1888              		.global	lv_tileview_set_style
 1889              		.thumb
 1890              		.thumb_func
 1891              		.type	lv_tileview_set_style, %function
 1892              	lv_tileview_set_style:
 1893              	.LFB56:
 286:..\..\..\lvgl\version_6.1.2\lvgl\src\lv_objx/lv_tileview.c ****     LV_ASSERT_OBJ(tileview, LV_OBJX_NAME);
 1894              		.loc 1 286 0
 1895              		.cfi_startproc
 1896              		@ args = 0, pretend = 0, frame = 0
 1897              		@ frame_needed = 0, uses_anonymous_args = 0
 1898              		@ link register save eliminated.
 1899              	.LVL230:
 289:..\..\..\lvgl\version_6.1.2\lvgl\src\lv_objx/lv_tileview.c ****         case LV_TILEVIEW_STYLE_MAIN: lv_obj_set_style(tileview, style); break;
 1900              		.loc 1 289 0
 1901 0000 01B1     		cbz	r1, .L226
 1902 0002 7047     		bx	lr
 1903              	.L226:
 290:..\..\..\lvgl\version_6.1.2\lvgl\src\lv_objx/lv_tileview.c ****     }
 1904              		.loc 1 290 0
 1905 0004 1146     		mov	r1, r2
 1906              	.LVL231:
 1907 0006 FFF7FEBF 		b	lv_obj_set_style
 1908              	.LVL232:
 1909              		.cfi_endproc
 1910              	.LFE56:
 1911              		.size	lv_tileview_set_style, .-lv_tileview_set_style
 1912 000a 00BF     		.section	.text.lv_tileview_get_style,"ax",%progbits
 1913              		.align	2
 1914              		.global	lv_tileview_get_style
 1915              		.thumb
 1916              		.thumb_func
 1917              		.type	lv_tileview_get_style, %function
 1918              	lv_tileview_get_style:
 1919              	.LFB57:
ARM GAS  C:\Users\pearlstl\AppData\Local\Temp\ccIMJlIA.s 			page 56


 309:..\..\..\lvgl\version_6.1.2\lvgl\src\lv_objx/lv_tileview.c ****     LV_ASSERT_OBJ(tileview, LV_OBJX_NAME);
 1920              		.loc 1 309 0
 1921              		.cfi_startproc
 1922              		@ args = 0, pretend = 0, frame = 0
 1923              		@ frame_needed = 0, uses_anonymous_args = 0
 1924              		@ link register save eliminated.
 1925              	.LVL233:
 313:..\..\..\lvgl\version_6.1.2\lvgl\src\lv_objx/lv_tileview.c ****         case LV_TILEVIEW_STYLE_MAIN: style = lv_obj_get_style(tileview); break;
 1926              		.loc 1 313 0
 1927 0000 09B9     		cbnz	r1, .L230
 314:..\..\..\lvgl\version_6.1.2\lvgl\src\lv_objx/lv_tileview.c ****         default: style = NULL;
 1928              		.loc 1 314 0
 1929 0002 FFF7FEBF 		b	lv_obj_get_style
 1930              	.LVL234:
 1931              	.L230:
 319:..\..\..\lvgl\version_6.1.2\lvgl\src\lv_objx/lv_tileview.c **** 
 1932              		.loc 1 319 0
 1933 0006 0020     		movs	r0, #0
 1934              	.LVL235:
 1935 0008 7047     		bx	lr
 1936              		.cfi_endproc
 1937              	.LFE57:
 1938              		.size	lv_tileview_get_style, .-lv_tileview_get_style
 1939 000a 00BF     		.section	.rodata.str1.4,"aMS",%progbits,1
 1940              		.align	2
 1941              	.LC0:
 1942 0000 00       		.ascii	"\000"
 1943 0001 000000   		.space	3
 1944              	.LC1:
 1945 0004 6C765F74 		.ascii	"lv_tileview\000"
 1945      696C6576 
 1945      69657700 
 1946              		.bss
 1947              		.align	2
 1948              		.set	.LANCHOR0,. + 0
 1949              		.type	ancestor_scrl_signal, %object
 1950              		.size	ancestor_scrl_signal, 4
 1951              	ancestor_scrl_signal:
 1952 0000 00000000 		.space	4
 1953              		.type	ancestor_signal, %object
 1954              		.size	ancestor_signal, 4
 1955              	ancestor_signal:
 1956 0004 00000000 		.space	4
 1957              		.type	ancestor_design, %object
 1958              		.size	ancestor_design, 4
 1959              	ancestor_design:
 1960 0008 00000000 		.space	4
 1961              		.text
 1962              	.Letext0:
 1963              		.file 4 "c:\\program files (x86)\\cypress\\psoc creator\\4.2\\psoc creator\\import\\gnu\\arm\\5.4.
 1964              		.file 5 "c:\\program files (x86)\\cypress\\psoc creator\\4.2\\psoc creator\\import\\gnu\\arm\\5.4.
 1965              		.file 6 "..\\..\\..\\lvgl\\version_6.1.2\\lvgl\\src\\lv_objx\\../../../lv_conf.h"
 1966              		.file 7 "..\\..\\..\\lvgl\\version_6.1.2\\lvgl\\src\\lv_objx\\../lv_objx/../lv_core/../lv_font/lv_
 1967              		.file 8 "..\\..\\..\\lvgl\\version_6.1.2\\lvgl\\src\\lv_objx\\../lv_objx/../lv_core/../lv_misc/lv_
 1968              		.file 9 "..\\..\\..\\lvgl\\version_6.1.2\\lvgl\\src\\lv_objx\\../lv_objx/../lv_core/../lv_misc/lv_
 1969              		.file 10 "..\\..\\..\\lvgl\\version_6.1.2\\lvgl\\src\\lv_objx\\../lv_objx/../lv_core/../lv_misc/lv
 1970              		.file 11 "..\\..\\..\\lvgl\\version_6.1.2\\lvgl\\src\\lv_objx\\../lv_objx/../lv_core/lv_style.h"
ARM GAS  C:\Users\pearlstl\AppData\Local\Temp\ccIMJlIA.s 			page 57


 1971              		.file 12 "..\\..\\..\\lvgl\\version_6.1.2\\lvgl\\src\\lv_objx\\../lv_objx/../lv_core/../lv_misc/lv
 1972              		.file 13 "..\\..\\..\\lvgl\\version_6.1.2\\lvgl\\src\\lv_objx\\../lv_objx/../lv_core/../lv_misc/lv
 1973              		.file 14 "..\\..\\..\\lvgl\\version_6.1.2\\lvgl\\src\\lv_objx\\../lv_objx/../lv_core/../lv_misc/lv
 1974              		.file 15 "..\\..\\..\\lvgl\\version_6.1.2\\lvgl\\src\\lv_objx\\../lv_objx/../lv_core/../lv_hal/../
 1975              		.file 16 "..\\..\\..\\lvgl\\version_6.1.2\\lvgl\\src\\lv_objx\\../lv_objx/../lv_core/../lv_hal/lv_
 1976              		.file 17 "..\\..\\..\\lvgl\\version_6.1.2\\lvgl\\src\\lv_objx\\../lv_objx/../lv_core/lv_obj.h"
 1977              		.file 18 "..\\..\\..\\lvgl\\version_6.1.2\\lvgl\\src\\lv_objx\\../lv_objx/../lv_core/../lv_hal/lv_
 1978              		.file 19 "..\\..\\..\\lvgl\\version_6.1.2\\lvgl\\src\\lv_objx\\lv_tileview.h"
 1979              		.file 20 "..\\..\\..\\lvgl\\version_6.1.2\\lvgl\\src\\lv_objx\\../lv_themes/lv_theme.h"
 1980              		.file 21 "..\\..\\..\\lvgl\\version_6.1.2\\lvgl\\src\\lv_objx\\../lv_objx/../lv_core/lv_indev.h"
 1981              		.section	.debug_info,"",%progbits
 1982              	.Ldebug_info0:
 1983 0000 542D0000 		.4byte	0x2d54
 1984 0004 0400     		.2byte	0x4
 1985 0006 00000000 		.4byte	.Ldebug_abbrev0
 1986 000a 04       		.byte	0x4
 1987 000b 01       		.uleb128 0x1
 1988 000c 5C020000 		.4byte	.LASF423
 1989 0010 0C       		.byte	0xc
 1990 0011 06130000 		.4byte	.LASF424
 1991 0015 ED100000 		.4byte	.LASF425
 1992 0019 38010000 		.4byte	.Ldebug_ranges0+0x138
 1993 001d 00000000 		.4byte	0
 1994 0021 00000000 		.4byte	.Ldebug_line0
 1995 0025 02       		.uleb128 0x2
 1996 0026 060E0000 		.4byte	.LASF0
 1997 002a 04       		.byte	0x4
 1998 002b 1B       		.byte	0x1b
 1999 002c 30000000 		.4byte	0x30
 2000 0030 03       		.uleb128 0x3
 2001 0031 01       		.byte	0x1
 2002 0032 06       		.byte	0x6
 2003 0033 3B040000 		.4byte	.LASF2
 2004 0037 02       		.uleb128 0x2
 2005 0038 34030000 		.4byte	.LASF1
 2006 003c 04       		.byte	0x4
 2007 003d 1D       		.byte	0x1d
 2008 003e 42000000 		.4byte	0x42
 2009 0042 03       		.uleb128 0x3
 2010 0043 01       		.byte	0x1
 2011 0044 08       		.byte	0x8
 2012 0045 E0040000 		.4byte	.LASF3
 2013 0049 02       		.uleb128 0x2
 2014 004a 450F0000 		.4byte	.LASF4
 2015 004e 04       		.byte	0x4
 2016 004f 29       		.byte	0x29
 2017 0050 54000000 		.4byte	0x54
 2018 0054 03       		.uleb128 0x3
 2019 0055 02       		.byte	0x2
 2020 0056 05       		.byte	0x5
 2021 0057 AE100000 		.4byte	.LASF5
 2022 005b 02       		.uleb128 0x2
 2023 005c 1F060000 		.4byte	.LASF6
 2024 0060 04       		.byte	0x4
 2025 0061 2B       		.byte	0x2b
 2026 0062 66000000 		.4byte	0x66
 2027 0066 03       		.uleb128 0x3
ARM GAS  C:\Users\pearlstl\AppData\Local\Temp\ccIMJlIA.s 			page 58


 2028 0067 02       		.byte	0x2
 2029 0068 07       		.byte	0x7
 2030 0069 A1130000 		.4byte	.LASF7
 2031 006d 02       		.uleb128 0x2
 2032 006e 7F140000 		.4byte	.LASF8
 2033 0072 04       		.byte	0x4
 2034 0073 3F       		.byte	0x3f
 2035 0074 78000000 		.4byte	0x78
 2036 0078 03       		.uleb128 0x3
 2037 0079 04       		.byte	0x4
 2038 007a 05       		.byte	0x5
 2039 007b A9030000 		.4byte	.LASF9
 2040 007f 02       		.uleb128 0x2
 2041 0080 130A0000 		.4byte	.LASF10
 2042 0084 04       		.byte	0x4
 2043 0085 41       		.byte	0x41
 2044 0086 8A000000 		.4byte	0x8a
 2045 008a 03       		.uleb128 0x3
 2046 008b 04       		.byte	0x4
 2047 008c 07       		.byte	0x7
 2048 008d F1080000 		.4byte	.LASF11
 2049 0091 03       		.uleb128 0x3
 2050 0092 08       		.byte	0x8
 2051 0093 05       		.byte	0x5
 2052 0094 420A0000 		.4byte	.LASF12
 2053 0098 03       		.uleb128 0x3
 2054 0099 08       		.byte	0x8
 2055 009a 07       		.byte	0x7
 2056 009b 590E0000 		.4byte	.LASF13
 2057 009f 04       		.uleb128 0x4
 2058 00a0 04       		.byte	0x4
 2059 00a1 05       		.byte	0x5
 2060 00a2 696E7400 		.ascii	"int\000"
 2061 00a6 03       		.uleb128 0x3
 2062 00a7 04       		.byte	0x4
 2063 00a8 07       		.byte	0x7
 2064 00a9 340B0000 		.4byte	.LASF14
 2065 00ad 02       		.uleb128 0x2
 2066 00ae 00000000 		.4byte	.LASF15
 2067 00b2 05       		.byte	0x5
 2068 00b3 14       		.byte	0x14
 2069 00b4 25000000 		.4byte	0x25
 2070 00b8 02       		.uleb128 0x2
 2071 00b9 47040000 		.4byte	.LASF16
 2072 00bd 05       		.byte	0x5
 2073 00be 18       		.byte	0x18
 2074 00bf 37000000 		.4byte	0x37
 2075 00c3 02       		.uleb128 0x2
 2076 00c4 E5100000 		.4byte	.LASF17
 2077 00c8 05       		.byte	0x5
 2078 00c9 20       		.byte	0x20
 2079 00ca 49000000 		.4byte	0x49
 2080 00ce 02       		.uleb128 0x2
 2081 00cf 700E0000 		.4byte	.LASF18
 2082 00d3 05       		.byte	0x5
 2083 00d4 24       		.byte	0x24
 2084 00d5 5B000000 		.4byte	0x5b
ARM GAS  C:\Users\pearlstl\AppData\Local\Temp\ccIMJlIA.s 			page 59


 2085 00d9 02       		.uleb128 0x2
 2086 00da A9000000 		.4byte	.LASF19
 2087 00de 05       		.byte	0x5
 2088 00df 2C       		.byte	0x2c
 2089 00e0 6D000000 		.4byte	0x6d
 2090 00e4 02       		.uleb128 0x2
 2091 00e5 ED120000 		.4byte	.LASF20
 2092 00e9 05       		.byte	0x5
 2093 00ea 30       		.byte	0x30
 2094 00eb 7F000000 		.4byte	0x7f
 2095 00ef 02       		.uleb128 0x2
 2096 00f0 FD130000 		.4byte	.LASF21
 2097 00f4 06       		.byte	0x6
 2098 00f5 3A       		.byte	0x3a
 2099 00f6 C3000000 		.4byte	0xc3
 2100 00fa 05       		.uleb128 0x5
 2101 00fb 04       		.byte	0x4
 2102 00fc 03       		.uleb128 0x3
 2103 00fd 08       		.byte	0x8
 2104 00fe 04       		.byte	0x4
 2105 00ff D50C0000 		.4byte	.LASF22
 2106 0103 06       		.uleb128 0x6
 2107 0104 08       		.byte	0x8
 2108 0105 07       		.byte	0x7
 2109 0106 2E       		.byte	0x2e
 2110 0107 54010000 		.4byte	0x154
 2111 010b 07       		.uleb128 0x7
 2112 010c 25000000 		.4byte	.LASF23
 2113 0110 07       		.byte	0x7
 2114 0111 30       		.byte	0x30
 2115 0112 CE000000 		.4byte	0xce
 2116 0116 00       		.byte	0
 2117 0117 07       		.uleb128 0x7
 2118 0118 A8100000 		.4byte	.LASF24
 2119 011c 07       		.byte	0x7
 2120 011d 31       		.byte	0x31
 2121 011e B8000000 		.4byte	0xb8
 2122 0122 02       		.byte	0x2
 2123 0123 07       		.uleb128 0x7
 2124 0124 8C100000 		.4byte	.LASF25
 2125 0128 07       		.byte	0x7
 2126 0129 32       		.byte	0x32
 2127 012a B8000000 		.4byte	0xb8
 2128 012e 03       		.byte	0x3
 2129 012f 07       		.uleb128 0x7
 2130 0130 71050000 		.4byte	.LASF26
 2131 0134 07       		.byte	0x7
 2132 0135 33       		.byte	0x33
 2133 0136 AD000000 		.4byte	0xad
 2134 013a 04       		.byte	0x4
 2135 013b 07       		.uleb128 0x7
 2136 013c 77050000 		.4byte	.LASF27
 2137 0140 07       		.byte	0x7
 2138 0141 34       		.byte	0x34
 2139 0142 AD000000 		.4byte	0xad
 2140 0146 05       		.byte	0x5
 2141 0147 08       		.uleb128 0x8
ARM GAS  C:\Users\pearlstl\AppData\Local\Temp\ccIMJlIA.s 			page 60


 2142 0148 62707000 		.ascii	"bpp\000"
 2143 014c 07       		.byte	0x7
 2144 014d 35       		.byte	0x35
 2145 014e B8000000 		.4byte	0xb8
 2146 0152 06       		.byte	0x6
 2147 0153 00       		.byte	0
 2148 0154 02       		.uleb128 0x2
 2149 0155 F90B0000 		.4byte	.LASF28
 2150 0159 07       		.byte	0x7
 2151 015a 36       		.byte	0x36
 2152 015b 03010000 		.4byte	0x103
 2153 015f 09       		.uleb128 0x9
 2154 0160 08150000 		.4byte	.LASF51
 2155 0164 10       		.byte	0x10
 2156 0165 07       		.byte	0x7
 2157 0166 44       		.byte	0x44
 2158 0167 B7010000 		.4byte	0x1b7
 2159 016b 07       		.uleb128 0x7
 2160 016c 71140000 		.4byte	.LASF29
 2161 0170 07       		.byte	0x7
 2162 0171 47       		.byte	0x47
 2163 0172 ED010000 		.4byte	0x1ed
 2164 0176 00       		.byte	0
 2165 0177 07       		.uleb128 0x7
 2166 0178 81040000 		.4byte	.LASF30
 2167 017c 07       		.byte	0x7
 2168 017d 4A       		.byte	0x4a
 2169 017e 12020000 		.4byte	0x212
 2170 0182 04       		.byte	0x4
 2171 0183 07       		.uleb128 0x7
 2172 0184 1D010000 		.4byte	.LASF31
 2173 0188 07       		.byte	0x7
 2174 0189 4D       		.byte	0x4d
 2175 018a B8000000 		.4byte	0xb8
 2176 018e 08       		.byte	0x8
 2177 018f 07       		.uleb128 0x7
 2178 0190 C1100000 		.4byte	.LASF32
 2179 0194 07       		.byte	0x7
 2180 0195 4E       		.byte	0x4e
 2181 0196 AD000000 		.4byte	0xad
 2182 019a 09       		.byte	0x9
 2183 019b 0A       		.uleb128 0xa
 2184 019c 2A0D0000 		.4byte	.LASF61
 2185 01a0 07       		.byte	0x7
 2186 01a1 4F       		.byte	0x4f
 2187 01a2 B8000000 		.4byte	0xb8
 2188 01a6 01       		.byte	0x1
 2189 01a7 02       		.byte	0x2
 2190 01a8 06       		.byte	0x6
 2191 01a9 0A       		.byte	0xa
 2192 01aa 08       		.uleb128 0x8
 2193 01ab 64736300 		.ascii	"dsc\000"
 2194 01af 07       		.byte	0x7
 2195 01b0 50       		.byte	0x50
 2196 01b1 FA000000 		.4byte	0xfa
 2197 01b5 0C       		.byte	0xc
 2198 01b6 00       		.byte	0
ARM GAS  C:\Users\pearlstl\AppData\Local\Temp\ccIMJlIA.s 			page 61


 2199 01b7 0B       		.uleb128 0xb
 2200 01b8 D5010000 		.4byte	0x1d5
 2201 01bc D5010000 		.4byte	0x1d5
 2202 01c0 0C       		.uleb128 0xc
 2203 01c1 DC010000 		.4byte	0x1dc
 2204 01c5 0C       		.uleb128 0xc
 2205 01c6 E7010000 		.4byte	0x1e7
 2206 01ca 0C       		.uleb128 0xc
 2207 01cb E4000000 		.4byte	0xe4
 2208 01cf 0C       		.uleb128 0xc
 2209 01d0 E4000000 		.4byte	0xe4
 2210 01d4 00       		.byte	0
 2211 01d5 03       		.uleb128 0x3
 2212 01d6 01       		.byte	0x1
 2213 01d7 02       		.byte	0x2
 2214 01d8 9D050000 		.4byte	.LASF33
 2215 01dc 0D       		.uleb128 0xd
 2216 01dd 04       		.byte	0x4
 2217 01de E2010000 		.4byte	0x1e2
 2218 01e2 0E       		.uleb128 0xe
 2219 01e3 5F010000 		.4byte	0x15f
 2220 01e7 0D       		.uleb128 0xd
 2221 01e8 04       		.byte	0x4
 2222 01e9 54010000 		.4byte	0x154
 2223 01ed 0D       		.uleb128 0xd
 2224 01ee 04       		.byte	0x4
 2225 01ef B7010000 		.4byte	0x1b7
 2226 01f3 0B       		.uleb128 0xb
 2227 01f4 07020000 		.4byte	0x207
 2228 01f8 07020000 		.4byte	0x207
 2229 01fc 0C       		.uleb128 0xc
 2230 01fd DC010000 		.4byte	0x1dc
 2231 0201 0C       		.uleb128 0xc
 2232 0202 E4000000 		.4byte	0xe4
 2233 0206 00       		.byte	0
 2234 0207 0D       		.uleb128 0xd
 2235 0208 04       		.byte	0x4
 2236 0209 0D020000 		.4byte	0x20d
 2237 020d 0E       		.uleb128 0xe
 2238 020e B8000000 		.4byte	0xb8
 2239 0212 0D       		.uleb128 0xd
 2240 0213 04       		.byte	0x4
 2241 0214 F3010000 		.4byte	0x1f3
 2242 0218 02       		.uleb128 0x2
 2243 0219 83130000 		.4byte	.LASF34
 2244 021d 07       		.byte	0x7
 2245 021e 56       		.byte	0x56
 2246 021f 5F010000 		.4byte	0x15f
 2247 0223 06       		.uleb128 0x6
 2248 0224 04       		.byte	0x4
 2249 0225 08       		.byte	0x8
 2250 0226 F3       		.byte	0xf3
 2251 0227 5C020000 		.4byte	0x25c
 2252 022b 07       		.uleb128 0x7
 2253 022c 97040000 		.4byte	.LASF35
 2254 0230 08       		.byte	0x8
 2255 0231 F5       		.byte	0xf5
ARM GAS  C:\Users\pearlstl\AppData\Local\Temp\ccIMJlIA.s 			page 62


 2256 0232 B8000000 		.4byte	0xb8
 2257 0236 00       		.byte	0
 2258 0237 07       		.uleb128 0x7
 2259 0238 7D130000 		.4byte	.LASF36
 2260 023c 08       		.byte	0x8
 2261 023d F6       		.byte	0xf6
 2262 023e B8000000 		.4byte	0xb8
 2263 0242 01       		.byte	0x1
 2264 0243 08       		.uleb128 0x8
 2265 0244 72656400 		.ascii	"red\000"
 2266 0248 08       		.byte	0x8
 2267 0249 F7       		.byte	0xf7
 2268 024a B8000000 		.4byte	0xb8
 2269 024e 02       		.byte	0x2
 2270 024f 07       		.uleb128 0x7
 2271 0250 3E030000 		.4byte	.LASF37
 2272 0254 08       		.byte	0x8
 2273 0255 F8       		.byte	0xf8
 2274 0256 B8000000 		.4byte	0xb8
 2275 025a 03       		.byte	0x3
 2276 025b 00       		.byte	0
 2277 025c 0F       		.uleb128 0xf
 2278 025d 04       		.byte	0x4
 2279 025e 08       		.byte	0x8
 2280 025f F1       		.byte	0xf1
 2281 0260 7A020000 		.4byte	0x27a
 2282 0264 10       		.uleb128 0x10
 2283 0265 636800   		.ascii	"ch\000"
 2284 0268 08       		.byte	0x8
 2285 0269 F9       		.byte	0xf9
 2286 026a 23020000 		.4byte	0x223
 2287 026e 11       		.uleb128 0x11
 2288 026f CC0F0000 		.4byte	.LASF38
 2289 0273 08       		.byte	0x8
 2290 0274 FA       		.byte	0xfa
 2291 0275 E4000000 		.4byte	0xe4
 2292 0279 00       		.byte	0
 2293 027a 02       		.uleb128 0x2
 2294 027b 44000000 		.4byte	.LASF39
 2295 027f 08       		.byte	0x8
 2296 0280 FB       		.byte	0xfb
 2297 0281 5C020000 		.4byte	0x25c
 2298 0285 12       		.uleb128 0x12
 2299 0286 A30E0000 		.4byte	.LASF40
 2300 028a 08       		.byte	0x8
 2301 028b 0801     		.2byte	0x108
 2302 028d 7A020000 		.4byte	0x27a
 2303 0291 12       		.uleb128 0x12
 2304 0292 A0000000 		.4byte	.LASF41
 2305 0296 08       		.byte	0x8
 2306 0297 0D01     		.2byte	0x10d
 2307 0299 B8000000 		.4byte	0xb8
 2308 029d 03       		.uleb128 0x3
 2309 029e 04       		.byte	0x4
 2310 029f 07       		.byte	0x7
 2311 02a0 35000000 		.4byte	.LASF42
 2312 02a4 03       		.uleb128 0x3
ARM GAS  C:\Users\pearlstl\AppData\Local\Temp\ccIMJlIA.s 			page 63


 2313 02a5 01       		.byte	0x1
 2314 02a6 08       		.byte	0x8
 2315 02a7 D6050000 		.4byte	.LASF43
 2316 02ab 06       		.uleb128 0x6
 2317 02ac 04       		.byte	0x4
 2318 02ad 09       		.byte	0x9
 2319 02ae 2A       		.byte	0x2a
 2320 02af C8020000 		.4byte	0x2c8
 2321 02b3 08       		.uleb128 0x8
 2322 02b4 7800     		.ascii	"x\000"
 2323 02b6 09       		.byte	0x9
 2324 02b7 2C       		.byte	0x2c
 2325 02b8 EF000000 		.4byte	0xef
 2326 02bc 00       		.byte	0
 2327 02bd 08       		.uleb128 0x8
 2328 02be 7900     		.ascii	"y\000"
 2329 02c0 09       		.byte	0x9
 2330 02c1 2D       		.byte	0x2d
 2331 02c2 EF000000 		.4byte	0xef
 2332 02c6 02       		.byte	0x2
 2333 02c7 00       		.byte	0
 2334 02c8 02       		.uleb128 0x2
 2335 02c9 E2000000 		.4byte	.LASF44
 2336 02cd 09       		.byte	0x9
 2337 02ce 2E       		.byte	0x2e
 2338 02cf AB020000 		.4byte	0x2ab
 2339 02d3 06       		.uleb128 0x6
 2340 02d4 08       		.byte	0x8
 2341 02d5 09       		.byte	0x9
 2342 02d6 31       		.byte	0x31
 2343 02d7 08030000 		.4byte	0x308
 2344 02db 08       		.uleb128 0x8
 2345 02dc 783100   		.ascii	"x1\000"
 2346 02df 09       		.byte	0x9
 2347 02e0 33       		.byte	0x33
 2348 02e1 EF000000 		.4byte	0xef
 2349 02e5 00       		.byte	0
 2350 02e6 08       		.uleb128 0x8
 2351 02e7 793100   		.ascii	"y1\000"
 2352 02ea 09       		.byte	0x9
 2353 02eb 34       		.byte	0x34
 2354 02ec EF000000 		.4byte	0xef
 2355 02f0 02       		.byte	0x2
 2356 02f1 08       		.uleb128 0x8
 2357 02f2 783200   		.ascii	"x2\000"
 2358 02f5 09       		.byte	0x9
 2359 02f6 35       		.byte	0x35
 2360 02f7 EF000000 		.4byte	0xef
 2361 02fb 04       		.byte	0x4
 2362 02fc 08       		.uleb128 0x8
 2363 02fd 793200   		.ascii	"y2\000"
 2364 0300 09       		.byte	0x9
 2365 0301 36       		.byte	0x36
 2366 0302 EF000000 		.4byte	0xef
 2367 0306 06       		.byte	0x6
 2368 0307 00       		.byte	0
 2369 0308 02       		.uleb128 0x2
ARM GAS  C:\Users\pearlstl\AppData\Local\Temp\ccIMJlIA.s 			page 64


 2370 0309 A1070000 		.4byte	.LASF45
 2371 030d 09       		.byte	0x9
 2372 030e 37       		.byte	0x37
 2373 030f D3020000 		.4byte	0x2d3
 2374 0313 13       		.uleb128 0x13
 2375 0314 01       		.byte	0x1
 2376 0315 42000000 		.4byte	0x42
 2377 0319 0A       		.byte	0xa
 2378 031a 23       		.byte	0x23
 2379 031b 2C030000 		.4byte	0x32c
 2380 031f 14       		.uleb128 0x14
 2381 0320 6D040000 		.4byte	.LASF46
 2382 0324 00       		.byte	0
 2383 0325 14       		.uleb128 0x14
 2384 0326 56000000 		.4byte	.LASF47
 2385 032a 01       		.byte	0x1
 2386 032b 00       		.byte	0
 2387 032c 02       		.uleb128 0x2
 2388 032d 6A090000 		.4byte	.LASF48
 2389 0331 0A       		.byte	0xa
 2390 0332 28       		.byte	0x28
 2391 0333 B8000000 		.4byte	0xb8
 2392 0337 02       		.uleb128 0x2
 2393 0338 5B060000 		.4byte	.LASF49
 2394 033c 0A       		.byte	0xa
 2395 033d 2B       		.byte	0x2b
 2396 033e EF000000 		.4byte	0xef
 2397 0342 02       		.uleb128 0x2
 2398 0343 E2050000 		.4byte	.LASF50
 2399 0347 0A       		.byte	0xa
 2400 0348 37       		.byte	0x37
 2401 0349 4D030000 		.4byte	0x34d
 2402 034d 0D       		.uleb128 0xd
 2403 034e 04       		.byte	0x4
 2404 034f 53030000 		.4byte	0x353
 2405 0353 15       		.uleb128 0x15
 2406 0354 63030000 		.4byte	0x363
 2407 0358 0C       		.uleb128 0xc
 2408 0359 FA000000 		.4byte	0xfa
 2409 035d 0C       		.uleb128 0xc
 2410 035e 37030000 		.4byte	0x337
 2411 0362 00       		.byte	0
 2412 0363 0D       		.uleb128 0xd
 2413 0364 04       		.byte	0x4
 2414 0365 69030000 		.4byte	0x369
 2415 0369 09       		.uleb128 0x9
 2416 036a 1E150000 		.4byte	.LASF52
 2417 036e 24       		.byte	0x24
 2418 036f 0A       		.byte	0xa
 2419 0370 44       		.byte	0x44
 2420 0371 2A040000 		.4byte	0x42a
 2421 0375 08       		.uleb128 0x8
 2422 0376 76617200 		.ascii	"var\000"
 2423 037a 0A       		.byte	0xa
 2424 037b 46       		.byte	0x46
 2425 037c FA000000 		.4byte	0xfa
 2426 0380 00       		.byte	0
ARM GAS  C:\Users\pearlstl\AppData\Local\Temp\ccIMJlIA.s 			page 65


 2427 0381 07       		.uleb128 0x7
 2428 0382 F70E0000 		.4byte	.LASF53
 2429 0386 0A       		.byte	0xa
 2430 0387 47       		.byte	0x47
 2431 0388 42030000 		.4byte	0x342
 2432 038c 04       		.byte	0x4
 2433 038d 07       		.uleb128 0x7
 2434 038e 29010000 		.4byte	.LASF54
 2435 0392 0A       		.byte	0xa
 2436 0393 48       		.byte	0x48
 2437 0394 2A040000 		.4byte	0x42a
 2438 0398 08       		.byte	0x8
 2439 0399 07       		.uleb128 0x7
 2440 039a D6060000 		.4byte	.LASF55
 2441 039e 0A       		.byte	0xa
 2442 039f 49       		.byte	0x49
 2443 03a0 55040000 		.4byte	0x455
 2444 03a4 0C       		.byte	0xc
 2445 03a5 07       		.uleb128 0x7
 2446 03a6 3E000000 		.4byte	.LASF56
 2447 03aa 0A       		.byte	0xa
 2448 03ab 4A       		.byte	0x4a
 2449 03ac D9000000 		.4byte	0xd9
 2450 03b0 10       		.byte	0x10
 2451 03b1 08       		.uleb128 0x8
 2452 03b2 656E6400 		.ascii	"end\000"
 2453 03b6 0A       		.byte	0xa
 2454 03b7 4B       		.byte	0x4b
 2455 03b8 D9000000 		.4byte	0xd9
 2456 03bc 14       		.byte	0x14
 2457 03bd 07       		.uleb128 0x7
 2458 03be DE0F0000 		.4byte	.LASF57
 2459 03c2 0A       		.byte	0xa
 2460 03c3 4C       		.byte	0x4c
 2461 03c4 CE000000 		.4byte	0xce
 2462 03c8 18       		.byte	0x18
 2463 03c9 07       		.uleb128 0x7
 2464 03ca 8A120000 		.4byte	.LASF58
 2465 03ce 0A       		.byte	0xa
 2466 03cf 4D       		.byte	0x4d
 2467 03d0 C3000000 		.4byte	0xc3
 2468 03d4 1A       		.byte	0x1a
 2469 03d5 07       		.uleb128 0x7
 2470 03d6 4F130000 		.4byte	.LASF59
 2471 03da 0A       		.byte	0xa
 2472 03db 4E       		.byte	0x4e
 2473 03dc CE000000 		.4byte	0xce
 2474 03e0 1C       		.byte	0x1c
 2475 03e1 07       		.uleb128 0x7
 2476 03e2 89030000 		.4byte	.LASF60
 2477 03e6 0A       		.byte	0xa
 2478 03e7 4F       		.byte	0x4f
 2479 03e8 CE000000 		.4byte	0xce
 2480 03ec 1E       		.byte	0x1e
 2481 03ed 0A       		.uleb128 0xa
 2482 03ee B8100000 		.4byte	.LASF62
 2483 03f2 0A       		.byte	0xa
ARM GAS  C:\Users\pearlstl\AppData\Local\Temp\ccIMJlIA.s 			page 66


 2484 03f3 54       		.byte	0x54
 2485 03f4 B8000000 		.4byte	0xb8
 2486 03f8 01       		.byte	0x1
 2487 03f9 01       		.byte	0x1
 2488 03fa 07       		.byte	0x7
 2489 03fb 20       		.byte	0x20
 2490 03fc 0A       		.uleb128 0xa
 2491 03fd 99000000 		.4byte	.LASF63
 2492 0401 0A       		.byte	0xa
 2493 0402 55       		.byte	0x55
 2494 0403 B8000000 		.4byte	0xb8
 2495 0407 01       		.byte	0x1
 2496 0408 01       		.byte	0x1
 2497 0409 06       		.byte	0x6
 2498 040a 20       		.byte	0x20
 2499 040b 0A       		.uleb128 0xa
 2500 040c 3F140000 		.4byte	.LASF64
 2501 0410 0A       		.byte	0xa
 2502 0411 57       		.byte	0x57
 2503 0412 B8000000 		.4byte	0xb8
 2504 0416 01       		.byte	0x1
 2505 0417 01       		.byte	0x1
 2506 0418 05       		.byte	0x5
 2507 0419 20       		.byte	0x20
 2508 041a 0A       		.uleb128 0xa
 2509 041b 410E0000 		.4byte	.LASF65
 2510 041f 0A       		.byte	0xa
 2511 0420 58       		.byte	0x58
 2512 0421 E4000000 		.4byte	0xe4
 2513 0425 04       		.byte	0x4
 2514 0426 01       		.byte	0x1
 2515 0427 1C       		.byte	0x1c
 2516 0428 20       		.byte	0x20
 2517 0429 00       		.byte	0
 2518 042a 02       		.uleb128 0x2
 2519 042b 550B0000 		.4byte	.LASF66
 2520 042f 0A       		.byte	0xa
 2521 0430 3E       		.byte	0x3e
 2522 0431 35040000 		.4byte	0x435
 2523 0435 0D       		.uleb128 0xd
 2524 0436 04       		.byte	0x4
 2525 0437 3B040000 		.4byte	0x43b
 2526 043b 0B       		.uleb128 0xb
 2527 043c 37030000 		.4byte	0x337
 2528 0440 4A040000 		.4byte	0x44a
 2529 0444 0C       		.uleb128 0xc
 2530 0445 4A040000 		.4byte	0x44a
 2531 0449 00       		.byte	0
 2532 044a 0D       		.uleb128 0xd
 2533 044b 04       		.byte	0x4
 2534 044c 50040000 		.4byte	0x450
 2535 0450 0E       		.uleb128 0xe
 2536 0451 69030000 		.4byte	0x369
 2537 0455 02       		.uleb128 0x2
 2538 0456 F7070000 		.4byte	.LASF67
 2539 045a 0A       		.byte	0xa
 2540 045b 41       		.byte	0x41
ARM GAS  C:\Users\pearlstl\AppData\Local\Temp\ccIMJlIA.s 			page 67


 2541 045c 60040000 		.4byte	0x460
 2542 0460 0D       		.uleb128 0xd
 2543 0461 04       		.byte	0x4
 2544 0462 66040000 		.4byte	0x466
 2545 0466 15       		.uleb128 0x15
 2546 0467 71040000 		.4byte	0x471
 2547 046b 0C       		.uleb128 0xc
 2548 046c 63030000 		.4byte	0x363
 2549 0470 00       		.byte	0
 2550 0471 02       		.uleb128 0x2
 2551 0472 DA080000 		.4byte	.LASF68
 2552 0476 0A       		.byte	0xa
 2553 0477 59       		.byte	0x59
 2554 0478 69030000 		.4byte	0x369
 2555 047c 02       		.uleb128 0x2
 2556 047d 97140000 		.4byte	.LASF69
 2557 0481 0B       		.byte	0xb
 2558 0482 2C       		.byte	0x2c
 2559 0483 B8000000 		.4byte	0xb8
 2560 0487 02       		.uleb128 0x2
 2561 0488 21100000 		.4byte	.LASF70
 2562 048c 0B       		.byte	0xb
 2563 048d 33       		.byte	0x33
 2564 048e B8000000 		.4byte	0xb8
 2565 0492 06       		.uleb128 0x6
 2566 0493 08       		.byte	0x8
 2567 0494 0B       		.byte	0xb
 2568 0495 48       		.byte	0x48
 2569 0496 CB040000 		.4byte	0x4cb
 2570 049a 07       		.uleb128 0x7
 2571 049b D80F0000 		.4byte	.LASF71
 2572 049f 0B       		.byte	0xb
 2573 04a0 4A       		.byte	0x4a
 2574 04a1 85020000 		.4byte	0x285
 2575 04a5 00       		.byte	0
 2576 04a6 07       		.uleb128 0x7
 2577 04a7 500A0000 		.4byte	.LASF72
 2578 04ab 0B       		.byte	0xb
 2579 04ac 4B       		.byte	0x4b
 2580 04ad EF000000 		.4byte	0xef
 2581 04b1 04       		.byte	0x4
 2582 04b2 07       		.uleb128 0x7
 2583 04b3 DA130000 		.4byte	.LASF73
 2584 04b7 0B       		.byte	0xb
 2585 04b8 4C       		.byte	0x4c
 2586 04b9 7C040000 		.4byte	0x47c
 2587 04bd 06       		.byte	0x6
 2588 04be 08       		.uleb128 0x8
 2589 04bf 6F706100 		.ascii	"opa\000"
 2590 04c3 0B       		.byte	0xb
 2591 04c4 4D       		.byte	0x4d
 2592 04c5 91020000 		.4byte	0x291
 2593 04c9 07       		.byte	0x7
 2594 04ca 00       		.byte	0
 2595 04cb 06       		.uleb128 0x6
 2596 04cc 08       		.byte	0x8
 2597 04cd 0B       		.byte	0xb
ARM GAS  C:\Users\pearlstl\AppData\Local\Temp\ccIMJlIA.s 			page 68


 2598 04ce 51       		.byte	0x51
 2599 04cf F8040000 		.4byte	0x4f8
 2600 04d3 07       		.uleb128 0x7
 2601 04d4 D80F0000 		.4byte	.LASF71
 2602 04d8 0B       		.byte	0xb
 2603 04d9 53       		.byte	0x53
 2604 04da 85020000 		.4byte	0x285
 2605 04de 00       		.byte	0
 2606 04df 07       		.uleb128 0x7
 2607 04e0 500A0000 		.4byte	.LASF72
 2608 04e4 0B       		.byte	0xb
 2609 04e5 54       		.byte	0x54
 2610 04e6 EF000000 		.4byte	0xef
 2611 04ea 04       		.byte	0x4
 2612 04eb 07       		.uleb128 0x7
 2613 04ec FB010000 		.4byte	.LASF74
 2614 04f0 0B       		.byte	0xb
 2615 04f1 55       		.byte	0x55
 2616 04f2 87040000 		.4byte	0x487
 2617 04f6 06       		.byte	0x6
 2618 04f7 00       		.byte	0
 2619 04f8 06       		.uleb128 0x6
 2620 04f9 0A       		.byte	0xa
 2621 04fa 0B       		.byte	0xb
 2622 04fb 58       		.byte	0x58
 2623 04fc 3D050000 		.4byte	0x53d
 2624 0500 08       		.uleb128 0x8
 2625 0501 746F7000 		.ascii	"top\000"
 2626 0505 0B       		.byte	0xb
 2627 0506 5A       		.byte	0x5a
 2628 0507 EF000000 		.4byte	0xef
 2629 050b 00       		.byte	0
 2630 050c 07       		.uleb128 0x7
 2631 050d 680A0000 		.4byte	.LASF75
 2632 0511 0B       		.byte	0xb
 2633 0512 5B       		.byte	0x5b
 2634 0513 EF000000 		.4byte	0xef
 2635 0517 02       		.byte	0x2
 2636 0518 07       		.uleb128 0x7
 2637 0519 E7070000 		.4byte	.LASF76
 2638 051d 0B       		.byte	0xb
 2639 051e 5C       		.byte	0x5c
 2640 051f EF000000 		.4byte	0xef
 2641 0523 04       		.byte	0x4
 2642 0524 07       		.uleb128 0x7
 2643 0525 340A0000 		.4byte	.LASF77
 2644 0529 0B       		.byte	0xb
 2645 052a 5D       		.byte	0x5d
 2646 052b EF000000 		.4byte	0xef
 2647 052f 06       		.byte	0x6
 2648 0530 07       		.uleb128 0x7
 2649 0531 A7080000 		.4byte	.LASF78
 2650 0535 0B       		.byte	0xb
 2651 0536 5E       		.byte	0x5e
 2652 0537 EF000000 		.4byte	0xef
 2653 053b 08       		.byte	0x8
 2654 053c 00       		.byte	0
ARM GAS  C:\Users\pearlstl\AppData\Local\Temp\ccIMJlIA.s 			page 69


 2655 053d 06       		.uleb128 0x6
 2656 053e 28       		.byte	0x28
 2657 053f 0B       		.byte	0xb
 2658 0540 41       		.byte	0x41
 2659 0541 9A050000 		.4byte	0x59a
 2660 0545 07       		.uleb128 0x7
 2661 0546 E90D0000 		.4byte	.LASF79
 2662 054a 0B       		.byte	0xb
 2663 054b 43       		.byte	0x43
 2664 054c 85020000 		.4byte	0x285
 2665 0550 00       		.byte	0
 2666 0551 07       		.uleb128 0x7
 2667 0552 120C0000 		.4byte	.LASF80
 2668 0556 0B       		.byte	0xb
 2669 0557 44       		.byte	0x44
 2670 0558 85020000 		.4byte	0x285
 2671 055c 04       		.byte	0x4
 2672 055d 07       		.uleb128 0x7
 2673 055e 09010000 		.4byte	.LASF81
 2674 0562 0B       		.byte	0xb
 2675 0563 45       		.byte	0x45
 2676 0564 EF000000 		.4byte	0xef
 2677 0568 08       		.byte	0x8
 2678 0569 08       		.uleb128 0x8
 2679 056a 6F706100 		.ascii	"opa\000"
 2680 056e 0B       		.byte	0xb
 2681 056f 46       		.byte	0x46
 2682 0570 91020000 		.4byte	0x291
 2683 0574 0A       		.byte	0xa
 2684 0575 07       		.uleb128 0x7
 2685 0576 64140000 		.4byte	.LASF82
 2686 057a 0B       		.byte	0xb
 2687 057b 4E       		.byte	0x4e
 2688 057c 92040000 		.4byte	0x492
 2689 0580 0C       		.byte	0xc
 2690 0581 07       		.uleb128 0x7
 2691 0582 ED110000 		.4byte	.LASF83
 2692 0586 0B       		.byte	0xb
 2693 0587 56       		.byte	0x56
 2694 0588 CB040000 		.4byte	0x4cb
 2695 058c 14       		.byte	0x14
 2696 058d 07       		.uleb128 0x7
 2697 058e CE120000 		.4byte	.LASF84
 2698 0592 0B       		.byte	0xb
 2699 0593 5F       		.byte	0x5f
 2700 0594 F8040000 		.4byte	0x4f8
 2701 0598 1C       		.byte	0x1c
 2702 0599 00       		.byte	0
 2703 059a 06       		.uleb128 0x6
 2704 059b 14       		.byte	0x14
 2705 059c 0B       		.byte	0xb
 2706 059d 63       		.byte	0x63
 2707 059e EB050000 		.4byte	0x5eb
 2708 05a2 07       		.uleb128 0x7
 2709 05a3 D80F0000 		.4byte	.LASF71
 2710 05a7 0B       		.byte	0xb
 2711 05a8 65       		.byte	0x65
ARM GAS  C:\Users\pearlstl\AppData\Local\Temp\ccIMJlIA.s 			page 70


 2712 05a9 85020000 		.4byte	0x285
 2713 05ad 00       		.byte	0
 2714 05ae 07       		.uleb128 0x7
 2715 05af F1140000 		.4byte	.LASF85
 2716 05b3 0B       		.byte	0xb
 2717 05b4 66       		.byte	0x66
 2718 05b5 85020000 		.4byte	0x285
 2719 05b9 04       		.byte	0x4
 2720 05ba 07       		.uleb128 0x7
 2721 05bb 57100000 		.4byte	.LASF86
 2722 05bf 0B       		.byte	0xb
 2723 05c0 67       		.byte	0x67
 2724 05c1 EB050000 		.4byte	0x5eb
 2725 05c5 08       		.byte	0x8
 2726 05c6 07       		.uleb128 0x7
 2727 05c7 5C100000 		.4byte	.LASF87
 2728 05cb 0B       		.byte	0xb
 2729 05cc 68       		.byte	0x68
 2730 05cd EF000000 		.4byte	0xef
 2731 05d1 0C       		.byte	0xc
 2732 05d2 07       		.uleb128 0x7
 2733 05d3 F20F0000 		.4byte	.LASF88
 2734 05d7 0B       		.byte	0xb
 2735 05d8 69       		.byte	0x69
 2736 05d9 EF000000 		.4byte	0xef
 2737 05dd 0E       		.byte	0xe
 2738 05de 08       		.uleb128 0x8
 2739 05df 6F706100 		.ascii	"opa\000"
 2740 05e3 0B       		.byte	0xb
 2741 05e4 6A       		.byte	0x6a
 2742 05e5 91020000 		.4byte	0x291
 2743 05e9 10       		.byte	0x10
 2744 05ea 00       		.byte	0
 2745 05eb 0D       		.uleb128 0xd
 2746 05ec 04       		.byte	0x4
 2747 05ed F1050000 		.4byte	0x5f1
 2748 05f1 0E       		.uleb128 0xe
 2749 05f2 18020000 		.4byte	0x218
 2750 05f6 06       		.uleb128 0x6
 2751 05f7 08       		.byte	0x8
 2752 05f8 0B       		.byte	0xb
 2753 05f9 6E       		.byte	0x6e
 2754 05fa 23060000 		.4byte	0x623
 2755 05fe 07       		.uleb128 0x7
 2756 05ff D80F0000 		.4byte	.LASF71
 2757 0603 0B       		.byte	0xb
 2758 0604 70       		.byte	0x70
 2759 0605 85020000 		.4byte	0x285
 2760 0609 00       		.byte	0
 2761 060a 07       		.uleb128 0x7
 2762 060b B1000000 		.4byte	.LASF89
 2763 060f 0B       		.byte	0xb
 2764 0610 71       		.byte	0x71
 2765 0611 91020000 		.4byte	0x291
 2766 0615 04       		.byte	0x4
 2767 0616 08       		.uleb128 0x8
 2768 0617 6F706100 		.ascii	"opa\000"
ARM GAS  C:\Users\pearlstl\AppData\Local\Temp\ccIMJlIA.s 			page 71


 2769 061b 0B       		.byte	0xb
 2770 061c 72       		.byte	0x72
 2771 061d 91020000 		.4byte	0x291
 2772 0621 05       		.byte	0x5
 2773 0622 00       		.byte	0
 2774 0623 06       		.uleb128 0x6
 2775 0624 08       		.byte	0x8
 2776 0625 0B       		.byte	0xb
 2777 0626 76       		.byte	0x76
 2778 0627 5F060000 		.4byte	0x65f
 2779 062b 07       		.uleb128 0x7
 2780 062c D80F0000 		.4byte	.LASF71
 2781 0630 0B       		.byte	0xb
 2782 0631 78       		.byte	0x78
 2783 0632 85020000 		.4byte	0x285
 2784 0636 00       		.byte	0
 2785 0637 07       		.uleb128 0x7
 2786 0638 500A0000 		.4byte	.LASF72
 2787 063c 0B       		.byte	0xb
 2788 063d 79       		.byte	0x79
 2789 063e EF000000 		.4byte	0xef
 2790 0642 04       		.byte	0x4
 2791 0643 08       		.uleb128 0x8
 2792 0644 6F706100 		.ascii	"opa\000"
 2793 0648 0B       		.byte	0xb
 2794 0649 7A       		.byte	0x7a
 2795 064a 91020000 		.4byte	0x291
 2796 064e 06       		.byte	0x6
 2797 064f 0A       		.uleb128 0xa
 2798 0650 29070000 		.4byte	.LASF90
 2799 0654 0B       		.byte	0xb
 2800 0655 7B       		.byte	0x7b
 2801 0656 B8000000 		.4byte	0xb8
 2802 065a 01       		.byte	0x1
 2803 065b 01       		.byte	0x1
 2804 065c 07       		.byte	0x7
 2805 065d 07       		.byte	0x7
 2806 065e 00       		.byte	0
 2807 065f 06       		.uleb128 0x6
 2808 0660 50       		.byte	0x50
 2809 0661 0B       		.byte	0xb
 2810 0662 3C       		.byte	0x3c
 2811 0663 A7060000 		.4byte	0x6a7
 2812 0667 0A       		.uleb128 0xa
 2813 0668 0A0B0000 		.4byte	.LASF91
 2814 066c 0B       		.byte	0xb
 2815 066d 3E       		.byte	0x3e
 2816 066e B8000000 		.4byte	0xb8
 2817 0672 01       		.byte	0x1
 2818 0673 01       		.byte	0x1
 2819 0674 07       		.byte	0x7
 2820 0675 00       		.byte	0
 2821 0676 07       		.uleb128 0x7
 2822 0677 F5050000 		.4byte	.LASF92
 2823 067b 0B       		.byte	0xb
 2824 067c 60       		.byte	0x60
 2825 067d 3D050000 		.4byte	0x53d
ARM GAS  C:\Users\pearlstl\AppData\Local\Temp\ccIMJlIA.s 			page 72


 2826 0681 04       		.byte	0x4
 2827 0682 07       		.uleb128 0x7
 2828 0683 DF060000 		.4byte	.LASF93
 2829 0687 0B       		.byte	0xb
 2830 0688 6B       		.byte	0x6b
 2831 0689 9A050000 		.4byte	0x59a
 2832 068d 2C       		.byte	0x2c
 2833 068e 07       		.uleb128 0x7
 2834 068f 23070000 		.4byte	.LASF94
 2835 0693 0B       		.byte	0xb
 2836 0694 73       		.byte	0x73
 2837 0695 F6050000 		.4byte	0x5f6
 2838 0699 40       		.byte	0x40
 2839 069a 07       		.uleb128 0x7
 2840 069b 3D090000 		.4byte	.LASF95
 2841 069f 0B       		.byte	0xb
 2842 06a0 7C       		.byte	0x7c
 2843 06a1 23060000 		.4byte	0x623
 2844 06a5 48       		.byte	0x48
 2845 06a6 00       		.byte	0
 2846 06a7 02       		.uleb128 0x2
 2847 06a8 9C080000 		.4byte	.LASF96
 2848 06ac 0B       		.byte	0xb
 2849 06ad 84       		.byte	0x84
 2850 06ae 5F060000 		.4byte	0x65f
 2851 06b2 0D       		.uleb128 0xd
 2852 06b3 04       		.byte	0x4
 2853 06b4 A7060000 		.4byte	0x6a7
 2854 06b8 13       		.uleb128 0x13
 2855 06b9 01       		.byte	0x1
 2856 06ba 42000000 		.4byte	0x42
 2857 06be 0C       		.byte	0xc
 2858 06bf 27       		.byte	0x27
 2859 06c0 D1060000 		.4byte	0x6d1
 2860 06c4 14       		.uleb128 0x14
 2861 06c5 B7010000 		.4byte	.LASF97
 2862 06c9 00       		.byte	0
 2863 06ca 14       		.uleb128 0x14
 2864 06cb 790E0000 		.4byte	.LASF98
 2865 06cf 01       		.byte	0x1
 2866 06d0 00       		.byte	0
 2867 06d1 02       		.uleb128 0x2
 2868 06d2 9B0C0000 		.4byte	.LASF99
 2869 06d6 0C       		.byte	0xc
 2870 06d7 2C       		.byte	0x2c
 2871 06d8 B8000000 		.4byte	0xb8
 2872 06dc 02       		.uleb128 0x2
 2873 06dd 18000000 		.4byte	.LASF100
 2874 06e1 0D       		.byte	0xd
 2875 06e2 1E       		.byte	0x1e
 2876 06e3 B8000000 		.4byte	0xb8
 2877 06e7 06       		.uleb128 0x6
 2878 06e8 0C       		.byte	0xc
 2879 06e9 0D       		.byte	0xd
 2880 06ea 21       		.byte	0x21
 2881 06eb 14070000 		.4byte	0x714
 2882 06ef 07       		.uleb128 0x7
ARM GAS  C:\Users\pearlstl\AppData\Local\Temp\ccIMJlIA.s 			page 73


 2883 06f0 2F150000 		.4byte	.LASF101
 2884 06f4 0D       		.byte	0xd
 2885 06f5 23       		.byte	0x23
 2886 06f6 E4000000 		.4byte	0xe4
 2887 06fa 00       		.byte	0
 2888 06fb 07       		.uleb128 0x7
 2889 06fc E5030000 		.4byte	.LASF102
 2890 0700 0D       		.byte	0xd
 2891 0701 24       		.byte	0x24
 2892 0702 14070000 		.4byte	0x714
 2893 0706 04       		.byte	0x4
 2894 0707 07       		.uleb128 0x7
 2895 0708 78000000 		.4byte	.LASF103
 2896 070c 0D       		.byte	0xd
 2897 070d 25       		.byte	0x25
 2898 070e 14070000 		.4byte	0x714
 2899 0712 08       		.byte	0x8
 2900 0713 00       		.byte	0
 2901 0714 0D       		.uleb128 0xd
 2902 0715 04       		.byte	0x4
 2903 0716 DC060000 		.4byte	0x6dc
 2904 071a 02       		.uleb128 0x2
 2905 071b D1100000 		.4byte	.LASF104
 2906 071f 0D       		.byte	0xd
 2907 0720 26       		.byte	0x26
 2908 0721 E7060000 		.4byte	0x6e7
 2909 0725 02       		.uleb128 0x2
 2910 0726 72070000 		.4byte	.LASF105
 2911 072a 0E       		.byte	0xe
 2912 072b 30       		.byte	0x30
 2913 072c B8000000 		.4byte	0xb8
 2914 0730 02       		.uleb128 0x2
 2915 0731 FB140000 		.4byte	.LASF106
 2916 0735 0F       		.byte	0xf
 2917 0736 2B       		.byte	0x2b
 2918 0737 3B070000 		.4byte	0x73b
 2919 073b 0D       		.uleb128 0xd
 2920 073c 04       		.byte	0x4
 2921 073d 41070000 		.4byte	0x741
 2922 0741 15       		.uleb128 0x15
 2923 0742 4C070000 		.4byte	0x74c
 2924 0746 0C       		.uleb128 0xc
 2925 0747 4C070000 		.4byte	0x74c
 2926 074b 00       		.byte	0
 2927 074c 0D       		.uleb128 0xd
 2928 074d 04       		.byte	0x4
 2929 074e 52070000 		.4byte	0x752
 2930 0752 09       		.uleb128 0x9
 2931 0753 14060000 		.4byte	.LASF107
 2932 0757 14       		.byte	0x14
 2933 0758 0F       		.byte	0xf
 2934 0759 3E       		.byte	0x3e
 2935 075a AD070000 		.4byte	0x7ad
 2936 075e 07       		.uleb128 0x7
 2937 075f 260F0000 		.4byte	.LASF108
 2938 0763 0F       		.byte	0xf
 2939 0764 40       		.byte	0x40
ARM GAS  C:\Users\pearlstl\AppData\Local\Temp\ccIMJlIA.s 			page 74


 2940 0765 E4000000 		.4byte	0xe4
 2941 0769 00       		.byte	0
 2942 076a 07       		.uleb128 0x7
 2943 076b 830E0000 		.4byte	.LASF109
 2944 076f 0F       		.byte	0xf
 2945 0770 41       		.byte	0x41
 2946 0771 E4000000 		.4byte	0xe4
 2947 0775 04       		.byte	0x4
 2948 0776 07       		.uleb128 0x7
 2949 0777 4C050000 		.4byte	.LASF110
 2950 077b 0F       		.byte	0xf
 2951 077c 42       		.byte	0x42
 2952 077d 30070000 		.4byte	0x730
 2953 0781 08       		.byte	0x8
 2954 0782 07       		.uleb128 0x7
 2955 0783 21140000 		.4byte	.LASF111
 2956 0787 0F       		.byte	0xf
 2957 0788 44       		.byte	0x44
 2958 0789 FA000000 		.4byte	0xfa
 2959 078d 0C       		.byte	0xc
 2960 078e 0A       		.uleb128 0xa
 2961 078f 14030000 		.4byte	.LASF112
 2962 0793 0F       		.byte	0xf
 2963 0794 46       		.byte	0x46
 2964 0795 B8000000 		.4byte	0xb8
 2965 0799 01       		.byte	0x1
 2966 079a 03       		.byte	0x3
 2967 079b 05       		.byte	0x5
 2968 079c 10       		.byte	0x10
 2969 079d 0A       		.uleb128 0xa
 2970 079e E40B0000 		.4byte	.LASF113
 2971 07a2 0F       		.byte	0xf
 2972 07a3 47       		.byte	0x47
 2973 07a4 B8000000 		.4byte	0xb8
 2974 07a8 01       		.byte	0x1
 2975 07a9 01       		.byte	0x1
 2976 07aa 04       		.byte	0x4
 2977 07ab 10       		.byte	0x10
 2978 07ac 00       		.byte	0
 2979 07ad 02       		.uleb128 0x2
 2980 07ae CF0E0000 		.4byte	.LASF114
 2981 07b2 0F       		.byte	0xf
 2982 07b3 48       		.byte	0x48
 2983 07b4 52070000 		.4byte	0x752
 2984 07b8 06       		.uleb128 0x6
 2985 07b9 1C       		.byte	0x1c
 2986 07ba 10       		.byte	0x10
 2987 07bb 2F       		.byte	0x2f
 2988 07bc 0C080000 		.4byte	0x80c
 2989 07c0 07       		.uleb128 0x7
 2990 07c1 860A0000 		.4byte	.LASF115
 2991 07c5 10       		.byte	0x10
 2992 07c6 31       		.byte	0x31
 2993 07c7 FA000000 		.4byte	0xfa
 2994 07cb 00       		.byte	0
 2995 07cc 07       		.uleb128 0x7
 2996 07cd 8B0A0000 		.4byte	.LASF116
ARM GAS  C:\Users\pearlstl\AppData\Local\Temp\ccIMJlIA.s 			page 75


 2997 07d1 10       		.byte	0x10
 2998 07d2 32       		.byte	0x32
 2999 07d3 FA000000 		.4byte	0xfa
 3000 07d7 04       		.byte	0x4
 3001 07d8 07       		.uleb128 0x7
 3002 07d9 BE0C0000 		.4byte	.LASF117
 3003 07dd 10       		.byte	0x10
 3004 07de 35       		.byte	0x35
 3005 07df FA000000 		.4byte	0xfa
 3006 07e3 08       		.byte	0x8
 3007 07e4 07       		.uleb128 0x7
 3008 07e5 E10C0000 		.4byte	.LASF118
 3009 07e9 10       		.byte	0x10
 3010 07ea 36       		.byte	0x36
 3011 07eb E4000000 		.4byte	0xe4
 3012 07ef 0C       		.byte	0xc
 3013 07f0 07       		.uleb128 0x7
 3014 07f1 77080000 		.4byte	.LASF119
 3015 07f5 10       		.byte	0x10
 3016 07f6 37       		.byte	0x37
 3017 07f7 08030000 		.4byte	0x308
 3018 07fb 10       		.byte	0x10
 3019 07fc 0A       		.uleb128 0xa
 3020 07fd 8E060000 		.4byte	.LASF120
 3021 0801 10       		.byte	0x10
 3022 0802 38       		.byte	0x38
 3023 0803 0C080000 		.4byte	0x80c
 3024 0807 04       		.byte	0x4
 3025 0808 01       		.byte	0x1
 3026 0809 1F       		.byte	0x1f
 3027 080a 18       		.byte	0x18
 3028 080b 00       		.byte	0
 3029 080c 16       		.uleb128 0x16
 3030 080d E4000000 		.4byte	0xe4
 3031 0811 02       		.uleb128 0x2
 3032 0812 E5090000 		.4byte	.LASF121
 3033 0816 10       		.byte	0x10
 3034 0817 39       		.byte	0x39
 3035 0818 B8070000 		.4byte	0x7b8
 3036 081c 09       		.uleb128 0x9
 3037 081d 7B090000 		.4byte	.LASF122
 3038 0821 20       		.byte	0x20
 3039 0822 10       		.byte	0x10
 3040 0823 3E       		.byte	0x3e
 3041 0824 98080000 		.4byte	0x898
 3042 0828 07       		.uleb128 0x7
 3043 0829 4F040000 		.4byte	.LASF123
 3044 082d 10       		.byte	0x10
 3045 082e 41       		.byte	0x41
 3046 082f EF000000 		.4byte	0xef
 3047 0833 00       		.byte	0
 3048 0834 07       		.uleb128 0x7
 3049 0835 44030000 		.4byte	.LASF124
 3050 0839 10       		.byte	0x10
 3051 083a 42       		.byte	0x42
 3052 083b EF000000 		.4byte	0xef
 3053 083f 02       		.byte	0x2
ARM GAS  C:\Users\pearlstl\AppData\Local\Temp\ccIMJlIA.s 			page 76


 3054 0840 07       		.uleb128 0x7
 3055 0841 AB070000 		.4byte	.LASF125
 3056 0845 10       		.byte	0x10
 3057 0846 46       		.byte	0x46
 3058 0847 98080000 		.4byte	0x898
 3059 084b 04       		.byte	0x4
 3060 084c 0A       		.uleb128 0xa
 3061 084d BC030000 		.4byte	.LASF126
 3062 0851 10       		.byte	0x10
 3063 0852 4B       		.byte	0x4b
 3064 0853 E4000000 		.4byte	0xe4
 3065 0857 04       		.byte	0x4
 3066 0858 01       		.byte	0x1
 3067 0859 1F       		.byte	0x1f
 3068 085a 08       		.byte	0x8
 3069 085b 07       		.uleb128 0x7
 3070 085c 18140000 		.4byte	.LASF127
 3071 0860 10       		.byte	0x10
 3072 0861 55       		.byte	0x55
 3073 0862 CA080000 		.4byte	0x8ca
 3074 0866 0C       		.byte	0xc
 3075 0867 07       		.uleb128 0x7
 3076 0868 2D0F0000 		.4byte	.LASF128
 3077 086c 10       		.byte	0x10
 3078 086d 59       		.byte	0x59
 3079 086e E6080000 		.4byte	0x8e6
 3080 0872 10       		.byte	0x10
 3081 0873 07       		.uleb128 0x7
 3082 0874 31040000 		.4byte	.LASF129
 3083 0878 10       		.byte	0x10
 3084 0879 5E       		.byte	0x5e
 3085 087a 1B090000 		.4byte	0x91b
 3086 087e 14       		.byte	0x14
 3087 087f 07       		.uleb128 0x7
 3088 0880 96130000 		.4byte	.LASF130
 3089 0884 10       		.byte	0x10
 3090 0885 63       		.byte	0x63
 3091 0886 36090000 		.4byte	0x936
 3092 088a 18       		.byte	0x18
 3093 088b 07       		.uleb128 0x7
 3094 088c 07000000 		.4byte	.LASF131
 3095 0890 10       		.byte	0x10
 3096 0891 71       		.byte	0x71
 3097 0892 85020000 		.4byte	0x285
 3098 0896 1C       		.byte	0x1c
 3099 0897 00       		.byte	0
 3100 0898 0D       		.uleb128 0xd
 3101 0899 04       		.byte	0x4
 3102 089a 11080000 		.4byte	0x811
 3103 089e 15       		.uleb128 0x15
 3104 089f B3080000 		.4byte	0x8b3
 3105 08a3 0C       		.uleb128 0xc
 3106 08a4 B3080000 		.4byte	0x8b3
 3107 08a8 0C       		.uleb128 0xc
 3108 08a9 B9080000 		.4byte	0x8b9
 3109 08ad 0C       		.uleb128 0xc
 3110 08ae C4080000 		.4byte	0x8c4
ARM GAS  C:\Users\pearlstl\AppData\Local\Temp\ccIMJlIA.s 			page 77


 3111 08b2 00       		.byte	0
 3112 08b3 0D       		.uleb128 0xd
 3113 08b4 04       		.byte	0x4
 3114 08b5 1C080000 		.4byte	0x81c
 3115 08b9 0D       		.uleb128 0xd
 3116 08ba 04       		.byte	0x4
 3117 08bb BF080000 		.4byte	0x8bf
 3118 08bf 0E       		.uleb128 0xe
 3119 08c0 08030000 		.4byte	0x308
 3120 08c4 0D       		.uleb128 0xd
 3121 08c5 04       		.byte	0x4
 3122 08c6 85020000 		.4byte	0x285
 3123 08ca 0D       		.uleb128 0xd
 3124 08cb 04       		.byte	0x4
 3125 08cc 9E080000 		.4byte	0x89e
 3126 08d0 15       		.uleb128 0x15
 3127 08d1 E0080000 		.4byte	0x8e0
 3128 08d5 0C       		.uleb128 0xc
 3129 08d6 B3080000 		.4byte	0x8b3
 3130 08da 0C       		.uleb128 0xc
 3131 08db E0080000 		.4byte	0x8e0
 3132 08df 00       		.byte	0
 3133 08e0 0D       		.uleb128 0xd
 3134 08e1 04       		.byte	0x4
 3135 08e2 08030000 		.4byte	0x308
 3136 08e6 0D       		.uleb128 0xd
 3137 08e7 04       		.byte	0x4
 3138 08e8 D0080000 		.4byte	0x8d0
 3139 08ec 15       		.uleb128 0x15
 3140 08ed 15090000 		.4byte	0x915
 3141 08f1 0C       		.uleb128 0xc
 3142 08f2 B3080000 		.4byte	0x8b3
 3143 08f6 0C       		.uleb128 0xc
 3144 08f7 15090000 		.4byte	0x915
 3145 08fb 0C       		.uleb128 0xc
 3146 08fc EF000000 		.4byte	0xef
 3147 0900 0C       		.uleb128 0xc
 3148 0901 EF000000 		.4byte	0xef
 3149 0905 0C       		.uleb128 0xc
 3150 0906 EF000000 		.4byte	0xef
 3151 090a 0C       		.uleb128 0xc
 3152 090b 85020000 		.4byte	0x285
 3153 090f 0C       		.uleb128 0xc
 3154 0910 91020000 		.4byte	0x291
 3155 0914 00       		.byte	0
 3156 0915 0D       		.uleb128 0xd
 3157 0916 04       		.byte	0x4
 3158 0917 B8000000 		.4byte	0xb8
 3159 091b 0D       		.uleb128 0xd
 3160 091c 04       		.byte	0x4
 3161 091d EC080000 		.4byte	0x8ec
 3162 0921 15       		.uleb128 0x15
 3163 0922 36090000 		.4byte	0x936
 3164 0926 0C       		.uleb128 0xc
 3165 0927 B3080000 		.4byte	0x8b3
 3166 092b 0C       		.uleb128 0xc
 3167 092c E4000000 		.4byte	0xe4
ARM GAS  C:\Users\pearlstl\AppData\Local\Temp\ccIMJlIA.s 			page 78


 3168 0930 0C       		.uleb128 0xc
 3169 0931 E4000000 		.4byte	0xe4
 3170 0935 00       		.byte	0
 3171 0936 0D       		.uleb128 0xd
 3172 0937 04       		.byte	0x4
 3173 0938 21090000 		.4byte	0x921
 3174 093c 02       		.uleb128 0x2
 3175 093d 9E120000 		.4byte	.LASF132
 3176 0941 10       		.byte	0x10
 3177 0942 77       		.byte	0x77
 3178 0943 1C080000 		.4byte	0x81c
 3179 0947 17       		.uleb128 0x17
 3180 0948 3D0C0000 		.4byte	.LASF133
 3181 094c 6401     		.2byte	0x164
 3182 094e 10       		.byte	0x10
 3183 094f 7F       		.byte	0x7f
 3184 0950 D3090000 		.4byte	0x9d3
 3185 0954 07       		.uleb128 0x7
 3186 0955 69100000 		.4byte	.LASF134
 3187 0959 10       		.byte	0x10
 3188 095a 82       		.byte	0x82
 3189 095b 3C090000 		.4byte	0x93c
 3190 095f 00       		.byte	0
 3191 0960 07       		.uleb128 0x7
 3192 0961 B2030000 		.4byte	.LASF135
 3193 0965 10       		.byte	0x10
 3194 0966 85       		.byte	0x85
 3195 0967 D3090000 		.4byte	0x9d3
 3196 096b 20       		.byte	0x20
 3197 096c 07       		.uleb128 0x7
 3198 096d 19030000 		.4byte	.LASF136
 3199 0971 10       		.byte	0x10
 3200 0972 88       		.byte	0x88
 3201 0973 1A070000 		.4byte	0x71a
 3202 0977 24       		.byte	0x24
 3203 0978 07       		.uleb128 0x7
 3204 0979 91000000 		.4byte	.LASF137
 3205 097d 10       		.byte	0x10
 3206 097e 89       		.byte	0x89
 3207 097f 1B0B0000 		.4byte	0xb1b
 3208 0983 30       		.byte	0x30
 3209 0984 07       		.uleb128 0x7
 3210 0985 EE040000 		.4byte	.LASF138
 3211 0989 10       		.byte	0x10
 3212 098a 8A       		.byte	0x8a
 3213 098b 1B0B0000 		.4byte	0xb1b
 3214 098f 34       		.byte	0x34
 3215 0990 07       		.uleb128 0x7
 3216 0991 A6110000 		.4byte	.LASF139
 3217 0995 10       		.byte	0x10
 3218 0996 8B       		.byte	0x8b
 3219 0997 1B0B0000 		.4byte	0xb1b
 3220 099b 38       		.byte	0x38
 3221 099c 07       		.uleb128 0x7
 3222 099d CD0B0000 		.4byte	.LASF140
 3223 09a1 10       		.byte	0x10
 3224 09a2 8E       		.byte	0x8e
ARM GAS  C:\Users\pearlstl\AppData\Local\Temp\ccIMJlIA.s 			page 79


 3225 09a3 210B0000 		.4byte	0xb21
 3226 09a7 3C       		.byte	0x3c
 3227 09a8 18       		.uleb128 0x18
 3228 09a9 B8050000 		.4byte	.LASF141
 3229 09ad 10       		.byte	0x10
 3230 09ae 8F       		.byte	0x8f
 3231 09af 310B0000 		.4byte	0xb31
 3232 09b3 3C01     		.2byte	0x13c
 3233 09b5 19       		.uleb128 0x19
 3234 09b6 CB100000 		.4byte	.LASF142
 3235 09ba 10       		.byte	0x10
 3236 09bb 90       		.byte	0x90
 3237 09bc E4000000 		.4byte	0xe4
 3238 09c0 04       		.byte	0x4
 3239 09c1 0A       		.byte	0xa
 3240 09c2 16       		.byte	0x16
 3241 09c3 5C01     		.2byte	0x15c
 3242 09c5 18       		.uleb128 0x18
 3243 09c6 96030000 		.4byte	.LASF143
 3244 09ca 10       		.byte	0x10
 3245 09cb 93       		.byte	0x93
 3246 09cc E4000000 		.4byte	0xe4
 3247 09d0 6001     		.2byte	0x160
 3248 09d2 00       		.byte	0
 3249 09d3 0D       		.uleb128 0xd
 3250 09d4 04       		.byte	0x4
 3251 09d5 AD070000 		.4byte	0x7ad
 3252 09d9 09       		.uleb128 0x9
 3253 09da 4D100000 		.4byte	.LASF144
 3254 09de 40       		.byte	0x40
 3255 09df 11       		.byte	0x11
 3256 09e0 BB       		.byte	0xbb
 3257 09e1 1B0B0000 		.4byte	0xb1b
 3258 09e5 08       		.uleb128 0x8
 3259 09e6 70617200 		.ascii	"par\000"
 3260 09ea 11       		.byte	0x11
 3261 09eb BD       		.byte	0xbd
 3262 09ec 1B0B0000 		.4byte	0xb1b
 3263 09f0 00       		.byte	0
 3264 09f1 07       		.uleb128 0x7
 3265 09f2 6F0A0000 		.4byte	.LASF145
 3266 09f6 11       		.byte	0x11
 3267 09f7 BE       		.byte	0xbe
 3268 09f8 1A070000 		.4byte	0x71a
 3269 09fc 04       		.byte	0x4
 3270 09fd 07       		.uleb128 0x7
 3271 09fe 99110000 		.4byte	.LASF146
 3272 0a02 11       		.byte	0x11
 3273 0a03 C0       		.byte	0xc0
 3274 0a04 08030000 		.4byte	0x308
 3275 0a08 10       		.byte	0x10
 3276 0a09 07       		.uleb128 0x7
 3277 0a0a 1E0A0000 		.4byte	.LASF147
 3278 0a0e 11       		.byte	0x11
 3279 0a0f C2       		.byte	0xc2
 3280 0a10 E70E0000 		.4byte	0xee7
 3281 0a14 18       		.byte	0x18
ARM GAS  C:\Users\pearlstl\AppData\Local\Temp\ccIMJlIA.s 			page 80


 3282 0a15 07       		.uleb128 0x7
 3283 0a16 E3120000 		.4byte	.LASF148
 3284 0a1a 11       		.byte	0x11
 3285 0a1b C3       		.byte	0xc3
 3286 0a1c 980F0000 		.4byte	0xf98
 3287 0a20 1C       		.byte	0x1c
 3288 0a21 07       		.uleb128 0x7
 3289 0a22 84060000 		.4byte	.LASF149
 3290 0a26 11       		.byte	0x11
 3291 0a27 C4       		.byte	0xc4
 3292 0a28 2D0E0000 		.4byte	0xe2d
 3293 0a2c 20       		.byte	0x20
 3294 0a2d 07       		.uleb128 0x7
 3295 0a2e F10C0000 		.4byte	.LASF150
 3296 0a32 11       		.byte	0x11
 3297 0a33 C6       		.byte	0xc6
 3298 0a34 FA000000 		.4byte	0xfa
 3299 0a38 24       		.byte	0x24
 3300 0a39 07       		.uleb128 0x7
 3301 0a3a 3A0A0000 		.4byte	.LASF151
 3302 0a3e 11       		.byte	0x11
 3303 0a3f C7       		.byte	0xc7
 3304 0a40 45100000 		.4byte	0x1045
 3305 0a44 28       		.byte	0x28
 3306 0a45 0A       		.uleb128 0xa
 3307 0a46 31010000 		.4byte	.LASF152
 3308 0a4a 11       		.byte	0x11
 3309 0a4b D7       		.byte	0xd7
 3310 0a4c B8000000 		.4byte	0xb8
 3311 0a50 01       		.byte	0x1
 3312 0a51 01       		.byte	0x1
 3313 0a52 07       		.byte	0x7
 3314 0a53 2C       		.byte	0x2c
 3315 0a54 0A       		.uleb128 0xa
 3316 0a55 32100000 		.4byte	.LASF153
 3317 0a59 11       		.byte	0x11
 3318 0a5a D8       		.byte	0xd8
 3319 0a5b B8000000 		.4byte	0xb8
 3320 0a5f 01       		.byte	0x1
 3321 0a60 01       		.byte	0x1
 3322 0a61 06       		.byte	0x6
 3323 0a62 2C       		.byte	0x2c
 3324 0a63 0A       		.uleb128 0xa
 3325 0a64 31070000 		.4byte	.LASF154
 3326 0a68 11       		.byte	0x11
 3327 0a69 D9       		.byte	0xd9
 3328 0a6a B8000000 		.4byte	0xb8
 3329 0a6e 01       		.byte	0x1
 3330 0a6f 01       		.byte	0x1
 3331 0a70 05       		.byte	0x5
 3332 0a71 2C       		.byte	0x2c
 3333 0a72 0A       		.uleb128 0xa
 3334 0a73 32120000 		.4byte	.LASF155
 3335 0a77 11       		.byte	0x11
 3336 0a78 DA       		.byte	0xda
 3337 0a79 B8000000 		.4byte	0xb8
 3338 0a7d 01       		.byte	0x1
ARM GAS  C:\Users\pearlstl\AppData\Local\Temp\ccIMJlIA.s 			page 81


 3339 0a7e 01       		.byte	0x1
 3340 0a7f 04       		.byte	0x4
 3341 0a80 2C       		.byte	0x2c
 3342 0a81 0A       		.uleb128 0xa
 3343 0a82 82030000 		.4byte	.LASF156
 3344 0a86 11       		.byte	0x11
 3345 0a87 DB       		.byte	0xdb
 3346 0a88 B8000000 		.4byte	0xb8
 3347 0a8c 01       		.byte	0x1
 3348 0a8d 01       		.byte	0x1
 3349 0a8e 03       		.byte	0x3
 3350 0a8f 2C       		.byte	0x2c
 3351 0a90 1A       		.uleb128 0x1a
 3352 0a91 746F7000 		.ascii	"top\000"
 3353 0a95 11       		.byte	0x11
 3354 0a96 DC       		.byte	0xdc
 3355 0a97 B8000000 		.4byte	0xb8
 3356 0a9b 01       		.byte	0x1
 3357 0a9c 01       		.byte	0x1
 3358 0a9d 02       		.byte	0x2
 3359 0a9e 2C       		.byte	0x2c
 3360 0a9f 0A       		.uleb128 0xa
 3361 0aa0 B8110000 		.4byte	.LASF157
 3362 0aa4 11       		.byte	0x11
 3363 0aa5 DD       		.byte	0xdd
 3364 0aa6 B8000000 		.4byte	0xb8
 3365 0aaa 01       		.byte	0x1
 3366 0aab 01       		.byte	0x1
 3367 0aac 01       		.byte	0x1
 3368 0aad 2C       		.byte	0x2c
 3369 0aae 0A       		.uleb128 0xa
 3370 0aaf D20A0000 		.4byte	.LASF158
 3371 0ab3 11       		.byte	0x11
 3372 0ab4 DE       		.byte	0xde
 3373 0ab5 B8000000 		.4byte	0xb8
 3374 0ab9 01       		.byte	0x1
 3375 0aba 01       		.byte	0x1
 3376 0abb 00       		.byte	0
 3377 0abc 2C       		.byte	0x2c
 3378 0abd 0A       		.uleb128 0xa
 3379 0abe 3A050000 		.4byte	.LASF159
 3380 0ac2 11       		.byte	0x11
 3381 0ac3 DF       		.byte	0xdf
 3382 0ac4 3A100000 		.4byte	0x103a
 3383 0ac8 01       		.byte	0x1
 3384 0ac9 02       		.byte	0x2
 3385 0aca 06       		.byte	0x6
 3386 0acb 2D       		.byte	0x2d
 3387 0acc 0A       		.uleb128 0xa
 3388 0acd 70100000 		.4byte	.LASF160
 3389 0ad1 11       		.byte	0x11
 3390 0ad2 E0       		.byte	0xe0
 3391 0ad3 25070000 		.4byte	0x725
 3392 0ad7 01       		.byte	0x1
 3393 0ad8 02       		.byte	0x2
 3394 0ad9 04       		.byte	0x4
 3395 0ada 2D       		.byte	0x2d
ARM GAS  C:\Users\pearlstl\AppData\Local\Temp\ccIMJlIA.s 			page 82


 3396 0adb 0A       		.uleb128 0xa
 3397 0adc 8D130000 		.4byte	.LASF161
 3398 0ae0 11       		.byte	0x11
 3399 0ae1 E1       		.byte	0xe1
 3400 0ae2 B8000000 		.4byte	0xb8
 3401 0ae6 01       		.byte	0x1
 3402 0ae7 03       		.byte	0x3
 3403 0ae8 01       		.byte	0x1
 3404 0ae9 2D       		.byte	0x2d
 3405 0aea 07       		.uleb128 0x7
 3406 0aeb 7E0A0000 		.4byte	.LASF162
 3407 0aef 11       		.byte	0x11
 3408 0af0 E2       		.byte	0xe2
 3409 0af1 B8000000 		.4byte	0xb8
 3410 0af5 2E       		.byte	0x2e
 3411 0af6 07       		.uleb128 0x7
 3412 0af7 7C150000 		.4byte	.LASF163
 3413 0afb 11       		.byte	0x11
 3414 0afc E4       		.byte	0xe4
 3415 0afd 91020000 		.4byte	0x291
 3416 0b01 2F       		.byte	0x2f
 3417 0b02 07       		.uleb128 0x7
 3418 0b03 80070000 		.4byte	.LASF164
 3419 0b07 11       		.byte	0x11
 3420 0b08 E6       		.byte	0xe6
 3421 0b09 EF000000 		.4byte	0xef
 3422 0b0d 30       		.byte	0x30
 3423 0b0e 07       		.uleb128 0x7
 3424 0b0f 19080000 		.4byte	.LASF165
 3425 0b13 11       		.byte	0x11
 3426 0b14 E9       		.byte	0xe9
 3427 0b15 2F100000 		.4byte	0x102f
 3428 0b19 34       		.byte	0x34
 3429 0b1a 00       		.byte	0
 3430 0b1b 0D       		.uleb128 0xd
 3431 0b1c 04       		.byte	0x4
 3432 0b1d D9090000 		.4byte	0x9d9
 3433 0b21 1B       		.uleb128 0x1b
 3434 0b22 08030000 		.4byte	0x308
 3435 0b26 310B0000 		.4byte	0xb31
 3436 0b2a 1C       		.uleb128 0x1c
 3437 0b2b 9D020000 		.4byte	0x29d
 3438 0b2f 1F       		.byte	0x1f
 3439 0b30 00       		.byte	0
 3440 0b31 1B       		.uleb128 0x1b
 3441 0b32 B8000000 		.4byte	0xb8
 3442 0b36 410B0000 		.4byte	0xb41
 3443 0b3a 1C       		.uleb128 0x1c
 3444 0b3b 9D020000 		.4byte	0x29d
 3445 0b3f 1F       		.byte	0x1f
 3446 0b40 00       		.byte	0
 3447 0b41 02       		.uleb128 0x2
 3448 0b42 A0090000 		.4byte	.LASF166
 3449 0b46 12       		.byte	0x12
 3450 0b47 33       		.byte	0x33
 3451 0b48 B8000000 		.4byte	0xb8
 3452 0b4c 02       		.uleb128 0x2
ARM GAS  C:\Users\pearlstl\AppData\Local\Temp\ccIMJlIA.s 			page 83


 3453 0b4d 61070000 		.4byte	.LASF167
 3454 0b51 12       		.byte	0x12
 3455 0b52 37       		.byte	0x37
 3456 0b53 B8000000 		.4byte	0xb8
 3457 0b57 06       		.uleb128 0x6
 3458 0b58 10       		.byte	0x10
 3459 0b59 12       		.byte	0x12
 3460 0b5a 3A       		.byte	0x3a
 3461 0b5b 9C0B0000 		.4byte	0xb9c
 3462 0b5f 07       		.uleb128 0x7
 3463 0b60 2E030000 		.4byte	.LASF168
 3464 0b64 12       		.byte	0x12
 3465 0b65 3C       		.byte	0x3c
 3466 0b66 C8020000 		.4byte	0x2c8
 3467 0b6a 00       		.byte	0
 3468 0b6b 08       		.uleb128 0x8
 3469 0b6c 6B657900 		.ascii	"key\000"
 3470 0b70 12       		.byte	0x12
 3471 0b71 3D       		.byte	0x3d
 3472 0b72 E4000000 		.4byte	0xe4
 3473 0b76 04       		.byte	0x4
 3474 0b77 07       		.uleb128 0x7
 3475 0b78 DB050000 		.4byte	.LASF169
 3476 0b7c 12       		.byte	0x12
 3477 0b7d 3E       		.byte	0x3e
 3478 0b7e E4000000 		.4byte	0xe4
 3479 0b82 08       		.byte	0x8
 3480 0b83 07       		.uleb128 0x7
 3481 0b84 9C0B0000 		.4byte	.LASF170
 3482 0b88 12       		.byte	0x12
 3483 0b89 3F       		.byte	0x3f
 3484 0b8a C3000000 		.4byte	0xc3
 3485 0b8e 0C       		.byte	0xc
 3486 0b8f 07       		.uleb128 0x7
 3487 0b90 95010000 		.4byte	.LASF171
 3488 0b94 12       		.byte	0x12
 3489 0b95 41       		.byte	0x41
 3490 0b96 4C0B0000 		.4byte	0xb4c
 3491 0b9a 0E       		.byte	0xe
 3492 0b9b 00       		.byte	0
 3493 0b9c 02       		.uleb128 0x2
 3494 0b9d 08140000 		.4byte	.LASF172
 3495 0ba1 12       		.byte	0x12
 3496 0ba2 42       		.byte	0x42
 3497 0ba3 570B0000 		.4byte	0xb57
 3498 0ba7 09       		.uleb128 0x9
 3499 0ba8 3F020000 		.4byte	.LASF173
 3500 0bac 1C       		.byte	0x1c
 3501 0bad 12       		.byte	0x12
 3502 0bae 45       		.byte	0x45
 3503 0baf 200C0000 		.4byte	0xc20
 3504 0bb3 07       		.uleb128 0x7
 3505 0bb4 FB010000 		.4byte	.LASF74
 3506 0bb8 12       		.byte	0x12
 3507 0bb9 49       		.byte	0x49
 3508 0bba 410B0000 		.4byte	0xb41
 3509 0bbe 00       		.byte	0
ARM GAS  C:\Users\pearlstl\AppData\Local\Temp\ccIMJlIA.s 			page 84


 3510 0bbf 07       		.uleb128 0x7
 3511 0bc0 EA030000 		.4byte	.LASF174
 3512 0bc4 12       		.byte	0x12
 3513 0bc5 4E       		.byte	0x4e
 3514 0bc6 400C0000 		.4byte	0xc40
 3515 0bca 04       		.byte	0x4
 3516 0bcb 07       		.uleb128 0x7
 3517 0bcc 610D0000 		.4byte	.LASF175
 3518 0bd0 12       		.byte	0x12
 3519 0bd1 52       		.byte	0x52
 3520 0bd2 560C0000 		.4byte	0xc56
 3521 0bd6 08       		.byte	0x8
 3522 0bd7 07       		.uleb128 0x7
 3523 0bd8 7D0B0000 		.4byte	.LASF176
 3524 0bdc 12       		.byte	0x12
 3525 0bdd 59       		.byte	0x59
 3526 0bde 5C0C0000 		.4byte	0xc5c
 3527 0be2 0C       		.byte	0xc
 3528 0be3 07       		.uleb128 0x7
 3529 0be4 420D0000 		.4byte	.LASF177
 3530 0be8 12       		.byte	0x12
 3531 0be9 5C       		.byte	0x5c
 3532 0bea D3090000 		.4byte	0x9d3
 3533 0bee 10       		.byte	0x10
 3534 0bef 07       		.uleb128 0x7
 3535 0bf0 93120000 		.4byte	.LASF178
 3536 0bf4 12       		.byte	0x12
 3537 0bf5 5F       		.byte	0x5f
 3538 0bf6 B8000000 		.4byte	0xb8
 3539 0bfa 14       		.byte	0x14
 3540 0bfb 07       		.uleb128 0x7
 3541 0bfc 31070000 		.4byte	.LASF154
 3542 0c00 12       		.byte	0x12
 3543 0c01 62       		.byte	0x62
 3544 0c02 B8000000 		.4byte	0xb8
 3545 0c06 15       		.byte	0x15
 3546 0c07 07       		.uleb128 0x7
 3547 0c08 490E0000 		.4byte	.LASF179
 3548 0c0c 12       		.byte	0x12
 3549 0c0d 65       		.byte	0x65
 3550 0c0e CE000000 		.4byte	0xce
 3551 0c12 16       		.byte	0x16
 3552 0c13 07       		.uleb128 0x7
 3553 0c14 8D070000 		.4byte	.LASF180
 3554 0c18 12       		.byte	0x12
 3555 0c19 68       		.byte	0x68
 3556 0c1a CE000000 		.4byte	0xce
 3557 0c1e 18       		.byte	0x18
 3558 0c1f 00       		.byte	0
 3559 0c20 0B       		.uleb128 0xb
 3560 0c21 D5010000 		.4byte	0x1d5
 3561 0c25 340C0000 		.4byte	0xc34
 3562 0c29 0C       		.uleb128 0xc
 3563 0c2a 340C0000 		.4byte	0xc34
 3564 0c2e 0C       		.uleb128 0xc
 3565 0c2f 3A0C0000 		.4byte	0xc3a
 3566 0c33 00       		.byte	0
ARM GAS  C:\Users\pearlstl\AppData\Local\Temp\ccIMJlIA.s 			page 85


 3567 0c34 0D       		.uleb128 0xd
 3568 0c35 04       		.byte	0x4
 3569 0c36 A70B0000 		.4byte	0xba7
 3570 0c3a 0D       		.uleb128 0xd
 3571 0c3b 04       		.byte	0x4
 3572 0c3c 9C0B0000 		.4byte	0xb9c
 3573 0c40 0D       		.uleb128 0xd
 3574 0c41 04       		.byte	0x4
 3575 0c42 200C0000 		.4byte	0xc20
 3576 0c46 15       		.uleb128 0x15
 3577 0c47 560C0000 		.4byte	0xc56
 3578 0c4b 0C       		.uleb128 0xc
 3579 0c4c 340C0000 		.4byte	0xc34
 3580 0c50 0C       		.uleb128 0xc
 3581 0c51 B8000000 		.4byte	0xb8
 3582 0c55 00       		.byte	0
 3583 0c56 0D       		.uleb128 0xd
 3584 0c57 04       		.byte	0x4
 3585 0c58 460C0000 		.4byte	0xc46
 3586 0c5c 0D       		.uleb128 0xd
 3587 0c5d 04       		.byte	0x4
 3588 0c5e 47090000 		.4byte	0x947
 3589 0c62 02       		.uleb128 0x2
 3590 0c63 52120000 		.4byte	.LASF181
 3591 0c67 12       		.byte	0x12
 3592 0c68 69       		.byte	0x69
 3593 0c69 A70B0000 		.4byte	0xba7
 3594 0c6d 06       		.uleb128 0x6
 3595 0c6e 24       		.byte	0x24
 3596 0c6f 12       		.byte	0x12
 3597 0c70 73       		.byte	0x73
 3598 0c71 F40C0000 		.4byte	0xcf4
 3599 0c75 07       		.uleb128 0x7
 3600 0c76 8D090000 		.4byte	.LASF182
 3601 0c7a 12       		.byte	0x12
 3602 0c7b 75       		.byte	0x75
 3603 0c7c C8020000 		.4byte	0x2c8
 3604 0c80 00       		.byte	0
 3605 0c81 07       		.uleb128 0x7
 3606 0c82 900A0000 		.4byte	.LASF183
 3607 0c86 12       		.byte	0x12
 3608 0c87 76       		.byte	0x76
 3609 0c88 C8020000 		.4byte	0x2c8
 3610 0c8c 04       		.byte	0x4
 3611 0c8d 07       		.uleb128 0x7
 3612 0c8e EC0C0000 		.4byte	.LASF184
 3613 0c92 12       		.byte	0x12
 3614 0c93 77       		.byte	0x77
 3615 0c94 C8020000 		.4byte	0x2c8
 3616 0c98 08       		.byte	0x8
 3617 0c99 07       		.uleb128 0x7
 3618 0c9a FA0C0000 		.4byte	.LASF185
 3619 0c9e 12       		.byte	0x12
 3620 0c9f 78       		.byte	0x78
 3621 0ca0 C8020000 		.4byte	0x2c8
 3622 0ca4 0C       		.byte	0xc
 3623 0ca5 07       		.uleb128 0x7
ARM GAS  C:\Users\pearlstl\AppData\Local\Temp\ccIMJlIA.s 			page 86


 3624 0ca6 04060000 		.4byte	.LASF186
 3625 0caa 12       		.byte	0x12
 3626 0cab 79       		.byte	0x79
 3627 0cac C8020000 		.4byte	0x2c8
 3628 0cb0 10       		.byte	0x10
 3629 0cb1 07       		.uleb128 0x7
 3630 0cb2 AA0A0000 		.4byte	.LASF187
 3631 0cb6 12       		.byte	0x12
 3632 0cb7 7A       		.byte	0x7a
 3633 0cb8 1B0B0000 		.4byte	0xb1b
 3634 0cbc 14       		.byte	0x14
 3635 0cbd 07       		.uleb128 0x7
 3636 0cbe 97090000 		.4byte	.LASF188
 3637 0cc2 12       		.byte	0x12
 3638 0cc3 7B       		.byte	0x7b
 3639 0cc4 1B0B0000 		.4byte	0xb1b
 3640 0cc8 18       		.byte	0x18
 3641 0cc9 07       		.uleb128 0x7
 3642 0cca 0B040000 		.4byte	.LASF189
 3643 0cce 12       		.byte	0x12
 3644 0ccf 7D       		.byte	0x7d
 3645 0cd0 1B0B0000 		.4byte	0xb1b
 3646 0cd4 1C       		.byte	0x1c
 3647 0cd5 0A       		.uleb128 0xa
 3648 0cd6 E30F0000 		.4byte	.LASF190
 3649 0cda 12       		.byte	0x12
 3650 0cdb 80       		.byte	0x80
 3651 0cdc B8000000 		.4byte	0xb8
 3652 0ce0 01       		.byte	0x1
 3653 0ce1 01       		.byte	0x1
 3654 0ce2 07       		.byte	0x7
 3655 0ce3 20       		.byte	0x20
 3656 0ce4 0A       		.uleb128 0xa
 3657 0ce5 6A0F0000 		.4byte	.LASF191
 3658 0ce9 12       		.byte	0x12
 3659 0cea 81       		.byte	0x81
 3660 0ceb B8000000 		.4byte	0xb8
 3661 0cef 01       		.byte	0x1
 3662 0cf0 01       		.byte	0x1
 3663 0cf1 06       		.byte	0x6
 3664 0cf2 20       		.byte	0x20
 3665 0cf3 00       		.byte	0
 3666 0cf4 06       		.uleb128 0x6
 3667 0cf5 08       		.byte	0x8
 3668 0cf6 12       		.byte	0x12
 3669 0cf7 83       		.byte	0x83
 3670 0cf8 150D0000 		.4byte	0xd15
 3671 0cfc 07       		.uleb128 0x7
 3672 0cfd C4030000 		.4byte	.LASF192
 3673 0d01 12       		.byte	0x12
 3674 0d02 85       		.byte	0x85
 3675 0d03 4C0B0000 		.4byte	0xb4c
 3676 0d07 00       		.byte	0
 3677 0d08 07       		.uleb128 0x7
 3678 0d09 8B080000 		.4byte	.LASF193
 3679 0d0d 12       		.byte	0x12
 3680 0d0e 86       		.byte	0x86
ARM GAS  C:\Users\pearlstl\AppData\Local\Temp\ccIMJlIA.s 			page 87


 3681 0d0f E4000000 		.4byte	0xe4
 3682 0d13 04       		.byte	0x4
 3683 0d14 00       		.byte	0
 3684 0d15 0F       		.uleb128 0xf
 3685 0d16 24       		.byte	0x24
 3686 0d17 12       		.byte	0x12
 3687 0d18 71       		.byte	0x71
 3688 0d19 340D0000 		.4byte	0xd34
 3689 0d1d 11       		.uleb128 0x11
 3690 0d1e F5060000 		.4byte	.LASF194
 3691 0d22 12       		.byte	0x12
 3692 0d23 82       		.byte	0x82
 3693 0d24 6D0C0000 		.4byte	0xc6d
 3694 0d28 11       		.uleb128 0x11
 3695 0d29 DE100000 		.4byte	.LASF195
 3696 0d2d 12       		.byte	0x12
 3697 0d2e 87       		.byte	0x87
 3698 0d2f F40C0000 		.4byte	0xcf4
 3699 0d33 00       		.byte	0
 3700 0d34 09       		.uleb128 0x9
 3701 0d35 0F0E0000 		.4byte	.LASF196
 3702 0d39 34       		.byte	0x34
 3703 0d3a 12       		.byte	0x12
 3704 0d3b 6E       		.byte	0x6e
 3705 0d3c AD0D0000 		.4byte	0xdad
 3706 0d40 07       		.uleb128 0x7
 3707 0d41 95010000 		.4byte	.LASF171
 3708 0d45 12       		.byte	0x12
 3709 0d46 70       		.byte	0x70
 3710 0d47 4C0B0000 		.4byte	0xb4c
 3711 0d4b 00       		.byte	0
 3712 0d4c 07       		.uleb128 0x7
 3713 0d4d 18150000 		.4byte	.LASF197
 3714 0d51 12       		.byte	0x12
 3715 0d52 88       		.byte	0x88
 3716 0d53 150D0000 		.4byte	0xd15
 3717 0d57 04       		.byte	0x4
 3718 0d58 07       		.uleb128 0x7
 3719 0d59 0C0D0000 		.4byte	.LASF198
 3720 0d5d 12       		.byte	0x12
 3721 0d5e 8A       		.byte	0x8a
 3722 0d5f E4000000 		.4byte	0xe4
 3723 0d63 28       		.byte	0x28
 3724 0d64 07       		.uleb128 0x7
 3725 0d65 4F0F0000 		.4byte	.LASF199
 3726 0d69 12       		.byte	0x12
 3727 0d6a 8B       		.byte	0x8b
 3728 0d6b E4000000 		.4byte	0xe4
 3729 0d6f 2C       		.byte	0x2c
 3730 0d70 0A       		.uleb128 0xa
 3731 0d71 A8140000 		.4byte	.LASF200
 3732 0d75 12       		.byte	0x12
 3733 0d76 8E       		.byte	0x8e
 3734 0d77 B8000000 		.4byte	0xb8
 3735 0d7b 01       		.byte	0x1
 3736 0d7c 01       		.byte	0x1
 3737 0d7d 07       		.byte	0x7
ARM GAS  C:\Users\pearlstl\AppData\Local\Temp\ccIMJlIA.s 			page 88


 3738 0d7e 30       		.byte	0x30
 3739 0d7f 0A       		.uleb128 0xa
 3740 0d80 C30E0000 		.4byte	.LASF201
 3741 0d84 12       		.byte	0x12
 3742 0d85 8F       		.byte	0x8f
 3743 0d86 B8000000 		.4byte	0xb8
 3744 0d8a 01       		.byte	0x1
 3745 0d8b 01       		.byte	0x1
 3746 0d8c 06       		.byte	0x6
 3747 0d8d 30       		.byte	0x30
 3748 0d8e 0A       		.uleb128 0xa
 3749 0d8f BC080000 		.4byte	.LASF202
 3750 0d93 12       		.byte	0x12
 3751 0d94 90       		.byte	0x90
 3752 0d95 B8000000 		.4byte	0xb8
 3753 0d99 01       		.byte	0x1
 3754 0d9a 01       		.byte	0x1
 3755 0d9b 05       		.byte	0x5
 3756 0d9c 30       		.byte	0x30
 3757 0d9d 0A       		.uleb128 0xa
 3758 0d9e 64080000 		.4byte	.LASF203
 3759 0da2 12       		.byte	0x12
 3760 0da3 91       		.byte	0x91
 3761 0da4 B8000000 		.4byte	0xb8
 3762 0da8 01       		.byte	0x1
 3763 0da9 01       		.byte	0x1
 3764 0daa 04       		.byte	0x4
 3765 0dab 30       		.byte	0x30
 3766 0dac 00       		.byte	0
 3767 0dad 02       		.uleb128 0x2
 3768 0dae F4110000 		.4byte	.LASF204
 3769 0db2 12       		.byte	0x12
 3770 0db3 92       		.byte	0x92
 3771 0db4 340D0000 		.4byte	0xd34
 3772 0db8 09       		.uleb128 0x9
 3773 0db9 62030000 		.4byte	.LASF205
 3774 0dbd 5C       		.byte	0x5c
 3775 0dbe 12       		.byte	0x12
 3776 0dbf 99       		.byte	0x99
 3777 0dc0 010E0000 		.4byte	0xe01
 3778 0dc4 07       		.uleb128 0x7
 3779 0dc5 69100000 		.4byte	.LASF134
 3780 0dc9 12       		.byte	0x12
 3781 0dca 9B       		.byte	0x9b
 3782 0dcb 620C0000 		.4byte	0xc62
 3783 0dcf 00       		.byte	0
 3784 0dd0 07       		.uleb128 0x7
 3785 0dd1 6B060000 		.4byte	.LASF206
 3786 0dd5 12       		.byte	0x12
 3787 0dd6 9C       		.byte	0x9c
 3788 0dd7 AD0D0000 		.4byte	0xdad
 3789 0ddb 1C       		.byte	0x1c
 3790 0ddc 07       		.uleb128 0x7
 3791 0ddd 36150000 		.4byte	.LASF207
 3792 0de1 12       		.byte	0x12
 3793 0de2 9D       		.byte	0x9d
 3794 0de3 1B0B0000 		.4byte	0xb1b
ARM GAS  C:\Users\pearlstl\AppData\Local\Temp\ccIMJlIA.s 			page 89


 3795 0de7 50       		.byte	0x50
 3796 0de8 07       		.uleb128 0x7
 3797 0de9 87090000 		.4byte	.LASF208
 3798 0ded 12       		.byte	0x12
 3799 0dee 9E       		.byte	0x9e
 3800 0def 060E0000 		.4byte	0xe06
 3801 0df3 54       		.byte	0x54
 3802 0df4 07       		.uleb128 0x7
 3803 0df5 46080000 		.4byte	.LASF209
 3804 0df9 12       		.byte	0x12
 3805 0dfa 9F       		.byte	0x9f
 3806 0dfb 0C0E0000 		.4byte	0xe0c
 3807 0dff 58       		.byte	0x58
 3808 0e00 00       		.byte	0
 3809 0e01 1D       		.uleb128 0x1d
 3810 0e02 3D150000 		.4byte	.LASF426
 3811 0e06 0D       		.uleb128 0xd
 3812 0e07 04       		.byte	0x4
 3813 0e08 010E0000 		.4byte	0xe01
 3814 0e0c 0D       		.uleb128 0xd
 3815 0e0d 04       		.byte	0x4
 3816 0e0e 120E0000 		.4byte	0xe12
 3817 0e12 0E       		.uleb128 0xe
 3818 0e13 C8020000 		.4byte	0x2c8
 3819 0e17 02       		.uleb128 0x2
 3820 0e18 3B080000 		.4byte	.LASF210
 3821 0e1c 12       		.byte	0x12
 3822 0e1d A1       		.byte	0xa1
 3823 0e1e B80D0000 		.4byte	0xdb8
 3824 0e22 02       		.uleb128 0x2
 3825 0e23 190D0000 		.4byte	.LASF211
 3826 0e27 11       		.byte	0x11
 3827 0e28 42       		.byte	0x42
 3828 0e29 B8000000 		.4byte	0xb8
 3829 0e2d 02       		.uleb128 0x2
 3830 0e2e 5B150000 		.4byte	.LASF212
 3831 0e32 11       		.byte	0x11
 3832 0e33 48       		.byte	0x48
 3833 0e34 380E0000 		.4byte	0xe38
 3834 0e38 0D       		.uleb128 0xd
 3835 0e39 04       		.byte	0x4
 3836 0e3a 3E0E0000 		.4byte	0xe3e
 3837 0e3e 0B       		.uleb128 0xb
 3838 0e3f D5010000 		.4byte	0x1d5
 3839 0e43 570E0000 		.4byte	0xe57
 3840 0e47 0C       		.uleb128 0xc
 3841 0e48 1B0B0000 		.4byte	0xb1b
 3842 0e4c 0C       		.uleb128 0xc
 3843 0e4d B9080000 		.4byte	0x8b9
 3844 0e51 0C       		.uleb128 0xc
 3845 0e52 220E0000 		.4byte	0xe22
 3846 0e56 00       		.byte	0
 3847 0e57 13       		.uleb128 0x13
 3848 0e58 01       		.byte	0x1
 3849 0e59 42000000 		.4byte	0x42
 3850 0e5d 11       		.byte	0x11
 3851 0e5e 4A       		.byte	0x4a
ARM GAS  C:\Users\pearlstl\AppData\Local\Temp\ccIMJlIA.s 			page 90


 3852 0e5f DC0E0000 		.4byte	0xedc
 3853 0e63 14       		.uleb128 0x14
 3854 0e64 930D0000 		.4byte	.LASF213
 3855 0e68 00       		.byte	0
 3856 0e69 14       		.uleb128 0x14
 3857 0e6a 260C0000 		.4byte	.LASF214
 3858 0e6e 01       		.byte	0x1
 3859 0e6f 14       		.uleb128 0x14
 3860 0e70 2B140000 		.4byte	.LASF215
 3861 0e74 02       		.byte	0x2
 3862 0e75 14       		.uleb128 0x14
 3863 0e76 670C0000 		.4byte	.LASF216
 3864 0e7a 03       		.byte	0x3
 3865 0e7b 14       		.uleb128 0x14
 3866 0e7c 00020000 		.4byte	.LASF217
 3867 0e80 04       		.byte	0x4
 3868 0e81 14       		.uleb128 0x14
 3869 0e82 7E0C0000 		.4byte	.LASF218
 3870 0e86 05       		.byte	0x5
 3871 0e87 14       		.uleb128 0x14
 3872 0e88 C3070000 		.4byte	.LASF219
 3873 0e8c 06       		.byte	0x6
 3874 0e8d 14       		.uleb128 0x14
 3875 0e8e 49150000 		.4byte	.LASF220
 3876 0e92 07       		.byte	0x7
 3877 0e93 14       		.uleb128 0x14
 3878 0e94 0F070000 		.4byte	.LASF221
 3879 0e98 08       		.byte	0x8
 3880 0e99 14       		.uleb128 0x14
 3881 0e9a 300D0000 		.4byte	.LASF222
 3882 0e9e 09       		.byte	0x9
 3883 0e9f 14       		.uleb128 0x14
 3884 0ea0 21080000 		.4byte	.LASF223
 3885 0ea4 0A       		.byte	0xa
 3886 0ea5 14       		.uleb128 0x14
 3887 0ea6 F0130000 		.4byte	.LASF224
 3888 0eaa 0B       		.byte	0xb
 3889 0eab 14       		.uleb128 0x14
 3890 0eac BE060000 		.4byte	.LASF225
 3891 0eb0 0C       		.byte	0xc
 3892 0eb1 14       		.uleb128 0x14
 3893 0eb2 04120000 		.4byte	.LASF226
 3894 0eb6 0D       		.byte	0xd
 3895 0eb7 14       		.uleb128 0x14
 3896 0eb8 B60B0000 		.4byte	.LASF227
 3897 0ebc 0E       		.byte	0xe
 3898 0ebd 14       		.uleb128 0x14
 3899 0ebe D2000000 		.4byte	.LASF228
 3900 0ec2 0F       		.byte	0xf
 3901 0ec3 14       		.uleb128 0x14
 3902 0ec4 59090000 		.4byte	.LASF229
 3903 0ec8 10       		.byte	0x10
 3904 0ec9 14       		.uleb128 0x14
 3905 0eca 0A080000 		.4byte	.LASF230
 3906 0ece 11       		.byte	0x11
 3907 0ecf 14       		.uleb128 0x14
 3908 0ed0 BE0D0000 		.4byte	.LASF231
ARM GAS  C:\Users\pearlstl\AppData\Local\Temp\ccIMJlIA.s 			page 91


 3909 0ed4 12       		.byte	0x12
 3910 0ed5 14       		.uleb128 0x14
 3911 0ed6 160B0000 		.4byte	.LASF232
 3912 0eda 13       		.byte	0x13
 3913 0edb 00       		.byte	0
 3914 0edc 02       		.uleb128 0x2
 3915 0edd 82010000 		.4byte	.LASF233
 3916 0ee1 11       		.byte	0x11
 3917 0ee2 61       		.byte	0x61
 3918 0ee3 B8000000 		.4byte	0xb8
 3919 0ee7 02       		.uleb128 0x2
 3920 0ee8 B5140000 		.4byte	.LASF234
 3921 0eec 11       		.byte	0x11
 3922 0eed 68       		.byte	0x68
 3923 0eee F20E0000 		.4byte	0xef2
 3924 0ef2 0D       		.uleb128 0xd
 3925 0ef3 04       		.byte	0x4
 3926 0ef4 F80E0000 		.4byte	0xef8
 3927 0ef8 15       		.uleb128 0x15
 3928 0ef9 080F0000 		.4byte	0xf08
 3929 0efd 0C       		.uleb128 0xc
 3930 0efe 1B0B0000 		.4byte	0xb1b
 3931 0f02 0C       		.uleb128 0xc
 3932 0f03 DC0E0000 		.4byte	0xedc
 3933 0f07 00       		.byte	0
 3934 0f08 13       		.uleb128 0x13
 3935 0f09 01       		.byte	0x1
 3936 0f0a 42000000 		.4byte	0x42
 3937 0f0e 11       		.byte	0x11
 3938 0f0f 6D       		.byte	0x6d
 3939 0f10 8D0F0000 		.4byte	0xf8d
 3940 0f14 14       		.uleb128 0x14
 3941 0f15 DF0A0000 		.4byte	.LASF235
 3942 0f19 00       		.byte	0
 3943 0f1a 14       		.uleb128 0x14
 3944 0f1b 410B0000 		.4byte	.LASF236
 3945 0f1f 01       		.byte	0x1
 3946 0f20 14       		.uleb128 0x14
 3947 0f21 70110000 		.4byte	.LASF237
 3948 0f25 02       		.byte	0x2
 3949 0f26 14       		.uleb128 0x14
 3950 0f27 A40D0000 		.4byte	.LASF238
 3951 0f2b 03       		.byte	0x3
 3952 0f2c 14       		.uleb128 0x14
 3953 0f2d 7D000000 		.4byte	.LASF239
 3954 0f31 04       		.byte	0x4
 3955 0f32 14       		.uleb128 0x14
 3956 0f33 61120000 		.4byte	.LASF240
 3957 0f37 05       		.byte	0x5
 3958 0f38 14       		.uleb128 0x14
 3959 0f39 1E050000 		.4byte	.LASF241
 3960 0f3d 06       		.byte	0x6
 3961 0f3e 14       		.uleb128 0x14
 3962 0f3f 51080000 		.4byte	.LASF242
 3963 0f43 07       		.byte	0x7
 3964 0f44 14       		.uleb128 0x14
 3965 0f45 D8010000 		.4byte	.LASF243
ARM GAS  C:\Users\pearlstl\AppData\Local\Temp\ccIMJlIA.s 			page 92


 3966 0f49 08       		.byte	0x8
 3967 0f4a 14       		.uleb128 0x14
 3968 0f4b 540C0000 		.4byte	.LASF244
 3969 0f4f 09       		.byte	0x9
 3970 0f50 14       		.uleb128 0x14
 3971 0f51 4C0D0000 		.4byte	.LASF245
 3972 0f55 0A       		.byte	0xa
 3973 0f56 14       		.uleb128 0x14
 3974 0f57 D60D0000 		.4byte	.LASF246
 3975 0f5b 0B       		.byte	0xb
 3976 0f5c 14       		.uleb128 0x14
 3977 0f5d F4000000 		.4byte	.LASF247
 3978 0f61 0C       		.byte	0xc
 3979 0f62 14       		.uleb128 0x14
 3980 0f63 9C040000 		.4byte	.LASF248
 3981 0f67 0D       		.byte	0xd
 3982 0f68 14       		.uleb128 0x14
 3983 0f69 42010000 		.4byte	.LASF249
 3984 0f6d 0E       		.byte	0xe
 3985 0f6e 14       		.uleb128 0x14
 3986 0f6f 800D0000 		.4byte	.LASF250
 3987 0f73 0F       		.byte	0xf
 3988 0f74 14       		.uleb128 0x14
 3989 0f75 42090000 		.4byte	.LASF251
 3990 0f79 10       		.byte	0x10
 3991 0f7a 14       		.uleb128 0x14
 3992 0f7b AC060000 		.4byte	.LASF252
 3993 0f7f 11       		.byte	0x11
 3994 0f80 14       		.uleb128 0x14
 3995 0f81 560A0000 		.4byte	.LASF253
 3996 0f85 12       		.byte	0x12
 3997 0f86 14       		.uleb128 0x14
 3998 0f87 B0090000 		.4byte	.LASF254
 3999 0f8b 13       		.byte	0x13
 4000 0f8c 00       		.byte	0
 4001 0f8d 02       		.uleb128 0x2
 4002 0f8e 350E0000 		.4byte	.LASF255
 4003 0f92 11       		.byte	0x11
 4004 0f93 88       		.byte	0x88
 4005 0f94 B8000000 		.4byte	0xb8
 4006 0f98 02       		.uleb128 0x2
 4007 0f99 A3050000 		.4byte	.LASF256
 4008 0f9d 11       		.byte	0x11
 4009 0f9e 8A       		.byte	0x8a
 4010 0f9f A30F0000 		.4byte	0xfa3
 4011 0fa3 0D       		.uleb128 0xd
 4012 0fa4 04       		.byte	0x4
 4013 0fa5 A90F0000 		.4byte	0xfa9
 4014 0fa9 0B       		.uleb128 0xb
 4015 0faa D1060000 		.4byte	0x6d1
 4016 0fae C20F0000 		.4byte	0xfc2
 4017 0fb2 0C       		.uleb128 0xc
 4018 0fb3 1B0B0000 		.4byte	0xb1b
 4019 0fb7 0C       		.uleb128 0xc
 4020 0fb8 8D0F0000 		.4byte	0xf8d
 4021 0fbc 0C       		.uleb128 0xc
 4022 0fbd FA000000 		.4byte	0xfa
ARM GAS  C:\Users\pearlstl\AppData\Local\Temp\ccIMJlIA.s 			page 93


 4023 0fc1 00       		.byte	0
 4024 0fc2 02       		.uleb128 0x2
 4025 0fc3 37010000 		.4byte	.LASF257
 4026 0fc7 11       		.byte	0x11
 4027 0fc8 A4       		.byte	0xa4
 4028 0fc9 B8000000 		.4byte	0xb8
 4029 0fcd 06       		.uleb128 0x6
 4030 0fce 0C       		.byte	0xc
 4031 0fcf 11       		.byte	0x11
 4032 0fd0 A7       		.byte	0xa7
 4033 0fd1 24100000 		.4byte	0x1024
 4034 0fd5 07       		.uleb128 0x7
 4035 0fd6 A3100000 		.4byte	.LASF258
 4036 0fda 11       		.byte	0x11
 4037 0fdb A9       		.byte	0xa9
 4038 0fdc 24100000 		.4byte	0x1024
 4039 0fe0 00       		.byte	0
 4040 0fe1 07       		.uleb128 0x7
 4041 0fe2 FD0F0000 		.4byte	.LASF259
 4042 0fe6 11       		.byte	0x11
 4043 0fe7 AA       		.byte	0xaa
 4044 0fe8 EF000000 		.4byte	0xef
 4045 0fec 04       		.byte	0x4
 4046 0fed 07       		.uleb128 0x7
 4047 0fee BE0E0000 		.4byte	.LASF260
 4048 0ff2 11       		.byte	0x11
 4049 0ff3 AB       		.byte	0xab
 4050 0ff4 EF000000 		.4byte	0xef
 4051 0ff8 06       		.byte	0x6
 4052 0ff9 07       		.uleb128 0x7
 4053 0ffa F10A0000 		.4byte	.LASF261
 4054 0ffe 11       		.byte	0x11
 4055 0fff AC       		.byte	0xac
 4056 1000 C20F0000 		.4byte	0xfc2
 4057 1004 08       		.byte	0x8
 4058 1005 0A       		.uleb128 0xa
 4059 1006 D70B0000 		.4byte	.LASF262
 4060 100a 11       		.byte	0x11
 4061 100b AD       		.byte	0xad
 4062 100c B8000000 		.4byte	0xb8
 4063 1010 01       		.byte	0x1
 4064 1011 01       		.byte	0x1
 4065 1012 07       		.byte	0x7
 4066 1013 09       		.byte	0x9
 4067 1014 0A       		.uleb128 0xa
 4068 1015 CB140000 		.4byte	.LASF263
 4069 1019 11       		.byte	0x11
 4070 101a AE       		.byte	0xae
 4071 101b B8000000 		.4byte	0xb8
 4072 101f 01       		.byte	0x1
 4073 1020 01       		.byte	0x1
 4074 1021 06       		.byte	0x6
 4075 1022 09       		.byte	0x9
 4076 1023 00       		.byte	0
 4077 1024 0D       		.uleb128 0xd
 4078 1025 04       		.byte	0x4
 4079 1026 2A100000 		.4byte	0x102a
ARM GAS  C:\Users\pearlstl\AppData\Local\Temp\ccIMJlIA.s 			page 94


 4080 102a 0E       		.uleb128 0xe
 4081 102b D9090000 		.4byte	0x9d9
 4082 102f 02       		.uleb128 0x2
 4083 1030 10010000 		.4byte	.LASF264
 4084 1034 11       		.byte	0x11
 4085 1035 B0       		.byte	0xb0
 4086 1036 CD0F0000 		.4byte	0xfcd
 4087 103a 02       		.uleb128 0x2
 4088 103b 89140000 		.4byte	.LASF265
 4089 103f 11       		.byte	0x11
 4090 1040 B9       		.byte	0xb9
 4091 1041 B8000000 		.4byte	0xb8
 4092 1045 0D       		.uleb128 0xd
 4093 1046 04       		.byte	0x4
 4094 1047 4B100000 		.4byte	0x104b
 4095 104b 0E       		.uleb128 0xe
 4096 104c A7060000 		.4byte	0x6a7
 4097 1050 02       		.uleb128 0x2
 4098 1051 18100000 		.4byte	.LASF266
 4099 1055 11       		.byte	0x11
 4100 1056 F0       		.byte	0xf0
 4101 1057 D9090000 		.4byte	0x9d9
 4102 105b 13       		.uleb128 0x13
 4103 105c 01       		.byte	0x1
 4104 105d 42000000 		.4byte	0x42
 4105 1061 02       		.byte	0x2
 4106 1062 35       		.byte	0x35
 4107 1063 86100000 		.4byte	0x1086
 4108 1067 14       		.uleb128 0x14
 4109 1068 1D020000 		.4byte	.LASF267
 4110 106c 00       		.byte	0
 4111 106d 14       		.uleb128 0x14
 4112 106e D6120000 		.4byte	.LASF268
 4113 1072 01       		.byte	0x1
 4114 1073 14       		.uleb128 0x14
 4115 1074 E4080000 		.4byte	.LASF269
 4116 1078 02       		.byte	0x2
 4117 1079 14       		.uleb128 0x14
 4118 107a 37100000 		.4byte	.LASF270
 4119 107e 03       		.byte	0x3
 4120 107f 14       		.uleb128 0x14
 4121 1080 0C100000 		.4byte	.LASF271
 4122 1084 04       		.byte	0x4
 4123 1085 00       		.byte	0
 4124 1086 02       		.uleb128 0x2
 4125 1087 D90E0000 		.4byte	.LASF272
 4126 108b 02       		.byte	0x2
 4127 108c 3D       		.byte	0x3d
 4128 108d B8000000 		.4byte	0xb8
 4129 1091 06       		.uleb128 0x6
 4130 1092 02       		.byte	0x2
 4131 1093 02       		.byte	0x2
 4132 1094 3F       		.byte	0x3f
 4133 1095 E5100000 		.4byte	0x10e5
 4134 1099 0A       		.uleb128 0xa
 4135 109a C30A0000 		.4byte	.LASF273
 4136 109e 02       		.byte	0x2
ARM GAS  C:\Users\pearlstl\AppData\Local\Temp\ccIMJlIA.s 			page 95


 4137 109f 43       		.byte	0x43
 4138 10a0 B8000000 		.4byte	0xb8
 4139 10a4 01       		.byte	0x1
 4140 10a5 04       		.byte	0x4
 4141 10a6 04       		.byte	0x4
 4142 10a7 00       		.byte	0
 4143 10a8 0A       		.uleb128 0xa
 4144 10a9 1D0C0000 		.4byte	.LASF274
 4145 10ad 02       		.byte	0x2
 4146 10ae 44       		.byte	0x44
 4147 10af B8000000 		.4byte	0xb8
 4148 10b3 01       		.byte	0x1
 4149 10b4 02       		.byte	0x2
 4150 10b5 02       		.byte	0x2
 4151 10b6 00       		.byte	0
 4152 10b7 0A       		.uleb128 0xa
 4153 10b8 02100000 		.4byte	.LASF275
 4154 10bc 02       		.byte	0x2
 4155 10bd 45       		.byte	0x45
 4156 10be B8000000 		.4byte	0xb8
 4157 10c2 01       		.byte	0x1
 4158 10c3 02       		.byte	0x2
 4159 10c4 00       		.byte	0
 4160 10c5 00       		.byte	0
 4161 10c6 0A       		.uleb128 0xa
 4162 10c7 79040000 		.4byte	.LASF276
 4163 10cb 02       		.byte	0x2
 4164 10cc 46       		.byte	0x46
 4165 10cd B8000000 		.4byte	0xb8
 4166 10d1 01       		.byte	0x1
 4167 10d2 02       		.byte	0x2
 4168 10d3 06       		.byte	0x6
 4169 10d4 01       		.byte	0x1
 4170 10d5 0A       		.uleb128 0xa
 4171 10d6 080F0000 		.4byte	.LASF277
 4172 10da 02       		.byte	0x2
 4173 10db 47       		.byte	0x47
 4174 10dc B8000000 		.4byte	0xb8
 4175 10e0 01       		.byte	0x1
 4176 10e1 02       		.byte	0x2
 4177 10e2 04       		.byte	0x4
 4178 10e3 01       		.byte	0x1
 4179 10e4 00       		.byte	0
 4180 10e5 02       		.uleb128 0x2
 4181 10e6 260B0000 		.4byte	.LASF278
 4182 10ea 02       		.byte	0x2
 4183 10eb 48       		.byte	0x48
 4184 10ec 91100000 		.4byte	0x1091
 4185 10f0 02       		.uleb128 0x2
 4186 10f1 CD130000 		.4byte	.LASF279
 4187 10f5 03       		.byte	0x3
 4188 10f6 32       		.byte	0x32
 4189 10f7 B8000000 		.4byte	0xb8
 4190 10fb 06       		.uleb128 0x6
 4191 10fc 18       		.byte	0x18
 4192 10fd 03       		.byte	0x3
 4193 10fe 3E       		.byte	0x3e
ARM GAS  C:\Users\pearlstl\AppData\Local\Temp\ccIMJlIA.s 			page 96


 4194 10ff 55110000 		.4byte	0x1155
 4195 1103 07       		.uleb128 0x7
 4196 1104 E60C0000 		.4byte	.LASF280
 4197 1108 03       		.byte	0x3
 4198 1109 40       		.byte	0x40
 4199 110a 45100000 		.4byte	0x1045
 4200 110e 00       		.byte	0
 4201 110f 07       		.uleb128 0x7
 4202 1110 E8140000 		.4byte	.LASF281
 4203 1114 03       		.byte	0x3
 4204 1115 41       		.byte	0x41
 4205 1116 08030000 		.4byte	0x308
 4206 111a 04       		.byte	0x4
 4207 111b 07       		.uleb128 0x7
 4208 111c 8C0E0000 		.4byte	.LASF282
 4209 1120 03       		.byte	0x3
 4210 1121 42       		.byte	0x42
 4211 1122 08030000 		.4byte	0x308
 4212 1126 0C       		.byte	0xc
 4213 1127 0A       		.uleb128 0xa
 4214 1128 D4070000 		.4byte	.LASF283
 4215 112c 03       		.byte	0x3
 4216 112d 43       		.byte	0x43
 4217 112e B8000000 		.4byte	0xb8
 4218 1132 01       		.byte	0x1
 4219 1133 01       		.byte	0x1
 4220 1134 07       		.byte	0x7
 4221 1135 14       		.byte	0x14
 4222 1136 0A       		.uleb128 0xa
 4223 1137 30020000 		.4byte	.LASF284
 4224 113b 03       		.byte	0x3
 4225 113c 44       		.byte	0x44
 4226 113d B8000000 		.4byte	0xb8
 4227 1141 01       		.byte	0x1
 4228 1142 01       		.byte	0x1
 4229 1143 06       		.byte	0x6
 4230 1144 14       		.byte	0x14
 4231 1145 0A       		.uleb128 0xa
 4232 1146 D9100000 		.4byte	.LASF285
 4233 114a 03       		.byte	0x3
 4234 114b 45       		.byte	0x45
 4235 114c F0100000 		.4byte	0x10f0
 4236 1150 01       		.byte	0x1
 4237 1151 03       		.byte	0x3
 4238 1152 03       		.byte	0x3
 4239 1153 14       		.byte	0x14
 4240 1154 00       		.byte	0
 4241 1155 06       		.uleb128 0x6
 4242 1156 0C       		.byte	0xc
 4243 1157 03       		.byte	0x3
 4244 1158 48       		.byte	0x48
 4245 1159 C1110000 		.4byte	0x11c1
 4246 115d 07       		.uleb128 0x7
 4247 115e 95010000 		.4byte	.LASF171
 4248 1162 03       		.byte	0x3
 4249 1163 4A       		.byte	0x4a
 4250 1164 37030000 		.4byte	0x337
ARM GAS  C:\Users\pearlstl\AppData\Local\Temp\ccIMJlIA.s 			page 97


 4251 1168 00       		.byte	0
 4252 1169 07       		.uleb128 0x7
 4253 116a E60C0000 		.4byte	.LASF280
 4254 116e 03       		.byte	0x3
 4255 116f 4B       		.byte	0x4b
 4256 1170 45100000 		.4byte	0x1045
 4257 1174 04       		.byte	0x4
 4258 1175 0A       		.uleb128 0xa
 4259 1176 94080000 		.4byte	.LASF286
 4260 117a 03       		.byte	0x3
 4261 117b 4C       		.byte	0x4c
 4262 117c B8000000 		.4byte	0xb8
 4263 1180 01       		.byte	0x1
 4264 1181 01       		.byte	0x1
 4265 1182 07       		.byte	0x7
 4266 1183 08       		.byte	0x8
 4267 1184 0A       		.uleb128 0xa
 4268 1185 D10F0000 		.4byte	.LASF287
 4269 1189 03       		.byte	0x3
 4270 118a 4D       		.byte	0x4d
 4271 118b B8000000 		.4byte	0xb8
 4272 118f 01       		.byte	0x1
 4273 1190 01       		.byte	0x1
 4274 1191 06       		.byte	0x6
 4275 1192 08       		.byte	0x8
 4276 1193 0A       		.uleb128 0xa
 4277 1194 82100000 		.4byte	.LASF288
 4278 1198 03       		.byte	0x3
 4279 1199 4F       		.byte	0x4f
 4280 119a B8000000 		.4byte	0xb8
 4281 119e 01       		.byte	0x1
 4282 119f 01       		.byte	0x1
 4283 11a0 05       		.byte	0x5
 4284 11a1 08       		.byte	0x8
 4285 11a2 0A       		.uleb128 0xa
 4286 11a3 79100000 		.4byte	.LASF289
 4287 11a7 03       		.byte	0x3
 4288 11a8 51       		.byte	0x51
 4289 11a9 B8000000 		.4byte	0xb8
 4290 11ad 01       		.byte	0x1
 4291 11ae 01       		.byte	0x1
 4292 11af 04       		.byte	0x4
 4293 11b0 08       		.byte	0x8
 4294 11b1 0A       		.uleb128 0xa
 4295 11b2 9B010000 		.4byte	.LASF290
 4296 11b6 03       		.byte	0x3
 4297 11b7 53       		.byte	0x53
 4298 11b8 B8000000 		.4byte	0xb8
 4299 11bc 01       		.byte	0x1
 4300 11bd 01       		.byte	0x1
 4301 11be 03       		.byte	0x3
 4302 11bf 08       		.byte	0x8
 4303 11c0 00       		.byte	0
 4304 11c1 06       		.uleb128 0x6
 4305 11c2 30       		.byte	0x30
 4306 11c3 03       		.byte	0x3
 4307 11c4 39       		.byte	0x39
ARM GAS  C:\Users\pearlstl\AppData\Local\Temp\ccIMJlIA.s 			page 98


 4308 11c5 22120000 		.4byte	0x1222
 4309 11c9 08       		.uleb128 0x8
 4310 11ca 626700   		.ascii	"bg\000"
 4311 11cd 03       		.byte	0x3
 4312 11ce 3B       		.byte	0x3b
 4313 11cf E5100000 		.4byte	0x10e5
 4314 11d3 00       		.byte	0
 4315 11d4 07       		.uleb128 0x7
 4316 11d5 92040000 		.4byte	.LASF291
 4317 11d9 03       		.byte	0x3
 4318 11da 3D       		.byte	0x3d
 4319 11db 22120000 		.4byte	0x1222
 4320 11df 04       		.byte	0x4
 4321 11e0 08       		.uleb128 0x8
 4322 11e1 736200   		.ascii	"sb\000"
 4323 11e4 03       		.byte	0x3
 4324 11e5 46       		.byte	0x46
 4325 11e6 FB100000 		.4byte	0x10fb
 4326 11ea 08       		.byte	0x8
 4327 11eb 07       		.uleb128 0x7
 4328 11ec 6A150000 		.4byte	.LASF292
 4329 11f0 03       		.byte	0x3
 4330 11f1 55       		.byte	0x55
 4331 11f2 55110000 		.4byte	0x1155
 4332 11f6 20       		.byte	0x20
 4333 11f7 07       		.uleb128 0x7
 4334 11f8 FA050000 		.4byte	.LASF293
 4335 11fc 03       		.byte	0x3
 4336 11fd 57       		.byte	0x57
 4337 11fe CE000000 		.4byte	0xce
 4338 1202 2C       		.byte	0x2c
 4339 1203 0A       		.uleb128 0xa
 4340 1204 1D040000 		.4byte	.LASF294
 4341 1208 03       		.byte	0x3
 4342 1209 5A       		.byte	0x5a
 4343 120a B8000000 		.4byte	0xb8
 4344 120e 01       		.byte	0x1
 4345 120f 01       		.byte	0x1
 4346 1210 07       		.byte	0x7
 4347 1211 2E       		.byte	0x2e
 4348 1212 0A       		.uleb128 0xa
 4349 1213 7C080000 		.4byte	.LASF295
 4350 1217 03       		.byte	0x3
 4351 1218 5B       		.byte	0x5b
 4352 1219 B8000000 		.4byte	0xb8
 4353 121d 01       		.byte	0x1
 4354 121e 01       		.byte	0x1
 4355 121f 06       		.byte	0x6
 4356 1220 2E       		.byte	0x2e
 4357 1221 00       		.byte	0
 4358 1222 0D       		.uleb128 0xd
 4359 1223 04       		.byte	0x4
 4360 1224 50100000 		.4byte	0x1050
 4361 1228 02       		.uleb128 0x2
 4362 1229 C8050000 		.4byte	.LASF296
 4363 122d 03       		.byte	0x3
 4364 122e 5C       		.byte	0x5c
ARM GAS  C:\Users\pearlstl\AppData\Local\Temp\ccIMJlIA.s 			page 99


 4365 122f C1110000 		.4byte	0x11c1
 4366 1233 13       		.uleb128 0x13
 4367 1234 01       		.byte	0x1
 4368 1235 42000000 		.4byte	0x42
 4369 1239 03       		.byte	0x3
 4370 123a 5E       		.byte	0x5e
 4371 123b 58120000 		.4byte	0x1258
 4372 123f 14       		.uleb128 0x14
 4373 1240 92100000 		.4byte	.LASF297
 4374 1244 00       		.byte	0
 4375 1245 14       		.uleb128 0x14
 4376 1246 130F0000 		.4byte	.LASF298
 4377 124a 01       		.byte	0x1
 4378 124b 14       		.uleb128 0x14
 4379 124c B2070000 		.4byte	.LASF299
 4380 1250 02       		.byte	0x2
 4381 1251 14       		.uleb128 0x14
 4382 1252 B9000000 		.4byte	.LASF300
 4383 1256 03       		.byte	0x3
 4384 1257 00       		.byte	0
 4385 1258 06       		.uleb128 0x6
 4386 1259 40       		.byte	0x40
 4387 125a 13       		.byte	0x13
 4388 125b 23       		.byte	0x23
 4389 125c F7120000 		.4byte	0x12f7
 4390 1260 07       		.uleb128 0x7
 4391 1261 380C0000 		.4byte	.LASF301
 4392 1265 13       		.byte	0x13
 4393 1266 25       		.byte	0x25
 4394 1267 28120000 		.4byte	0x1228
 4395 126b 00       		.byte	0
 4396 126c 07       		.uleb128 0x7
 4397 126d 43100000 		.4byte	.LASF302
 4398 1271 13       		.byte	0x13
 4399 1272 27       		.byte	0x27
 4400 1273 0C0E0000 		.4byte	0xe0c
 4401 1277 30       		.byte	0x30
 4402 1278 07       		.uleb128 0x7
 4403 1279 20030000 		.4byte	.LASF303
 4404 127d 13       		.byte	0x13
 4405 127e 28       		.byte	0x28
 4406 127f CE000000 		.4byte	0xce
 4407 1283 34       		.byte	0x34
 4408 1284 07       		.uleb128 0x7
 4409 1285 FA050000 		.4byte	.LASF293
 4410 1289 13       		.byte	0x13
 4411 128a 2A       		.byte	0x2a
 4412 128b CE000000 		.4byte	0xce
 4413 128f 36       		.byte	0x36
 4414 1290 07       		.uleb128 0x7
 4415 1291 75150000 		.4byte	.LASF304
 4416 1295 13       		.byte	0x13
 4417 1296 2C       		.byte	0x2c
 4418 1297 C8020000 		.4byte	0x2c8
 4419 129b 38       		.byte	0x38
 4420 129c 0A       		.uleb128 0xa
 4421 129d DC140000 		.4byte	.LASF305
ARM GAS  C:\Users\pearlstl\AppData\Local\Temp\ccIMJlIA.s 			page 100


 4422 12a1 13       		.byte	0x13
 4423 12a2 2D       		.byte	0x2d
 4424 12a3 B8000000 		.4byte	0xb8
 4425 12a7 01       		.byte	0x1
 4426 12a8 01       		.byte	0x1
 4427 12a9 07       		.byte	0x7
 4428 12aa 3C       		.byte	0x3c
 4429 12ab 0A       		.uleb128 0xa
 4430 12ac 57040000 		.4byte	.LASF306
 4431 12b0 13       		.byte	0x13
 4432 12b1 2E       		.byte	0x2e
 4433 12b2 B8000000 		.4byte	0xb8
 4434 12b6 01       		.byte	0x1
 4435 12b7 01       		.byte	0x1
 4436 12b8 06       		.byte	0x6
 4437 12b9 3C       		.byte	0x3c
 4438 12ba 0A       		.uleb128 0xa
 4439 12bb 270A0000 		.4byte	.LASF307
 4440 12bf 13       		.byte	0x13
 4441 12c0 2F       		.byte	0x2f
 4442 12c1 B8000000 		.4byte	0xb8
 4443 12c5 01       		.byte	0x1
 4444 12c6 01       		.byte	0x1
 4445 12c7 05       		.byte	0x5
 4446 12c8 3C       		.byte	0x3c
 4447 12c9 0A       		.uleb128 0xa
 4448 12ca 41130000 		.4byte	.LASF308
 4449 12ce 13       		.byte	0x13
 4450 12cf 30       		.byte	0x30
 4451 12d0 B8000000 		.4byte	0xb8
 4452 12d4 01       		.byte	0x1
 4453 12d5 01       		.byte	0x1
 4454 12d6 04       		.byte	0x4
 4455 12d7 3C       		.byte	0x3c
 4456 12d8 0A       		.uleb128 0xa
 4457 12d9 43050000 		.4byte	.LASF309
 4458 12dd 13       		.byte	0x13
 4459 12de 31       		.byte	0x31
 4460 12df B8000000 		.4byte	0xb8
 4461 12e3 01       		.byte	0x1
 4462 12e4 01       		.byte	0x1
 4463 12e5 03       		.byte	0x3
 4464 12e6 3C       		.byte	0x3c
 4465 12e7 0A       		.uleb128 0xa
 4466 12e8 FF0E0000 		.4byte	.LASF310
 4467 12ec 13       		.byte	0x13
 4468 12ed 32       		.byte	0x32
 4469 12ee B8000000 		.4byte	0xb8
 4470 12f2 01       		.byte	0x1
 4471 12f3 01       		.byte	0x1
 4472 12f4 02       		.byte	0x2
 4473 12f5 3C       		.byte	0x3c
 4474 12f6 00       		.byte	0
 4475 12f7 02       		.uleb128 0x2
 4476 12f8 CE040000 		.4byte	.LASF311
 4477 12fc 13       		.byte	0x13
 4478 12fd 33       		.byte	0x33
ARM GAS  C:\Users\pearlstl\AppData\Local\Temp\ccIMJlIA.s 			page 101


 4479 12fe 58120000 		.4byte	0x1258
 4480 1302 13       		.uleb128 0x13
 4481 1303 01       		.byte	0x1
 4482 1304 42000000 		.4byte	0x42
 4483 1308 13       		.byte	0x13
 4484 1309 36       		.byte	0x36
 4485 130a 15130000 		.4byte	0x1315
 4486 130e 14       		.uleb128 0x14
 4487 130f 61000000 		.4byte	.LASF312
 4488 1313 00       		.byte	0
 4489 1314 00       		.byte	0
 4490 1315 02       		.uleb128 0x2
 4491 1316 3E120000 		.4byte	.LASF313
 4492 131a 13       		.byte	0x13
 4493 131b 39       		.byte	0x39
 4494 131c B8000000 		.4byte	0xb8
 4495 1320 06       		.uleb128 0x6
 4496 1321 14       		.byte	0x14
 4497 1322 14       		.byte	0x14
 4498 1323 34       		.byte	0x34
 4499 1324 64130000 		.4byte	0x1364
 4500 1328 08       		.uleb128 0x8
 4501 1329 72656C00 		.ascii	"rel\000"
 4502 132d 14       		.byte	0x14
 4503 132e 36       		.byte	0x36
 4504 132f B2060000 		.4byte	0x6b2
 4505 1333 00       		.byte	0
 4506 1334 08       		.uleb128 0x8
 4507 1335 707200   		.ascii	"pr\000"
 4508 1338 14       		.byte	0x14
 4509 1339 37       		.byte	0x37
 4510 133a B2060000 		.4byte	0x6b2
 4511 133e 04       		.byte	0x4
 4512 133f 07       		.uleb128 0x7
 4513 1340 A50B0000 		.4byte	.LASF314
 4514 1344 14       		.byte	0x14
 4515 1345 38       		.byte	0x38
 4516 1346 B2060000 		.4byte	0x6b2
 4517 134a 08       		.byte	0x8
 4518 134b 07       		.uleb128 0x7
 4519 134c 66040000 		.4byte	.LASF315
 4520 1350 14       		.byte	0x14
 4521 1351 39       		.byte	0x39
 4522 1352 B2060000 		.4byte	0x6b2
 4523 1356 0C       		.byte	0xc
 4524 1357 08       		.uleb128 0x8
 4525 1358 696E6100 		.ascii	"ina\000"
 4526 135c 14       		.byte	0x14
 4527 135d 3A       		.byte	0x3a
 4528 135e B2060000 		.4byte	0x6b2
 4529 1362 10       		.byte	0x10
 4530 1363 00       		.byte	0
 4531 1364 06       		.uleb128 0x6
 4532 1365 14       		.byte	0x14
 4533 1366 14       		.byte	0x14
 4534 1367 3F       		.byte	0x3f
 4535 1368 A8130000 		.4byte	0x13a8
ARM GAS  C:\Users\pearlstl\AppData\Local\Temp\ccIMJlIA.s 			page 102


 4536 136c 08       		.uleb128 0x8
 4537 136d 72656C00 		.ascii	"rel\000"
 4538 1371 14       		.byte	0x14
 4539 1372 41       		.byte	0x41
 4540 1373 B2060000 		.4byte	0x6b2
 4541 1377 00       		.byte	0
 4542 1378 08       		.uleb128 0x8
 4543 1379 707200   		.ascii	"pr\000"
 4544 137c 14       		.byte	0x14
 4545 137d 42       		.byte	0x42
 4546 137e B2060000 		.4byte	0x6b2
 4547 1382 04       		.byte	0x4
 4548 1383 07       		.uleb128 0x7
 4549 1384 A50B0000 		.4byte	.LASF314
 4550 1388 14       		.byte	0x14
 4551 1389 43       		.byte	0x43
 4552 138a B2060000 		.4byte	0x6b2
 4553 138e 08       		.byte	0x8
 4554 138f 07       		.uleb128 0x7
 4555 1390 66040000 		.4byte	.LASF315
 4556 1394 14       		.byte	0x14
 4557 1395 44       		.byte	0x44
 4558 1396 B2060000 		.4byte	0x6b2
 4559 139a 0C       		.byte	0xc
 4560 139b 08       		.uleb128 0x8
 4561 139c 696E6100 		.ascii	"ina\000"
 4562 13a0 14       		.byte	0x14
 4563 13a1 45       		.byte	0x45
 4564 13a2 B2060000 		.4byte	0x6b2
 4565 13a6 10       		.byte	0x10
 4566 13a7 00       		.byte	0
 4567 13a8 06       		.uleb128 0x6
 4568 13a9 0C       		.byte	0xc
 4569 13aa 14       		.byte	0x14
 4570 13ab 4A       		.byte	0x4a
 4571 13ac D5130000 		.4byte	0x13d5
 4572 13b0 07       		.uleb128 0x7
 4573 13b1 0F030000 		.4byte	.LASF316
 4574 13b5 14       		.byte	0x14
 4575 13b6 4C       		.byte	0x4c
 4576 13b7 B2060000 		.4byte	0x6b2
 4577 13bb 00       		.byte	0
 4578 13bc 08       		.uleb128 0x8
 4579 13bd 73656300 		.ascii	"sec\000"
 4580 13c1 14       		.byte	0x14
 4581 13c2 4D       		.byte	0x4d
 4582 13c3 B2060000 		.4byte	0x6b2
 4583 13c7 04       		.byte	0x4
 4584 13c8 07       		.uleb128 0x7
 4585 13c9 1B090000 		.4byte	.LASF317
 4586 13cd 14       		.byte	0x14
 4587 13ce 4E       		.byte	0x4e
 4588 13cf B2060000 		.4byte	0x6b2
 4589 13d3 08       		.byte	0x8
 4590 13d4 00       		.byte	0
 4591 13d5 06       		.uleb128 0x6
 4592 13d6 08       		.byte	0x8
ARM GAS  C:\Users\pearlstl\AppData\Local\Temp\ccIMJlIA.s 			page 103


 4593 13d7 14       		.byte	0x14
 4594 13d8 53       		.byte	0x53
 4595 13d9 F6130000 		.4byte	0x13f6
 4596 13dd 07       		.uleb128 0x7
 4597 13de 39020000 		.4byte	.LASF318
 4598 13e2 14       		.byte	0x14
 4599 13e3 55       		.byte	0x55
 4600 13e4 B2060000 		.4byte	0x6b2
 4601 13e8 00       		.byte	0
 4602 13e9 07       		.uleb128 0x7
 4603 13ea 78130000 		.4byte	.LASF319
 4604 13ee 14       		.byte	0x14
 4605 13ef 56       		.byte	0x56
 4606 13f0 B2060000 		.4byte	0x6b2
 4607 13f4 04       		.byte	0x4
 4608 13f5 00       		.byte	0
 4609 13f6 06       		.uleb128 0x6
 4610 13f7 04       		.byte	0x4
 4611 13f8 14       		.byte	0x14
 4612 13f9 5B       		.byte	0x5b
 4613 13fa 0B140000 		.4byte	0x140b
 4614 13fe 07       		.uleb128 0x7
 4615 13ff 380F0000 		.4byte	.LASF320
 4616 1403 14       		.byte	0x14
 4617 1404 5D       		.byte	0x5d
 4618 1405 B2060000 		.4byte	0x6b2
 4619 1409 00       		.byte	0
 4620 140a 00       		.byte	0
 4621 140b 06       		.uleb128 0x6
 4622 140c 08       		.byte	0x8
 4623 140d 14       		.byte	0x14
 4624 140e 66       		.byte	0x66
 4625 140f 2B140000 		.4byte	0x142b
 4626 1413 08       		.uleb128 0x8
 4627 1414 626700   		.ascii	"bg\000"
 4628 1417 14       		.byte	0x14
 4629 1418 68       		.byte	0x68
 4630 1419 B2060000 		.4byte	0x6b2
 4631 141d 00       		.byte	0
 4632 141e 07       		.uleb128 0x7
 4633 141f 780A0000 		.4byte	.LASF321
 4634 1423 14       		.byte	0x14
 4635 1424 69       		.byte	0x69
 4636 1425 B2060000 		.4byte	0x6b2
 4637 1429 04       		.byte	0x4
 4638 142a 00       		.byte	0
 4639 142b 06       		.uleb128 0x6
 4640 142c 0C       		.byte	0xc
 4641 142d 14       		.byte	0x14
 4642 142e 6E       		.byte	0x6e
 4643 142f 57140000 		.4byte	0x1457
 4644 1433 08       		.uleb128 0x8
 4645 1434 626700   		.ascii	"bg\000"
 4646 1437 14       		.byte	0x14
 4647 1438 70       		.byte	0x70
 4648 1439 B2060000 		.4byte	0x6b2
 4649 143d 00       		.byte	0
ARM GAS  C:\Users\pearlstl\AppData\Local\Temp\ccIMJlIA.s 			page 104


 4650 143e 07       		.uleb128 0x7
 4651 143f 780A0000 		.4byte	.LASF321
 4652 1443 14       		.byte	0x14
 4653 1444 71       		.byte	0x71
 4654 1445 B2060000 		.4byte	0x6b2
 4655 1449 04       		.byte	0x4
 4656 144a 07       		.uleb128 0x7
 4657 144b D7140000 		.4byte	.LASF322
 4658 144f 14       		.byte	0x14
 4659 1450 72       		.byte	0x72
 4660 1451 B2060000 		.4byte	0x6b2
 4661 1455 08       		.byte	0x8
 4662 1456 00       		.byte	0
 4663 1457 06       		.uleb128 0x6
 4664 1458 10       		.byte	0x10
 4665 1459 14       		.byte	0x14
 4666 145a 87       		.byte	0x87
 4667 145b 8F140000 		.4byte	0x148f
 4668 145f 08       		.uleb128 0x8
 4669 1460 626700   		.ascii	"bg\000"
 4670 1463 14       		.byte	0x14
 4671 1464 89       		.byte	0x89
 4672 1465 B2060000 		.4byte	0x6b2
 4673 1469 00       		.byte	0
 4674 146a 07       		.uleb128 0x7
 4675 146b 780A0000 		.4byte	.LASF321
 4676 146f 14       		.byte	0x14
 4677 1470 8A       		.byte	0x8a
 4678 1471 B2060000 		.4byte	0x6b2
 4679 1475 04       		.byte	0x4
 4680 1476 07       		.uleb128 0x7
 4681 1477 450C0000 		.4byte	.LASF323
 4682 147b 14       		.byte	0x14
 4683 147c 8B       		.byte	0x8b
 4684 147d B2060000 		.4byte	0x6b2
 4685 1481 08       		.byte	0x8
 4686 1482 07       		.uleb128 0x7
 4687 1483 69050000 		.4byte	.LASF324
 4688 1487 14       		.byte	0x14
 4689 1488 8C       		.byte	0x8c
 4690 1489 B2060000 		.4byte	0x6b2
 4691 148d 0C       		.byte	0xc
 4692 148e 00       		.byte	0
 4693 148f 06       		.uleb128 0x6
 4694 1490 20       		.byte	0x20
 4695 1491 14       		.byte	0x14
 4696 1492 95       		.byte	0x95
 4697 1493 F7140000 		.4byte	0x14f7
 4698 1497 08       		.uleb128 0x8
 4699 1498 626700   		.ascii	"bg\000"
 4700 149b 14       		.byte	0x14
 4701 149c 97       		.byte	0x97
 4702 149d B2060000 		.4byte	0x6b2
 4703 14a1 00       		.byte	0
 4704 14a2 07       		.uleb128 0x7
 4705 14a3 7D050000 		.4byte	.LASF325
 4706 14a7 14       		.byte	0x14
ARM GAS  C:\Users\pearlstl\AppData\Local\Temp\ccIMJlIA.s 			page 105


 4707 14a8 98       		.byte	0x98
 4708 14a9 B2060000 		.4byte	0x6b2
 4709 14ad 04       		.byte	0x4
 4710 14ae 07       		.uleb128 0x7
 4711 14af 2B000000 		.4byte	.LASF326
 4712 14b3 14       		.byte	0x14
 4713 14b4 99       		.byte	0x99
 4714 14b5 B2060000 		.4byte	0x6b2
 4715 14b9 08       		.byte	0x8
 4716 14ba 07       		.uleb128 0x7
 4717 14bb C5110000 		.4byte	.LASF327
 4718 14bf 14       		.byte	0x14
 4719 14c0 9A       		.byte	0x9a
 4720 14c1 B2060000 		.4byte	0x6b2
 4721 14c5 0C       		.byte	0xc
 4722 14c6 07       		.uleb128 0x7
 4723 14c7 57010000 		.4byte	.LASF328
 4724 14cb 14       		.byte	0x14
 4725 14cc 9B       		.byte	0x9b
 4726 14cd B2060000 		.4byte	0x6b2
 4727 14d1 10       		.byte	0x10
 4728 14d2 07       		.uleb128 0x7
 4729 14d3 950E0000 		.4byte	.LASF329
 4730 14d7 14       		.byte	0x14
 4731 14d8 9C       		.byte	0x9c
 4732 14d9 B2060000 		.4byte	0x6b2
 4733 14dd 14       		.byte	0x14
 4734 14de 07       		.uleb128 0x7
 4735 14df 2A060000 		.4byte	.LASF330
 4736 14e3 14       		.byte	0x14
 4737 14e4 9D       		.byte	0x9d
 4738 14e5 B2060000 		.4byte	0x6b2
 4739 14e9 18       		.byte	0x18
 4740 14ea 07       		.uleb128 0x7
 4741 14eb B00F0000 		.4byte	.LASF331
 4742 14ef 14       		.byte	0x14
 4743 14f0 9E       		.byte	0x9e
 4744 14f1 B2060000 		.4byte	0x6b2
 4745 14f5 1C       		.byte	0x1c
 4746 14f6 00       		.byte	0
 4747 14f7 06       		.uleb128 0x6
 4748 14f8 14       		.byte	0x14
 4749 14f9 14       		.byte	0x14
 4750 14fa A6       		.byte	0xa6
 4751 14fb 3B150000 		.4byte	0x153b
 4752 14ff 08       		.uleb128 0x8
 4753 1500 72656C00 		.ascii	"rel\000"
 4754 1504 14       		.byte	0x14
 4755 1505 A8       		.byte	0xa8
 4756 1506 B2060000 		.4byte	0x6b2
 4757 150a 00       		.byte	0
 4758 150b 08       		.uleb128 0x8
 4759 150c 707200   		.ascii	"pr\000"
 4760 150f 14       		.byte	0x14
 4761 1510 A9       		.byte	0xa9
 4762 1511 B2060000 		.4byte	0x6b2
 4763 1515 04       		.byte	0x4
ARM GAS  C:\Users\pearlstl\AppData\Local\Temp\ccIMJlIA.s 			page 106


 4764 1516 07       		.uleb128 0x7
 4765 1517 A50B0000 		.4byte	.LASF314
 4766 151b 14       		.byte	0x14
 4767 151c AA       		.byte	0xaa
 4768 151d B2060000 		.4byte	0x6b2
 4769 1521 08       		.byte	0x8
 4770 1522 07       		.uleb128 0x7
 4771 1523 66040000 		.4byte	.LASF315
 4772 1527 14       		.byte	0x14
 4773 1528 AB       		.byte	0xab
 4774 1529 B2060000 		.4byte	0x6b2
 4775 152d 0C       		.byte	0xc
 4776 152e 08       		.uleb128 0x8
 4777 152f 696E6100 		.ascii	"ina\000"
 4778 1533 14       		.byte	0x14
 4779 1534 AC       		.byte	0xac
 4780 1535 B2060000 		.4byte	0x6b2
 4781 1539 10       		.byte	0x10
 4782 153a 00       		.byte	0
 4783 153b 06       		.uleb128 0x6
 4784 153c 18       		.byte	0x18
 4785 153d 14       		.byte	0x14
 4786 153e A3       		.byte	0xa3
 4787 153f 5B150000 		.4byte	0x155b
 4788 1543 08       		.uleb128 0x8
 4789 1544 626700   		.ascii	"bg\000"
 4790 1547 14       		.byte	0x14
 4791 1548 A5       		.byte	0xa5
 4792 1549 B2060000 		.4byte	0x6b2
 4793 154d 00       		.byte	0
 4794 154e 08       		.uleb128 0x8
 4795 154f 626F7800 		.ascii	"box\000"
 4796 1553 14       		.byte	0x14
 4797 1554 AD       		.byte	0xad
 4798 1555 F7140000 		.4byte	0x14f7
 4799 1559 04       		.byte	0x4
 4800 155a 00       		.byte	0
 4801 155b 06       		.uleb128 0x6
 4802 155c 14       		.byte	0x14
 4803 155d 14       		.byte	0x14
 4804 155e B5       		.byte	0xb5
 4805 155f 9F150000 		.4byte	0x159f
 4806 1563 08       		.uleb128 0x8
 4807 1564 72656C00 		.ascii	"rel\000"
 4808 1568 14       		.byte	0x14
 4809 1569 B7       		.byte	0xb7
 4810 156a B2060000 		.4byte	0x6b2
 4811 156e 00       		.byte	0
 4812 156f 08       		.uleb128 0x8
 4813 1570 707200   		.ascii	"pr\000"
 4814 1573 14       		.byte	0x14
 4815 1574 B8       		.byte	0xb8
 4816 1575 B2060000 		.4byte	0x6b2
 4817 1579 04       		.byte	0x4
 4818 157a 07       		.uleb128 0x7
 4819 157b A50B0000 		.4byte	.LASF314
 4820 157f 14       		.byte	0x14
ARM GAS  C:\Users\pearlstl\AppData\Local\Temp\ccIMJlIA.s 			page 107


 4821 1580 B9       		.byte	0xb9
 4822 1581 B2060000 		.4byte	0x6b2
 4823 1585 08       		.byte	0x8
 4824 1586 07       		.uleb128 0x7
 4825 1587 66040000 		.4byte	.LASF315
 4826 158b 14       		.byte	0x14
 4827 158c BA       		.byte	0xba
 4828 158d B2060000 		.4byte	0x6b2
 4829 1591 0C       		.byte	0xc
 4830 1592 08       		.uleb128 0x8
 4831 1593 696E6100 		.ascii	"ina\000"
 4832 1597 14       		.byte	0x14
 4833 1598 BB       		.byte	0xbb
 4834 1599 B2060000 		.4byte	0x6b2
 4835 159d 10       		.byte	0x10
 4836 159e 00       		.byte	0
 4837 159f 06       		.uleb128 0x6
 4838 15a0 18       		.byte	0x18
 4839 15a1 14       		.byte	0x14
 4840 15a2 B2       		.byte	0xb2
 4841 15a3 BF150000 		.4byte	0x15bf
 4842 15a7 08       		.uleb128 0x8
 4843 15a8 626700   		.ascii	"bg\000"
 4844 15ab 14       		.byte	0x14
 4845 15ac B4       		.byte	0xb4
 4846 15ad B2060000 		.4byte	0x6b2
 4847 15b1 00       		.byte	0
 4848 15b2 08       		.uleb128 0x8
 4849 15b3 62746E00 		.ascii	"btn\000"
 4850 15b7 14       		.byte	0x14
 4851 15b8 BC       		.byte	0xbc
 4852 15b9 5B150000 		.4byte	0x155b
 4853 15bd 04       		.byte	0x4
 4854 15be 00       		.byte	0
 4855 15bf 06       		.uleb128 0x6
 4856 15c0 14       		.byte	0x14
 4857 15c1 14       		.byte	0x14
 4858 15c2 C4       		.byte	0xc4
 4859 15c3 03160000 		.4byte	0x1603
 4860 15c7 08       		.uleb128 0x8
 4861 15c8 72656C00 		.ascii	"rel\000"
 4862 15cc 14       		.byte	0x14
 4863 15cd C6       		.byte	0xc6
 4864 15ce B2060000 		.4byte	0x6b2
 4865 15d2 00       		.byte	0
 4866 15d3 08       		.uleb128 0x8
 4867 15d4 707200   		.ascii	"pr\000"
 4868 15d7 14       		.byte	0x14
 4869 15d8 C7       		.byte	0xc7
 4870 15d9 B2060000 		.4byte	0x6b2
 4871 15dd 04       		.byte	0x4
 4872 15de 07       		.uleb128 0x7
 4873 15df A50B0000 		.4byte	.LASF314
 4874 15e3 14       		.byte	0x14
 4875 15e4 C8       		.byte	0xc8
 4876 15e5 B2060000 		.4byte	0x6b2
 4877 15e9 08       		.byte	0x8
ARM GAS  C:\Users\pearlstl\AppData\Local\Temp\ccIMJlIA.s 			page 108


 4878 15ea 07       		.uleb128 0x7
 4879 15eb 66040000 		.4byte	.LASF315
 4880 15ef 14       		.byte	0x14
 4881 15f0 C9       		.byte	0xc9
 4882 15f1 B2060000 		.4byte	0x6b2
 4883 15f5 0C       		.byte	0xc
 4884 15f6 08       		.uleb128 0x8
 4885 15f7 696E6100 		.ascii	"ina\000"
 4886 15fb 14       		.byte	0x14
 4887 15fc CA       		.byte	0xca
 4888 15fd B2060000 		.4byte	0x6b2
 4889 1601 10       		.byte	0x10
 4890 1602 00       		.byte	0
 4891 1603 06       		.uleb128 0x6
 4892 1604 18       		.byte	0x18
 4893 1605 14       		.byte	0x14
 4894 1606 C1       		.byte	0xc1
 4895 1607 23160000 		.4byte	0x1623
 4896 160b 08       		.uleb128 0x8
 4897 160c 626700   		.ascii	"bg\000"
 4898 160f 14       		.byte	0x14
 4899 1610 C3       		.byte	0xc3
 4900 1611 B2060000 		.4byte	0x6b2
 4901 1615 00       		.byte	0
 4902 1616 08       		.uleb128 0x8
 4903 1617 62746E00 		.ascii	"btn\000"
 4904 161b 14       		.byte	0x14
 4905 161c CB       		.byte	0xcb
 4906 161d BF150000 		.4byte	0x15bf
 4907 1621 04       		.byte	0x4
 4908 1622 00       		.byte	0
 4909 1623 06       		.uleb128 0x6
 4910 1624 0C       		.byte	0xc
 4911 1625 14       		.byte	0x14
 4912 1626 D3       		.byte	0xd3
 4913 1627 4E160000 		.4byte	0x164e
 4914 162b 08       		.uleb128 0x8
 4915 162c 626700   		.ascii	"bg\000"
 4916 162f 14       		.byte	0x14
 4917 1630 D5       		.byte	0xd5
 4918 1631 B2060000 		.4byte	0x6b2
 4919 1635 00       		.byte	0
 4920 1636 08       		.uleb128 0x8
 4921 1637 72656C00 		.ascii	"rel\000"
 4922 163b 14       		.byte	0x14
 4923 163c D6       		.byte	0xd6
 4924 163d B2060000 		.4byte	0x6b2
 4925 1641 04       		.byte	0x4
 4926 1642 08       		.uleb128 0x8
 4927 1643 707200   		.ascii	"pr\000"
 4928 1646 14       		.byte	0x14
 4929 1647 D7       		.byte	0xd7
 4930 1648 B2060000 		.4byte	0x6b2
 4931 164c 08       		.byte	0x8
 4932 164d 00       		.byte	0
 4933 164e 06       		.uleb128 0x6
 4934 164f 10       		.byte	0x10
ARM GAS  C:\Users\pearlstl\AppData\Local\Temp\ccIMJlIA.s 			page 109


 4935 1650 14       		.byte	0x14
 4936 1651 D0       		.byte	0xd0
 4937 1652 6E160000 		.4byte	0x166e
 4938 1656 08       		.uleb128 0x8
 4939 1657 626700   		.ascii	"bg\000"
 4940 165a 14       		.byte	0x14
 4941 165b D2       		.byte	0xd2
 4942 165c B2060000 		.4byte	0x6b2
 4943 1660 00       		.byte	0
 4944 1661 08       		.uleb128 0x8
 4945 1662 62746E00 		.ascii	"btn\000"
 4946 1666 14       		.byte	0x14
 4947 1667 D8       		.byte	0xd8
 4948 1668 23160000 		.4byte	0x1623
 4949 166c 04       		.byte	0x4
 4950 166d 00       		.byte	0
 4951 166e 06       		.uleb128 0x6
 4952 166f 0C       		.byte	0xc
 4953 1670 14       		.byte	0x14
 4954 1671 DD       		.byte	0xdd
 4955 1672 99160000 		.4byte	0x1699
 4956 1676 08       		.uleb128 0x8
 4957 1677 626700   		.ascii	"bg\000"
 4958 167a 14       		.byte	0x14
 4959 167b DF       		.byte	0xdf
 4960 167c B2060000 		.4byte	0x6b2
 4961 1680 00       		.byte	0
 4962 1681 07       		.uleb128 0x7
 4963 1682 92040000 		.4byte	.LASF291
 4964 1686 14       		.byte	0x14
 4965 1687 E0       		.byte	0xe0
 4966 1688 B2060000 		.4byte	0x6b2
 4967 168c 04       		.byte	0x4
 4968 168d 08       		.uleb128 0x8
 4969 168e 736200   		.ascii	"sb\000"
 4970 1691 14       		.byte	0x14
 4971 1692 E1       		.byte	0xe1
 4972 1693 B2060000 		.4byte	0x6b2
 4973 1697 08       		.byte	0x8
 4974 1698 00       		.byte	0
 4975 1699 06       		.uleb128 0x6
 4976 169a 10       		.byte	0x10
 4977 169b 14       		.byte	0x14
 4978 169c E6       		.byte	0xe6
 4979 169d D1160000 		.4byte	0x16d1
 4980 16a1 07       		.uleb128 0x7
 4981 16a2 77080000 		.4byte	.LASF119
 4982 16a6 14       		.byte	0x14
 4983 16a7 E8       		.byte	0xe8
 4984 16a8 B2060000 		.4byte	0x6b2
 4985 16ac 00       		.byte	0
 4986 16ad 07       		.uleb128 0x7
 4987 16ae DD090000 		.4byte	.LASF332
 4988 16b2 14       		.byte	0x14
 4989 16b3 E9       		.byte	0xe9
 4990 16b4 B2060000 		.4byte	0x6b2
 4991 16b8 04       		.byte	0x4
ARM GAS  C:\Users\pearlstl\AppData\Local\Temp\ccIMJlIA.s 			page 110


 4992 16b9 07       		.uleb128 0x7
 4993 16ba 36150000 		.4byte	.LASF207
 4994 16be 14       		.byte	0x14
 4995 16bf EA       		.byte	0xea
 4996 16c0 B2060000 		.4byte	0x6b2
 4997 16c4 08       		.byte	0x8
 4998 16c5 08       		.uleb128 0x8
 4999 16c6 736200   		.ascii	"sb\000"
 5000 16c9 14       		.byte	0x14
 5001 16ca EB       		.byte	0xeb
 5002 16cb B2060000 		.4byte	0x6b2
 5003 16cf 0C       		.byte	0xc
 5004 16d0 00       		.byte	0
 5005 16d1 06       		.uleb128 0x6
 5006 16d2 0C       		.byte	0xc
 5007 16d3 14       		.byte	0x14
 5008 16d4 F0       		.byte	0xf0
 5009 16d5 FC160000 		.4byte	0x16fc
 5010 16d9 08       		.uleb128 0x8
 5011 16da 626700   		.ascii	"bg\000"
 5012 16dd 14       		.byte	0x14
 5013 16de F2       		.byte	0xf2
 5014 16df B2060000 		.4byte	0x6b2
 5015 16e3 00       		.byte	0
 5016 16e4 07       		.uleb128 0x7
 5017 16e5 36150000 		.4byte	.LASF207
 5018 16e9 14       		.byte	0x14
 5019 16ea F3       		.byte	0xf3
 5020 16eb B2060000 		.4byte	0x6b2
 5021 16ef 04       		.byte	0x4
 5022 16f0 08       		.uleb128 0x8
 5023 16f1 736200   		.ascii	"sb\000"
 5024 16f4 14       		.byte	0x14
 5025 16f5 F4       		.byte	0xf4
 5026 16f6 B2060000 		.4byte	0x6b2
 5027 16fa 08       		.byte	0x8
 5028 16fb 00       		.byte	0
 5029 16fc 06       		.uleb128 0x6
 5030 16fd 14       		.byte	0x14
 5031 16fe 14       		.byte	0x14
 5032 16ff FE       		.byte	0xfe
 5033 1700 45170000 		.4byte	0x1745
 5034 1704 1E       		.uleb128 0x1e
 5035 1705 72656C00 		.ascii	"rel\000"
 5036 1709 14       		.byte	0x14
 5037 170a 0001     		.2byte	0x100
 5038 170c B2060000 		.4byte	0x6b2
 5039 1710 00       		.byte	0
 5040 1711 1E       		.uleb128 0x1e
 5041 1712 707200   		.ascii	"pr\000"
 5042 1715 14       		.byte	0x14
 5043 1716 0101     		.2byte	0x101
 5044 1718 B2060000 		.4byte	0x6b2
 5045 171c 04       		.byte	0x4
 5046 171d 1F       		.uleb128 0x1f
 5047 171e A50B0000 		.4byte	.LASF314
 5048 1722 14       		.byte	0x14
ARM GAS  C:\Users\pearlstl\AppData\Local\Temp\ccIMJlIA.s 			page 111


 5049 1723 0201     		.2byte	0x102
 5050 1725 B2060000 		.4byte	0x6b2
 5051 1729 08       		.byte	0x8
 5052 172a 1F       		.uleb128 0x1f
 5053 172b 66040000 		.4byte	.LASF315
 5054 172f 14       		.byte	0x14
 5055 1730 0301     		.2byte	0x103
 5056 1732 B2060000 		.4byte	0x6b2
 5057 1736 0C       		.byte	0xc
 5058 1737 1E       		.uleb128 0x1e
 5059 1738 696E6100 		.ascii	"ina\000"
 5060 173c 14       		.byte	0x14
 5061 173d 0401     		.2byte	0x104
 5062 173f B2060000 		.4byte	0x6b2
 5063 1743 10       		.byte	0x10
 5064 1744 00       		.byte	0
 5065 1745 06       		.uleb128 0x6
 5066 1746 20       		.byte	0x20
 5067 1747 14       		.byte	0x14
 5068 1748 F9       		.byte	0xf9
 5069 1749 7D170000 		.4byte	0x177d
 5070 174d 08       		.uleb128 0x8
 5071 174e 626700   		.ascii	"bg\000"
 5072 1751 14       		.byte	0x14
 5073 1752 FB       		.byte	0xfb
 5074 1753 B2060000 		.4byte	0x6b2
 5075 1757 00       		.byte	0
 5076 1758 07       		.uleb128 0x7
 5077 1759 92040000 		.4byte	.LASF291
 5078 175d 14       		.byte	0x14
 5079 175e FC       		.byte	0xfc
 5080 175f B2060000 		.4byte	0x6b2
 5081 1763 04       		.byte	0x4
 5082 1764 08       		.uleb128 0x8
 5083 1765 736200   		.ascii	"sb\000"
 5084 1768 14       		.byte	0x14
 5085 1769 FD       		.byte	0xfd
 5086 176a B2060000 		.4byte	0x6b2
 5087 176e 08       		.byte	0x8
 5088 176f 1E       		.uleb128 0x1e
 5089 1770 62746E00 		.ascii	"btn\000"
 5090 1774 14       		.byte	0x14
 5091 1775 0501     		.2byte	0x105
 5092 1777 FC160000 		.4byte	0x16fc
 5093 177b 0C       		.byte	0xc
 5094 177c 00       		.byte	0
 5095 177d 20       		.uleb128 0x20
 5096 177e 0C       		.byte	0xc
 5097 177f 14       		.byte	0x14
 5098 1780 0A01     		.2byte	0x10a
 5099 1782 AC170000 		.4byte	0x17ac
 5100 1786 1E       		.uleb128 0x1e
 5101 1787 626700   		.ascii	"bg\000"
 5102 178a 14       		.byte	0x14
 5103 178b 0C01     		.2byte	0x10c
 5104 178d B2060000 		.4byte	0x6b2
 5105 1791 00       		.byte	0
ARM GAS  C:\Users\pearlstl\AppData\Local\Temp\ccIMJlIA.s 			page 112


 5106 1792 1E       		.uleb128 0x1e
 5107 1793 73656C00 		.ascii	"sel\000"
 5108 1797 14       		.byte	0x14
 5109 1798 0D01     		.2byte	0x10d
 5110 179a B2060000 		.4byte	0x6b2
 5111 179e 04       		.byte	0x4
 5112 179f 1E       		.uleb128 0x1e
 5113 17a0 736200   		.ascii	"sb\000"
 5114 17a3 14       		.byte	0x14
 5115 17a4 0E01     		.2byte	0x10e
 5116 17a6 B2060000 		.4byte	0x6b2
 5117 17aa 08       		.byte	0x8
 5118 17ab 00       		.byte	0
 5119 17ac 20       		.uleb128 0x20
 5120 17ad 08       		.byte	0x8
 5121 17ae 14       		.byte	0x14
 5122 17af 1301     		.2byte	0x113
 5123 17b1 CF170000 		.4byte	0x17cf
 5124 17b5 1E       		.uleb128 0x1e
 5125 17b6 626700   		.ascii	"bg\000"
 5126 17b9 14       		.byte	0x14
 5127 17ba 1501     		.2byte	0x115
 5128 17bc B2060000 		.4byte	0x6b2
 5129 17c0 00       		.byte	0
 5130 17c1 1E       		.uleb128 0x1e
 5131 17c2 73656C00 		.ascii	"sel\000"
 5132 17c6 14       		.byte	0x14
 5133 17c7 1601     		.2byte	0x116
 5134 17c9 B2060000 		.4byte	0x6b2
 5135 17cd 04       		.byte	0x4
 5136 17ce 00       		.byte	0
 5137 17cf 20       		.uleb128 0x20
 5138 17d0 14       		.byte	0x14
 5139 17d1 14       		.byte	0x14
 5140 17d2 1F01     		.2byte	0x11f
 5141 17d4 18180000 		.4byte	0x1818
 5142 17d8 1E       		.uleb128 0x1e
 5143 17d9 626700   		.ascii	"bg\000"
 5144 17dc 14       		.byte	0x14
 5145 17dd 2101     		.2byte	0x121
 5146 17df B2060000 		.4byte	0x6b2
 5147 17e3 00       		.byte	0
 5148 17e4 1E       		.uleb128 0x1e
 5149 17e5 72656C00 		.ascii	"rel\000"
 5150 17e9 14       		.byte	0x14
 5151 17ea 2201     		.2byte	0x122
 5152 17ec B2060000 		.4byte	0x6b2
 5153 17f0 04       		.byte	0x4
 5154 17f1 1E       		.uleb128 0x1e
 5155 17f2 707200   		.ascii	"pr\000"
 5156 17f5 14       		.byte	0x14
 5157 17f6 2301     		.2byte	0x123
 5158 17f8 B2060000 		.4byte	0x6b2
 5159 17fc 08       		.byte	0x8
 5160 17fd 1F       		.uleb128 0x1f
 5161 17fe A50B0000 		.4byte	.LASF314
 5162 1802 14       		.byte	0x14
ARM GAS  C:\Users\pearlstl\AppData\Local\Temp\ccIMJlIA.s 			page 113


 5163 1803 2401     		.2byte	0x124
 5164 1805 B2060000 		.4byte	0x6b2
 5165 1809 0C       		.byte	0xc
 5166 180a 1F       		.uleb128 0x1f
 5167 180b 66040000 		.4byte	.LASF315
 5168 180f 14       		.byte	0x14
 5169 1810 2501     		.2byte	0x125
 5170 1812 B2060000 		.4byte	0x6b2
 5171 1816 10       		.byte	0x10
 5172 1817 00       		.byte	0
 5173 1818 20       		.uleb128 0x20
 5174 1819 1C       		.byte	0x1c
 5175 181a 14       		.byte	0x14
 5176 181b 1B01     		.2byte	0x11b
 5177 181d 48180000 		.4byte	0x1848
 5178 1821 1E       		.uleb128 0x1e
 5179 1822 626700   		.ascii	"bg\000"
 5180 1825 14       		.byte	0x14
 5181 1826 1D01     		.2byte	0x11d
 5182 1828 B2060000 		.4byte	0x6b2
 5183 182c 00       		.byte	0
 5184 182d 1F       		.uleb128 0x1f
 5185 182e 780A0000 		.4byte	.LASF321
 5186 1832 14       		.byte	0x14
 5187 1833 1E01     		.2byte	0x11e
 5188 1835 B2060000 		.4byte	0x6b2
 5189 1839 04       		.byte	0x4
 5190 183a 1E       		.uleb128 0x1e
 5191 183b 62746E00 		.ascii	"btn\000"
 5192 183f 14       		.byte	0x14
 5193 1840 2601     		.2byte	0x126
 5194 1842 CF170000 		.4byte	0x17cf
 5195 1846 08       		.byte	0x8
 5196 1847 00       		.byte	0
 5197 1848 20       		.uleb128 0x20
 5198 1849 0C       		.byte	0xc
 5199 184a 14       		.byte	0x14
 5200 184b 2B01     		.2byte	0x12b
 5201 184d 77180000 		.4byte	0x1877
 5202 1851 1E       		.uleb128 0x1e
 5203 1852 626700   		.ascii	"bg\000"
 5204 1855 14       		.byte	0x14
 5205 1856 2D01     		.2byte	0x12d
 5206 1858 B2060000 		.4byte	0x6b2
 5207 185c 00       		.byte	0
 5208 185d 1F       		.uleb128 0x1f
 5209 185e 92040000 		.4byte	.LASF291
 5210 1862 14       		.byte	0x14
 5211 1863 2E01     		.2byte	0x12e
 5212 1865 B2060000 		.4byte	0x6b2
 5213 1869 04       		.byte	0x4
 5214 186a 1E       		.uleb128 0x1e
 5215 186b 736200   		.ascii	"sb\000"
 5216 186e 14       		.byte	0x14
 5217 186f 2F01     		.2byte	0x12f
 5218 1871 B2060000 		.4byte	0x6b2
 5219 1875 08       		.byte	0x8
ARM GAS  C:\Users\pearlstl\AppData\Local\Temp\ccIMJlIA.s 			page 114


 5220 1876 00       		.byte	0
 5221 1877 20       		.uleb128 0x20
 5222 1878 08       		.byte	0x8
 5223 1879 14       		.byte	0x14
 5224 187a 3401     		.2byte	0x134
 5225 187c 9A180000 		.4byte	0x189a
 5226 1880 1E       		.uleb128 0x1e
 5227 1881 626700   		.ascii	"bg\000"
 5228 1884 14       		.byte	0x14
 5229 1885 3601     		.2byte	0x136
 5230 1887 B2060000 		.4byte	0x6b2
 5231 188b 00       		.byte	0
 5232 188c 1F       		.uleb128 0x1f
 5233 188d 51000000 		.4byte	.LASF333
 5234 1891 14       		.byte	0x14
 5235 1892 3701     		.2byte	0x137
 5236 1894 B2060000 		.4byte	0x6b2
 5237 1898 04       		.byte	0x4
 5238 1899 00       		.byte	0
 5239 189a 20       		.uleb128 0x20
 5240 189b 08       		.byte	0x8
 5241 189c 14       		.byte	0x14
 5242 189d 4201     		.2byte	0x142
 5243 189f BD180000 		.4byte	0x18bd
 5244 18a3 1E       		.uleb128 0x1e
 5245 18a4 72656C00 		.ascii	"rel\000"
 5246 18a8 14       		.byte	0x14
 5247 18a9 4401     		.2byte	0x144
 5248 18ab B2060000 		.4byte	0x6b2
 5249 18af 00       		.byte	0
 5250 18b0 1E       		.uleb128 0x1e
 5251 18b1 707200   		.ascii	"pr\000"
 5252 18b4 14       		.byte	0x14
 5253 18b5 4501     		.2byte	0x145
 5254 18b7 B2060000 		.4byte	0x6b2
 5255 18bb 04       		.byte	0x4
 5256 18bc 00       		.byte	0
 5257 18bd 20       		.uleb128 0x20
 5258 18be 18       		.byte	0x18
 5259 18bf 14       		.byte	0x14
 5260 18c0 3C01     		.2byte	0x13c
 5261 18c2 06190000 		.4byte	0x1906
 5262 18c6 1E       		.uleb128 0x1e
 5263 18c7 626700   		.ascii	"bg\000"
 5264 18ca 14       		.byte	0x14
 5265 18cb 3E01     		.2byte	0x13e
 5266 18cd B2060000 		.4byte	0x6b2
 5267 18d1 00       		.byte	0
 5268 18d2 1E       		.uleb128 0x1e
 5269 18d3 736200   		.ascii	"sb\000"
 5270 18d6 14       		.byte	0x14
 5271 18d7 3F01     		.2byte	0x13f
 5272 18d9 B2060000 		.4byte	0x6b2
 5273 18dd 04       		.byte	0x4
 5274 18de 1F       		.uleb128 0x1f
 5275 18df 7D050000 		.4byte	.LASF325
 5276 18e3 14       		.byte	0x14
ARM GAS  C:\Users\pearlstl\AppData\Local\Temp\ccIMJlIA.s 			page 115


 5277 18e4 4001     		.2byte	0x140
 5278 18e6 B2060000 		.4byte	0x6b2
 5279 18ea 08       		.byte	0x8
 5280 18eb 1F       		.uleb128 0x1f
 5281 18ec C6120000 		.4byte	.LASF334
 5282 18f0 14       		.byte	0x14
 5283 18f1 4101     		.2byte	0x141
 5284 18f3 B2060000 		.4byte	0x6b2
 5285 18f7 0C       		.byte	0xc
 5286 18f8 1E       		.uleb128 0x1e
 5287 18f9 62746E00 		.ascii	"btn\000"
 5288 18fd 14       		.byte	0x14
 5289 18fe 4601     		.2byte	0x146
 5290 1900 9A180000 		.4byte	0x189a
 5291 1904 10       		.byte	0x10
 5292 1905 00       		.byte	0
 5293 1906 21       		.uleb128 0x21
 5294 1907 A801     		.2byte	0x1a8
 5295 1909 14       		.byte	0x14
 5296 190a 29       		.byte	0x29
 5297 190b A81A0000 		.4byte	0x1aa8
 5298 190f 08       		.uleb128 0x8
 5299 1910 73637200 		.ascii	"scr\000"
 5300 1914 14       		.byte	0x14
 5301 1915 2B       		.byte	0x2b
 5302 1916 B2060000 		.4byte	0x6b2
 5303 191a 00       		.byte	0
 5304 191b 08       		.uleb128 0x8
 5305 191c 626700   		.ascii	"bg\000"
 5306 191f 14       		.byte	0x14
 5307 1920 2C       		.byte	0x2c
 5308 1921 B2060000 		.4byte	0x6b2
 5309 1925 04       		.byte	0x4
 5310 1926 07       		.uleb128 0x7
 5311 1927 640F0000 		.4byte	.LASF335
 5312 192b 14       		.byte	0x14
 5313 192c 2D       		.byte	0x2d
 5314 192d B2060000 		.4byte	0x6b2
 5315 1931 08       		.byte	0x8
 5316 1932 07       		.uleb128 0x7
 5317 1933 4F020000 		.4byte	.LASF336
 5318 1937 14       		.byte	0x14
 5319 1938 30       		.byte	0x30
 5320 1939 B2060000 		.4byte	0x6b2
 5321 193d 0C       		.byte	0xc
 5322 193e 08       		.uleb128 0x8
 5323 193f 62746E00 		.ascii	"btn\000"
 5324 1943 14       		.byte	0x14
 5325 1944 3B       		.byte	0x3b
 5326 1945 20130000 		.4byte	0x1320
 5327 1949 10       		.byte	0x10
 5328 194a 07       		.uleb128 0x7
 5329 194b 3E0F0000 		.4byte	.LASF337
 5330 194f 14       		.byte	0x14
 5331 1950 46       		.byte	0x46
 5332 1951 64130000 		.4byte	0x1364
 5333 1955 24       		.byte	0x24
ARM GAS  C:\Users\pearlstl\AppData\Local\Temp\ccIMJlIA.s 			page 116


 5334 1956 07       		.uleb128 0x7
 5335 1957 6B140000 		.4byte	.LASF338
 5336 195b 14       		.byte	0x14
 5337 195c 4F       		.byte	0x4f
 5338 195d A8130000 		.4byte	0x13a8
 5339 1961 38       		.byte	0x38
 5340 1962 08       		.uleb128 0x8
 5341 1963 696D6700 		.ascii	"img\000"
 5342 1967 14       		.byte	0x14
 5343 1968 57       		.byte	0x57
 5344 1969 D5130000 		.4byte	0x13d5
 5345 196d 44       		.byte	0x44
 5346 196e 07       		.uleb128 0x7
 5347 196f 3D090000 		.4byte	.LASF95
 5348 1973 14       		.byte	0x14
 5349 1974 5E       		.byte	0x5e
 5350 1975 F6130000 		.4byte	0x13f6
 5351 1979 4C       		.byte	0x4c
 5352 197a 08       		.uleb128 0x8
 5353 197b 6C656400 		.ascii	"led\000"
 5354 197f 14       		.byte	0x14
 5355 1980 62       		.byte	0x62
 5356 1981 B2060000 		.4byte	0x6b2
 5357 1985 50       		.byte	0x50
 5358 1986 08       		.uleb128 0x8
 5359 1987 62617200 		.ascii	"bar\000"
 5360 198b 14       		.byte	0x14
 5361 198c 6A       		.byte	0x6a
 5362 198d 0B140000 		.4byte	0x140b
 5363 1991 54       		.byte	0x54
 5364 1992 07       		.uleb128 0x7
 5365 1993 52090000 		.4byte	.LASF339
 5366 1997 14       		.byte	0x14
 5367 1998 73       		.byte	0x73
 5368 1999 2B140000 		.4byte	0x142b
 5369 199d 5C       		.byte	0x5c
 5370 199e 07       		.uleb128 0x7
 5371 199f ED000000 		.4byte	.LASF340
 5372 19a3 14       		.byte	0x14
 5373 19a4 77       		.byte	0x77
 5374 19a5 B2060000 		.4byte	0x6b2
 5375 19a9 68       		.byte	0x68
 5376 19aa 07       		.uleb128 0x7
 5377 19ab 4E0C0000 		.4byte	.LASF341
 5378 19af 14       		.byte	0x14
 5379 19b0 7B       		.byte	0x7b
 5380 19b1 B2060000 		.4byte	0x6b2
 5381 19b5 6C       		.byte	0x6c
 5382 19b6 08       		.uleb128 0x8
 5383 19b7 61726300 		.ascii	"arc\000"
 5384 19bb 14       		.byte	0x14
 5385 19bc 7F       		.byte	0x7f
 5386 19bd B2060000 		.4byte	0x6b2
 5387 19c1 70       		.byte	0x70
 5388 19c2 07       		.uleb128 0x7
 5389 19c3 C3140000 		.4byte	.LASF342
 5390 19c7 14       		.byte	0x14
ARM GAS  C:\Users\pearlstl\AppData\Local\Temp\ccIMJlIA.s 			page 117


 5391 19c8 83       		.byte	0x83
 5392 19c9 B2060000 		.4byte	0x6b2
 5393 19cd 74       		.byte	0x74
 5394 19ce 08       		.uleb128 0x8
 5395 19cf 737700   		.ascii	"sw\000"
 5396 19d2 14       		.byte	0x14
 5397 19d3 8D       		.byte	0x8d
 5398 19d4 57140000 		.4byte	0x1457
 5399 19d8 78       		.byte	0x78
 5400 19d9 07       		.uleb128 0x7
 5401 19da 05040000 		.4byte	.LASF343
 5402 19de 14       		.byte	0x14
 5403 19df 91       		.byte	0x91
 5404 19e0 B2060000 		.4byte	0x6b2
 5405 19e4 88       		.byte	0x88
 5406 19e5 07       		.uleb128 0x7
 5407 19e6 030D0000 		.4byte	.LASF344
 5408 19ea 14       		.byte	0x14
 5409 19eb 9F       		.byte	0x9f
 5410 19ec 8F140000 		.4byte	0x148f
 5411 19f0 8C       		.byte	0x8c
 5412 19f1 08       		.uleb128 0x8
 5413 19f2 636200   		.ascii	"cb\000"
 5414 19f5 14       		.byte	0x14
 5415 19f6 AE       		.byte	0xae
 5416 19f7 3B150000 		.4byte	0x153b
 5417 19fb AC       		.byte	0xac
 5418 19fc 07       		.uleb128 0x7
 5419 19fd 18040000 		.4byte	.LASF345
 5420 1a01 14       		.byte	0x14
 5421 1a02 BD       		.byte	0xbd
 5422 1a03 9F150000 		.4byte	0x159f
 5423 1a07 C4       		.byte	0xc4
 5424 1a08 08       		.uleb128 0x8
 5425 1a09 6B6200   		.ascii	"kb\000"
 5426 1a0c 14       		.byte	0x14
 5427 1a0d CC       		.byte	0xcc
 5428 1a0e 03160000 		.4byte	0x1603
 5429 1a12 DC       		.byte	0xdc
 5430 1a13 07       		.uleb128 0x7
 5431 1a14 970B0000 		.4byte	.LASF346
 5432 1a18 14       		.byte	0x14
 5433 1a19 D9       		.byte	0xd9
 5434 1a1a 4E160000 		.4byte	0x164e
 5435 1a1e F4       		.byte	0xf4
 5436 1a1f 18       		.uleb128 0x18
 5437 1a20 380C0000 		.4byte	.LASF301
 5438 1a24 14       		.byte	0x14
 5439 1a25 E2       		.byte	0xe2
 5440 1a26 6E160000 		.4byte	0x166e
 5441 1a2a 0401     		.2byte	0x104
 5442 1a2c 22       		.uleb128 0x22
 5443 1a2d 746100   		.ascii	"ta\000"
 5444 1a30 14       		.byte	0x14
 5445 1a31 EC       		.byte	0xec
 5446 1a32 99160000 		.4byte	0x1699
 5447 1a36 1001     		.2byte	0x110
ARM GAS  C:\Users\pearlstl\AppData\Local\Temp\ccIMJlIA.s 			page 118


 5448 1a38 18       		.uleb128 0x18
 5449 1a39 B0110000 		.4byte	.LASF347
 5450 1a3d 14       		.byte	0x14
 5451 1a3e F5       		.byte	0xf5
 5452 1a3f D1160000 		.4byte	0x16d1
 5453 1a43 2001     		.2byte	0x120
 5454 1a45 23       		.uleb128 0x23
 5455 1a46 0D0C0000 		.4byte	.LASF348
 5456 1a4a 14       		.byte	0x14
 5457 1a4b 0601     		.2byte	0x106
 5458 1a4d 45170000 		.4byte	0x1745
 5459 1a51 2C01     		.2byte	0x12c
 5460 1a53 23       		.uleb128 0x23
 5461 1a54 CF060000 		.4byte	.LASF349
 5462 1a58 14       		.byte	0x14
 5463 1a59 0F01     		.2byte	0x10f
 5464 1a5b 7D170000 		.4byte	0x177d
 5465 1a5f 4C01     		.2byte	0x14c
 5466 1a61 23       		.uleb128 0x23
 5467 1a62 86150000 		.4byte	.LASF350
 5468 1a66 14       		.byte	0x14
 5469 1a67 1701     		.2byte	0x117
 5470 1a69 AC170000 		.4byte	0x17ac
 5471 1a6d 5801     		.2byte	0x158
 5472 1a6f 23       		.uleb128 0x23
 5473 1a70 CA0A0000 		.4byte	.LASF351
 5474 1a74 14       		.byte	0x14
 5475 1a75 2701     		.2byte	0x127
 5476 1a77 18180000 		.4byte	0x1818
 5477 1a7b 6001     		.2byte	0x160
 5478 1a7d 23       		.uleb128 0x23
 5479 1a7e D7030000 		.4byte	.LASF352
 5480 1a82 14       		.byte	0x14
 5481 1a83 3001     		.2byte	0x130
 5482 1a85 48180000 		.4byte	0x1848
 5483 1a89 7C01     		.2byte	0x17c
 5484 1a8b 23       		.uleb128 0x23
 5485 1a8c B2050000 		.4byte	.LASF353
 5486 1a90 14       		.byte	0x14
 5487 1a91 3801     		.2byte	0x138
 5488 1a93 77180000 		.4byte	0x1877
 5489 1a97 8801     		.2byte	0x188
 5490 1a99 24       		.uleb128 0x24
 5491 1a9a 77696E00 		.ascii	"win\000"
 5492 1a9e 14       		.byte	0x14
 5493 1a9f 4701     		.2byte	0x147
 5494 1aa1 BD180000 		.4byte	0x18bd
 5495 1aa5 9001     		.2byte	0x190
 5496 1aa7 00       		.byte	0
 5497 1aa8 21       		.uleb128 0x21
 5498 1aa9 A801     		.2byte	0x1a8
 5499 1aab 14       		.byte	0x14
 5500 1aac 27       		.byte	0x27
 5501 1aad BF1A0000 		.4byte	0x1abf
 5502 1ab1 1F       		.uleb128 0x1f
 5503 1ab2 E60C0000 		.4byte	.LASF280
 5504 1ab6 14       		.byte	0x14
ARM GAS  C:\Users\pearlstl\AppData\Local\Temp\ccIMJlIA.s 			page 119


 5505 1ab7 4901     		.2byte	0x149
 5506 1ab9 06190000 		.4byte	0x1906
 5507 1abd 00       		.byte	0
 5508 1abe 00       		.byte	0
 5509 1abf 12       		.uleb128 0x12
 5510 1ac0 EC070000 		.4byte	.LASF354
 5511 1ac4 14       		.byte	0x14
 5512 1ac5 5401     		.2byte	0x154
 5513 1ac7 A81A0000 		.4byte	0x1aa8
 5514 1acb 25       		.uleb128 0x25
 5515 1acc F70A0000 		.4byte	.LASF374
 5516 1ad0 01       		.byte	0x1
 5517 1ad1 5401     		.2byte	0x154
 5518 1ad3 D1060000 		.4byte	0x6d1
 5519 1ad7 01       		.byte	0x1
 5520 1ad8 0D1B0000 		.4byte	0x1b0d
 5521 1adc 26       		.uleb128 0x26
 5522 1add D7030000 		.4byte	.LASF352
 5523 1ae1 01       		.byte	0x1
 5524 1ae2 5401     		.2byte	0x154
 5525 1ae4 22120000 		.4byte	0x1222
 5526 1ae8 26       		.uleb128 0x26
 5527 1ae9 7D010000 		.4byte	.LASF355
 5528 1aed 01       		.byte	0x1
 5529 1aee 5401     		.2byte	0x154
 5530 1af0 8D0F0000 		.4byte	0xf8d
 5531 1af4 26       		.uleb128 0x26
 5532 1af5 20090000 		.4byte	.LASF356
 5533 1af9 01       		.byte	0x1
 5534 1afa 5401     		.2byte	0x154
 5535 1afc FA000000 		.4byte	0xfa
 5536 1b00 27       		.uleb128 0x27
 5537 1b01 72657300 		.ascii	"res\000"
 5538 1b05 01       		.byte	0x1
 5539 1b06 5601     		.2byte	0x156
 5540 1b08 D1060000 		.4byte	0x6d1
 5541 1b0c 00       		.byte	0
 5542 1b0d 28       		.uleb128 0x28
 5543 1b0e E90B0000 		.4byte	.LASF357
 5544 1b12 02       		.byte	0x2
 5545 1b13 84       		.byte	0x84
 5546 1b14 03       		.byte	0x3
 5547 1b15 301B0000 		.4byte	0x1b30
 5548 1b19 29       		.uleb128 0x29
 5549 1b1a 4F020000 		.4byte	.LASF336
 5550 1b1e 02       		.byte	0x2
 5551 1b1f 84       		.byte	0x84
 5552 1b20 22120000 		.4byte	0x1222
 5553 1b24 2A       		.uleb128 0x2a
 5554 1b25 66697400 		.ascii	"fit\000"
 5555 1b29 02       		.byte	0x2
 5556 1b2a 84       		.byte	0x84
 5557 1b2b 86100000 		.4byte	0x1086
 5558 1b2f 00       		.byte	0
 5559 1b30 2B       		.uleb128 0x2b
 5560 1b31 C7090000 		.4byte	.LASF427
 5561 1b35 01       		.byte	0x1
ARM GAS  C:\Users\pearlstl\AppData\Local\Temp\ccIMJlIA.s 			page 120


 5562 1b36 3401     		.2byte	0x134
 5563 1b38 45100000 		.4byte	0x1045
 5564 1b3c 01       		.byte	0x1
 5565 1b3d 661B0000 		.4byte	0x1b66
 5566 1b41 26       		.uleb128 0x26
 5567 1b42 D7030000 		.4byte	.LASF352
 5568 1b46 01       		.byte	0x1
 5569 1b47 3401     		.2byte	0x134
 5570 1b49 661B0000 		.4byte	0x1b66
 5571 1b4d 26       		.uleb128 0x26
 5572 1b4e FB010000 		.4byte	.LASF74
 5573 1b52 01       		.byte	0x1
 5574 1b53 3401     		.2byte	0x134
 5575 1b55 15130000 		.4byte	0x1315
 5576 1b59 2C       		.uleb128 0x2c
 5577 1b5a E60C0000 		.4byte	.LASF280
 5578 1b5e 01       		.byte	0x1
 5579 1b5f 3801     		.2byte	0x138
 5580 1b61 45100000 		.4byte	0x1045
 5581 1b65 00       		.byte	0
 5582 1b66 0D       		.uleb128 0xd
 5583 1b67 04       		.byte	0x4
 5584 1b68 6C1B0000 		.4byte	0x1b6c
 5585 1b6c 0E       		.uleb128 0xe
 5586 1b6d 50100000 		.4byte	0x1050
 5587 1b71 28       		.uleb128 0x28
 5588 1b72 54050000 		.4byte	.LASF358
 5589 1b76 03       		.byte	0x3
 5590 1b77 C7       		.byte	0xc7
 5591 1b78 03       		.byte	0x3
 5592 1b79 941B0000 		.4byte	0x1b94
 5593 1b7d 29       		.uleb128 0x29
 5594 1b7e 380C0000 		.4byte	.LASF301
 5595 1b82 03       		.byte	0x3
 5596 1b83 C7       		.byte	0xc7
 5597 1b84 22120000 		.4byte	0x1222
 5598 1b88 2A       		.uleb128 0x2a
 5599 1b89 66697400 		.ascii	"fit\000"
 5600 1b8d 03       		.byte	0x3
 5601 1b8e C7       		.byte	0xc7
 5602 1b8f 86100000 		.4byte	0x1086
 5603 1b93 00       		.byte	0
 5604 1b94 2D       		.uleb128 0x2d
 5605 1b95 4C140000 		.4byte	.LASF428
 5606 1b99 01       		.byte	0x1
 5607 1b9a 6B01     		.2byte	0x16b
 5608 1b9c D1060000 		.4byte	0x6d1
 5609 1ba0 00000000 		.4byte	.LFB59
 5610 1ba4 E4020000 		.4byte	.LFE59-.LFB59
 5611 1ba8 01       		.uleb128 0x1
 5612 1ba9 9C       		.byte	0x9c
 5613 1baa 621E0000 		.4byte	0x1e62
 5614 1bae 2E       		.uleb128 0x2e
 5615 1baf 92040000 		.4byte	.LASF291
 5616 1bb3 01       		.byte	0x1
 5617 1bb4 6B01     		.2byte	0x16b
 5618 1bb6 22120000 		.4byte	0x1222
ARM GAS  C:\Users\pearlstl\AppData\Local\Temp\ccIMJlIA.s 			page 121


 5619 1bba 00000000 		.4byte	.LLST0
 5620 1bbe 2E       		.uleb128 0x2e
 5621 1bbf 7D010000 		.4byte	.LASF355
 5622 1bc3 01       		.byte	0x1
 5623 1bc4 6B01     		.2byte	0x16b
 5624 1bc6 8D0F0000 		.4byte	0xf8d
 5625 1bca 37000000 		.4byte	.LLST1
 5626 1bce 2E       		.uleb128 0x2e
 5627 1bcf 20090000 		.4byte	.LASF356
 5628 1bd3 01       		.byte	0x1
 5629 1bd4 6B01     		.2byte	0x16b
 5630 1bd6 FA000000 		.4byte	0xfa
 5631 1bda 58000000 		.4byte	.LLST2
 5632 1bde 2F       		.uleb128 0x2f
 5633 1bdf 72657300 		.ascii	"res\000"
 5634 1be3 01       		.byte	0x1
 5635 1be4 6E01     		.2byte	0x16e
 5636 1be6 D1060000 		.4byte	0x6d1
 5637 1bea A8000000 		.4byte	.LLST3
 5638 1bee 30       		.uleb128 0x30
 5639 1bef D7030000 		.4byte	.LASF352
 5640 1bf3 01       		.byte	0x1
 5641 1bf4 7501     		.2byte	0x175
 5642 1bf6 22120000 		.4byte	0x1222
 5643 1bfa C6000000 		.4byte	.LLST4
 5644 1bfe 31       		.uleb128 0x31
 5645 1bff AD0B0000 		.4byte	.LASF359
 5646 1c03 01       		.byte	0x1
 5647 1c04 7601     		.2byte	0x176
 5648 1c06 45100000 		.4byte	0x1045
 5649 1c0a 01       		.uleb128 0x1
 5650 1c0b 57       		.byte	0x57
 5651 1c0c 32       		.uleb128 0x32
 5652 1c0d 301B0000 		.4byte	0x1b30
 5653 1c11 28000000 		.4byte	.LBB10
 5654 1c15 00000000 		.4byte	.Ldebug_ranges0+0
 5655 1c19 01       		.byte	0x1
 5656 1c1a 7601     		.2byte	0x176
 5657 1c1c 521C0000 		.4byte	0x1c52
 5658 1c20 33       		.uleb128 0x33
 5659 1c21 4D1B0000 		.4byte	0x1b4d
 5660 1c25 EF000000 		.4byte	.LLST5
 5661 1c29 33       		.uleb128 0x33
 5662 1c2a 411B0000 		.4byte	0x1b41
 5663 1c2e 03010000 		.4byte	.LLST6
 5664 1c32 34       		.uleb128 0x34
 5665 1c33 00000000 		.4byte	.Ldebug_ranges0+0
 5666 1c37 35       		.uleb128 0x35
 5667 1c38 591B0000 		.4byte	0x1b59
 5668 1c3c EF000000 		.4byte	.LLST5
 5669 1c40 36       		.uleb128 0x36
 5670 1c41 2C000000 		.4byte	.LVL6
 5671 1c45 A62B0000 		.4byte	0x2ba6
 5672 1c49 37       		.uleb128 0x37
 5673 1c4a 01       		.uleb128 0x1
 5674 1c4b 50       		.byte	0x50
 5675 1c4c 02       		.uleb128 0x2
ARM GAS  C:\Users\pearlstl\AppData\Local\Temp\ccIMJlIA.s 			page 122


 5676 1c4d 76       		.byte	0x76
 5677 1c4e 00       		.sleb128 0
 5678 1c4f 00       		.byte	0
 5679 1c50 00       		.byte	0
 5680 1c51 00       		.byte	0
 5681 1c52 38       		.uleb128 0x38
 5682 1c53 18000000 		.4byte	.Ldebug_ranges0+0x18
 5683 1c57 171E0000 		.4byte	0x1e17
 5684 1c5b 30       		.uleb128 0x30
 5685 1c5c A0110000 		.4byte	.LASF360
 5686 1c60 01       		.byte	0x1
 5687 1c61 7A01     		.2byte	0x17a
 5688 1c63 621E0000 		.4byte	0x1e62
 5689 1c67 21010000 		.4byte	.LLST8
 5690 1c6b 38       		.uleb128 0x38
 5691 1c6c 30000000 		.4byte	.Ldebug_ranges0+0x30
 5692 1c70 0D1E0000 		.4byte	0x1e0d
 5693 1c74 2F       		.uleb128 0x2f
 5694 1c75 65787400 		.ascii	"ext\000"
 5695 1c79 01       		.byte	0x1
 5696 1c7a 7C01     		.2byte	0x17c
 5697 1c7c 681E0000 		.4byte	0x1e68
 5698 1c80 55010000 		.4byte	.LLST9
 5699 1c84 2F       		.uleb128 0x2f
 5700 1c85 7800     		.ascii	"x\000"
 5701 1c87 01       		.byte	0x1
 5702 1c88 9901     		.2byte	0x199
 5703 1c8a EF000000 		.4byte	0xef
 5704 1c8e 7E010000 		.4byte	.LLST10
 5705 1c92 2F       		.uleb128 0x2f
 5706 1c93 7900     		.ascii	"y\000"
 5707 1c95 01       		.byte	0x1
 5708 1c96 9A01     		.2byte	0x19a
 5709 1c98 EF000000 		.4byte	0xef
 5710 1c9c 9C010000 		.4byte	.LLST11
 5711 1ca0 2F       		.uleb128 0x2f
 5712 1ca1 6800     		.ascii	"h\000"
 5713 1ca3 01       		.byte	0x1
 5714 1ca4 9B01     		.2byte	0x19b
 5715 1ca6 EF000000 		.4byte	0xef
 5716 1caa BA010000 		.4byte	.LLST12
 5717 1cae 2F       		.uleb128 0x2f
 5718 1caf 7700     		.ascii	"w\000"
 5719 1cb1 01       		.byte	0x1
 5720 1cb2 9C01     		.2byte	0x19c
 5721 1cb4 EF000000 		.4byte	0xef
 5722 1cb8 D8010000 		.4byte	.LLST13
 5723 1cbc 39       		.uleb128 0x39
 5724 1cbd 58000000 		.4byte	.LVL14
 5725 1cc1 B22B0000 		.4byte	0x2bb2
 5726 1cc5 D01C0000 		.4byte	0x1cd0
 5727 1cc9 37       		.uleb128 0x37
 5728 1cca 01       		.uleb128 0x1
 5729 1ccb 50       		.byte	0x50
 5730 1ccc 02       		.uleb128 0x2
 5731 1ccd 76       		.byte	0x76
 5732 1cce 00       		.sleb128 0
ARM GAS  C:\Users\pearlstl\AppData\Local\Temp\ccIMJlIA.s 			page 123


 5733 1ccf 00       		.byte	0
 5734 1cd0 39       		.uleb128 0x39
 5735 1cd1 C2000000 		.4byte	.LVL17
 5736 1cd5 BE2B0000 		.4byte	0x2bbe
 5737 1cd9 E41C0000 		.4byte	0x1ce4
 5738 1cdd 37       		.uleb128 0x37
 5739 1cde 01       		.uleb128 0x1
 5740 1cdf 50       		.byte	0x50
 5741 1ce0 02       		.uleb128 0x2
 5742 1ce1 75       		.byte	0x75
 5743 1ce2 00       		.sleb128 0
 5744 1ce3 00       		.byte	0
 5745 1ce4 39       		.uleb128 0x39
 5746 1ce5 CA000000 		.4byte	.LVL19
 5747 1ce9 CA2B0000 		.4byte	0x2bca
 5748 1ced F81C0000 		.4byte	0x1cf8
 5749 1cf1 37       		.uleb128 0x37
 5750 1cf2 01       		.uleb128 0x1
 5751 1cf3 50       		.byte	0x50
 5752 1cf4 02       		.uleb128 0x2
 5753 1cf5 75       		.byte	0x75
 5754 1cf6 00       		.sleb128 0
 5755 1cf7 00       		.byte	0
 5756 1cf8 39       		.uleb128 0x39
 5757 1cf9 D2000000 		.4byte	.LVL21
 5758 1cfd D62B0000 		.4byte	0x2bd6
 5759 1d01 0C1D0000 		.4byte	0x1d0c
 5760 1d05 37       		.uleb128 0x37
 5761 1d06 01       		.uleb128 0x1
 5762 1d07 50       		.byte	0x50
 5763 1d08 02       		.uleb128 0x2
 5764 1d09 76       		.byte	0x76
 5765 1d0a 00       		.sleb128 0
 5766 1d0b 00       		.byte	0
 5767 1d0c 39       		.uleb128 0x39
 5768 1d0d DA000000 		.4byte	.LVL23
 5769 1d11 E22B0000 		.4byte	0x2be2
 5770 1d15 201D0000 		.4byte	0x1d20
 5771 1d19 37       		.uleb128 0x37
 5772 1d1a 01       		.uleb128 0x1
 5773 1d1b 50       		.byte	0x50
 5774 1d1c 02       		.uleb128 0x2
 5775 1d1d 76       		.byte	0x76
 5776 1d1e 00       		.sleb128 0
 5777 1d1f 00       		.byte	0
 5778 1d20 39       		.uleb128 0x39
 5779 1d21 1E010000 		.4byte	.LVL26
 5780 1d25 EE2B0000 		.4byte	0x2bee
 5781 1d29 341D0000 		.4byte	0x1d34
 5782 1d2d 37       		.uleb128 0x37
 5783 1d2e 01       		.uleb128 0x1
 5784 1d2f 50       		.byte	0x50
 5785 1d30 02       		.uleb128 0x2
 5786 1d31 75       		.byte	0x75
 5787 1d32 00       		.sleb128 0
 5788 1d33 00       		.byte	0
 5789 1d34 39       		.uleb128 0x39
ARM GAS  C:\Users\pearlstl\AppData\Local\Temp\ccIMJlIA.s 			page 124


 5790 1d35 72010000 		.4byte	.LVL27
 5791 1d39 FA2B0000 		.4byte	0x2bfa
 5792 1d3d 481D0000 		.4byte	0x1d48
 5793 1d41 37       		.uleb128 0x37
 5794 1d42 01       		.uleb128 0x1
 5795 1d43 50       		.byte	0x50
 5796 1d44 02       		.uleb128 0x2
 5797 1d45 75       		.byte	0x75
 5798 1d46 00       		.sleb128 0
 5799 1d47 00       		.byte	0
 5800 1d48 39       		.uleb128 0x39
 5801 1d49 9A010000 		.4byte	.LVL30
 5802 1d4d E22B0000 		.4byte	0x2be2
 5803 1d51 5C1D0000 		.4byte	0x1d5c
 5804 1d55 37       		.uleb128 0x37
 5805 1d56 01       		.uleb128 0x1
 5806 1d57 50       		.byte	0x50
 5807 1d58 02       		.uleb128 0x2
 5808 1d59 76       		.byte	0x76
 5809 1d5a 00       		.sleb128 0
 5810 1d5b 00       		.byte	0
 5811 1d5c 39       		.uleb128 0x39
 5812 1d5d AC010000 		.4byte	.LVL31
 5813 1d61 FA2B0000 		.4byte	0x2bfa
 5814 1d65 701D0000 		.4byte	0x1d70
 5815 1d69 37       		.uleb128 0x37
 5816 1d6a 01       		.uleb128 0x1
 5817 1d6b 50       		.byte	0x50
 5818 1d6c 02       		.uleb128 0x2
 5819 1d6d 75       		.byte	0x75
 5820 1d6e 00       		.sleb128 0
 5821 1d6f 00       		.byte	0
 5822 1d70 39       		.uleb128 0x39
 5823 1d71 EE010000 		.4byte	.LVL35
 5824 1d75 D62B0000 		.4byte	0x2bd6
 5825 1d79 841D0000 		.4byte	0x1d84
 5826 1d7d 37       		.uleb128 0x37
 5827 1d7e 01       		.uleb128 0x1
 5828 1d7f 50       		.byte	0x50
 5829 1d80 02       		.uleb128 0x2
 5830 1d81 76       		.byte	0x76
 5831 1d82 00       		.sleb128 0
 5832 1d83 00       		.byte	0
 5833 1d84 39       		.uleb128 0x39
 5834 1d85 04020000 		.4byte	.LVL36
 5835 1d89 EE2B0000 		.4byte	0x2bee
 5836 1d8d 981D0000 		.4byte	0x1d98
 5837 1d91 37       		.uleb128 0x37
 5838 1d92 01       		.uleb128 0x1
 5839 1d93 50       		.byte	0x50
 5840 1d94 02       		.uleb128 0x2
 5841 1d95 75       		.byte	0x75
 5842 1d96 00       		.sleb128 0
 5843 1d97 00       		.byte	0
 5844 1d98 39       		.uleb128 0x39
 5845 1d99 3A020000 		.4byte	.LVL38
 5846 1d9d EE2B0000 		.4byte	0x2bee
ARM GAS  C:\Users\pearlstl\AppData\Local\Temp\ccIMJlIA.s 			page 125


 5847 1da1 AC1D0000 		.4byte	0x1dac
 5848 1da5 37       		.uleb128 0x37
 5849 1da6 01       		.uleb128 0x1
 5850 1da7 50       		.byte	0x50
 5851 1da8 02       		.uleb128 0x2
 5852 1da9 75       		.byte	0x75
 5853 1daa 00       		.sleb128 0
 5854 1dab 00       		.byte	0
 5855 1dac 39       		.uleb128 0x39
 5856 1dad 70020000 		.4byte	.LVL39
 5857 1db1 FA2B0000 		.4byte	0x2bfa
 5858 1db5 C01D0000 		.4byte	0x1dc0
 5859 1db9 37       		.uleb128 0x37
 5860 1dba 01       		.uleb128 0x1
 5861 1dbb 50       		.byte	0x50
 5862 1dbc 02       		.uleb128 0x2
 5863 1dbd 75       		.byte	0x75
 5864 1dbe 00       		.sleb128 0
 5865 1dbf 00       		.byte	0
 5866 1dc0 39       		.uleb128 0x39
 5867 1dc1 8C020000 		.4byte	.LVL40
 5868 1dc5 062C0000 		.4byte	0x2c06
 5869 1dc9 D41D0000 		.4byte	0x1dd4
 5870 1dcd 37       		.uleb128 0x37
 5871 1dce 01       		.uleb128 0x1
 5872 1dcf 50       		.byte	0x50
 5873 1dd0 02       		.uleb128 0x2
 5874 1dd1 76       		.byte	0x76
 5875 1dd2 00       		.sleb128 0
 5876 1dd3 00       		.byte	0
 5877 1dd4 39       		.uleb128 0x39
 5878 1dd5 A4020000 		.4byte	.LVL42
 5879 1dd9 062C0000 		.4byte	0x2c06
 5880 1ddd E81D0000 		.4byte	0x1de8
 5881 1de1 37       		.uleb128 0x37
 5882 1de2 01       		.uleb128 0x1
 5883 1de3 50       		.byte	0x50
 5884 1de4 02       		.uleb128 0x2
 5885 1de5 76       		.byte	0x76
 5886 1de6 00       		.sleb128 0
 5887 1de7 00       		.byte	0
 5888 1de8 39       		.uleb128 0x39
 5889 1de9 BC020000 		.4byte	.LVL43
 5890 1ded 062C0000 		.4byte	0x2c06
 5891 1df1 FC1D0000 		.4byte	0x1dfc
 5892 1df5 37       		.uleb128 0x37
 5893 1df6 01       		.uleb128 0x1
 5894 1df7 50       		.byte	0x50
 5895 1df8 02       		.uleb128 0x2
 5896 1df9 76       		.byte	0x76
 5897 1dfa 00       		.sleb128 0
 5898 1dfb 00       		.byte	0
 5899 1dfc 36       		.uleb128 0x36
 5900 1dfd D4020000 		.4byte	.LVL44
 5901 1e01 062C0000 		.4byte	0x2c06
 5902 1e05 37       		.uleb128 0x37
 5903 1e06 01       		.uleb128 0x1
ARM GAS  C:\Users\pearlstl\AppData\Local\Temp\ccIMJlIA.s 			page 126


 5904 1e07 50       		.byte	0x50
 5905 1e08 02       		.uleb128 0x2
 5906 1e09 76       		.byte	0x76
 5907 1e0a 00       		.sleb128 0
 5908 1e0b 00       		.byte	0
 5909 1e0c 00       		.byte	0
 5910 1e0d 3A       		.uleb128 0x3a
 5911 1e0e 4C000000 		.4byte	.LVL12
 5912 1e12 122C0000 		.4byte	0x2c12
 5913 1e16 00       		.byte	0
 5914 1e17 3B       		.uleb128 0x3b
 5915 1e18 12000000 		.4byte	.LVL1
 5916 1e1c 331E0000 		.4byte	0x1e33
 5917 1e20 37       		.uleb128 0x37
 5918 1e21 01       		.uleb128 0x1
 5919 1e22 50       		.byte	0x50
 5920 1e23 02       		.uleb128 0x2
 5921 1e24 75       		.byte	0x75
 5922 1e25 00       		.sleb128 0
 5923 1e26 37       		.uleb128 0x37
 5924 1e27 01       		.uleb128 0x1
 5925 1e28 51       		.byte	0x51
 5926 1e29 02       		.uleb128 0x2
 5927 1e2a 74       		.byte	0x74
 5928 1e2b 00       		.sleb128 0
 5929 1e2c 37       		.uleb128 0x37
 5930 1e2d 01       		.uleb128 0x1
 5931 1e2e 52       		.byte	0x52
 5932 1e2f 02       		.uleb128 0x2
 5933 1e30 76       		.byte	0x76
 5934 1e31 00       		.sleb128 0
 5935 1e32 00       		.byte	0
 5936 1e33 39       		.uleb128 0x39
 5937 1e34 26000000 		.4byte	.LVL4
 5938 1e38 1D2C0000 		.4byte	0x2c1d
 5939 1e3c 471E0000 		.4byte	0x1e47
 5940 1e40 37       		.uleb128 0x37
 5941 1e41 01       		.uleb128 0x1
 5942 1e42 50       		.byte	0x50
 5943 1e43 02       		.uleb128 0x2
 5944 1e44 75       		.byte	0x75
 5945 1e45 00       		.sleb128 0
 5946 1e46 00       		.byte	0
 5947 1e47 3C       		.uleb128 0x3c
 5948 1e48 48000000 		.4byte	.LVL11
 5949 1e4c 292C0000 		.4byte	0x2c29
 5950 1e50 37       		.uleb128 0x37
 5951 1e51 01       		.uleb128 0x1
 5952 1e52 50       		.byte	0x50
 5953 1e53 03       		.uleb128 0x3
 5954 1e54 F3       		.byte	0xf3
 5955 1e55 01       		.uleb128 0x1
 5956 1e56 52       		.byte	0x52
 5957 1e57 37       		.uleb128 0x37
 5958 1e58 01       		.uleb128 0x1
 5959 1e59 51       		.byte	0x51
 5960 1e5a 05       		.uleb128 0x5
ARM GAS  C:\Users\pearlstl\AppData\Local\Temp\ccIMJlIA.s 			page 127


 5961 1e5b 03       		.byte	0x3
 5962 1e5c 00000000 		.4byte	.LC0
 5963 1e60 00       		.byte	0
 5964 1e61 00       		.byte	0
 5965 1e62 0D       		.uleb128 0xd
 5966 1e63 04       		.byte	0x4
 5967 1e64 170E0000 		.4byte	0xe17
 5968 1e68 0D       		.uleb128 0xd
 5969 1e69 04       		.byte	0x4
 5970 1e6a F7120000 		.4byte	0x12f7
 5971 1e6e 3D       		.uleb128 0x3d
 5972 1e6f CB1A0000 		.4byte	0x1acb
 5973 1e73 00000000 		.4byte	.LFB58
 5974 1e77 2C000000 		.4byte	.LFE58-.LFB58
 5975 1e7b 01       		.uleb128 0x1
 5976 1e7c 9C       		.byte	0x9c
 5977 1e7d 071F0000 		.4byte	0x1f07
 5978 1e81 33       		.uleb128 0x33
 5979 1e82 DC1A0000 		.4byte	0x1adc
 5980 1e86 F6010000 		.4byte	.LLST14
 5981 1e8a 33       		.uleb128 0x33
 5982 1e8b E81A0000 		.4byte	0x1ae8
 5983 1e8f 17020000 		.4byte	.LLST15
 5984 1e93 33       		.uleb128 0x33
 5985 1e94 F41A0000 		.4byte	0x1af4
 5986 1e98 38020000 		.4byte	.LLST16
 5987 1e9c 35       		.uleb128 0x35
 5988 1e9d 001B0000 		.4byte	0x1b00
 5989 1ea1 6F020000 		.4byte	.LLST17
 5990 1ea5 38       		.uleb128 0x38
 5991 1ea6 48000000 		.4byte	.Ldebug_ranges0+0x48
 5992 1eaa ED1E0000 		.4byte	0x1eed
 5993 1eae 3E       		.uleb128 0x3e
 5994 1eaf DC1A0000 		.4byte	0x1adc
 5995 1eb3 04       		.uleb128 0x4
 5996 1eb4 F3       		.byte	0xf3
 5997 1eb5 01       		.uleb128 0x1
 5998 1eb6 50       		.byte	0x50
 5999 1eb7 9F       		.byte	0x9f
 6000 1eb8 3F       		.uleb128 0x3f
 6001 1eb9 E81A0000 		.4byte	0x1ae8
 6002 1ebd 07       		.byte	0x7
 6003 1ebe 33       		.uleb128 0x33
 6004 1ebf F41A0000 		.4byte	0x1af4
 6005 1ec3 82020000 		.4byte	.LLST18
 6006 1ec7 34       		.uleb128 0x34
 6007 1ec8 48000000 		.4byte	.Ldebug_ranges0+0x48
 6008 1ecc 40       		.uleb128 0x40
 6009 1ecd 001B0000 		.4byte	0x1b00
 6010 1ed1 3C       		.uleb128 0x3c
 6011 1ed2 22000000 		.4byte	.LVL51
 6012 1ed6 292C0000 		.4byte	0x2c29
 6013 1eda 37       		.uleb128 0x37
 6014 1edb 01       		.uleb128 0x1
 6015 1edc 50       		.byte	0x50
 6016 1edd 03       		.uleb128 0x3
 6017 1ede F3       		.byte	0xf3
ARM GAS  C:\Users\pearlstl\AppData\Local\Temp\ccIMJlIA.s 			page 128


 6018 1edf 01       		.uleb128 0x1
 6019 1ee0 52       		.byte	0x52
 6020 1ee1 37       		.uleb128 0x37
 6021 1ee2 01       		.uleb128 0x1
 6022 1ee3 51       		.byte	0x51
 6023 1ee4 05       		.uleb128 0x5
 6024 1ee5 03       		.byte	0x3
 6025 1ee6 04000000 		.4byte	.LC1
 6026 1eea 00       		.byte	0
 6027 1eeb 00       		.byte	0
 6028 1eec 00       		.byte	0
 6029 1eed 41       		.uleb128 0x41
 6030 1eee 0C000000 		.4byte	.LVL46
 6031 1ef2 37       		.uleb128 0x37
 6032 1ef3 01       		.uleb128 0x1
 6033 1ef4 50       		.byte	0x50
 6034 1ef5 03       		.uleb128 0x3
 6035 1ef6 F3       		.byte	0xf3
 6036 1ef7 01       		.uleb128 0x1
 6037 1ef8 50       		.byte	0x50
 6038 1ef9 37       		.uleb128 0x37
 6039 1efa 01       		.uleb128 0x1
 6040 1efb 51       		.byte	0x51
 6041 1efc 02       		.uleb128 0x2
 6042 1efd 74       		.byte	0x74
 6043 1efe 00       		.sleb128 0
 6044 1eff 37       		.uleb128 0x37
 6045 1f00 01       		.uleb128 0x1
 6046 1f01 52       		.byte	0x52
 6047 1f02 02       		.uleb128 0x2
 6048 1f03 75       		.byte	0x75
 6049 1f04 00       		.sleb128 0
 6050 1f05 00       		.byte	0
 6051 1f06 00       		.byte	0
 6052 1f07 42       		.uleb128 0x42
 6053 1f08 6D0D0000 		.4byte	.LASF429
 6054 1f0c 01       		.byte	0x1
 6055 1f0d 41       		.byte	0x41
 6056 1f0e 22120000 		.4byte	0x1222
 6057 1f12 00000000 		.4byte	.LFB52
 6058 1f16 78010000 		.4byte	.LFE52-.LFB52
 6059 1f1a 01       		.uleb128 0x1
 6060 1f1b 9C       		.byte	0x9c
 6061 1f1c 4B220000 		.4byte	0x224b
 6062 1f20 43       		.uleb128 0x43
 6063 1f21 70617200 		.ascii	"par\000"
 6064 1f25 01       		.byte	0x1
 6065 1f26 41       		.byte	0x41
 6066 1f27 22120000 		.4byte	0x1222
 6067 1f2b AE020000 		.4byte	.LLST19
 6068 1f2f 44       		.uleb128 0x44
 6069 1f30 E0030000 		.4byte	.LASF361
 6070 1f34 01       		.byte	0x1
 6071 1f35 41       		.byte	0x41
 6072 1f36 661B0000 		.4byte	0x1b66
 6073 1f3a CC020000 		.4byte	.LLST20
 6074 1f3e 45       		.uleb128 0x45
ARM GAS  C:\Users\pearlstl\AppData\Local\Temp\ccIMJlIA.s 			page 129


 6075 1f3f A30F0000 		.4byte	.LASF362
 6076 1f43 01       		.byte	0x1
 6077 1f44 46       		.byte	0x46
 6078 1f45 22120000 		.4byte	0x1222
 6079 1f49 03030000 		.4byte	.LLST21
 6080 1f4d 46       		.uleb128 0x46
 6081 1f4e 65787400 		.ascii	"ext\000"
 6082 1f52 01       		.byte	0x1
 6083 1f53 4B       		.byte	0x4b
 6084 1f54 681E0000 		.4byte	0x1e68
 6085 1f58 37030000 		.4byte	.LLST22
 6086 1f5c 47       		.uleb128 0x47
 6087 1f5d 60000000 		.4byte	.LBB30
 6088 1f61 28000000 		.4byte	.LBE30-.LBB30
 6089 1f65 9D1F0000 		.4byte	0x1f9d
 6090 1f69 45       		.uleb128 0x45
 6091 1f6a AC120000 		.4byte	.LASF363
 6092 1f6e 01       		.byte	0x1
 6093 1f6f 80       		.byte	0x80
 6094 1f70 681E0000 		.4byte	0x1e68
 6095 1f74 8C030000 		.4byte	.LLST23
 6096 1f78 39       		.uleb128 0x39
 6097 1f79 66000000 		.4byte	.LVL59
 6098 1f7d B22B0000 		.4byte	0x2bb2
 6099 1f81 8C1F0000 		.4byte	0x1f8c
 6100 1f85 37       		.uleb128 0x37
 6101 1f86 01       		.uleb128 0x1
 6102 1f87 50       		.byte	0x50
 6103 1f88 02       		.uleb128 0x2
 6104 1f89 77       		.byte	0x77
 6105 1f8a 00       		.sleb128 0
 6106 1f8b 00       		.byte	0
 6107 1f8c 36       		.uleb128 0x36
 6108 1f8d 86000000 		.4byte	.LVL64
 6109 1f91 352C0000 		.4byte	0x2c35
 6110 1f95 37       		.uleb128 0x37
 6111 1f96 01       		.uleb128 0x1
 6112 1f97 50       		.byte	0x50
 6113 1f98 02       		.uleb128 0x2
 6114 1f99 75       		.byte	0x75
 6115 1f9a 00       		.sleb128 0
 6116 1f9b 00       		.byte	0
 6117 1f9c 00       		.byte	0
 6118 1f9d 38       		.uleb128 0x38
 6119 1f9e 60000000 		.4byte	.Ldebug_ranges0+0x60
 6120 1fa2 8D210000 		.4byte	0x218d
 6121 1fa6 46       		.uleb128 0x46
 6122 1fa7 7700     		.ascii	"w\000"
 6123 1fa9 01       		.byte	0x1
 6124 1faa 64       		.byte	0x64
 6125 1fab EF000000 		.4byte	0xef
 6126 1faf AA030000 		.4byte	.LLST24
 6127 1fb3 46       		.uleb128 0x46
 6128 1fb4 6800     		.ascii	"h\000"
 6129 1fb6 01       		.byte	0x1
 6130 1fb7 65       		.byte	0x65
 6131 1fb8 EF000000 		.4byte	0xef
ARM GAS  C:\Users\pearlstl\AppData\Local\Temp\ccIMJlIA.s 			page 130


 6132 1fbc C8030000 		.4byte	.LLST25
 6133 1fc0 46       		.uleb128 0x46
 6134 1fc1 746800   		.ascii	"th\000"
 6135 1fc4 01       		.byte	0x1
 6136 1fc5 74       		.byte	0x74
 6137 1fc6 4B220000 		.4byte	0x224b
 6138 1fca E6030000 		.4byte	.LLST26
 6139 1fce 48       		.uleb128 0x48
 6140 1fcf 711B0000 		.4byte	0x1b71
 6141 1fd3 C0000000 		.4byte	.LBB32
 6142 1fd7 14000000 		.4byte	.LBE32-.LBB32
 6143 1fdb 01       		.byte	0x1
 6144 1fdc 71       		.byte	0x71
 6145 1fdd 4D200000 		.4byte	0x204d
 6146 1fe1 33       		.uleb128 0x33
 6147 1fe2 881B0000 		.4byte	0x1b88
 6148 1fe6 1A040000 		.4byte	.LLST27
 6149 1fea 33       		.uleb128 0x33
 6150 1feb 7D1B0000 		.4byte	0x1b7d
 6151 1fef 2E040000 		.4byte	.LLST28
 6152 1ff3 49       		.uleb128 0x49
 6153 1ff4 0D1B0000 		.4byte	0x1b0d
 6154 1ff8 C0000000 		.4byte	.LBB34
 6155 1ffc 78000000 		.4byte	.Ldebug_ranges0+0x78
 6156 2000 03       		.byte	0x3
 6157 2001 C9       		.byte	0xc9
 6158 2002 3C200000 		.4byte	0x203c
 6159 2006 33       		.uleb128 0x33
 6160 2007 241B0000 		.4byte	0x1b24
 6161 200b 41040000 		.4byte	.LLST29
 6162 200f 33       		.uleb128 0x33
 6163 2010 191B0000 		.4byte	0x1b19
 6164 2014 55040000 		.4byte	.LLST30
 6165 2018 36       		.uleb128 0x36
 6166 2019 D4000000 		.4byte	.LVL78
 6167 201d 412C0000 		.4byte	0x2c41
 6168 2021 37       		.uleb128 0x37
 6169 2022 01       		.uleb128 0x1
 6170 2023 51       		.byte	0x51
 6171 2024 02       		.uleb128 0x2
 6172 2025 76       		.byte	0x76
 6173 2026 00       		.sleb128 0
 6174 2027 37       		.uleb128 0x37
 6175 2028 01       		.uleb128 0x1
 6176 2029 52       		.byte	0x52
 6177 202a 02       		.uleb128 0x2
 6178 202b 76       		.byte	0x76
 6179 202c 00       		.sleb128 0
 6180 202d 37       		.uleb128 0x37
 6181 202e 01       		.uleb128 0x1
 6182 202f 53       		.byte	0x53
 6183 2030 02       		.uleb128 0x2
 6184 2031 76       		.byte	0x76
 6185 2032 00       		.sleb128 0
 6186 2033 37       		.uleb128 0x37
 6187 2034 02       		.uleb128 0x2
 6188 2035 7D       		.byte	0x7d
ARM GAS  C:\Users\pearlstl\AppData\Local\Temp\ccIMJlIA.s 			page 131


 6189 2036 00       		.sleb128 0
 6190 2037 02       		.uleb128 0x2
 6191 2038 76       		.byte	0x76
 6192 2039 00       		.sleb128 0
 6193 203a 00       		.byte	0
 6194 203b 00       		.byte	0
 6195 203c 36       		.uleb128 0x36
 6196 203d C8000000 		.4byte	.LVL77
 6197 2041 4C2C0000 		.4byte	0x2c4c
 6198 2045 37       		.uleb128 0x37
 6199 2046 01       		.uleb128 0x1
 6200 2047 50       		.byte	0x50
 6201 2048 02       		.uleb128 0x2
 6202 2049 75       		.byte	0x75
 6203 204a 00       		.sleb128 0
 6204 204b 00       		.byte	0
 6205 204c 00       		.byte	0
 6206 204d 39       		.uleb128 0x39
 6207 204e 9A000000 		.4byte	.LVL67
 6208 2052 1D2C0000 		.4byte	0x2c1d
 6209 2056 61200000 		.4byte	0x2061
 6210 205a 37       		.uleb128 0x37
 6211 205b 01       		.uleb128 0x1
 6212 205c 50       		.byte	0x50
 6213 205d 02       		.uleb128 0x2
 6214 205e 75       		.byte	0x75
 6215 205f 00       		.sleb128 0
 6216 2060 00       		.byte	0
 6217 2061 3A       		.uleb128 0x3a
 6218 2062 9E000000 		.4byte	.LVL68
 6219 2066 572C0000 		.4byte	0x2c57
 6220 206a 39       		.uleb128 0x39
 6221 206b A6000000 		.4byte	.LVL70
 6222 206f 1D2C0000 		.4byte	0x2c1d
 6223 2073 7E200000 		.4byte	0x207e
 6224 2077 37       		.uleb128 0x37
 6225 2078 01       		.uleb128 0x1
 6226 2079 50       		.byte	0x50
 6227 207a 02       		.uleb128 0x2
 6228 207b 75       		.byte	0x75
 6229 207c 00       		.sleb128 0
 6230 207d 00       		.byte	0
 6231 207e 3A       		.uleb128 0x3a
 6232 207f AA000000 		.4byte	.LVL71
 6233 2083 632C0000 		.4byte	0x2c63
 6234 2087 39       		.uleb128 0x39
 6235 2088 B4000000 		.4byte	.LVL73
 6236 208c 6F2C0000 		.4byte	0x2c6f
 6237 2090 A1200000 		.4byte	0x20a1
 6238 2094 37       		.uleb128 0x37
 6239 2095 01       		.uleb128 0x1
 6240 2096 50       		.byte	0x50
 6241 2097 02       		.uleb128 0x2
 6242 2098 75       		.byte	0x75
 6243 2099 00       		.sleb128 0
 6244 209a 37       		.uleb128 0x37
 6245 209b 01       		.uleb128 0x1
ARM GAS  C:\Users\pearlstl\AppData\Local\Temp\ccIMJlIA.s 			page 132


 6246 209c 51       		.byte	0x51
 6247 209d 02       		.uleb128 0x2
 6248 209e 76       		.byte	0x76
 6249 209f 00       		.sleb128 0
 6250 20a0 00       		.byte	0
 6251 20a1 39       		.uleb128 0x39
 6252 20a2 BA000000 		.4byte	.LVL74
 6253 20a6 4C2C0000 		.4byte	0x2c4c
 6254 20aa B5200000 		.4byte	0x20b5
 6255 20ae 37       		.uleb128 0x37
 6256 20af 01       		.uleb128 0x1
 6257 20b0 50       		.byte	0x50
 6258 20b1 02       		.uleb128 0x2
 6259 20b2 75       		.byte	0x75
 6260 20b3 00       		.sleb128 0
 6261 20b4 00       		.byte	0
 6262 20b5 39       		.uleb128 0x39
 6263 20b6 C0000000 		.4byte	.LVL75
 6264 20ba 7B2C0000 		.4byte	0x2c7b
 6265 20be C8200000 		.4byte	0x20c8
 6266 20c2 37       		.uleb128 0x37
 6267 20c3 01       		.uleb128 0x1
 6268 20c4 51       		.byte	0x51
 6269 20c5 01       		.uleb128 0x1
 6270 20c6 30       		.byte	0x30
 6271 20c7 00       		.byte	0
 6272 20c8 39       		.uleb128 0x39
 6273 20c9 DC000000 		.4byte	.LVL79
 6274 20cd 872C0000 		.4byte	0x2c87
 6275 20d1 DF200000 		.4byte	0x20df
 6276 20d5 37       		.uleb128 0x37
 6277 20d6 01       		.uleb128 0x1
 6278 20d7 51       		.byte	0x51
 6279 20d8 05       		.uleb128 0x5
 6280 20d9 03       		.byte	0x3
 6281 20da 00000000 		.4byte	tileview_scrl_event_cb
 6282 20de 00       		.byte	0
 6283 20df 3A       		.uleb128 0x3a
 6284 20e0 E0000000 		.4byte	.LVL80
 6285 20e4 932C0000 		.4byte	0x2c93
 6286 20e8 39       		.uleb128 0x39
 6287 20e9 F0000000 		.4byte	.LVL83
 6288 20ed 9F2C0000 		.4byte	0x2c9f
 6289 20f1 01210000 		.4byte	0x2101
 6290 20f5 37       		.uleb128 0x37
 6291 20f6 01       		.uleb128 0x1
 6292 20f7 50       		.byte	0x50
 6293 20f8 02       		.uleb128 0x2
 6294 20f9 75       		.byte	0x75
 6295 20fa 00       		.sleb128 0
 6296 20fb 37       		.uleb128 0x37
 6297 20fc 01       		.uleb128 0x1
 6298 20fd 51       		.byte	0x51
 6299 20fe 01       		.uleb128 0x1
 6300 20ff 30       		.byte	0x30
 6301 2100 00       		.byte	0
 6302 2101 39       		.uleb128 0x39
ARM GAS  C:\Users\pearlstl\AppData\Local\Temp\ccIMJlIA.s 			page 133


 6303 2102 FC000000 		.4byte	.LVL84
 6304 2106 9F2C0000 		.4byte	0x2c9f
 6305 210a 1B210000 		.4byte	0x211b
 6306 210e 37       		.uleb128 0x37
 6307 210f 01       		.uleb128 0x1
 6308 2110 50       		.byte	0x50
 6309 2111 02       		.uleb128 0x2
 6310 2112 75       		.byte	0x75
 6311 2113 00       		.sleb128 0
 6312 2114 37       		.uleb128 0x37
 6313 2115 01       		.uleb128 0x1
 6314 2116 51       		.byte	0x51
 6315 2117 02       		.uleb128 0x2
 6316 2118 76       		.byte	0x76
 6317 2119 00       		.sleb128 0
 6318 211a 00       		.byte	0
 6319 211b 39       		.uleb128 0x39
 6320 211c 08010000 		.4byte	.LVL85
 6321 2120 9F2C0000 		.4byte	0x2c9f
 6322 2124 34210000 		.4byte	0x2134
 6323 2128 37       		.uleb128 0x37
 6324 2129 01       		.uleb128 0x1
 6325 212a 50       		.byte	0x50
 6326 212b 02       		.uleb128 0x2
 6327 212c 75       		.byte	0x75
 6328 212d 00       		.sleb128 0
 6329 212e 37       		.uleb128 0x37
 6330 212f 01       		.uleb128 0x1
 6331 2130 51       		.byte	0x51
 6332 2131 01       		.uleb128 0x1
 6333 2132 32       		.byte	0x32
 6334 2133 00       		.byte	0
 6335 2134 39       		.uleb128 0x39
 6336 2135 44010000 		.4byte	.LVL96
 6337 2139 9F2C0000 		.4byte	0x2c9f
 6338 213d 4E210000 		.4byte	0x214e
 6339 2141 37       		.uleb128 0x37
 6340 2142 01       		.uleb128 0x1
 6341 2143 50       		.byte	0x50
 6342 2144 02       		.uleb128 0x2
 6343 2145 75       		.byte	0x75
 6344 2146 00       		.sleb128 0
 6345 2147 37       		.uleb128 0x37
 6346 2148 01       		.uleb128 0x1
 6347 2149 51       		.byte	0x51
 6348 214a 02       		.uleb128 0x2
 6349 214b 74       		.byte	0x74
 6350 214c 00       		.sleb128 0
 6351 214d 00       		.byte	0
 6352 214e 39       		.uleb128 0x39
 6353 214f 4E010000 		.4byte	.LVL97
 6354 2153 9F2C0000 		.4byte	0x2c9f
 6355 2157 68210000 		.4byte	0x2168
 6356 215b 37       		.uleb128 0x37
 6357 215c 01       		.uleb128 0x1
 6358 215d 50       		.byte	0x50
 6359 215e 02       		.uleb128 0x2
ARM GAS  C:\Users\pearlstl\AppData\Local\Temp\ccIMJlIA.s 			page 134


 6360 215f 75       		.byte	0x75
 6361 2160 00       		.sleb128 0
 6362 2161 37       		.uleb128 0x37
 6363 2162 01       		.uleb128 0x1
 6364 2163 51       		.byte	0x51
 6365 2164 02       		.uleb128 0x2
 6366 2165 76       		.byte	0x76
 6367 2166 00       		.sleb128 0
 6368 2167 00       		.byte	0
 6369 2168 39       		.uleb128 0x39
 6370 2169 58010000 		.4byte	.LVL99
 6371 216d AA2C0000 		.4byte	0x2caa
 6372 2171 7C210000 		.4byte	0x217c
 6373 2175 37       		.uleb128 0x37
 6374 2176 01       		.uleb128 0x1
 6375 2177 50       		.byte	0x50
 6376 2178 02       		.uleb128 0x2
 6377 2179 78       		.byte	0x78
 6378 217a 00       		.sleb128 0
 6379 217b 00       		.byte	0
 6380 217c 36       		.uleb128 0x36
 6381 217d 60010000 		.4byte	.LVL101
 6382 2181 B52C0000 		.4byte	0x2cb5
 6383 2185 37       		.uleb128 0x37
 6384 2186 01       		.uleb128 0x1
 6385 2187 50       		.byte	0x50
 6386 2188 02       		.uleb128 0x2
 6387 2189 78       		.byte	0x78
 6388 218a 00       		.sleb128 0
 6389 218b 00       		.byte	0
 6390 218c 00       		.byte	0
 6391 218d 39       		.uleb128 0x39
 6392 218e 0E000000 		.4byte	.LVL53
 6393 2192 C02C0000 		.4byte	0x2cc0
 6394 2196 A7210000 		.4byte	0x21a7
 6395 219a 37       		.uleb128 0x37
 6396 219b 01       		.uleb128 0x1
 6397 219c 50       		.byte	0x50
 6398 219d 02       		.uleb128 0x2
 6399 219e 78       		.byte	0x78
 6400 219f 00       		.sleb128 0
 6401 21a0 37       		.uleb128 0x37
 6402 21a1 01       		.uleb128 0x1
 6403 21a2 51       		.byte	0x51
 6404 21a3 02       		.uleb128 0x2
 6405 21a4 77       		.byte	0x77
 6406 21a5 00       		.sleb128 0
 6407 21a6 00       		.byte	0
 6408 21a7 39       		.uleb128 0x39
 6409 21a8 1A000000 		.4byte	.LVL54
 6410 21ac CB2C0000 		.4byte	0x2ccb
 6411 21b0 C1210000 		.4byte	0x21c1
 6412 21b4 37       		.uleb128 0x37
 6413 21b5 01       		.uleb128 0x1
 6414 21b6 50       		.byte	0x50
 6415 21b7 02       		.uleb128 0x2
 6416 21b8 75       		.byte	0x75
ARM GAS  C:\Users\pearlstl\AppData\Local\Temp\ccIMJlIA.s 			page 135


 6417 21b9 00       		.sleb128 0
 6418 21ba 37       		.uleb128 0x37
 6419 21bb 01       		.uleb128 0x1
 6420 21bc 51       		.byte	0x51
 6421 21bd 02       		.uleb128 0x2
 6422 21be 08       		.byte	0x8
 6423 21bf 40       		.byte	0x40
 6424 21c0 00       		.byte	0
 6425 21c1 39       		.uleb128 0x39
 6426 21c2 52000000 		.4byte	.LVL56
 6427 21c6 D72C0000 		.4byte	0x2cd7
 6428 21ca DE210000 		.4byte	0x21de
 6429 21ce 37       		.uleb128 0x37
 6430 21cf 01       		.uleb128 0x1
 6431 21d0 50       		.byte	0x50
 6432 21d1 02       		.uleb128 0x2
 6433 21d2 75       		.byte	0x75
 6434 21d3 00       		.sleb128 0
 6435 21d4 37       		.uleb128 0x37
 6436 21d5 01       		.uleb128 0x1
 6437 21d6 51       		.byte	0x51
 6438 21d7 05       		.uleb128 0x5
 6439 21d8 03       		.byte	0x3
 6440 21d9 00000000 		.4byte	lv_tileview_signal
 6441 21dd 00       		.byte	0
 6442 21de 39       		.uleb128 0x39
 6443 21df 58000000 		.4byte	.LVL57
 6444 21e3 4C2C0000 		.4byte	0x2c4c
 6445 21e7 F2210000 		.4byte	0x21f2
 6446 21eb 37       		.uleb128 0x37
 6447 21ec 01       		.uleb128 0x1
 6448 21ed 50       		.byte	0x50
 6449 21ee 02       		.uleb128 0x2
 6450 21ef 75       		.byte	0x75
 6451 21f0 00       		.sleb128 0
 6452 21f1 00       		.byte	0
 6453 21f2 39       		.uleb128 0x39
 6454 21f3 5E000000 		.4byte	.LVL58
 6455 21f7 D72C0000 		.4byte	0x2cd7
 6456 21fb 09220000 		.4byte	0x2209
 6457 21ff 37       		.uleb128 0x37
 6458 2200 01       		.uleb128 0x1
 6459 2201 51       		.byte	0x51
 6460 2202 05       		.uleb128 0x5
 6461 2203 03       		.byte	0x3
 6462 2204 00000000 		.4byte	lv_tileview_scrl_signal
 6463 2208 00       		.byte	0
 6464 2209 39       		.uleb128 0x39
 6465 220a 1C010000 		.4byte	.LVL88
 6466 220e 4C2C0000 		.4byte	0x2c4c
 6467 2212 1D220000 		.4byte	0x221d
 6468 2216 37       		.uleb128 0x37
 6469 2217 01       		.uleb128 0x1
 6470 2218 50       		.byte	0x50
 6471 2219 02       		.uleb128 0x2
 6472 221a 75       		.byte	0x75
 6473 221b 00       		.sleb128 0
ARM GAS  C:\Users\pearlstl\AppData\Local\Temp\ccIMJlIA.s 			page 136


 6474 221c 00       		.byte	0
 6475 221d 3A       		.uleb128 0x3a
 6476 221e 20010000 		.4byte	.LVL89
 6477 2222 E32C0000 		.4byte	0x2ce3
 6478 2226 39       		.uleb128 0x39
 6479 2227 2C010000 		.4byte	.LVL90
 6480 222b EF2C0000 		.4byte	0x2cef
 6481 222f 3A220000 		.4byte	0x223a
 6482 2233 37       		.uleb128 0x37
 6483 2234 01       		.uleb128 0x1
 6484 2235 50       		.byte	0x50
 6485 2236 02       		.uleb128 0x2
 6486 2237 75       		.byte	0x75
 6487 2238 00       		.sleb128 0
 6488 2239 00       		.byte	0
 6489 223a 36       		.uleb128 0x36
 6490 223b 36010000 		.4byte	.LVL93
 6491 223f E32C0000 		.4byte	0x2ce3
 6492 2243 37       		.uleb128 0x37
 6493 2244 01       		.uleb128 0x1
 6494 2245 50       		.byte	0x50
 6495 2246 02       		.uleb128 0x2
 6496 2247 75       		.byte	0x75
 6497 2248 00       		.sleb128 0
 6498 2249 00       		.byte	0
 6499 224a 00       		.byte	0
 6500 224b 0D       		.uleb128 0xd
 6501 224c 04       		.byte	0x4
 6502 224d BF1A0000 		.4byte	0x1abf
 6503 2251 4A       		.uleb128 0x4a
 6504 2252 B4130000 		.4byte	.LASF430
 6505 2256 01       		.byte	0x1
 6506 2257 D5       		.byte	0xd5
 6507 2258 01       		.byte	0x1
 6508 2259 F5220000 		.4byte	0x22f5
 6509 225d 29       		.uleb128 0x29
 6510 225e D7030000 		.4byte	.LASF352
 6511 2262 01       		.byte	0x1
 6512 2263 D5       		.byte	0xd5
 6513 2264 22120000 		.4byte	0x1222
 6514 2268 2A       		.uleb128 0x2a
 6515 2269 7800     		.ascii	"x\000"
 6516 226b 01       		.byte	0x1
 6517 226c D5       		.byte	0xd5
 6518 226d EF000000 		.4byte	0xef
 6519 2271 2A       		.uleb128 0x2a
 6520 2272 7900     		.ascii	"y\000"
 6521 2274 01       		.byte	0x1
 6522 2275 D5       		.byte	0xd5
 6523 2276 EF000000 		.4byte	0xef
 6524 227a 29       		.uleb128 0x29
 6525 227b E20E0000 		.4byte	.LASF364
 6526 227f 01       		.byte	0x1
 6527 2280 D5       		.byte	0xd5
 6528 2281 2C030000 		.4byte	0x32c
 6529 2285 4B       		.uleb128 0x4b
 6530 2286 65787400 		.ascii	"ext\000"
ARM GAS  C:\Users\pearlstl\AppData\Local\Temp\ccIMJlIA.s 			page 137


 6531 228a 01       		.byte	0x1
 6532 228b DD       		.byte	0xdd
 6533 228c 681E0000 		.4byte	0x1e68
 6534 2290 4C       		.uleb128 0x4c
 6535 2291 8D010000 		.4byte	.LASF365
 6536 2295 01       		.byte	0x1
 6537 2296 DF       		.byte	0xdf
 6538 2297 E4000000 		.4byte	0xe4
 6539 229b 4C       		.uleb128 0x4c
 6540 229c 2C120000 		.4byte	.LASF366
 6541 22a0 01       		.byte	0x1
 6542 22a1 E0       		.byte	0xe0
 6543 22a2 D5010000 		.4byte	0x1d5
 6544 22a6 4C       		.uleb128 0x4c
 6545 22a7 54020000 		.4byte	.LASF367
 6546 22ab 01       		.byte	0x1
 6547 22ac ED       		.byte	0xed
 6548 22ad EF000000 		.4byte	0xef
 6549 22b1 4C       		.uleb128 0x4c
 6550 22b2 CF030000 		.4byte	.LASF368
 6551 22b6 01       		.byte	0x1
 6552 22b7 EE       		.byte	0xee
 6553 22b8 EF000000 		.4byte	0xef
 6554 22bc 4C       		.uleb128 0x4c
 6555 22bd 92040000 		.4byte	.LASF291
 6556 22c1 01       		.byte	0x1
 6557 22c2 EF       		.byte	0xef
 6558 22c3 22120000 		.4byte	0x1222
 6559 22c7 27       		.uleb128 0x27
 6560 22c8 72657300 		.ascii	"res\000"
 6561 22cc 01       		.byte	0x1
 6562 22cd 1201     		.2byte	0x112
 6563 22cf D1060000 		.4byte	0x6d1
 6564 22d3 4D       		.uleb128 0x4d
 6565 22d4 4C       		.uleb128 0x4c
 6566 22d5 7C030000 		.4byte	.LASF369
 6567 22d9 01       		.byte	0x1
 6568 22da F2       		.byte	0xf2
 6569 22db EF000000 		.4byte	0xef
 6570 22df 4C       		.uleb128 0x4c
 6571 22e0 29150000 		.4byte	.LASF370
 6572 22e4 01       		.byte	0x1
 6573 22e5 F3       		.byte	0xf3
 6574 22e6 EF000000 		.4byte	0xef
 6575 22ea 4B       		.uleb128 0x4b
 6576 22eb 6100     		.ascii	"a\000"
 6577 22ed 01       		.byte	0x1
 6578 22ee F5       		.byte	0xf5
 6579 22ef 71040000 		.4byte	0x471
 6580 22f3 00       		.byte	0
 6581 22f4 00       		.byte	0
 6582 22f5 4E       		.uleb128 0x4e
 6583 22f6 03090000 		.4byte	.LASF372
 6584 22fa 01       		.byte	0x1
 6585 22fb 9B       		.byte	0x9b
 6586 22fc 00000000 		.4byte	.LFB53
 6587 2300 AE000000 		.4byte	.LFE53-.LFB53
ARM GAS  C:\Users\pearlstl\AppData\Local\Temp\ccIMJlIA.s 			page 138


 6588 2304 01       		.uleb128 0x1
 6589 2305 9C       		.byte	0x9c
 6590 2306 74240000 		.4byte	0x2474
 6591 230a 44       		.uleb128 0x44
 6592 230b D7030000 		.4byte	.LASF352
 6593 230f 01       		.byte	0x1
 6594 2310 9B       		.byte	0x9b
 6595 2311 22120000 		.4byte	0x1222
 6596 2315 68040000 		.4byte	.LLST31
 6597 2319 44       		.uleb128 0x44
 6598 231a CE0D0000 		.4byte	.LASF371
 6599 231e 01       		.byte	0x1
 6600 231f 9B       		.byte	0x9b
 6601 2320 22120000 		.4byte	0x1222
 6602 2324 86040000 		.4byte	.LLST32
 6603 2328 46       		.uleb128 0x46
 6604 2329 65787400 		.ascii	"ext\000"
 6605 232d 01       		.byte	0x1
 6606 232e A8       		.byte	0xa8
 6607 232f 681E0000 		.4byte	0x1e68
 6608 2333 B2040000 		.4byte	.LLST33
 6609 2337 49       		.uleb128 0x49
 6610 2338 51220000 		.4byte	0x2251
 6611 233c 24000000 		.4byte	.LBB42
 6612 2340 90000000 		.4byte	.Ldebug_ranges0+0x90
 6613 2344 01       		.byte	0x1
 6614 2345 A9       		.byte	0xa9
 6615 2346 49240000 		.4byte	0x2449
 6616 234a 3F       		.uleb128 0x3f
 6617 234b 7A220000 		.4byte	0x227a
 6618 234f 00       		.byte	0
 6619 2350 33       		.uleb128 0x33
 6620 2351 71220000 		.4byte	0x2271
 6621 2355 D0040000 		.4byte	.LLST34
 6622 2359 33       		.uleb128 0x33
 6623 235a 68220000 		.4byte	0x2268
 6624 235e FC040000 		.4byte	.LLST35
 6625 2362 3E       		.uleb128 0x3e
 6626 2363 5D220000 		.4byte	0x225d
 6627 2367 01       		.uleb128 0x1
 6628 2368 56       		.byte	0x56
 6629 2369 34       		.uleb128 0x34
 6630 236a 90000000 		.4byte	.Ldebug_ranges0+0x90
 6631 236e 35       		.uleb128 0x35
 6632 236f 85220000 		.4byte	0x2285
 6633 2373 28050000 		.4byte	.LLST36
 6634 2377 4F       		.uleb128 0x4f
 6635 2378 90220000 		.4byte	0x2290
 6636 237c 02       		.uleb128 0x2
 6637 237d 91       		.byte	0x91
 6638 237e 64       		.sleb128 -28
 6639 237f 35       		.uleb128 0x35
 6640 2380 9B220000 		.4byte	0x229b
 6641 2384 46050000 		.4byte	.LLST37
 6642 2388 35       		.uleb128 0x35
 6643 2389 A6220000 		.4byte	0x22a6
 6644 238d 72050000 		.4byte	.LLST38
ARM GAS  C:\Users\pearlstl\AppData\Local\Temp\ccIMJlIA.s 			page 139


 6645 2391 35       		.uleb128 0x35
 6646 2392 B1220000 		.4byte	0x22b1
 6647 2396 9D050000 		.4byte	.LLST39
 6648 239a 35       		.uleb128 0x35
 6649 239b BC220000 		.4byte	0x22bc
 6650 239f C8050000 		.4byte	.LLST40
 6651 23a3 35       		.uleb128 0x35
 6652 23a4 C7220000 		.4byte	0x22c7
 6653 23a8 DB050000 		.4byte	.LLST41
 6654 23ac 39       		.uleb128 0x39
 6655 23ad 32000000 		.4byte	.LVL111
 6656 23b1 B22B0000 		.4byte	0x2bb2
 6657 23b5 C0230000 		.4byte	0x23c0
 6658 23b9 37       		.uleb128 0x37
 6659 23ba 01       		.uleb128 0x1
 6660 23bb 50       		.byte	0x50
 6661 23bc 02       		.uleb128 0x2
 6662 23bd 76       		.byte	0x76
 6663 23be 00       		.sleb128 0
 6664 23bf 00       		.byte	0
 6665 23c0 39       		.uleb128 0x39
 6666 23c1 74000000 		.4byte	.LVL114
 6667 23c5 E22B0000 		.4byte	0x2be2
 6668 23c9 D4230000 		.4byte	0x23d4
 6669 23cd 37       		.uleb128 0x37
 6670 23ce 01       		.uleb128 0x1
 6671 23cf 50       		.byte	0x50
 6672 23d0 02       		.uleb128 0x2
 6673 23d1 76       		.byte	0x76
 6674 23d2 00       		.sleb128 0
 6675 23d3 00       		.byte	0
 6676 23d4 39       		.uleb128 0x39
 6677 23d5 7C000000 		.4byte	.LVL116
 6678 23d9 D62B0000 		.4byte	0x2bd6
 6679 23dd E8230000 		.4byte	0x23e8
 6680 23e1 37       		.uleb128 0x37
 6681 23e2 01       		.uleb128 0x1
 6682 23e3 50       		.byte	0x50
 6683 23e4 02       		.uleb128 0x2
 6684 23e5 76       		.byte	0x76
 6685 23e6 00       		.sleb128 0
 6686 23e7 00       		.byte	0
 6687 23e8 39       		.uleb128 0x39
 6688 23e9 8A000000 		.4byte	.LVL120
 6689 23ed 4C2C0000 		.4byte	0x2c4c
 6690 23f1 FC230000 		.4byte	0x23fc
 6691 23f5 37       		.uleb128 0x37
 6692 23f6 01       		.uleb128 0x1
 6693 23f7 50       		.byte	0x50
 6694 23f8 02       		.uleb128 0x2
 6695 23f9 76       		.byte	0x76
 6696 23fa 00       		.sleb128 0
 6697 23fb 00       		.byte	0
 6698 23fc 39       		.uleb128 0x39
 6699 23fd 9A000000 		.4byte	.LVL121
 6700 2401 FB2C0000 		.4byte	0x2cfb
 6701 2405 2C240000 		.4byte	0x242c
ARM GAS  C:\Users\pearlstl\AppData\Local\Temp\ccIMJlIA.s 			page 140


 6702 2409 37       		.uleb128 0x37
 6703 240a 01       		.uleb128 0x1
 6704 240b 51       		.byte	0x51
 6705 240c 0D       		.uleb128 0xd
 6706 240d 75       		.byte	0x75
 6707 240e 00       		.sleb128 0
 6708 240f 40       		.byte	0x40
 6709 2410 24       		.byte	0x24
 6710 2411 40       		.byte	0x40
 6711 2412 26       		.byte	0x26
 6712 2413 77       		.byte	0x77
 6713 2414 00       		.sleb128 0
 6714 2415 40       		.byte	0x40
 6715 2416 24       		.byte	0x24
 6716 2417 40       		.byte	0x40
 6717 2418 26       		.byte	0x26
 6718 2419 1E       		.byte	0x1e
 6719 241a 37       		.uleb128 0x37
 6720 241b 01       		.uleb128 0x1
 6721 241c 52       		.byte	0x52
 6722 241d 0D       		.uleb128 0xd
 6723 241e 78       		.byte	0x78
 6724 241f 00       		.sleb128 0
 6725 2420 40       		.byte	0x40
 6726 2421 24       		.byte	0x24
 6727 2422 40       		.byte	0x40
 6728 2423 26       		.byte	0x26
 6729 2424 74       		.byte	0x74
 6730 2425 00       		.sleb128 0
 6731 2426 40       		.byte	0x40
 6732 2427 24       		.byte	0x24
 6733 2428 40       		.byte	0x40
 6734 2429 26       		.byte	0x26
 6735 242a 1E       		.byte	0x1e
 6736 242b 00       		.byte	0
 6737 242c 36       		.uleb128 0x36
 6738 242d A4000000 		.4byte	.LVL122
 6739 2431 072D0000 		.4byte	0x2d07
 6740 2435 37       		.uleb128 0x37
 6741 2436 01       		.uleb128 0x1
 6742 2437 50       		.byte	0x50
 6743 2438 02       		.uleb128 0x2
 6744 2439 76       		.byte	0x76
 6745 243a 00       		.sleb128 0
 6746 243b 37       		.uleb128 0x37
 6747 243c 01       		.uleb128 0x1
 6748 243d 51       		.byte	0x51
 6749 243e 01       		.uleb128 0x1
 6750 243f 3E       		.byte	0x3e
 6751 2440 37       		.uleb128 0x37
 6752 2441 01       		.uleb128 0x1
 6753 2442 52       		.byte	0x52
 6754 2443 02       		.uleb128 0x2
 6755 2444 91       		.byte	0x91
 6756 2445 64       		.sleb128 -28
 6757 2446 00       		.byte	0
 6758 2447 00       		.byte	0
ARM GAS  C:\Users\pearlstl\AppData\Local\Temp\ccIMJlIA.s 			page 141


 6759 2448 00       		.byte	0
 6760 2449 39       		.uleb128 0x39
 6761 244a 1C000000 		.4byte	.LVL106
 6762 244e 132D0000 		.4byte	0x2d13
 6763 2452 63240000 		.4byte	0x2463
 6764 2456 37       		.uleb128 0x37
 6765 2457 01       		.uleb128 0x1
 6766 2458 50       		.byte	0x50
 6767 2459 03       		.uleb128 0x3
 6768 245a F3       		.byte	0xf3
 6769 245b 01       		.uleb128 0x1
 6770 245c 51       		.byte	0x51
 6771 245d 37       		.uleb128 0x37
 6772 245e 01       		.uleb128 0x1
 6773 245f 51       		.byte	0x51
 6774 2460 01       		.uleb128 0x1
 6775 2461 31       		.byte	0x31
 6776 2462 00       		.byte	0
 6777 2463 36       		.uleb128 0x36
 6778 2464 22000000 		.4byte	.LVL107
 6779 2468 B22B0000 		.4byte	0x2bb2
 6780 246c 37       		.uleb128 0x37
 6781 246d 01       		.uleb128 0x1
 6782 246e 50       		.byte	0x50
 6783 246f 02       		.uleb128 0x2
 6784 2470 76       		.byte	0x76
 6785 2471 00       		.sleb128 0
 6786 2472 00       		.byte	0
 6787 2473 00       		.byte	0
 6788 2474 4E       		.uleb128 0x4e
 6789 2475 F3090000 		.4byte	.LASF373
 6790 2479 01       		.byte	0x1
 6791 247a B7       		.byte	0xb7
 6792 247b 00000000 		.4byte	.LFB54
 6793 247f CE000000 		.4byte	.LFE54-.LFB54
 6794 2483 01       		.uleb128 0x1
 6795 2484 9C       		.byte	0x9c
 6796 2485 F7250000 		.4byte	0x25f7
 6797 2489 44       		.uleb128 0x44
 6798 248a D7030000 		.4byte	.LASF352
 6799 248e 01       		.byte	0x1
 6800 248f B7       		.byte	0xb7
 6801 2490 22120000 		.4byte	0x1222
 6802 2494 EF050000 		.4byte	.LLST42
 6803 2498 44       		.uleb128 0x44
 6804 2499 43100000 		.4byte	.LASF302
 6805 249d 01       		.byte	0x1
 6806 249e B7       		.byte	0xb7
 6807 249f 0C0E0000 		.4byte	0xe0c
 6808 24a3 0D060000 		.4byte	.LLST43
 6809 24a7 44       		.uleb128 0x44
 6810 24a8 20030000 		.4byte	.LASF303
 6811 24ac 01       		.byte	0x1
 6812 24ad B7       		.byte	0xb7
 6813 24ae CE000000 		.4byte	0xce
 6814 24b2 52060000 		.4byte	.LLST44
 6815 24b6 46       		.uleb128 0x46
ARM GAS  C:\Users\pearlstl\AppData\Local\Temp\ccIMJlIA.s 			page 142


 6816 24b7 65787400 		.ascii	"ext\000"
 6817 24bb 01       		.byte	0x1
 6818 24bc BC       		.byte	0xbc
 6819 24bd 681E0000 		.4byte	0x1e68
 6820 24c1 73060000 		.4byte	.LLST45
 6821 24c5 46       		.uleb128 0x46
 6822 24c6 6900     		.ascii	"i\000"
 6823 24c8 01       		.byte	0x1
 6824 24c9 C1       		.byte	0xc1
 6825 24ca CE000000 		.4byte	0xce
 6826 24ce 91060000 		.4byte	.LLST46
 6827 24d2 49       		.uleb128 0x49
 6828 24d3 51220000 		.4byte	0x2251
 6829 24d7 48000000 		.4byte	.LBB49
 6830 24db A8000000 		.4byte	.Ldebug_ranges0+0xa8
 6831 24df 01       		.byte	0x1
 6832 24e0 CA       		.byte	0xca
 6833 24e1 E6250000 		.4byte	0x25e6
 6834 24e5 3F       		.uleb128 0x3f
 6835 24e6 7A220000 		.4byte	0x227a
 6836 24ea 00       		.byte	0
 6837 24eb 33       		.uleb128 0x33
 6838 24ec 71220000 		.4byte	0x2271
 6839 24f0 A5060000 		.4byte	.LLST47
 6840 24f4 33       		.uleb128 0x33
 6841 24f5 68220000 		.4byte	0x2268
 6842 24f9 D1060000 		.4byte	.LLST48
 6843 24fd 33       		.uleb128 0x33
 6844 24fe 5D220000 		.4byte	0x225d
 6845 2502 FD060000 		.4byte	.LLST49
 6846 2506 34       		.uleb128 0x34
 6847 2507 A8000000 		.4byte	.Ldebug_ranges0+0xa8
 6848 250b 35       		.uleb128 0x35
 6849 250c 85220000 		.4byte	0x2285
 6850 2510 1B070000 		.4byte	.LLST50
 6851 2514 4F       		.uleb128 0x4f
 6852 2515 90220000 		.4byte	0x2290
 6853 2519 02       		.uleb128 0x2
 6854 251a 91       		.byte	0x91
 6855 251b 64       		.sleb128 -28
 6856 251c 35       		.uleb128 0x35
 6857 251d 9B220000 		.4byte	0x229b
 6858 2521 39070000 		.4byte	.LLST51
 6859 2525 35       		.uleb128 0x35
 6860 2526 A6220000 		.4byte	0x22a6
 6861 252a 65070000 		.4byte	.LLST52
 6862 252e 35       		.uleb128 0x35
 6863 252f B1220000 		.4byte	0x22b1
 6864 2533 90070000 		.4byte	.LLST53
 6865 2537 35       		.uleb128 0x35
 6866 2538 BC220000 		.4byte	0x22bc
 6867 253c BB070000 		.4byte	.LLST54
 6868 2540 35       		.uleb128 0x35
 6869 2541 C7220000 		.4byte	0x22c7
 6870 2545 CE070000 		.4byte	.LLST55
 6871 2549 39       		.uleb128 0x39
 6872 254a 56000000 		.4byte	.LVL132
ARM GAS  C:\Users\pearlstl\AppData\Local\Temp\ccIMJlIA.s 			page 143


 6873 254e B22B0000 		.4byte	0x2bb2
 6874 2552 5D250000 		.4byte	0x255d
 6875 2556 37       		.uleb128 0x37
 6876 2557 01       		.uleb128 0x1
 6877 2558 50       		.byte	0x50
 6878 2559 02       		.uleb128 0x2
 6879 255a 75       		.byte	0x75
 6880 255b 00       		.sleb128 0
 6881 255c 00       		.byte	0
 6882 255d 39       		.uleb128 0x39
 6883 255e 98000000 		.4byte	.LVL136
 6884 2562 E22B0000 		.4byte	0x2be2
 6885 2566 71250000 		.4byte	0x2571
 6886 256a 37       		.uleb128 0x37
 6887 256b 01       		.uleb128 0x1
 6888 256c 50       		.byte	0x50
 6889 256d 02       		.uleb128 0x2
 6890 256e 75       		.byte	0x75
 6891 256f 00       		.sleb128 0
 6892 2570 00       		.byte	0
 6893 2571 39       		.uleb128 0x39
 6894 2572 A0000000 		.4byte	.LVL138
 6895 2576 D62B0000 		.4byte	0x2bd6
 6896 257a 85250000 		.4byte	0x2585
 6897 257e 37       		.uleb128 0x37
 6898 257f 01       		.uleb128 0x1
 6899 2580 50       		.byte	0x50
 6900 2581 02       		.uleb128 0x2
 6901 2582 75       		.byte	0x75
 6902 2583 00       		.sleb128 0
 6903 2584 00       		.byte	0
 6904 2585 39       		.uleb128 0x39
 6905 2586 AE000000 		.4byte	.LVL142
 6906 258a 4C2C0000 		.4byte	0x2c4c
 6907 258e 99250000 		.4byte	0x2599
 6908 2592 37       		.uleb128 0x37
 6909 2593 01       		.uleb128 0x1
 6910 2594 50       		.byte	0x50
 6911 2595 02       		.uleb128 0x2
 6912 2596 75       		.byte	0x75
 6913 2597 00       		.sleb128 0
 6914 2598 00       		.byte	0
 6915 2599 39       		.uleb128 0x39
 6916 259a BE000000 		.4byte	.LVL143
 6917 259e FB2C0000 		.4byte	0x2cfb
 6918 25a2 C9250000 		.4byte	0x25c9
 6919 25a6 37       		.uleb128 0x37
 6920 25a7 01       		.uleb128 0x1
 6921 25a8 51       		.byte	0x51
 6922 25a9 0D       		.uleb128 0xd
 6923 25aa 76       		.byte	0x76
 6924 25ab 00       		.sleb128 0
 6925 25ac 40       		.byte	0x40
 6926 25ad 24       		.byte	0x24
 6927 25ae 40       		.byte	0x40
 6928 25af 26       		.byte	0x26
 6929 25b0 77       		.byte	0x77
ARM GAS  C:\Users\pearlstl\AppData\Local\Temp\ccIMJlIA.s 			page 144


 6930 25b1 00       		.sleb128 0
 6931 25b2 40       		.byte	0x40
 6932 25b3 24       		.byte	0x24
 6933 25b4 40       		.byte	0x40
 6934 25b5 26       		.byte	0x26
 6935 25b6 1E       		.byte	0x1e
 6936 25b7 37       		.uleb128 0x37
 6937 25b8 01       		.uleb128 0x1
 6938 25b9 52       		.byte	0x52
 6939 25ba 0D       		.uleb128 0xd
 6940 25bb 78       		.byte	0x78
 6941 25bc 00       		.sleb128 0
 6942 25bd 40       		.byte	0x40
 6943 25be 24       		.byte	0x24
 6944 25bf 40       		.byte	0x40
 6945 25c0 26       		.byte	0x26
 6946 25c1 74       		.byte	0x74
 6947 25c2 00       		.sleb128 0
 6948 25c3 40       		.byte	0x40
 6949 25c4 24       		.byte	0x24
 6950 25c5 40       		.byte	0x40
 6951 25c6 26       		.byte	0x26
 6952 25c7 1E       		.byte	0x1e
 6953 25c8 00       		.byte	0
 6954 25c9 36       		.uleb128 0x36
 6955 25ca C8000000 		.4byte	.LVL144
 6956 25ce 072D0000 		.4byte	0x2d07
 6957 25d2 37       		.uleb128 0x37
 6958 25d3 01       		.uleb128 0x1
 6959 25d4 50       		.byte	0x50
 6960 25d5 02       		.uleb128 0x2
 6961 25d6 75       		.byte	0x75
 6962 25d7 00       		.sleb128 0
 6963 25d8 37       		.uleb128 0x37
 6964 25d9 01       		.uleb128 0x1
 6965 25da 51       		.byte	0x51
 6966 25db 01       		.uleb128 0x1
 6967 25dc 3E       		.byte	0x3e
 6968 25dd 37       		.uleb128 0x37
 6969 25de 01       		.uleb128 0x1
 6970 25df 52       		.byte	0x52
 6971 25e0 02       		.uleb128 0x2
 6972 25e1 91       		.byte	0x91
 6973 25e2 64       		.sleb128 -28
 6974 25e3 00       		.byte	0
 6975 25e4 00       		.byte	0
 6976 25e5 00       		.byte	0
 6977 25e6 36       		.uleb128 0x36
 6978 25e7 10000000 		.4byte	.LVL125
 6979 25eb B22B0000 		.4byte	0x2bb2
 6980 25ef 37       		.uleb128 0x37
 6981 25f0 01       		.uleb128 0x1
 6982 25f1 50       		.byte	0x50
 6983 25f2 02       		.uleb128 0x2
 6984 25f3 75       		.byte	0x75
 6985 25f4 00       		.sleb128 0
 6986 25f5 00       		.byte	0
ARM GAS  C:\Users\pearlstl\AppData\Local\Temp\ccIMJlIA.s 			page 145


 6987 25f6 00       		.byte	0
 6988 25f7 3D       		.uleb128 0x3d
 6989 25f8 51220000 		.4byte	0x2251
 6990 25fc 00000000 		.4byte	.LFB55
 6991 2600 0C010000 		.4byte	.LFE55-.LFB55
 6992 2604 01       		.uleb128 0x1
 6993 2605 9C       		.byte	0x9c
 6994 2606 6A270000 		.4byte	0x276a
 6995 260a 33       		.uleb128 0x33
 6996 260b 5D220000 		.4byte	0x225d
 6997 260f E2070000 		.4byte	.LLST56
 6998 2613 33       		.uleb128 0x33
 6999 2614 68220000 		.4byte	0x2268
 7000 2618 00080000 		.4byte	.LLST57
 7001 261c 33       		.uleb128 0x33
 7002 261d 71220000 		.4byte	0x2271
 7003 2621 21080000 		.4byte	.LLST58
 7004 2625 33       		.uleb128 0x33
 7005 2626 7A220000 		.4byte	0x227a
 7006 262a 42080000 		.4byte	.LLST59
 7007 262e 35       		.uleb128 0x35
 7008 262f 85220000 		.4byte	0x2285
 7009 2633 63080000 		.4byte	.LLST60
 7010 2637 4F       		.uleb128 0x4f
 7011 2638 90220000 		.4byte	0x2290
 7012 263c 03       		.uleb128 0x3
 7013 263d 91       		.byte	0x91
 7014 263e B87F     		.sleb128 -72
 7015 2640 35       		.uleb128 0x35
 7016 2641 9B220000 		.4byte	0x229b
 7017 2645 8C080000 		.4byte	.LLST61
 7018 2649 35       		.uleb128 0x35
 7019 264a A6220000 		.4byte	0x22a6
 7020 264e B8080000 		.4byte	.LLST62
 7021 2652 35       		.uleb128 0x35
 7022 2653 B1220000 		.4byte	0x22b1
 7023 2657 CB080000 		.4byte	.LLST63
 7024 265b 35       		.uleb128 0x35
 7025 265c BC220000 		.4byte	0x22bc
 7026 2660 DE080000 		.4byte	.LLST64
 7027 2664 35       		.uleb128 0x35
 7028 2665 C7220000 		.4byte	0x22c7
 7029 2669 12090000 		.4byte	.LLST65
 7030 266d 47       		.uleb128 0x47
 7031 266e 7C000000 		.4byte	.LBB53
 7032 2672 66000000 		.4byte	.LBE53-.LBB53
 7033 2676 E4260000 		.4byte	0x26e4
 7034 267a 35       		.uleb128 0x35
 7035 267b D4220000 		.4byte	0x22d4
 7036 267f 26090000 		.4byte	.LLST66
 7037 2683 35       		.uleb128 0x35
 7038 2684 DF220000 		.4byte	0x22df
 7039 2688 39090000 		.4byte	.LLST67
 7040 268c 4F       		.uleb128 0x4f
 7041 268d EA220000 		.4byte	0x22ea
 7042 2691 03       		.uleb128 0x3
 7043 2692 91       		.byte	0x91
ARM GAS  C:\Users\pearlstl\AppData\Local\Temp\ccIMJlIA.s 			page 146


 7044 2693 BC7F     		.sleb128 -68
 7045 2695 39       		.uleb128 0x39
 7046 2696 80000000 		.4byte	.LVL156
 7047 269a BE2B0000 		.4byte	0x2bbe
 7048 269e A9260000 		.4byte	0x26a9
 7049 26a2 37       		.uleb128 0x37
 7050 26a3 01       		.uleb128 0x1
 7051 26a4 50       		.byte	0x50
 7052 26a5 02       		.uleb128 0x2
 7053 26a6 76       		.byte	0x76
 7054 26a7 00       		.sleb128 0
 7055 26a8 00       		.byte	0
 7056 26a9 39       		.uleb128 0x39
 7057 26aa 88000000 		.4byte	.LVL158
 7058 26ae CA2B0000 		.4byte	0x2bca
 7059 26b2 BD260000 		.4byte	0x26bd
 7060 26b6 37       		.uleb128 0x37
 7061 26b7 01       		.uleb128 0x1
 7062 26b8 50       		.byte	0x50
 7063 26b9 02       		.uleb128 0x2
 7064 26ba 76       		.byte	0x76
 7065 26bb 00       		.sleb128 0
 7066 26bc 00       		.byte	0
 7067 26bd 39       		.uleb128 0x39
 7068 26be CC000000 		.4byte	.LVL160
 7069 26c2 1F2D0000 		.4byte	0x2d1f
 7070 26c6 D2260000 		.4byte	0x26d2
 7071 26ca 37       		.uleb128 0x37
 7072 26cb 01       		.uleb128 0x1
 7073 26cc 50       		.byte	0x50
 7074 26cd 03       		.uleb128 0x3
 7075 26ce 91       		.byte	0x91
 7076 26cf BC7F     		.sleb128 -68
 7077 26d1 00       		.byte	0
 7078 26d2 36       		.uleb128 0x36
 7079 26d3 E0000000 		.4byte	.LVL161
 7080 26d7 1F2D0000 		.4byte	0x2d1f
 7081 26db 37       		.uleb128 0x37
 7082 26dc 01       		.uleb128 0x1
 7083 26dd 50       		.byte	0x50
 7084 26de 03       		.uleb128 0x3
 7085 26df 91       		.byte	0x91
 7086 26e0 BC7F     		.sleb128 -68
 7087 26e2 00       		.byte	0
 7088 26e3 00       		.byte	0
 7089 26e4 39       		.uleb128 0x39
 7090 26e5 12000000 		.4byte	.LVL147
 7091 26e9 B22B0000 		.4byte	0x2bb2
 7092 26ed F8260000 		.4byte	0x26f8
 7093 26f1 37       		.uleb128 0x37
 7094 26f2 01       		.uleb128 0x1
 7095 26f3 50       		.byte	0x50
 7096 26f4 02       		.uleb128 0x2
 7097 26f5 77       		.byte	0x77
 7098 26f6 00       		.sleb128 0
 7099 26f7 00       		.byte	0
 7100 26f8 39       		.uleb128 0x39
ARM GAS  C:\Users\pearlstl\AppData\Local\Temp\ccIMJlIA.s 			page 147


 7101 26f9 56000000 		.4byte	.LVL150
 7102 26fd E22B0000 		.4byte	0x2be2
 7103 2701 0C270000 		.4byte	0x270c
 7104 2705 37       		.uleb128 0x37
 7105 2706 01       		.uleb128 0x1
 7106 2707 50       		.byte	0x50
 7107 2708 02       		.uleb128 0x2
 7108 2709 77       		.byte	0x77
 7109 270a 00       		.sleb128 0
 7110 270b 00       		.byte	0
 7111 270c 39       		.uleb128 0x39
 7112 270d 62000000 		.4byte	.LVL151
 7113 2711 D62B0000 		.4byte	0x2bd6
 7114 2715 20270000 		.4byte	0x2720
 7115 2719 37       		.uleb128 0x37
 7116 271a 01       		.uleb128 0x1
 7117 271b 50       		.byte	0x50
 7118 271c 02       		.uleb128 0x2
 7119 271d 77       		.byte	0x77
 7120 271e 00       		.sleb128 0
 7121 271f 00       		.byte	0
 7122 2720 39       		.uleb128 0x39
 7123 2721 70000000 		.4byte	.LVL152
 7124 2725 4C2C0000 		.4byte	0x2c4c
 7125 2729 34270000 		.4byte	0x2734
 7126 272d 37       		.uleb128 0x37
 7127 272e 01       		.uleb128 0x1
 7128 272f 50       		.byte	0x50
 7129 2730 02       		.uleb128 0x2
 7130 2731 77       		.byte	0x77
 7131 2732 00       		.sleb128 0
 7132 2733 00       		.byte	0
 7133 2734 39       		.uleb128 0x39
 7134 2735 EA000000 		.4byte	.LVL163
 7135 2739 FB2C0000 		.4byte	0x2cfb
 7136 273d 4E270000 		.4byte	0x274e
 7137 2741 37       		.uleb128 0x37
 7138 2742 01       		.uleb128 0x1
 7139 2743 51       		.byte	0x51
 7140 2744 02       		.uleb128 0x2
 7141 2745 74       		.byte	0x74
 7142 2746 00       		.sleb128 0
 7143 2747 37       		.uleb128 0x37
 7144 2748 01       		.uleb128 0x1
 7145 2749 52       		.byte	0x52
 7146 274a 02       		.uleb128 0x2
 7147 274b 75       		.byte	0x75
 7148 274c 00       		.sleb128 0
 7149 274d 00       		.byte	0
 7150 274e 36       		.uleb128 0x36
 7151 274f F4000000 		.4byte	.LVL164
 7152 2753 072D0000 		.4byte	0x2d07
 7153 2757 37       		.uleb128 0x37
 7154 2758 01       		.uleb128 0x1
 7155 2759 50       		.byte	0x50
 7156 275a 02       		.uleb128 0x2
 7157 275b 77       		.byte	0x77
ARM GAS  C:\Users\pearlstl\AppData\Local\Temp\ccIMJlIA.s 			page 148


 7158 275c 00       		.sleb128 0
 7159 275d 37       		.uleb128 0x37
 7160 275e 01       		.uleb128 0x1
 7161 275f 51       		.byte	0x51
 7162 2760 01       		.uleb128 0x1
 7163 2761 3E       		.byte	0x3e
 7164 2762 37       		.uleb128 0x37
 7165 2763 01       		.uleb128 0x1
 7166 2764 52       		.byte	0x52
 7167 2765 02       		.uleb128 0x2
 7168 2766 7D       		.byte	0x7d
 7169 2767 00       		.sleb128 0
 7170 2768 00       		.byte	0
 7171 2769 00       		.byte	0
 7172 276a 25       		.uleb128 0x25
 7173 276b A3010000 		.4byte	.LASF375
 7174 276f 01       		.byte	0x1
 7175 2770 3202     		.2byte	0x232
 7176 2772 D5010000 		.4byte	0x1d5
 7177 2776 01       		.byte	0x1
 7178 2777 9E270000 		.4byte	0x279e
 7179 277b 26       		.uleb128 0x26
 7180 277c D7030000 		.4byte	.LASF352
 7181 2780 01       		.byte	0x1
 7182 2781 3202     		.2byte	0x232
 7183 2783 22120000 		.4byte	0x1222
 7184 2787 27       		.uleb128 0x27
 7185 2788 65787400 		.ascii	"ext\000"
 7186 278c 01       		.byte	0x1
 7187 278d 3502     		.2byte	0x235
 7188 278f 681E0000 		.4byte	0x1e68
 7189 2793 27       		.uleb128 0x27
 7190 2794 6900     		.ascii	"i\000"
 7191 2796 01       		.byte	0x1
 7192 2797 3D02     		.2byte	0x23d
 7193 2799 CE000000 		.4byte	0xce
 7194 279d 00       		.byte	0
 7195 279e 50       		.uleb128 0x50
 7196 279f B20A0000 		.4byte	.LASF376
 7197 27a3 01       		.byte	0x1
 7198 27a4 FD01     		.2byte	0x1fd
 7199 27a6 01       		.byte	0x1
 7200 27a7 42280000 		.4byte	0x2842
 7201 27ab 26       		.uleb128 0x26
 7202 27ac D7030000 		.4byte	.LASF352
 7203 27b0 01       		.byte	0x1
 7204 27b1 FD01     		.2byte	0x1fd
 7205 27b3 22120000 		.4byte	0x1222
 7206 27b7 27       		.uleb128 0x27
 7207 27b8 65787400 		.ascii	"ext\000"
 7208 27bc 01       		.byte	0x1
 7209 27bd FF01     		.2byte	0x1ff
 7210 27bf 681E0000 		.4byte	0x1e68
 7211 27c3 2C       		.uleb128 0x2c
 7212 27c4 A0110000 		.4byte	.LASF360
 7213 27c8 01       		.byte	0x1
 7214 27c9 0002     		.2byte	0x200
ARM GAS  C:\Users\pearlstl\AppData\Local\Temp\ccIMJlIA.s 			page 149


 7215 27cb 621E0000 		.4byte	0x1e62
 7216 27cf 2C       		.uleb128 0x2c
 7217 27d0 DD070000 		.4byte	.LASF377
 7218 27d4 01       		.byte	0x1
 7219 27d5 0102     		.2byte	0x201
 7220 27d7 C8020000 		.4byte	0x2c8
 7221 27db 2C       		.uleb128 0x2c
 7222 27dc 92040000 		.4byte	.LASF291
 7223 27e0 01       		.byte	0x1
 7224 27e1 0302     		.2byte	0x203
 7225 27e3 22120000 		.4byte	0x1222
 7226 27e7 27       		.uleb128 0x27
 7227 27e8 7000     		.ascii	"p\000"
 7228 27ea 01       		.byte	0x1
 7229 27eb 0402     		.2byte	0x204
 7230 27ed C8020000 		.4byte	0x2c8
 7231 27f1 2C       		.uleb128 0x2c
 7232 27f2 16020000 		.4byte	.LASF378
 7233 27f6 01       		.byte	0x1
 7234 27f7 2702     		.2byte	0x227
 7235 27f9 EF000000 		.4byte	0xef
 7236 27fd 2C       		.uleb128 0x2c
 7237 27fe 29020000 		.4byte	.LASF379
 7238 2802 01       		.byte	0x1
 7239 2803 2802     		.2byte	0x228
 7240 2805 EF000000 		.4byte	0xef
 7241 2809 51       		.uleb128 0x51
 7242 280a 27280000 		.4byte	0x2827
 7243 280e 2C       		.uleb128 0x2c
 7244 280f EC0C0000 		.4byte	.LASF184
 7245 2813 01       		.byte	0x1
 7246 2814 0B02     		.2byte	0x20b
 7247 2816 C8020000 		.4byte	0x2c8
 7248 281a 2C       		.uleb128 0x2c
 7249 281b 29040000 		.4byte	.LASF380
 7250 281f 01       		.byte	0x1
 7251 2820 0D02     		.2byte	0x20d
 7252 2822 EF000000 		.4byte	0xef
 7253 2826 00       		.byte	0
 7254 2827 4D       		.uleb128 0x4d
 7255 2828 2C       		.uleb128 0x2c
 7256 2829 EC0C0000 		.4byte	.LASF184
 7257 282d 01       		.byte	0x1
 7258 282e 1602     		.2byte	0x216
 7259 2830 C8020000 		.4byte	0x2c8
 7260 2834 2C       		.uleb128 0x2c
 7261 2835 29040000 		.4byte	.LASF380
 7262 2839 01       		.byte	0x1
 7263 283a 1802     		.2byte	0x218
 7264 283c EF000000 		.4byte	0xef
 7265 2840 00       		.byte	0
 7266 2841 00       		.byte	0
 7267 2842 52       		.uleb128 0x52
 7268 2843 26090000 		.4byte	.LASF431
 7269 2847 01       		.byte	0x1
 7270 2848 E001     		.2byte	0x1e0
 7271 284a 00000000 		.4byte	.LFB60
ARM GAS  C:\Users\pearlstl\AppData\Local\Temp\ccIMJlIA.s 			page 150


 7272 284e 8C020000 		.4byte	.LFE60-.LFB60
 7273 2852 01       		.uleb128 0x1
 7274 2853 9C       		.byte	0x9c
 7275 2854 D22A0000 		.4byte	0x2ad2
 7276 2858 2E       		.uleb128 0x2e
 7277 2859 92040000 		.4byte	.LASF291
 7278 285d 01       		.byte	0x1
 7279 285e E001     		.2byte	0x1e0
 7280 2860 22120000 		.4byte	0x1222
 7281 2864 4C090000 		.4byte	.LLST68
 7282 2868 2E       		.uleb128 0x2e
 7283 2869 100B0000 		.4byte	.LASF381
 7284 286d 01       		.byte	0x1
 7285 286e E001     		.2byte	0x1e0
 7286 2870 DC0E0000 		.4byte	0xedc
 7287 2874 6D090000 		.4byte	.LLST69
 7288 2878 30       		.uleb128 0x30
 7289 2879 D7030000 		.4byte	.LASF352
 7290 287d 01       		.byte	0x1
 7291 287e E201     		.2byte	0x1e2
 7292 2880 22120000 		.4byte	0x1222
 7293 2884 8E090000 		.4byte	.LLST70
 7294 2888 38       		.uleb128 0x38
 7295 2889 C0000000 		.4byte	.Ldebug_ranges0+0xc0
 7296 288d 532A0000 		.4byte	0x2a53
 7297 2891 30       		.uleb128 0x30
 7298 2892 A0110000 		.4byte	.LASF360
 7299 2896 01       		.byte	0x1
 7300 2897 EF01     		.2byte	0x1ef
 7301 2899 621E0000 		.4byte	0x1e62
 7302 289d D8090000 		.4byte	.LLST71
 7303 28a1 2F       		.uleb128 0x2f
 7304 28a2 65787400 		.ascii	"ext\000"
 7305 28a6 01       		.byte	0x1
 7306 28a7 F001     		.2byte	0x1f0
 7307 28a9 681E0000 		.4byte	0x1e68
 7308 28ad F6090000 		.4byte	.LLST72
 7309 28b1 32       		.uleb128 0x32
 7310 28b2 9E270000 		.4byte	0x279e
 7311 28b6 4E000000 		.4byte	.LBB63
 7312 28ba D8000000 		.4byte	.Ldebug_ranges0+0xd8
 7313 28be 01       		.byte	0x1
 7314 28bf F301     		.2byte	0x1f3
 7315 28c1 252A0000 		.4byte	0x2a25
 7316 28c5 33       		.uleb128 0x33
 7317 28c6 AB270000 		.4byte	0x27ab
 7318 28ca 140A0000 		.4byte	.LLST73
 7319 28ce 34       		.uleb128 0x34
 7320 28cf D8000000 		.4byte	.Ldebug_ranges0+0xd8
 7321 28d3 35       		.uleb128 0x35
 7322 28d4 B7270000 		.4byte	0x27b7
 7323 28d8 320A0000 		.4byte	.LLST74
 7324 28dc 35       		.uleb128 0x35
 7325 28dd C3270000 		.4byte	0x27c3
 7326 28e1 660A0000 		.4byte	.LLST75
 7327 28e5 4F       		.uleb128 0x4f
 7328 28e6 CF270000 		.4byte	0x27cf
ARM GAS  C:\Users\pearlstl\AppData\Local\Temp\ccIMJlIA.s 			page 151


 7329 28ea 02       		.uleb128 0x2
 7330 28eb 91       		.byte	0x91
 7331 28ec 50       		.sleb128 -48
 7332 28ed 35       		.uleb128 0x35
 7333 28ee DB270000 		.4byte	0x27db
 7334 28f2 8F0A0000 		.4byte	.LLST76
 7335 28f6 35       		.uleb128 0x35
 7336 28f7 E7270000 		.4byte	0x27e7
 7337 28fb AD0A0000 		.4byte	.LLST77
 7338 28ff 35       		.uleb128 0x35
 7339 2900 F1270000 		.4byte	0x27f1
 7340 2904 700B0000 		.4byte	.LLST78
 7341 2908 35       		.uleb128 0x35
 7342 2909 FD270000 		.4byte	0x27fd
 7343 290d 8E0B0000 		.4byte	.LLST79
 7344 2911 38       		.uleb128 0x38
 7345 2912 F0000000 		.4byte	.Ldebug_ranges0+0xf0
 7346 2916 42290000 		.4byte	0x2942
 7347 291a 4F       		.uleb128 0x4f
 7348 291b 28280000 		.4byte	0x2828
 7349 291f 02       		.uleb128 0x2
 7350 2920 91       		.byte	0x91
 7351 2921 54       		.sleb128 -44
 7352 2922 35       		.uleb128 0x35
 7353 2923 34280000 		.4byte	0x2834
 7354 2927 B70B0000 		.4byte	.LLST80
 7355 292b 36       		.uleb128 0x36
 7356 292c 06020000 		.4byte	.LVL211
 7357 2930 2A2D0000 		.4byte	0x2d2a
 7358 2934 37       		.uleb128 0x37
 7359 2935 01       		.uleb128 0x1
 7360 2936 50       		.byte	0x50
 7361 2937 02       		.uleb128 0x2
 7362 2938 7B       		.byte	0x7b
 7363 2939 00       		.sleb128 0
 7364 293a 37       		.uleb128 0x37
 7365 293b 01       		.uleb128 0x1
 7366 293c 51       		.byte	0x51
 7367 293d 02       		.uleb128 0x2
 7368 293e 91       		.byte	0x91
 7369 293f 54       		.sleb128 -44
 7370 2940 00       		.byte	0
 7371 2941 00       		.byte	0
 7372 2942 38       		.uleb128 0x38
 7373 2943 08010000 		.4byte	.Ldebug_ranges0+0x108
 7374 2947 73290000 		.4byte	0x2973
 7375 294b 4F       		.uleb128 0x4f
 7376 294c 0E280000 		.4byte	0x280e
 7377 2950 02       		.uleb128 0x2
 7378 2951 91       		.byte	0x91
 7379 2952 54       		.sleb128 -44
 7380 2953 35       		.uleb128 0x35
 7381 2954 1A280000 		.4byte	0x281a
 7382 2958 ED0B0000 		.4byte	.LLST81
 7383 295c 36       		.uleb128 0x36
 7384 295d 3E020000 		.4byte	.LVL217
 7385 2961 2A2D0000 		.4byte	0x2d2a
ARM GAS  C:\Users\pearlstl\AppData\Local\Temp\ccIMJlIA.s 			page 152


 7386 2965 37       		.uleb128 0x37
 7387 2966 01       		.uleb128 0x1
 7388 2967 50       		.byte	0x50
 7389 2968 02       		.uleb128 0x2
 7390 2969 7B       		.byte	0x7b
 7391 296a 00       		.sleb128 0
 7392 296b 37       		.uleb128 0x37
 7393 296c 01       		.uleb128 0x1
 7394 296d 51       		.byte	0x51
 7395 296e 02       		.uleb128 0x2
 7396 296f 91       		.byte	0x91
 7397 2970 54       		.sleb128 -44
 7398 2971 00       		.byte	0
 7399 2972 00       		.byte	0
 7400 2973 39       		.uleb128 0x39
 7401 2974 54000000 		.4byte	.LVL179
 7402 2978 B22B0000 		.4byte	0x2bb2
 7403 297c 87290000 		.4byte	0x2987
 7404 2980 37       		.uleb128 0x37
 7405 2981 01       		.uleb128 0x1
 7406 2982 50       		.byte	0x50
 7407 2983 02       		.uleb128 0x2
 7408 2984 75       		.byte	0x75
 7409 2985 00       		.sleb128 0
 7410 2986 00       		.byte	0
 7411 2987 3A       		.uleb128 0x3a
 7412 2988 5A000000 		.4byte	.LVL181
 7413 298c 122C0000 		.4byte	0x2c12
 7414 2990 39       		.uleb128 0x39
 7415 2991 62000000 		.4byte	.LVL183
 7416 2995 352D0000 		.4byte	0x2d35
 7417 2999 AA290000 		.4byte	0x29aa
 7418 299d 37       		.uleb128 0x37
 7419 299e 01       		.uleb128 0x1
 7420 299f 50       		.byte	0x50
 7421 29a0 02       		.uleb128 0x2
 7422 29a1 7B       		.byte	0x7b
 7423 29a2 00       		.sleb128 0
 7424 29a3 37       		.uleb128 0x37
 7425 29a4 01       		.uleb128 0x1
 7426 29a5 51       		.byte	0x51
 7427 29a6 02       		.uleb128 0x2
 7428 29a7 7D       		.byte	0x7d
 7429 29a8 00       		.sleb128 0
 7430 29a9 00       		.byte	0
 7431 29aa 39       		.uleb128 0x39
 7432 29ab 68000000 		.4byte	.LVL184
 7433 29af 4C2C0000 		.4byte	0x2c4c
 7434 29b3 BE290000 		.4byte	0x29be
 7435 29b7 37       		.uleb128 0x37
 7436 29b8 01       		.uleb128 0x1
 7437 29b9 50       		.byte	0x50
 7438 29ba 02       		.uleb128 0x2
 7439 29bb 75       		.byte	0x75
 7440 29bc 00       		.sleb128 0
 7441 29bd 00       		.byte	0
 7442 29be 39       		.uleb128 0x39
ARM GAS  C:\Users\pearlstl\AppData\Local\Temp\ccIMJlIA.s 			page 153


 7443 29bf 70000000 		.4byte	.LVL187
 7444 29c3 E22B0000 		.4byte	0x2be2
 7445 29c7 D2290000 		.4byte	0x29d2
 7446 29cb 37       		.uleb128 0x37
 7447 29cc 01       		.uleb128 0x1
 7448 29cd 50       		.byte	0x50
 7449 29ce 02       		.uleb128 0x2
 7450 29cf 75       		.byte	0x75
 7451 29d0 00       		.sleb128 0
 7452 29d1 00       		.byte	0
 7453 29d2 39       		.uleb128 0x39
 7454 29d3 80000000 		.4byte	.LVL188
 7455 29d7 D62B0000 		.4byte	0x2bd6
 7456 29db E6290000 		.4byte	0x29e6
 7457 29df 37       		.uleb128 0x37
 7458 29e0 01       		.uleb128 0x1
 7459 29e1 50       		.byte	0x50
 7460 29e2 02       		.uleb128 0x2
 7461 29e3 75       		.byte	0x75
 7462 29e4 00       		.sleb128 0
 7463 29e5 00       		.byte	0
 7464 29e6 39       		.uleb128 0x39
 7465 29e7 B6000000 		.4byte	.LVL191
 7466 29eb E22B0000 		.4byte	0x2be2
 7467 29ef FA290000 		.4byte	0x29fa
 7468 29f3 37       		.uleb128 0x37
 7469 29f4 01       		.uleb128 0x1
 7470 29f5 50       		.byte	0x50
 7471 29f6 02       		.uleb128 0x2
 7472 29f7 75       		.byte	0x75
 7473 29f8 00       		.sleb128 0
 7474 29f9 00       		.byte	0
 7475 29fa 39       		.uleb128 0x39
 7476 29fb C0000000 		.4byte	.LVL193
 7477 29ff D62B0000 		.4byte	0x2bd6
 7478 2a03 0E2A0000 		.4byte	0x2a0e
 7479 2a07 37       		.uleb128 0x37
 7480 2a08 01       		.uleb128 0x1
 7481 2a09 50       		.byte	0x50
 7482 2a0a 02       		.uleb128 0x2
 7483 2a0b 75       		.byte	0x75
 7484 2a0c 00       		.sleb128 0
 7485 2a0d 00       		.byte	0
 7486 2a0e 36       		.uleb128 0x36
 7487 2a0f 00010000 		.4byte	.LVL201
 7488 2a13 51220000 		.4byte	0x2251
 7489 2a17 37       		.uleb128 0x37
 7490 2a18 01       		.uleb128 0x1
 7491 2a19 50       		.byte	0x50
 7492 2a1a 02       		.uleb128 0x2
 7493 2a1b 75       		.byte	0x75
 7494 2a1c 00       		.sleb128 0
 7495 2a1d 37       		.uleb128 0x37
 7496 2a1e 01       		.uleb128 0x1
 7497 2a1f 53       		.byte	0x53
 7498 2a20 01       		.uleb128 0x1
 7499 2a21 31       		.byte	0x31
ARM GAS  C:\Users\pearlstl\AppData\Local\Temp\ccIMJlIA.s 			page 154


 7500 2a22 00       		.byte	0
 7501 2a23 00       		.byte	0
 7502 2a24 00       		.byte	0
 7503 2a25 3A       		.uleb128 0x3a
 7504 2a26 24000000 		.4byte	.LVL171
 7505 2a2a 122C0000 		.4byte	0x2c12
 7506 2a2e 39       		.uleb128 0x39
 7507 2a2f 2C000000 		.4byte	.LVL174
 7508 2a33 B22B0000 		.4byte	0x2bb2
 7509 2a37 422A0000 		.4byte	0x2a42
 7510 2a3b 37       		.uleb128 0x37
 7511 2a3c 01       		.uleb128 0x1
 7512 2a3d 50       		.byte	0x50
 7513 2a3e 02       		.uleb128 0x2
 7514 2a3f 75       		.byte	0x75
 7515 2a40 00       		.sleb128 0
 7516 2a41 00       		.byte	0
 7517 2a42 36       		.uleb128 0x36
 7518 2a43 34000000 		.4byte	.LVL177
 7519 2a47 402D0000 		.4byte	0x2d40
 7520 2a4b 37       		.uleb128 0x37
 7521 2a4c 01       		.uleb128 0x1
 7522 2a4d 50       		.byte	0x50
 7523 2a4e 02       		.uleb128 0x2
 7524 2a4f 74       		.byte	0x74
 7525 2a50 00       		.sleb128 0
 7526 2a51 00       		.byte	0
 7527 2a52 00       		.byte	0
 7528 2a53 47       		.uleb128 0x47
 7529 2a54 02010000 		.4byte	.LBB71
 7530 2a58 FC000000 		.4byte	.LBE71-.LBB71
 7531 2a5c C02A0000 		.4byte	0x2ac0
 7532 2a60 2F       		.uleb128 0x2f
 7533 2a61 65787400 		.ascii	"ext\000"
 7534 2a65 01       		.byte	0x1
 7535 2a66 E601     		.2byte	0x1e6
 7536 2a68 681E0000 		.4byte	0x1e68
 7537 2a6c 230C0000 		.4byte	.LLST82
 7538 2a70 32       		.uleb128 0x32
 7539 2a71 6A270000 		.4byte	0x276a
 7540 2a75 08010000 		.4byte	.LBB72
 7541 2a79 20010000 		.4byte	.Ldebug_ranges0+0x120
 7542 2a7d 01       		.byte	0x1
 7543 2a7e E901     		.2byte	0x1e9
 7544 2a80 B62A0000 		.4byte	0x2ab6
 7545 2a84 33       		.uleb128 0x33
 7546 2a85 7B270000 		.4byte	0x277b
 7547 2a89 410C0000 		.4byte	.LLST83
 7548 2a8d 34       		.uleb128 0x34
 7549 2a8e 20010000 		.4byte	.Ldebug_ranges0+0x120
 7550 2a92 35       		.uleb128 0x35
 7551 2a93 87270000 		.4byte	0x2787
 7552 2a97 5F0C0000 		.4byte	.LLST84
 7553 2a9b 35       		.uleb128 0x35
 7554 2a9c 93270000 		.4byte	0x2793
 7555 2aa0 720C0000 		.4byte	.LLST85
 7556 2aa4 36       		.uleb128 0x36
ARM GAS  C:\Users\pearlstl\AppData\Local\Temp\ccIMJlIA.s 			page 155


 7557 2aa5 1E010000 		.4byte	.LVL207
 7558 2aa9 B22B0000 		.4byte	0x2bb2
 7559 2aad 37       		.uleb128 0x37
 7560 2aae 01       		.uleb128 0x1
 7561 2aaf 50       		.byte	0x50
 7562 2ab0 02       		.uleb128 0x2
 7563 2ab1 75       		.byte	0x75
 7564 2ab2 00       		.sleb128 0
 7565 2ab3 00       		.byte	0
 7566 2ab4 00       		.byte	0
 7567 2ab5 00       		.byte	0
 7568 2ab6 3A       		.uleb128 0x3a
 7569 2ab7 06010000 		.4byte	.LVL203
 7570 2abb B22B0000 		.4byte	0x2bb2
 7571 2abf 00       		.byte	0
 7572 2ac0 36       		.uleb128 0x36
 7573 2ac1 0C000000 		.4byte	.LVL167
 7574 2ac5 1D2C0000 		.4byte	0x2c1d
 7575 2ac9 37       		.uleb128 0x37
 7576 2aca 01       		.uleb128 0x1
 7577 2acb 50       		.byte	0x50
 7578 2acc 03       		.uleb128 0x3
 7579 2acd F3       		.byte	0xf3
 7580 2ace 01       		.uleb128 0x1
 7581 2acf 50       		.byte	0x50
 7582 2ad0 00       		.byte	0
 7583 2ad1 00       		.byte	0
 7584 2ad2 53       		.uleb128 0x53
 7585 2ad3 4C030000 		.4byte	.LASF382
 7586 2ad7 01       		.byte	0x1
 7587 2ad8 1D01     		.2byte	0x11d
 7588 2ada 00000000 		.4byte	.LFB56
 7589 2ade 0A000000 		.4byte	.LFE56-.LFB56
 7590 2ae2 01       		.uleb128 0x1
 7591 2ae3 9C       		.byte	0x9c
 7592 2ae4 2A2B0000 		.4byte	0x2b2a
 7593 2ae8 2E       		.uleb128 0x2e
 7594 2ae9 D7030000 		.4byte	.LASF352
 7595 2aed 01       		.byte	0x1
 7596 2aee 1D01     		.2byte	0x11d
 7597 2af0 22120000 		.4byte	0x1222
 7598 2af4 860C0000 		.4byte	.LLST86
 7599 2af8 2E       		.uleb128 0x2e
 7600 2af9 FB010000 		.4byte	.LASF74
 7601 2afd 01       		.byte	0x1
 7602 2afe 1D01     		.2byte	0x11d
 7603 2b00 15130000 		.4byte	0x1315
 7604 2b04 A70C0000 		.4byte	.LLST87
 7605 2b08 2E       		.uleb128 0x2e
 7606 2b09 E60C0000 		.4byte	.LASF280
 7607 2b0d 01       		.byte	0x1
 7608 2b0e 1D01     		.2byte	0x11d
 7609 2b10 45100000 		.4byte	0x1045
 7610 2b14 C80C0000 		.4byte	.LLST88
 7611 2b18 3C       		.uleb128 0x3c
 7612 2b19 0A000000 		.4byte	.LVL232
 7613 2b1d 4B2D0000 		.4byte	0x2d4b
ARM GAS  C:\Users\pearlstl\AppData\Local\Temp\ccIMJlIA.s 			page 156


 7614 2b21 37       		.uleb128 0x37
 7615 2b22 01       		.uleb128 0x1
 7616 2b23 51       		.byte	0x51
 7617 2b24 03       		.uleb128 0x3
 7618 2b25 F3       		.byte	0xf3
 7619 2b26 01       		.uleb128 0x1
 7620 2b27 52       		.byte	0x52
 7621 2b28 00       		.byte	0
 7622 2b29 00       		.byte	0
 7623 2b2a 3D       		.uleb128 0x3d
 7624 2b2b 301B0000 		.4byte	0x1b30
 7625 2b2f 00000000 		.4byte	.LFB57
 7626 2b33 0A000000 		.4byte	.LFE57-.LFB57
 7627 2b37 01       		.uleb128 0x1
 7628 2b38 9C       		.byte	0x9c
 7629 2b39 672B0000 		.4byte	0x2b67
 7630 2b3d 33       		.uleb128 0x33
 7631 2b3e 411B0000 		.4byte	0x1b41
 7632 2b42 E90C0000 		.4byte	.LLST89
 7633 2b46 33       		.uleb128 0x33
 7634 2b47 4D1B0000 		.4byte	0x1b4d
 7635 2b4b 230D0000 		.4byte	.LLST90
 7636 2b4f 54       		.uleb128 0x54
 7637 2b50 591B0000 		.4byte	0x1b59
 7638 2b54 00       		.byte	0
 7639 2b55 3C       		.uleb128 0x3c
 7640 2b56 06000000 		.4byte	.LVL234
 7641 2b5a A62B0000 		.4byte	0x2ba6
 7642 2b5e 37       		.uleb128 0x37
 7643 2b5f 01       		.uleb128 0x1
 7644 2b60 50       		.byte	0x50
 7645 2b61 03       		.uleb128 0x3
 7646 2b62 F3       		.byte	0xf3
 7647 2b63 01       		.uleb128 0x1
 7648 2b64 50       		.byte	0x50
 7649 2b65 00       		.byte	0
 7650 2b66 00       		.byte	0
 7651 2b67 55       		.uleb128 0x55
 7652 2b68 AE0E0000 		.4byte	.LASF383
 7653 2b6c 01       		.byte	0x1
 7654 2b6d 2F       		.byte	0x2f
 7655 2b6e 980F0000 		.4byte	0xf98
 7656 2b72 05       		.uleb128 0x5
 7657 2b73 03       		.byte	0x3
 7658 2b74 04000000 		.4byte	ancestor_signal
 7659 2b78 55       		.uleb128 0x55
 7660 2b79 97060000 		.4byte	.LASF384
 7661 2b7d 01       		.byte	0x1
 7662 2b7e 30       		.byte	0x30
 7663 2b7f 980F0000 		.4byte	0xf98
 7664 2b83 05       		.uleb128 0x5
 7665 2b84 03       		.byte	0x3
 7666 2b85 00000000 		.4byte	ancestor_scrl_signal
 7667 2b89 55       		.uleb128 0x55
 7668 2b8a E70E0000 		.4byte	.LASF385
 7669 2b8e 01       		.byte	0x1
 7670 2b8f 31       		.byte	0x31
ARM GAS  C:\Users\pearlstl\AppData\Local\Temp\ccIMJlIA.s 			page 157


 7671 2b90 2D0E0000 		.4byte	0xe2d
 7672 2b94 05       		.uleb128 0x5
 7673 2b95 03       		.byte	0x3
 7674 2b96 08000000 		.4byte	ancestor_design
 7675 2b9a 56       		.uleb128 0x56
 7676 2b9b 83110000 		.4byte	.LASF432
 7677 2b9f 0B       		.byte	0xb
 7678 2ba0 0E01     		.2byte	0x10e
 7679 2ba2 A7060000 		.4byte	0x6a7
 7680 2ba6 57       		.uleb128 0x57
 7681 2ba7 0D050000 		.4byte	.LASF386
 7682 2bab 0D050000 		.4byte	.LASF386
 7683 2baf 11       		.byte	0x11
 7684 2bb0 2D03     		.2byte	0x32d
 7685 2bb2 57       		.uleb128 0x57
 7686 2bb3 33060000 		.4byte	.LASF387
 7687 2bb7 33060000 		.4byte	.LASF387
 7688 2bbb 11       		.byte	0x11
 7689 2bbc AA03     		.2byte	0x3aa
 7690 2bbe 57       		.uleb128 0x57
 7691 2bbf A40C0000 		.4byte	.LASF388
 7692 2bc3 A40C0000 		.4byte	.LASF388
 7693 2bc7 11       		.byte	0x11
 7694 2bc8 D502     		.2byte	0x2d5
 7695 2bca 57       		.uleb128 0x57
 7696 2bcb B10C0000 		.4byte	.LASF389
 7697 2bcf B10C0000 		.4byte	.LASF389
 7698 2bd3 11       		.byte	0x11
 7699 2bd4 DC02     		.2byte	0x2dc
 7700 2bd6 57       		.uleb128 0x57
 7701 2bd7 BA0F0000 		.4byte	.LASF390
 7702 2bdb BA0F0000 		.4byte	.LASF390
 7703 2bdf 11       		.byte	0x11
 7704 2be0 EA02     		.2byte	0x2ea
 7705 2be2 57       		.uleb128 0x57
 7706 2be3 EA010000 		.4byte	.LASF391
 7707 2be7 EA010000 		.4byte	.LASF391
 7708 2beb 11       		.byte	0x11
 7709 2bec E302     		.2byte	0x2e3
 7710 2bee 57       		.uleb128 0x57
 7711 2bef 6B130000 		.4byte	.LASF392
 7712 2bf3 6B130000 		.4byte	.LASF392
 7713 2bf7 11       		.byte	0x11
 7714 2bf8 7D01     		.2byte	0x17d
 7715 2bfa 57       		.uleb128 0x57
 7716 2bfb 5E130000 		.4byte	.LASF393
 7717 2bff 5E130000 		.4byte	.LASF393
 7718 2c03 11       		.byte	0x11
 7719 2c04 7601     		.2byte	0x176
 7720 2c06 57       		.uleb128 0x57
 7721 2c07 B5040000 		.4byte	.LASF394
 7722 2c0b B5040000 		.4byte	.LASF394
 7723 2c0f 03       		.byte	0x3
 7724 2c10 9501     		.2byte	0x195
 7725 2c12 58       		.uleb128 0x58
 7726 2c13 3C070000 		.4byte	.LASF395
 7727 2c17 3C070000 		.4byte	.LASF395
ARM GAS  C:\Users\pearlstl\AppData\Local\Temp\ccIMJlIA.s 			page 158


 7728 2c1b 15       		.byte	0x15
 7729 2c1c 30       		.byte	0x30
 7730 2c1d 57       		.uleb128 0x57
 7731 2c1e 78120000 		.4byte	.LASF396
 7732 2c22 78120000 		.4byte	.LASF396
 7733 2c26 11       		.byte	0x11
 7734 2c27 9D02     		.2byte	0x29d
 7735 2c29 57       		.uleb128 0x57
 7736 2c2a CF110000 		.4byte	.LASF397
 7737 2c2e CF110000 		.4byte	.LASF397
 7738 2c32 11       		.byte	0x11
 7739 2c33 E703     		.2byte	0x3e7
 7740 2c35 57       		.uleb128 0x57
 7741 2c36 820B0000 		.4byte	.LASF398
 7742 2c3a 820B0000 		.4byte	.LASF398
 7743 2c3e 11       		.byte	0x11
 7744 2c3f D001     		.2byte	0x1d0
 7745 2c41 58       		.uleb128 0x58
 7746 2c42 E4060000 		.4byte	.LASF399
 7747 2c46 E4060000 		.4byte	.LASF399
 7748 2c4a 02       		.byte	0x2
 7749 2c4b 70       		.byte	0x70
 7750 2c4c 58       		.uleb128 0x58
 7751 2c4d DF130000 		.4byte	.LASF400
 7752 2c51 DF130000 		.4byte	.LASF400
 7753 2c55 03       		.byte	0x3
 7754 2c56 7D       		.byte	0x7d
 7755 2c57 57       		.uleb128 0x57
 7756 2c58 17120000 		.4byte	.LASF401
 7757 2c5c 17120000 		.4byte	.LASF401
 7758 2c60 11       		.byte	0x11
 7759 2c61 F102     		.2byte	0x2f1
 7760 2c63 57       		.uleb128 0x57
 7761 2c64 670B0000 		.4byte	.LASF402
 7762 2c68 670B0000 		.4byte	.LASF402
 7763 2c6c 11       		.byte	0x11
 7764 2c6d F802     		.2byte	0x2f8
 7765 2c6f 57       		.uleb128 0x57
 7766 2c70 F6120000 		.4byte	.LASF403
 7767 2c74 F6120000 		.4byte	.LASF403
 7768 2c78 11       		.byte	0x11
 7769 2c79 8501     		.2byte	0x185
 7770 2c7b 57       		.uleb128 0x57
 7771 2c7c C2010000 		.4byte	.LASF404
 7772 2c80 C2010000 		.4byte	.LASF404
 7773 2c84 11       		.byte	0x11
 7774 2c85 0602     		.2byte	0x206
 7775 2c87 57       		.uleb128 0x57
 7776 2c88 4D070000 		.4byte	.LASF405
 7777 2c8c 4D070000 		.4byte	.LASF405
 7778 2c90 11       		.byte	0x11
 7779 2c91 3D02     		.2byte	0x23d
 7780 2c93 57       		.uleb128 0x57
 7781 2c94 F8040000 		.4byte	.LASF406
 7782 2c98 F8040000 		.4byte	.LASF406
 7783 2c9c 14       		.byte	0x14
 7784 2c9d 6501     		.2byte	0x165
ARM GAS  C:\Users\pearlstl\AppData\Local\Temp\ccIMJlIA.s 			page 159


 7785 2c9f 58       		.uleb128 0x58
 7786 2ca0 FD060000 		.4byte	.LASF407
 7787 2ca4 FD060000 		.4byte	.LASF407
 7788 2ca8 03       		.byte	0x3
 7789 2ca9 F0       		.byte	0xf0
 7790 2caa 58       		.uleb128 0x58
 7791 2cab 70060000 		.4byte	.LASF408
 7792 2caf 70060000 		.4byte	.LASF408
 7793 2cb3 10       		.byte	0x10
 7794 2cb4 D9       		.byte	0xd9
 7795 2cb5 58       		.uleb128 0x58
 7796 2cb6 47060000 		.4byte	.LASF409
 7797 2cba 47060000 		.4byte	.LASF409
 7798 2cbe 10       		.byte	0x10
 7799 2cbf E0       		.byte	0xe0
 7800 2cc0 58       		.uleb128 0x58
 7801 2cc1 C60C0000 		.4byte	.LASF410
 7802 2cc5 C60C0000 		.4byte	.LASF410
 7803 2cc9 03       		.byte	0x3
 7804 2cca 70       		.byte	0x70
 7805 2ccb 57       		.uleb128 0x57
 7806 2ccc 84050000 		.4byte	.LASF411
 7807 2cd0 84050000 		.4byte	.LASF411
 7808 2cd4 11       		.byte	0x11
 7809 2cd5 7A02     		.2byte	0x27a
 7810 2cd7 57       		.uleb128 0x57
 7811 2cd8 68010000 		.4byte	.LASF412
 7812 2cdc 68010000 		.4byte	.LASF412
 7813 2ce0 11       		.byte	0x11
 7814 2ce1 6002     		.2byte	0x260
 7815 2ce3 57       		.uleb128 0x57
 7816 2ce4 770F0000 		.4byte	.LASF413
 7817 2ce8 770F0000 		.4byte	.LASF413
 7818 2cec 11       		.byte	0x11
 7819 2ced 9003     		.2byte	0x390
 7820 2cef 57       		.uleb128 0x57
 7821 2cf0 200E0000 		.4byte	.LASF414
 7822 2cf4 200E0000 		.4byte	.LASF414
 7823 2cf8 11       		.byte	0x11
 7824 2cf9 9703     		.2byte	0x397
 7825 2cfb 57       		.uleb128 0x57
 7826 2cfc AD080000 		.4byte	.LASF415
 7827 2d00 AD080000 		.4byte	.LASF415
 7828 2d04 11       		.byte	0x11
 7829 2d05 6F01     		.2byte	0x16f
 7830 2d07 57       		.uleb128 0x57
 7831 2d08 6E030000 		.4byte	.LASF416
 7832 2d0c 6E030000 		.4byte	.LASF416
 7833 2d10 11       		.byte	0x11
 7834 2d11 4602     		.2byte	0x246
 7835 2d13 57       		.uleb128 0x57
 7836 2d14 8C0F0000 		.4byte	.LASF417
 7837 2d18 8C0F0000 		.4byte	.LASF417
 7838 2d1c 11       		.byte	0x11
 7839 2d1d 0E02     		.2byte	0x20e
 7840 2d1f 58       		.uleb128 0x58
 7841 2d20 9B0A0000 		.4byte	.LASF418
ARM GAS  C:\Users\pearlstl\AppData\Local\Temp\ccIMJlIA.s 			page 160


 7842 2d24 9B0A0000 		.4byte	.LASF418
 7843 2d28 0A       		.byte	0xa
 7844 2d29 E5       		.byte	0xe5
 7845 2d2a 58       		.uleb128 0x58
 7846 2d2b F40D0000 		.4byte	.LASF419
 7847 2d2f F40D0000 		.4byte	.LASF419
 7848 2d33 15       		.byte	0x15
 7849 2d34 80       		.byte	0x80
 7850 2d35 58       		.uleb128 0x58
 7851 2d36 F2030000 		.4byte	.LASF420
 7852 2d3a F2030000 		.4byte	.LASF420
 7853 2d3e 15       		.byte	0x15
 7854 2d3f 69       		.byte	0x69
 7855 2d40 58       		.uleb128 0x58
 7856 2d41 C5080000 		.4byte	.LASF421
 7857 2d45 C5080000 		.4byte	.LASF421
 7858 2d49 15       		.byte	0x15
 7859 2d4a 78       		.byte	0x78
 7860 2d4b 57       		.uleb128 0x57
 7861 2d4c B5120000 		.4byte	.LASF422
 7862 2d50 B5120000 		.4byte	.LASF422
 7863 2d54 11       		.byte	0x11
 7864 2d55 CA01     		.2byte	0x1ca
 7865 2d57 00       		.byte	0
 7866              		.section	.debug_abbrev,"",%progbits
 7867              	.Ldebug_abbrev0:
 7868 0000 01       		.uleb128 0x1
 7869 0001 11       		.uleb128 0x11
 7870 0002 01       		.byte	0x1
 7871 0003 25       		.uleb128 0x25
 7872 0004 0E       		.uleb128 0xe
 7873 0005 13       		.uleb128 0x13
 7874 0006 0B       		.uleb128 0xb
 7875 0007 03       		.uleb128 0x3
 7876 0008 0E       		.uleb128 0xe
 7877 0009 1B       		.uleb128 0x1b
 7878 000a 0E       		.uleb128 0xe
 7879 000b 55       		.uleb128 0x55
 7880 000c 17       		.uleb128 0x17
 7881 000d 11       		.uleb128 0x11
 7882 000e 01       		.uleb128 0x1
 7883 000f 10       		.uleb128 0x10
 7884 0010 17       		.uleb128 0x17
 7885 0011 00       		.byte	0
 7886 0012 00       		.byte	0
 7887 0013 02       		.uleb128 0x2
 7888 0014 16       		.uleb128 0x16
 7889 0015 00       		.byte	0
 7890 0016 03       		.uleb128 0x3
 7891 0017 0E       		.uleb128 0xe
 7892 0018 3A       		.uleb128 0x3a
 7893 0019 0B       		.uleb128 0xb
 7894 001a 3B       		.uleb128 0x3b
 7895 001b 0B       		.uleb128 0xb
 7896 001c 49       		.uleb128 0x49
 7897 001d 13       		.uleb128 0x13
 7898 001e 00       		.byte	0
ARM GAS  C:\Users\pearlstl\AppData\Local\Temp\ccIMJlIA.s 			page 161


 7899 001f 00       		.byte	0
 7900 0020 03       		.uleb128 0x3
 7901 0021 24       		.uleb128 0x24
 7902 0022 00       		.byte	0
 7903 0023 0B       		.uleb128 0xb
 7904 0024 0B       		.uleb128 0xb
 7905 0025 3E       		.uleb128 0x3e
 7906 0026 0B       		.uleb128 0xb
 7907 0027 03       		.uleb128 0x3
 7908 0028 0E       		.uleb128 0xe
 7909 0029 00       		.byte	0
 7910 002a 00       		.byte	0
 7911 002b 04       		.uleb128 0x4
 7912 002c 24       		.uleb128 0x24
 7913 002d 00       		.byte	0
 7914 002e 0B       		.uleb128 0xb
 7915 002f 0B       		.uleb128 0xb
 7916 0030 3E       		.uleb128 0x3e
 7917 0031 0B       		.uleb128 0xb
 7918 0032 03       		.uleb128 0x3
 7919 0033 08       		.uleb128 0x8
 7920 0034 00       		.byte	0
 7921 0035 00       		.byte	0
 7922 0036 05       		.uleb128 0x5
 7923 0037 0F       		.uleb128 0xf
 7924 0038 00       		.byte	0
 7925 0039 0B       		.uleb128 0xb
 7926 003a 0B       		.uleb128 0xb
 7927 003b 00       		.byte	0
 7928 003c 00       		.byte	0
 7929 003d 06       		.uleb128 0x6
 7930 003e 13       		.uleb128 0x13
 7931 003f 01       		.byte	0x1
 7932 0040 0B       		.uleb128 0xb
 7933 0041 0B       		.uleb128 0xb
 7934 0042 3A       		.uleb128 0x3a
 7935 0043 0B       		.uleb128 0xb
 7936 0044 3B       		.uleb128 0x3b
 7937 0045 0B       		.uleb128 0xb
 7938 0046 01       		.uleb128 0x1
 7939 0047 13       		.uleb128 0x13
 7940 0048 00       		.byte	0
 7941 0049 00       		.byte	0
 7942 004a 07       		.uleb128 0x7
 7943 004b 0D       		.uleb128 0xd
 7944 004c 00       		.byte	0
 7945 004d 03       		.uleb128 0x3
 7946 004e 0E       		.uleb128 0xe
 7947 004f 3A       		.uleb128 0x3a
 7948 0050 0B       		.uleb128 0xb
 7949 0051 3B       		.uleb128 0x3b
 7950 0052 0B       		.uleb128 0xb
 7951 0053 49       		.uleb128 0x49
 7952 0054 13       		.uleb128 0x13
 7953 0055 38       		.uleb128 0x38
 7954 0056 0B       		.uleb128 0xb
 7955 0057 00       		.byte	0
ARM GAS  C:\Users\pearlstl\AppData\Local\Temp\ccIMJlIA.s 			page 162


 7956 0058 00       		.byte	0
 7957 0059 08       		.uleb128 0x8
 7958 005a 0D       		.uleb128 0xd
 7959 005b 00       		.byte	0
 7960 005c 03       		.uleb128 0x3
 7961 005d 08       		.uleb128 0x8
 7962 005e 3A       		.uleb128 0x3a
 7963 005f 0B       		.uleb128 0xb
 7964 0060 3B       		.uleb128 0x3b
 7965 0061 0B       		.uleb128 0xb
 7966 0062 49       		.uleb128 0x49
 7967 0063 13       		.uleb128 0x13
 7968 0064 38       		.uleb128 0x38
 7969 0065 0B       		.uleb128 0xb
 7970 0066 00       		.byte	0
 7971 0067 00       		.byte	0
 7972 0068 09       		.uleb128 0x9
 7973 0069 13       		.uleb128 0x13
 7974 006a 01       		.byte	0x1
 7975 006b 03       		.uleb128 0x3
 7976 006c 0E       		.uleb128 0xe
 7977 006d 0B       		.uleb128 0xb
 7978 006e 0B       		.uleb128 0xb
 7979 006f 3A       		.uleb128 0x3a
 7980 0070 0B       		.uleb128 0xb
 7981 0071 3B       		.uleb128 0x3b
 7982 0072 0B       		.uleb128 0xb
 7983 0073 01       		.uleb128 0x1
 7984 0074 13       		.uleb128 0x13
 7985 0075 00       		.byte	0
 7986 0076 00       		.byte	0
 7987 0077 0A       		.uleb128 0xa
 7988 0078 0D       		.uleb128 0xd
 7989 0079 00       		.byte	0
 7990 007a 03       		.uleb128 0x3
 7991 007b 0E       		.uleb128 0xe
 7992 007c 3A       		.uleb128 0x3a
 7993 007d 0B       		.uleb128 0xb
 7994 007e 3B       		.uleb128 0x3b
 7995 007f 0B       		.uleb128 0xb
 7996 0080 49       		.uleb128 0x49
 7997 0081 13       		.uleb128 0x13
 7998 0082 0B       		.uleb128 0xb
 7999 0083 0B       		.uleb128 0xb
 8000 0084 0D       		.uleb128 0xd
 8001 0085 0B       		.uleb128 0xb
 8002 0086 0C       		.uleb128 0xc
 8003 0087 0B       		.uleb128 0xb
 8004 0088 38       		.uleb128 0x38
 8005 0089 0B       		.uleb128 0xb
 8006 008a 00       		.byte	0
 8007 008b 00       		.byte	0
 8008 008c 0B       		.uleb128 0xb
 8009 008d 15       		.uleb128 0x15
 8010 008e 01       		.byte	0x1
 8011 008f 27       		.uleb128 0x27
 8012 0090 19       		.uleb128 0x19
ARM GAS  C:\Users\pearlstl\AppData\Local\Temp\ccIMJlIA.s 			page 163


 8013 0091 49       		.uleb128 0x49
 8014 0092 13       		.uleb128 0x13
 8015 0093 01       		.uleb128 0x1
 8016 0094 13       		.uleb128 0x13
 8017 0095 00       		.byte	0
 8018 0096 00       		.byte	0
 8019 0097 0C       		.uleb128 0xc
 8020 0098 05       		.uleb128 0x5
 8021 0099 00       		.byte	0
 8022 009a 49       		.uleb128 0x49
 8023 009b 13       		.uleb128 0x13
 8024 009c 00       		.byte	0
 8025 009d 00       		.byte	0
 8026 009e 0D       		.uleb128 0xd
 8027 009f 0F       		.uleb128 0xf
 8028 00a0 00       		.byte	0
 8029 00a1 0B       		.uleb128 0xb
 8030 00a2 0B       		.uleb128 0xb
 8031 00a3 49       		.uleb128 0x49
 8032 00a4 13       		.uleb128 0x13
 8033 00a5 00       		.byte	0
 8034 00a6 00       		.byte	0
 8035 00a7 0E       		.uleb128 0xe
 8036 00a8 26       		.uleb128 0x26
 8037 00a9 00       		.byte	0
 8038 00aa 49       		.uleb128 0x49
 8039 00ab 13       		.uleb128 0x13
 8040 00ac 00       		.byte	0
 8041 00ad 00       		.byte	0
 8042 00ae 0F       		.uleb128 0xf
 8043 00af 17       		.uleb128 0x17
 8044 00b0 01       		.byte	0x1
 8045 00b1 0B       		.uleb128 0xb
 8046 00b2 0B       		.uleb128 0xb
 8047 00b3 3A       		.uleb128 0x3a
 8048 00b4 0B       		.uleb128 0xb
 8049 00b5 3B       		.uleb128 0x3b
 8050 00b6 0B       		.uleb128 0xb
 8051 00b7 01       		.uleb128 0x1
 8052 00b8 13       		.uleb128 0x13
 8053 00b9 00       		.byte	0
 8054 00ba 00       		.byte	0
 8055 00bb 10       		.uleb128 0x10
 8056 00bc 0D       		.uleb128 0xd
 8057 00bd 00       		.byte	0
 8058 00be 03       		.uleb128 0x3
 8059 00bf 08       		.uleb128 0x8
 8060 00c0 3A       		.uleb128 0x3a
 8061 00c1 0B       		.uleb128 0xb
 8062 00c2 3B       		.uleb128 0x3b
 8063 00c3 0B       		.uleb128 0xb
 8064 00c4 49       		.uleb128 0x49
 8065 00c5 13       		.uleb128 0x13
 8066 00c6 00       		.byte	0
 8067 00c7 00       		.byte	0
 8068 00c8 11       		.uleb128 0x11
 8069 00c9 0D       		.uleb128 0xd
ARM GAS  C:\Users\pearlstl\AppData\Local\Temp\ccIMJlIA.s 			page 164


 8070 00ca 00       		.byte	0
 8071 00cb 03       		.uleb128 0x3
 8072 00cc 0E       		.uleb128 0xe
 8073 00cd 3A       		.uleb128 0x3a
 8074 00ce 0B       		.uleb128 0xb
 8075 00cf 3B       		.uleb128 0x3b
 8076 00d0 0B       		.uleb128 0xb
 8077 00d1 49       		.uleb128 0x49
 8078 00d2 13       		.uleb128 0x13
 8079 00d3 00       		.byte	0
 8080 00d4 00       		.byte	0
 8081 00d5 12       		.uleb128 0x12
 8082 00d6 16       		.uleb128 0x16
 8083 00d7 00       		.byte	0
 8084 00d8 03       		.uleb128 0x3
 8085 00d9 0E       		.uleb128 0xe
 8086 00da 3A       		.uleb128 0x3a
 8087 00db 0B       		.uleb128 0xb
 8088 00dc 3B       		.uleb128 0x3b
 8089 00dd 05       		.uleb128 0x5
 8090 00de 49       		.uleb128 0x49
 8091 00df 13       		.uleb128 0x13
 8092 00e0 00       		.byte	0
 8093 00e1 00       		.byte	0
 8094 00e2 13       		.uleb128 0x13
 8095 00e3 04       		.uleb128 0x4
 8096 00e4 01       		.byte	0x1
 8097 00e5 0B       		.uleb128 0xb
 8098 00e6 0B       		.uleb128 0xb
 8099 00e7 49       		.uleb128 0x49
 8100 00e8 13       		.uleb128 0x13
 8101 00e9 3A       		.uleb128 0x3a
 8102 00ea 0B       		.uleb128 0xb
 8103 00eb 3B       		.uleb128 0x3b
 8104 00ec 0B       		.uleb128 0xb
 8105 00ed 01       		.uleb128 0x1
 8106 00ee 13       		.uleb128 0x13
 8107 00ef 00       		.byte	0
 8108 00f0 00       		.byte	0
 8109 00f1 14       		.uleb128 0x14
 8110 00f2 28       		.uleb128 0x28
 8111 00f3 00       		.byte	0
 8112 00f4 03       		.uleb128 0x3
 8113 00f5 0E       		.uleb128 0xe
 8114 00f6 1C       		.uleb128 0x1c
 8115 00f7 0B       		.uleb128 0xb
 8116 00f8 00       		.byte	0
 8117 00f9 00       		.byte	0
 8118 00fa 15       		.uleb128 0x15
 8119 00fb 15       		.uleb128 0x15
 8120 00fc 01       		.byte	0x1
 8121 00fd 27       		.uleb128 0x27
 8122 00fe 19       		.uleb128 0x19
 8123 00ff 01       		.uleb128 0x1
 8124 0100 13       		.uleb128 0x13
 8125 0101 00       		.byte	0
 8126 0102 00       		.byte	0
ARM GAS  C:\Users\pearlstl\AppData\Local\Temp\ccIMJlIA.s 			page 165


 8127 0103 16       		.uleb128 0x16
 8128 0104 35       		.uleb128 0x35
 8129 0105 00       		.byte	0
 8130 0106 49       		.uleb128 0x49
 8131 0107 13       		.uleb128 0x13
 8132 0108 00       		.byte	0
 8133 0109 00       		.byte	0
 8134 010a 17       		.uleb128 0x17
 8135 010b 13       		.uleb128 0x13
 8136 010c 01       		.byte	0x1
 8137 010d 03       		.uleb128 0x3
 8138 010e 0E       		.uleb128 0xe
 8139 010f 0B       		.uleb128 0xb
 8140 0110 05       		.uleb128 0x5
 8141 0111 3A       		.uleb128 0x3a
 8142 0112 0B       		.uleb128 0xb
 8143 0113 3B       		.uleb128 0x3b
 8144 0114 0B       		.uleb128 0xb
 8145 0115 01       		.uleb128 0x1
 8146 0116 13       		.uleb128 0x13
 8147 0117 00       		.byte	0
 8148 0118 00       		.byte	0
 8149 0119 18       		.uleb128 0x18
 8150 011a 0D       		.uleb128 0xd
 8151 011b 00       		.byte	0
 8152 011c 03       		.uleb128 0x3
 8153 011d 0E       		.uleb128 0xe
 8154 011e 3A       		.uleb128 0x3a
 8155 011f 0B       		.uleb128 0xb
 8156 0120 3B       		.uleb128 0x3b
 8157 0121 0B       		.uleb128 0xb
 8158 0122 49       		.uleb128 0x49
 8159 0123 13       		.uleb128 0x13
 8160 0124 38       		.uleb128 0x38
 8161 0125 05       		.uleb128 0x5
 8162 0126 00       		.byte	0
 8163 0127 00       		.byte	0
 8164 0128 19       		.uleb128 0x19
 8165 0129 0D       		.uleb128 0xd
 8166 012a 00       		.byte	0
 8167 012b 03       		.uleb128 0x3
 8168 012c 0E       		.uleb128 0xe
 8169 012d 3A       		.uleb128 0x3a
 8170 012e 0B       		.uleb128 0xb
 8171 012f 3B       		.uleb128 0x3b
 8172 0130 0B       		.uleb128 0xb
 8173 0131 49       		.uleb128 0x49
 8174 0132 13       		.uleb128 0x13
 8175 0133 0B       		.uleb128 0xb
 8176 0134 0B       		.uleb128 0xb
 8177 0135 0D       		.uleb128 0xd
 8178 0136 0B       		.uleb128 0xb
 8179 0137 0C       		.uleb128 0xc
 8180 0138 0B       		.uleb128 0xb
 8181 0139 38       		.uleb128 0x38
 8182 013a 05       		.uleb128 0x5
 8183 013b 00       		.byte	0
ARM GAS  C:\Users\pearlstl\AppData\Local\Temp\ccIMJlIA.s 			page 166


 8184 013c 00       		.byte	0
 8185 013d 1A       		.uleb128 0x1a
 8186 013e 0D       		.uleb128 0xd
 8187 013f 00       		.byte	0
 8188 0140 03       		.uleb128 0x3
 8189 0141 08       		.uleb128 0x8
 8190 0142 3A       		.uleb128 0x3a
 8191 0143 0B       		.uleb128 0xb
 8192 0144 3B       		.uleb128 0x3b
 8193 0145 0B       		.uleb128 0xb
 8194 0146 49       		.uleb128 0x49
 8195 0147 13       		.uleb128 0x13
 8196 0148 0B       		.uleb128 0xb
 8197 0149 0B       		.uleb128 0xb
 8198 014a 0D       		.uleb128 0xd
 8199 014b 0B       		.uleb128 0xb
 8200 014c 0C       		.uleb128 0xc
 8201 014d 0B       		.uleb128 0xb
 8202 014e 38       		.uleb128 0x38
 8203 014f 0B       		.uleb128 0xb
 8204 0150 00       		.byte	0
 8205 0151 00       		.byte	0
 8206 0152 1B       		.uleb128 0x1b
 8207 0153 01       		.uleb128 0x1
 8208 0154 01       		.byte	0x1
 8209 0155 49       		.uleb128 0x49
 8210 0156 13       		.uleb128 0x13
 8211 0157 01       		.uleb128 0x1
 8212 0158 13       		.uleb128 0x13
 8213 0159 00       		.byte	0
 8214 015a 00       		.byte	0
 8215 015b 1C       		.uleb128 0x1c
 8216 015c 21       		.uleb128 0x21
 8217 015d 00       		.byte	0
 8218 015e 49       		.uleb128 0x49
 8219 015f 13       		.uleb128 0x13
 8220 0160 2F       		.uleb128 0x2f
 8221 0161 0B       		.uleb128 0xb
 8222 0162 00       		.byte	0
 8223 0163 00       		.byte	0
 8224 0164 1D       		.uleb128 0x1d
 8225 0165 13       		.uleb128 0x13
 8226 0166 00       		.byte	0
 8227 0167 03       		.uleb128 0x3
 8228 0168 0E       		.uleb128 0xe
 8229 0169 3C       		.uleb128 0x3c
 8230 016a 19       		.uleb128 0x19
 8231 016b 00       		.byte	0
 8232 016c 00       		.byte	0
 8233 016d 1E       		.uleb128 0x1e
 8234 016e 0D       		.uleb128 0xd
 8235 016f 00       		.byte	0
 8236 0170 03       		.uleb128 0x3
 8237 0171 08       		.uleb128 0x8
 8238 0172 3A       		.uleb128 0x3a
 8239 0173 0B       		.uleb128 0xb
 8240 0174 3B       		.uleb128 0x3b
ARM GAS  C:\Users\pearlstl\AppData\Local\Temp\ccIMJlIA.s 			page 167


 8241 0175 05       		.uleb128 0x5
 8242 0176 49       		.uleb128 0x49
 8243 0177 13       		.uleb128 0x13
 8244 0178 38       		.uleb128 0x38
 8245 0179 0B       		.uleb128 0xb
 8246 017a 00       		.byte	0
 8247 017b 00       		.byte	0
 8248 017c 1F       		.uleb128 0x1f
 8249 017d 0D       		.uleb128 0xd
 8250 017e 00       		.byte	0
 8251 017f 03       		.uleb128 0x3
 8252 0180 0E       		.uleb128 0xe
 8253 0181 3A       		.uleb128 0x3a
 8254 0182 0B       		.uleb128 0xb
 8255 0183 3B       		.uleb128 0x3b
 8256 0184 05       		.uleb128 0x5
 8257 0185 49       		.uleb128 0x49
 8258 0186 13       		.uleb128 0x13
 8259 0187 38       		.uleb128 0x38
 8260 0188 0B       		.uleb128 0xb
 8261 0189 00       		.byte	0
 8262 018a 00       		.byte	0
 8263 018b 20       		.uleb128 0x20
 8264 018c 13       		.uleb128 0x13
 8265 018d 01       		.byte	0x1
 8266 018e 0B       		.uleb128 0xb
 8267 018f 0B       		.uleb128 0xb
 8268 0190 3A       		.uleb128 0x3a
 8269 0191 0B       		.uleb128 0xb
 8270 0192 3B       		.uleb128 0x3b
 8271 0193 05       		.uleb128 0x5
 8272 0194 01       		.uleb128 0x1
 8273 0195 13       		.uleb128 0x13
 8274 0196 00       		.byte	0
 8275 0197 00       		.byte	0
 8276 0198 21       		.uleb128 0x21
 8277 0199 13       		.uleb128 0x13
 8278 019a 01       		.byte	0x1
 8279 019b 0B       		.uleb128 0xb
 8280 019c 05       		.uleb128 0x5
 8281 019d 3A       		.uleb128 0x3a
 8282 019e 0B       		.uleb128 0xb
 8283 019f 3B       		.uleb128 0x3b
 8284 01a0 0B       		.uleb128 0xb
 8285 01a1 01       		.uleb128 0x1
 8286 01a2 13       		.uleb128 0x13
 8287 01a3 00       		.byte	0
 8288 01a4 00       		.byte	0
 8289 01a5 22       		.uleb128 0x22
 8290 01a6 0D       		.uleb128 0xd
 8291 01a7 00       		.byte	0
 8292 01a8 03       		.uleb128 0x3
 8293 01a9 08       		.uleb128 0x8
 8294 01aa 3A       		.uleb128 0x3a
 8295 01ab 0B       		.uleb128 0xb
 8296 01ac 3B       		.uleb128 0x3b
 8297 01ad 0B       		.uleb128 0xb
ARM GAS  C:\Users\pearlstl\AppData\Local\Temp\ccIMJlIA.s 			page 168


 8298 01ae 49       		.uleb128 0x49
 8299 01af 13       		.uleb128 0x13
 8300 01b0 38       		.uleb128 0x38
 8301 01b1 05       		.uleb128 0x5
 8302 01b2 00       		.byte	0
 8303 01b3 00       		.byte	0
 8304 01b4 23       		.uleb128 0x23
 8305 01b5 0D       		.uleb128 0xd
 8306 01b6 00       		.byte	0
 8307 01b7 03       		.uleb128 0x3
 8308 01b8 0E       		.uleb128 0xe
 8309 01b9 3A       		.uleb128 0x3a
 8310 01ba 0B       		.uleb128 0xb
 8311 01bb 3B       		.uleb128 0x3b
 8312 01bc 05       		.uleb128 0x5
 8313 01bd 49       		.uleb128 0x49
 8314 01be 13       		.uleb128 0x13
 8315 01bf 38       		.uleb128 0x38
 8316 01c0 05       		.uleb128 0x5
 8317 01c1 00       		.byte	0
 8318 01c2 00       		.byte	0
 8319 01c3 24       		.uleb128 0x24
 8320 01c4 0D       		.uleb128 0xd
 8321 01c5 00       		.byte	0
 8322 01c6 03       		.uleb128 0x3
 8323 01c7 08       		.uleb128 0x8
 8324 01c8 3A       		.uleb128 0x3a
 8325 01c9 0B       		.uleb128 0xb
 8326 01ca 3B       		.uleb128 0x3b
 8327 01cb 05       		.uleb128 0x5
 8328 01cc 49       		.uleb128 0x49
 8329 01cd 13       		.uleb128 0x13
 8330 01ce 38       		.uleb128 0x38
 8331 01cf 05       		.uleb128 0x5
 8332 01d0 00       		.byte	0
 8333 01d1 00       		.byte	0
 8334 01d2 25       		.uleb128 0x25
 8335 01d3 2E       		.uleb128 0x2e
 8336 01d4 01       		.byte	0x1
 8337 01d5 03       		.uleb128 0x3
 8338 01d6 0E       		.uleb128 0xe
 8339 01d7 3A       		.uleb128 0x3a
 8340 01d8 0B       		.uleb128 0xb
 8341 01d9 3B       		.uleb128 0x3b
 8342 01da 05       		.uleb128 0x5
 8343 01db 27       		.uleb128 0x27
 8344 01dc 19       		.uleb128 0x19
 8345 01dd 49       		.uleb128 0x49
 8346 01de 13       		.uleb128 0x13
 8347 01df 20       		.uleb128 0x20
 8348 01e0 0B       		.uleb128 0xb
 8349 01e1 01       		.uleb128 0x1
 8350 01e2 13       		.uleb128 0x13
 8351 01e3 00       		.byte	0
 8352 01e4 00       		.byte	0
 8353 01e5 26       		.uleb128 0x26
 8354 01e6 05       		.uleb128 0x5
ARM GAS  C:\Users\pearlstl\AppData\Local\Temp\ccIMJlIA.s 			page 169


 8355 01e7 00       		.byte	0
 8356 01e8 03       		.uleb128 0x3
 8357 01e9 0E       		.uleb128 0xe
 8358 01ea 3A       		.uleb128 0x3a
 8359 01eb 0B       		.uleb128 0xb
 8360 01ec 3B       		.uleb128 0x3b
 8361 01ed 05       		.uleb128 0x5
 8362 01ee 49       		.uleb128 0x49
 8363 01ef 13       		.uleb128 0x13
 8364 01f0 00       		.byte	0
 8365 01f1 00       		.byte	0
 8366 01f2 27       		.uleb128 0x27
 8367 01f3 34       		.uleb128 0x34
 8368 01f4 00       		.byte	0
 8369 01f5 03       		.uleb128 0x3
 8370 01f6 08       		.uleb128 0x8
 8371 01f7 3A       		.uleb128 0x3a
 8372 01f8 0B       		.uleb128 0xb
 8373 01f9 3B       		.uleb128 0x3b
 8374 01fa 05       		.uleb128 0x5
 8375 01fb 49       		.uleb128 0x49
 8376 01fc 13       		.uleb128 0x13
 8377 01fd 00       		.byte	0
 8378 01fe 00       		.byte	0
 8379 01ff 28       		.uleb128 0x28
 8380 0200 2E       		.uleb128 0x2e
 8381 0201 01       		.byte	0x1
 8382 0202 03       		.uleb128 0x3
 8383 0203 0E       		.uleb128 0xe
 8384 0204 3A       		.uleb128 0x3a
 8385 0205 0B       		.uleb128 0xb
 8386 0206 3B       		.uleb128 0x3b
 8387 0207 0B       		.uleb128 0xb
 8388 0208 27       		.uleb128 0x27
 8389 0209 19       		.uleb128 0x19
 8390 020a 20       		.uleb128 0x20
 8391 020b 0B       		.uleb128 0xb
 8392 020c 01       		.uleb128 0x1
 8393 020d 13       		.uleb128 0x13
 8394 020e 00       		.byte	0
 8395 020f 00       		.byte	0
 8396 0210 29       		.uleb128 0x29
 8397 0211 05       		.uleb128 0x5
 8398 0212 00       		.byte	0
 8399 0213 03       		.uleb128 0x3
 8400 0214 0E       		.uleb128 0xe
 8401 0215 3A       		.uleb128 0x3a
 8402 0216 0B       		.uleb128 0xb
 8403 0217 3B       		.uleb128 0x3b
 8404 0218 0B       		.uleb128 0xb
 8405 0219 49       		.uleb128 0x49
 8406 021a 13       		.uleb128 0x13
 8407 021b 00       		.byte	0
 8408 021c 00       		.byte	0
 8409 021d 2A       		.uleb128 0x2a
 8410 021e 05       		.uleb128 0x5
 8411 021f 00       		.byte	0
ARM GAS  C:\Users\pearlstl\AppData\Local\Temp\ccIMJlIA.s 			page 170


 8412 0220 03       		.uleb128 0x3
 8413 0221 08       		.uleb128 0x8
 8414 0222 3A       		.uleb128 0x3a
 8415 0223 0B       		.uleb128 0xb
 8416 0224 3B       		.uleb128 0x3b
 8417 0225 0B       		.uleb128 0xb
 8418 0226 49       		.uleb128 0x49
 8419 0227 13       		.uleb128 0x13
 8420 0228 00       		.byte	0
 8421 0229 00       		.byte	0
 8422 022a 2B       		.uleb128 0x2b
 8423 022b 2E       		.uleb128 0x2e
 8424 022c 01       		.byte	0x1
 8425 022d 3F       		.uleb128 0x3f
 8426 022e 19       		.uleb128 0x19
 8427 022f 03       		.uleb128 0x3
 8428 0230 0E       		.uleb128 0xe
 8429 0231 3A       		.uleb128 0x3a
 8430 0232 0B       		.uleb128 0xb
 8431 0233 3B       		.uleb128 0x3b
 8432 0234 05       		.uleb128 0x5
 8433 0235 27       		.uleb128 0x27
 8434 0236 19       		.uleb128 0x19
 8435 0237 49       		.uleb128 0x49
 8436 0238 13       		.uleb128 0x13
 8437 0239 20       		.uleb128 0x20
 8438 023a 0B       		.uleb128 0xb
 8439 023b 01       		.uleb128 0x1
 8440 023c 13       		.uleb128 0x13
 8441 023d 00       		.byte	0
 8442 023e 00       		.byte	0
 8443 023f 2C       		.uleb128 0x2c
 8444 0240 34       		.uleb128 0x34
 8445 0241 00       		.byte	0
 8446 0242 03       		.uleb128 0x3
 8447 0243 0E       		.uleb128 0xe
 8448 0244 3A       		.uleb128 0x3a
 8449 0245 0B       		.uleb128 0xb
 8450 0246 3B       		.uleb128 0x3b
 8451 0247 05       		.uleb128 0x5
 8452 0248 49       		.uleb128 0x49
 8453 0249 13       		.uleb128 0x13
 8454 024a 00       		.byte	0
 8455 024b 00       		.byte	0
 8456 024c 2D       		.uleb128 0x2d
 8457 024d 2E       		.uleb128 0x2e
 8458 024e 01       		.byte	0x1
 8459 024f 03       		.uleb128 0x3
 8460 0250 0E       		.uleb128 0xe
 8461 0251 3A       		.uleb128 0x3a
 8462 0252 0B       		.uleb128 0xb
 8463 0253 3B       		.uleb128 0x3b
 8464 0254 05       		.uleb128 0x5
 8465 0255 27       		.uleb128 0x27
 8466 0256 19       		.uleb128 0x19
 8467 0257 49       		.uleb128 0x49
 8468 0258 13       		.uleb128 0x13
ARM GAS  C:\Users\pearlstl\AppData\Local\Temp\ccIMJlIA.s 			page 171


 8469 0259 11       		.uleb128 0x11
 8470 025a 01       		.uleb128 0x1
 8471 025b 12       		.uleb128 0x12
 8472 025c 06       		.uleb128 0x6
 8473 025d 40       		.uleb128 0x40
 8474 025e 18       		.uleb128 0x18
 8475 025f 9742     		.uleb128 0x2117
 8476 0261 19       		.uleb128 0x19
 8477 0262 01       		.uleb128 0x1
 8478 0263 13       		.uleb128 0x13
 8479 0264 00       		.byte	0
 8480 0265 00       		.byte	0
 8481 0266 2E       		.uleb128 0x2e
 8482 0267 05       		.uleb128 0x5
 8483 0268 00       		.byte	0
 8484 0269 03       		.uleb128 0x3
 8485 026a 0E       		.uleb128 0xe
 8486 026b 3A       		.uleb128 0x3a
 8487 026c 0B       		.uleb128 0xb
 8488 026d 3B       		.uleb128 0x3b
 8489 026e 05       		.uleb128 0x5
 8490 026f 49       		.uleb128 0x49
 8491 0270 13       		.uleb128 0x13
 8492 0271 02       		.uleb128 0x2
 8493 0272 17       		.uleb128 0x17
 8494 0273 00       		.byte	0
 8495 0274 00       		.byte	0
 8496 0275 2F       		.uleb128 0x2f
 8497 0276 34       		.uleb128 0x34
 8498 0277 00       		.byte	0
 8499 0278 03       		.uleb128 0x3
 8500 0279 08       		.uleb128 0x8
 8501 027a 3A       		.uleb128 0x3a
 8502 027b 0B       		.uleb128 0xb
 8503 027c 3B       		.uleb128 0x3b
 8504 027d 05       		.uleb128 0x5
 8505 027e 49       		.uleb128 0x49
 8506 027f 13       		.uleb128 0x13
 8507 0280 02       		.uleb128 0x2
 8508 0281 17       		.uleb128 0x17
 8509 0282 00       		.byte	0
 8510 0283 00       		.byte	0
 8511 0284 30       		.uleb128 0x30
 8512 0285 34       		.uleb128 0x34
 8513 0286 00       		.byte	0
 8514 0287 03       		.uleb128 0x3
 8515 0288 0E       		.uleb128 0xe
 8516 0289 3A       		.uleb128 0x3a
 8517 028a 0B       		.uleb128 0xb
 8518 028b 3B       		.uleb128 0x3b
 8519 028c 05       		.uleb128 0x5
 8520 028d 49       		.uleb128 0x49
 8521 028e 13       		.uleb128 0x13
 8522 028f 02       		.uleb128 0x2
 8523 0290 17       		.uleb128 0x17
 8524 0291 00       		.byte	0
 8525 0292 00       		.byte	0
ARM GAS  C:\Users\pearlstl\AppData\Local\Temp\ccIMJlIA.s 			page 172


 8526 0293 31       		.uleb128 0x31
 8527 0294 34       		.uleb128 0x34
 8528 0295 00       		.byte	0
 8529 0296 03       		.uleb128 0x3
 8530 0297 0E       		.uleb128 0xe
 8531 0298 3A       		.uleb128 0x3a
 8532 0299 0B       		.uleb128 0xb
 8533 029a 3B       		.uleb128 0x3b
 8534 029b 05       		.uleb128 0x5
 8535 029c 49       		.uleb128 0x49
 8536 029d 13       		.uleb128 0x13
 8537 029e 02       		.uleb128 0x2
 8538 029f 18       		.uleb128 0x18
 8539 02a0 00       		.byte	0
 8540 02a1 00       		.byte	0
 8541 02a2 32       		.uleb128 0x32
 8542 02a3 1D       		.uleb128 0x1d
 8543 02a4 01       		.byte	0x1
 8544 02a5 31       		.uleb128 0x31
 8545 02a6 13       		.uleb128 0x13
 8546 02a7 52       		.uleb128 0x52
 8547 02a8 01       		.uleb128 0x1
 8548 02a9 55       		.uleb128 0x55
 8549 02aa 17       		.uleb128 0x17
 8550 02ab 58       		.uleb128 0x58
 8551 02ac 0B       		.uleb128 0xb
 8552 02ad 59       		.uleb128 0x59
 8553 02ae 05       		.uleb128 0x5
 8554 02af 01       		.uleb128 0x1
 8555 02b0 13       		.uleb128 0x13
 8556 02b1 00       		.byte	0
 8557 02b2 00       		.byte	0
 8558 02b3 33       		.uleb128 0x33
 8559 02b4 05       		.uleb128 0x5
 8560 02b5 00       		.byte	0
 8561 02b6 31       		.uleb128 0x31
 8562 02b7 13       		.uleb128 0x13
 8563 02b8 02       		.uleb128 0x2
 8564 02b9 17       		.uleb128 0x17
 8565 02ba 00       		.byte	0
 8566 02bb 00       		.byte	0
 8567 02bc 34       		.uleb128 0x34
 8568 02bd 0B       		.uleb128 0xb
 8569 02be 01       		.byte	0x1
 8570 02bf 55       		.uleb128 0x55
 8571 02c0 17       		.uleb128 0x17
 8572 02c1 00       		.byte	0
 8573 02c2 00       		.byte	0
 8574 02c3 35       		.uleb128 0x35
 8575 02c4 34       		.uleb128 0x34
 8576 02c5 00       		.byte	0
 8577 02c6 31       		.uleb128 0x31
 8578 02c7 13       		.uleb128 0x13
 8579 02c8 02       		.uleb128 0x2
 8580 02c9 17       		.uleb128 0x17
 8581 02ca 00       		.byte	0
 8582 02cb 00       		.byte	0
ARM GAS  C:\Users\pearlstl\AppData\Local\Temp\ccIMJlIA.s 			page 173


 8583 02cc 36       		.uleb128 0x36
 8584 02cd 898201   		.uleb128 0x4109
 8585 02d0 01       		.byte	0x1
 8586 02d1 11       		.uleb128 0x11
 8587 02d2 01       		.uleb128 0x1
 8588 02d3 31       		.uleb128 0x31
 8589 02d4 13       		.uleb128 0x13
 8590 02d5 00       		.byte	0
 8591 02d6 00       		.byte	0
 8592 02d7 37       		.uleb128 0x37
 8593 02d8 8A8201   		.uleb128 0x410a
 8594 02db 00       		.byte	0
 8595 02dc 02       		.uleb128 0x2
 8596 02dd 18       		.uleb128 0x18
 8597 02de 9142     		.uleb128 0x2111
 8598 02e0 18       		.uleb128 0x18
 8599 02e1 00       		.byte	0
 8600 02e2 00       		.byte	0
 8601 02e3 38       		.uleb128 0x38
 8602 02e4 0B       		.uleb128 0xb
 8603 02e5 01       		.byte	0x1
 8604 02e6 55       		.uleb128 0x55
 8605 02e7 17       		.uleb128 0x17
 8606 02e8 01       		.uleb128 0x1
 8607 02e9 13       		.uleb128 0x13
 8608 02ea 00       		.byte	0
 8609 02eb 00       		.byte	0
 8610 02ec 39       		.uleb128 0x39
 8611 02ed 898201   		.uleb128 0x4109
 8612 02f0 01       		.byte	0x1
 8613 02f1 11       		.uleb128 0x11
 8614 02f2 01       		.uleb128 0x1
 8615 02f3 31       		.uleb128 0x31
 8616 02f4 13       		.uleb128 0x13
 8617 02f5 01       		.uleb128 0x1
 8618 02f6 13       		.uleb128 0x13
 8619 02f7 00       		.byte	0
 8620 02f8 00       		.byte	0
 8621 02f9 3A       		.uleb128 0x3a
 8622 02fa 898201   		.uleb128 0x4109
 8623 02fd 00       		.byte	0
 8624 02fe 11       		.uleb128 0x11
 8625 02ff 01       		.uleb128 0x1
 8626 0300 31       		.uleb128 0x31
 8627 0301 13       		.uleb128 0x13
 8628 0302 00       		.byte	0
 8629 0303 00       		.byte	0
 8630 0304 3B       		.uleb128 0x3b
 8631 0305 898201   		.uleb128 0x4109
 8632 0308 01       		.byte	0x1
 8633 0309 11       		.uleb128 0x11
 8634 030a 01       		.uleb128 0x1
 8635 030b 01       		.uleb128 0x1
 8636 030c 13       		.uleb128 0x13
 8637 030d 00       		.byte	0
 8638 030e 00       		.byte	0
 8639 030f 3C       		.uleb128 0x3c
ARM GAS  C:\Users\pearlstl\AppData\Local\Temp\ccIMJlIA.s 			page 174


 8640 0310 898201   		.uleb128 0x4109
 8641 0313 01       		.byte	0x1
 8642 0314 11       		.uleb128 0x11
 8643 0315 01       		.uleb128 0x1
 8644 0316 9542     		.uleb128 0x2115
 8645 0318 19       		.uleb128 0x19
 8646 0319 31       		.uleb128 0x31
 8647 031a 13       		.uleb128 0x13
 8648 031b 00       		.byte	0
 8649 031c 00       		.byte	0
 8650 031d 3D       		.uleb128 0x3d
 8651 031e 2E       		.uleb128 0x2e
 8652 031f 01       		.byte	0x1
 8653 0320 31       		.uleb128 0x31
 8654 0321 13       		.uleb128 0x13
 8655 0322 11       		.uleb128 0x11
 8656 0323 01       		.uleb128 0x1
 8657 0324 12       		.uleb128 0x12
 8658 0325 06       		.uleb128 0x6
 8659 0326 40       		.uleb128 0x40
 8660 0327 18       		.uleb128 0x18
 8661 0328 9742     		.uleb128 0x2117
 8662 032a 19       		.uleb128 0x19
 8663 032b 01       		.uleb128 0x1
 8664 032c 13       		.uleb128 0x13
 8665 032d 00       		.byte	0
 8666 032e 00       		.byte	0
 8667 032f 3E       		.uleb128 0x3e
 8668 0330 05       		.uleb128 0x5
 8669 0331 00       		.byte	0
 8670 0332 31       		.uleb128 0x31
 8671 0333 13       		.uleb128 0x13
 8672 0334 02       		.uleb128 0x2
 8673 0335 18       		.uleb128 0x18
 8674 0336 00       		.byte	0
 8675 0337 00       		.byte	0
 8676 0338 3F       		.uleb128 0x3f
 8677 0339 05       		.uleb128 0x5
 8678 033a 00       		.byte	0
 8679 033b 31       		.uleb128 0x31
 8680 033c 13       		.uleb128 0x13
 8681 033d 1C       		.uleb128 0x1c
 8682 033e 0B       		.uleb128 0xb
 8683 033f 00       		.byte	0
 8684 0340 00       		.byte	0
 8685 0341 40       		.uleb128 0x40
 8686 0342 34       		.uleb128 0x34
 8687 0343 00       		.byte	0
 8688 0344 31       		.uleb128 0x31
 8689 0345 13       		.uleb128 0x13
 8690 0346 00       		.byte	0
 8691 0347 00       		.byte	0
 8692 0348 41       		.uleb128 0x41
 8693 0349 898201   		.uleb128 0x4109
 8694 034c 01       		.byte	0x1
 8695 034d 11       		.uleb128 0x11
 8696 034e 01       		.uleb128 0x1
ARM GAS  C:\Users\pearlstl\AppData\Local\Temp\ccIMJlIA.s 			page 175


 8697 034f 00       		.byte	0
 8698 0350 00       		.byte	0
 8699 0351 42       		.uleb128 0x42
 8700 0352 2E       		.uleb128 0x2e
 8701 0353 01       		.byte	0x1
 8702 0354 3F       		.uleb128 0x3f
 8703 0355 19       		.uleb128 0x19
 8704 0356 03       		.uleb128 0x3
 8705 0357 0E       		.uleb128 0xe
 8706 0358 3A       		.uleb128 0x3a
 8707 0359 0B       		.uleb128 0xb
 8708 035a 3B       		.uleb128 0x3b
 8709 035b 0B       		.uleb128 0xb
 8710 035c 27       		.uleb128 0x27
 8711 035d 19       		.uleb128 0x19
 8712 035e 49       		.uleb128 0x49
 8713 035f 13       		.uleb128 0x13
 8714 0360 11       		.uleb128 0x11
 8715 0361 01       		.uleb128 0x1
 8716 0362 12       		.uleb128 0x12
 8717 0363 06       		.uleb128 0x6
 8718 0364 40       		.uleb128 0x40
 8719 0365 18       		.uleb128 0x18
 8720 0366 9742     		.uleb128 0x2117
 8721 0368 19       		.uleb128 0x19
 8722 0369 01       		.uleb128 0x1
 8723 036a 13       		.uleb128 0x13
 8724 036b 00       		.byte	0
 8725 036c 00       		.byte	0
 8726 036d 43       		.uleb128 0x43
 8727 036e 05       		.uleb128 0x5
 8728 036f 00       		.byte	0
 8729 0370 03       		.uleb128 0x3
 8730 0371 08       		.uleb128 0x8
 8731 0372 3A       		.uleb128 0x3a
 8732 0373 0B       		.uleb128 0xb
 8733 0374 3B       		.uleb128 0x3b
 8734 0375 0B       		.uleb128 0xb
 8735 0376 49       		.uleb128 0x49
 8736 0377 13       		.uleb128 0x13
 8737 0378 02       		.uleb128 0x2
 8738 0379 17       		.uleb128 0x17
 8739 037a 00       		.byte	0
 8740 037b 00       		.byte	0
 8741 037c 44       		.uleb128 0x44
 8742 037d 05       		.uleb128 0x5
 8743 037e 00       		.byte	0
 8744 037f 03       		.uleb128 0x3
 8745 0380 0E       		.uleb128 0xe
 8746 0381 3A       		.uleb128 0x3a
 8747 0382 0B       		.uleb128 0xb
 8748 0383 3B       		.uleb128 0x3b
 8749 0384 0B       		.uleb128 0xb
 8750 0385 49       		.uleb128 0x49
 8751 0386 13       		.uleb128 0x13
 8752 0387 02       		.uleb128 0x2
 8753 0388 17       		.uleb128 0x17
ARM GAS  C:\Users\pearlstl\AppData\Local\Temp\ccIMJlIA.s 			page 176


 8754 0389 00       		.byte	0
 8755 038a 00       		.byte	0
 8756 038b 45       		.uleb128 0x45
 8757 038c 34       		.uleb128 0x34
 8758 038d 00       		.byte	0
 8759 038e 03       		.uleb128 0x3
 8760 038f 0E       		.uleb128 0xe
 8761 0390 3A       		.uleb128 0x3a
 8762 0391 0B       		.uleb128 0xb
 8763 0392 3B       		.uleb128 0x3b
 8764 0393 0B       		.uleb128 0xb
 8765 0394 49       		.uleb128 0x49
 8766 0395 13       		.uleb128 0x13
 8767 0396 02       		.uleb128 0x2
 8768 0397 17       		.uleb128 0x17
 8769 0398 00       		.byte	0
 8770 0399 00       		.byte	0
 8771 039a 46       		.uleb128 0x46
 8772 039b 34       		.uleb128 0x34
 8773 039c 00       		.byte	0
 8774 039d 03       		.uleb128 0x3
 8775 039e 08       		.uleb128 0x8
 8776 039f 3A       		.uleb128 0x3a
 8777 03a0 0B       		.uleb128 0xb
 8778 03a1 3B       		.uleb128 0x3b
 8779 03a2 0B       		.uleb128 0xb
 8780 03a3 49       		.uleb128 0x49
 8781 03a4 13       		.uleb128 0x13
 8782 03a5 02       		.uleb128 0x2
 8783 03a6 17       		.uleb128 0x17
 8784 03a7 00       		.byte	0
 8785 03a8 00       		.byte	0
 8786 03a9 47       		.uleb128 0x47
 8787 03aa 0B       		.uleb128 0xb
 8788 03ab 01       		.byte	0x1
 8789 03ac 11       		.uleb128 0x11
 8790 03ad 01       		.uleb128 0x1
 8791 03ae 12       		.uleb128 0x12
 8792 03af 06       		.uleb128 0x6
 8793 03b0 01       		.uleb128 0x1
 8794 03b1 13       		.uleb128 0x13
 8795 03b2 00       		.byte	0
 8796 03b3 00       		.byte	0
 8797 03b4 48       		.uleb128 0x48
 8798 03b5 1D       		.uleb128 0x1d
 8799 03b6 01       		.byte	0x1
 8800 03b7 31       		.uleb128 0x31
 8801 03b8 13       		.uleb128 0x13
 8802 03b9 11       		.uleb128 0x11
 8803 03ba 01       		.uleb128 0x1
 8804 03bb 12       		.uleb128 0x12
 8805 03bc 06       		.uleb128 0x6
 8806 03bd 58       		.uleb128 0x58
 8807 03be 0B       		.uleb128 0xb
 8808 03bf 59       		.uleb128 0x59
 8809 03c0 0B       		.uleb128 0xb
 8810 03c1 01       		.uleb128 0x1
ARM GAS  C:\Users\pearlstl\AppData\Local\Temp\ccIMJlIA.s 			page 177


 8811 03c2 13       		.uleb128 0x13
 8812 03c3 00       		.byte	0
 8813 03c4 00       		.byte	0
 8814 03c5 49       		.uleb128 0x49
 8815 03c6 1D       		.uleb128 0x1d
 8816 03c7 01       		.byte	0x1
 8817 03c8 31       		.uleb128 0x31
 8818 03c9 13       		.uleb128 0x13
 8819 03ca 52       		.uleb128 0x52
 8820 03cb 01       		.uleb128 0x1
 8821 03cc 55       		.uleb128 0x55
 8822 03cd 17       		.uleb128 0x17
 8823 03ce 58       		.uleb128 0x58
 8824 03cf 0B       		.uleb128 0xb
 8825 03d0 59       		.uleb128 0x59
 8826 03d1 0B       		.uleb128 0xb
 8827 03d2 01       		.uleb128 0x1
 8828 03d3 13       		.uleb128 0x13
 8829 03d4 00       		.byte	0
 8830 03d5 00       		.byte	0
 8831 03d6 4A       		.uleb128 0x4a
 8832 03d7 2E       		.uleb128 0x2e
 8833 03d8 01       		.byte	0x1
 8834 03d9 3F       		.uleb128 0x3f
 8835 03da 19       		.uleb128 0x19
 8836 03db 03       		.uleb128 0x3
 8837 03dc 0E       		.uleb128 0xe
 8838 03dd 3A       		.uleb128 0x3a
 8839 03de 0B       		.uleb128 0xb
 8840 03df 3B       		.uleb128 0x3b
 8841 03e0 0B       		.uleb128 0xb
 8842 03e1 27       		.uleb128 0x27
 8843 03e2 19       		.uleb128 0x19
 8844 03e3 20       		.uleb128 0x20
 8845 03e4 0B       		.uleb128 0xb
 8846 03e5 01       		.uleb128 0x1
 8847 03e6 13       		.uleb128 0x13
 8848 03e7 00       		.byte	0
 8849 03e8 00       		.byte	0
 8850 03e9 4B       		.uleb128 0x4b
 8851 03ea 34       		.uleb128 0x34
 8852 03eb 00       		.byte	0
 8853 03ec 03       		.uleb128 0x3
 8854 03ed 08       		.uleb128 0x8
 8855 03ee 3A       		.uleb128 0x3a
 8856 03ef 0B       		.uleb128 0xb
 8857 03f0 3B       		.uleb128 0x3b
 8858 03f1 0B       		.uleb128 0xb
 8859 03f2 49       		.uleb128 0x49
 8860 03f3 13       		.uleb128 0x13
 8861 03f4 00       		.byte	0
 8862 03f5 00       		.byte	0
 8863 03f6 4C       		.uleb128 0x4c
 8864 03f7 34       		.uleb128 0x34
 8865 03f8 00       		.byte	0
 8866 03f9 03       		.uleb128 0x3
 8867 03fa 0E       		.uleb128 0xe
ARM GAS  C:\Users\pearlstl\AppData\Local\Temp\ccIMJlIA.s 			page 178


 8868 03fb 3A       		.uleb128 0x3a
 8869 03fc 0B       		.uleb128 0xb
 8870 03fd 3B       		.uleb128 0x3b
 8871 03fe 0B       		.uleb128 0xb
 8872 03ff 49       		.uleb128 0x49
 8873 0400 13       		.uleb128 0x13
 8874 0401 00       		.byte	0
 8875 0402 00       		.byte	0
 8876 0403 4D       		.uleb128 0x4d
 8877 0404 0B       		.uleb128 0xb
 8878 0405 01       		.byte	0x1
 8879 0406 00       		.byte	0
 8880 0407 00       		.byte	0
 8881 0408 4E       		.uleb128 0x4e
 8882 0409 2E       		.uleb128 0x2e
 8883 040a 01       		.byte	0x1
 8884 040b 3F       		.uleb128 0x3f
 8885 040c 19       		.uleb128 0x19
 8886 040d 03       		.uleb128 0x3
 8887 040e 0E       		.uleb128 0xe
 8888 040f 3A       		.uleb128 0x3a
 8889 0410 0B       		.uleb128 0xb
 8890 0411 3B       		.uleb128 0x3b
 8891 0412 0B       		.uleb128 0xb
 8892 0413 27       		.uleb128 0x27
 8893 0414 19       		.uleb128 0x19
 8894 0415 11       		.uleb128 0x11
 8895 0416 01       		.uleb128 0x1
 8896 0417 12       		.uleb128 0x12
 8897 0418 06       		.uleb128 0x6
 8898 0419 40       		.uleb128 0x40
 8899 041a 18       		.uleb128 0x18
 8900 041b 9742     		.uleb128 0x2117
 8901 041d 19       		.uleb128 0x19
 8902 041e 01       		.uleb128 0x1
 8903 041f 13       		.uleb128 0x13
 8904 0420 00       		.byte	0
 8905 0421 00       		.byte	0
 8906 0422 4F       		.uleb128 0x4f
 8907 0423 34       		.uleb128 0x34
 8908 0424 00       		.byte	0
 8909 0425 31       		.uleb128 0x31
 8910 0426 13       		.uleb128 0x13
 8911 0427 02       		.uleb128 0x2
 8912 0428 18       		.uleb128 0x18
 8913 0429 00       		.byte	0
 8914 042a 00       		.byte	0
 8915 042b 50       		.uleb128 0x50
 8916 042c 2E       		.uleb128 0x2e
 8917 042d 01       		.byte	0x1
 8918 042e 03       		.uleb128 0x3
 8919 042f 0E       		.uleb128 0xe
 8920 0430 3A       		.uleb128 0x3a
 8921 0431 0B       		.uleb128 0xb
 8922 0432 3B       		.uleb128 0x3b
 8923 0433 05       		.uleb128 0x5
 8924 0434 27       		.uleb128 0x27
ARM GAS  C:\Users\pearlstl\AppData\Local\Temp\ccIMJlIA.s 			page 179


 8925 0435 19       		.uleb128 0x19
 8926 0436 20       		.uleb128 0x20
 8927 0437 0B       		.uleb128 0xb
 8928 0438 01       		.uleb128 0x1
 8929 0439 13       		.uleb128 0x13
 8930 043a 00       		.byte	0
 8931 043b 00       		.byte	0
 8932 043c 51       		.uleb128 0x51
 8933 043d 0B       		.uleb128 0xb
 8934 043e 01       		.byte	0x1
 8935 043f 01       		.uleb128 0x1
 8936 0440 13       		.uleb128 0x13
 8937 0441 00       		.byte	0
 8938 0442 00       		.byte	0
 8939 0443 52       		.uleb128 0x52
 8940 0444 2E       		.uleb128 0x2e
 8941 0445 01       		.byte	0x1
 8942 0446 03       		.uleb128 0x3
 8943 0447 0E       		.uleb128 0xe
 8944 0448 3A       		.uleb128 0x3a
 8945 0449 0B       		.uleb128 0xb
 8946 044a 3B       		.uleb128 0x3b
 8947 044b 05       		.uleb128 0x5
 8948 044c 27       		.uleb128 0x27
 8949 044d 19       		.uleb128 0x19
 8950 044e 11       		.uleb128 0x11
 8951 044f 01       		.uleb128 0x1
 8952 0450 12       		.uleb128 0x12
 8953 0451 06       		.uleb128 0x6
 8954 0452 40       		.uleb128 0x40
 8955 0453 18       		.uleb128 0x18
 8956 0454 9742     		.uleb128 0x2117
 8957 0456 19       		.uleb128 0x19
 8958 0457 01       		.uleb128 0x1
 8959 0458 13       		.uleb128 0x13
 8960 0459 00       		.byte	0
 8961 045a 00       		.byte	0
 8962 045b 53       		.uleb128 0x53
 8963 045c 2E       		.uleb128 0x2e
 8964 045d 01       		.byte	0x1
 8965 045e 3F       		.uleb128 0x3f
 8966 045f 19       		.uleb128 0x19
 8967 0460 03       		.uleb128 0x3
 8968 0461 0E       		.uleb128 0xe
 8969 0462 3A       		.uleb128 0x3a
 8970 0463 0B       		.uleb128 0xb
 8971 0464 3B       		.uleb128 0x3b
 8972 0465 05       		.uleb128 0x5
 8973 0466 27       		.uleb128 0x27
 8974 0467 19       		.uleb128 0x19
 8975 0468 11       		.uleb128 0x11
 8976 0469 01       		.uleb128 0x1
 8977 046a 12       		.uleb128 0x12
 8978 046b 06       		.uleb128 0x6
 8979 046c 40       		.uleb128 0x40
 8980 046d 18       		.uleb128 0x18
 8981 046e 9742     		.uleb128 0x2117
ARM GAS  C:\Users\pearlstl\AppData\Local\Temp\ccIMJlIA.s 			page 180


 8982 0470 19       		.uleb128 0x19
 8983 0471 01       		.uleb128 0x1
 8984 0472 13       		.uleb128 0x13
 8985 0473 00       		.byte	0
 8986 0474 00       		.byte	0
 8987 0475 54       		.uleb128 0x54
 8988 0476 34       		.uleb128 0x34
 8989 0477 00       		.byte	0
 8990 0478 31       		.uleb128 0x31
 8991 0479 13       		.uleb128 0x13
 8992 047a 1C       		.uleb128 0x1c
 8993 047b 0B       		.uleb128 0xb
 8994 047c 00       		.byte	0
 8995 047d 00       		.byte	0
 8996 047e 55       		.uleb128 0x55
 8997 047f 34       		.uleb128 0x34
 8998 0480 00       		.byte	0
 8999 0481 03       		.uleb128 0x3
 9000 0482 0E       		.uleb128 0xe
 9001 0483 3A       		.uleb128 0x3a
 9002 0484 0B       		.uleb128 0xb
 9003 0485 3B       		.uleb128 0x3b
 9004 0486 0B       		.uleb128 0xb
 9005 0487 49       		.uleb128 0x49
 9006 0488 13       		.uleb128 0x13
 9007 0489 02       		.uleb128 0x2
 9008 048a 18       		.uleb128 0x18
 9009 048b 00       		.byte	0
 9010 048c 00       		.byte	0
 9011 048d 56       		.uleb128 0x56
 9012 048e 34       		.uleb128 0x34
 9013 048f 00       		.byte	0
 9014 0490 03       		.uleb128 0x3
 9015 0491 0E       		.uleb128 0xe
 9016 0492 3A       		.uleb128 0x3a
 9017 0493 0B       		.uleb128 0xb
 9018 0494 3B       		.uleb128 0x3b
 9019 0495 05       		.uleb128 0x5
 9020 0496 49       		.uleb128 0x49
 9021 0497 13       		.uleb128 0x13
 9022 0498 3F       		.uleb128 0x3f
 9023 0499 19       		.uleb128 0x19
 9024 049a 3C       		.uleb128 0x3c
 9025 049b 19       		.uleb128 0x19
 9026 049c 00       		.byte	0
 9027 049d 00       		.byte	0
 9028 049e 57       		.uleb128 0x57
 9029 049f 2E       		.uleb128 0x2e
 9030 04a0 00       		.byte	0
 9031 04a1 3F       		.uleb128 0x3f
 9032 04a2 19       		.uleb128 0x19
 9033 04a3 3C       		.uleb128 0x3c
 9034 04a4 19       		.uleb128 0x19
 9035 04a5 6E       		.uleb128 0x6e
 9036 04a6 0E       		.uleb128 0xe
 9037 04a7 03       		.uleb128 0x3
 9038 04a8 0E       		.uleb128 0xe
ARM GAS  C:\Users\pearlstl\AppData\Local\Temp\ccIMJlIA.s 			page 181


 9039 04a9 3A       		.uleb128 0x3a
 9040 04aa 0B       		.uleb128 0xb
 9041 04ab 3B       		.uleb128 0x3b
 9042 04ac 05       		.uleb128 0x5
 9043 04ad 00       		.byte	0
 9044 04ae 00       		.byte	0
 9045 04af 58       		.uleb128 0x58
 9046 04b0 2E       		.uleb128 0x2e
 9047 04b1 00       		.byte	0
 9048 04b2 3F       		.uleb128 0x3f
 9049 04b3 19       		.uleb128 0x19
 9050 04b4 3C       		.uleb128 0x3c
 9051 04b5 19       		.uleb128 0x19
 9052 04b6 6E       		.uleb128 0x6e
 9053 04b7 0E       		.uleb128 0xe
 9054 04b8 03       		.uleb128 0x3
 9055 04b9 0E       		.uleb128 0xe
 9056 04ba 3A       		.uleb128 0x3a
 9057 04bb 0B       		.uleb128 0xb
 9058 04bc 3B       		.uleb128 0x3b
 9059 04bd 0B       		.uleb128 0xb
 9060 04be 00       		.byte	0
 9061 04bf 00       		.byte	0
 9062 04c0 00       		.byte	0
 9063              		.section	.debug_loc,"",%progbits
 9064              	.Ldebug_loc0:
 9065              	.LLST0:
 9066 0000 00000000 		.4byte	.LVL0
 9067 0004 11000000 		.4byte	.LVL1-1
 9068 0008 0100     		.2byte	0x1
 9069 000a 50       		.byte	0x50
 9070 000b 11000000 		.4byte	.LVL1-1
 9071 000f 44000000 		.4byte	.LVL10
 9072 0013 0100     		.2byte	0x1
 9073 0015 55       		.byte	0x55
 9074 0016 44000000 		.4byte	.LVL10
 9075 001a 48000000 		.4byte	.LVL11
 9076 001e 0400     		.2byte	0x4
 9077 0020 F3       		.byte	0xf3
 9078 0021 01       		.uleb128 0x1
 9079 0022 50       		.byte	0x50
 9080 0023 9F       		.byte	0x9f
 9081 0024 48000000 		.4byte	.LVL11
 9082 0028 E4020000 		.4byte	.LFE59
 9083 002c 0100     		.2byte	0x1
 9084 002e 55       		.byte	0x55
 9085 002f 00000000 		.4byte	0
 9086 0033 00000000 		.4byte	0
 9087              	.LLST1:
 9088 0037 00000000 		.4byte	.LVL0
 9089 003b 11000000 		.4byte	.LVL1-1
 9090 003f 0100     		.2byte	0x1
 9091 0041 51       		.byte	0x51
 9092 0042 11000000 		.4byte	.LVL1-1
 9093 0046 E4020000 		.4byte	.LFE59
 9094 004a 0400     		.2byte	0x4
 9095 004c F3       		.byte	0xf3
ARM GAS  C:\Users\pearlstl\AppData\Local\Temp\ccIMJlIA.s 			page 182


 9096 004d 01       		.uleb128 0x1
 9097 004e 51       		.byte	0x51
 9098 004f 9F       		.byte	0x9f
 9099 0050 00000000 		.4byte	0
 9100 0054 00000000 		.4byte	0
 9101              	.LLST2:
 9102 0058 00000000 		.4byte	.LVL0
 9103 005c 11000000 		.4byte	.LVL1-1
 9104 0060 0100     		.2byte	0x1
 9105 0062 52       		.byte	0x52
 9106 0063 11000000 		.4byte	.LVL1-1
 9107 0067 28000000 		.4byte	.LVL5
 9108 006b 0100     		.2byte	0x1
 9109 006d 56       		.byte	0x56
 9110 006e 28000000 		.4byte	.LVL5
 9111 0072 3A000000 		.4byte	.LVL8
 9112 0076 0400     		.2byte	0x4
 9113 0078 F3       		.byte	0xf3
 9114 0079 01       		.uleb128 0x1
 9115 007a 52       		.byte	0x52
 9116 007b 9F       		.byte	0x9f
 9117 007c 3A000000 		.4byte	.LVL8
 9118 0080 44000000 		.4byte	.LVL10
 9119 0084 0100     		.2byte	0x1
 9120 0086 56       		.byte	0x56
 9121 0087 44000000 		.4byte	.LVL10
 9122 008b 47000000 		.4byte	.LVL11-1
 9123 008f 0100     		.2byte	0x1
 9124 0091 50       		.byte	0x50
 9125 0092 47000000 		.4byte	.LVL11-1
 9126 0096 E4020000 		.4byte	.LFE59
 9127 009a 0400     		.2byte	0x4
 9128 009c F3       		.byte	0xf3
 9129 009d 01       		.uleb128 0x1
 9130 009e 52       		.byte	0x52
 9131 009f 9F       		.byte	0x9f
 9132 00a0 00000000 		.4byte	0
 9133 00a4 00000000 		.4byte	0
 9134              	.LLST3:
 9135 00a8 12000000 		.4byte	.LVL1
 9136 00ac 22000000 		.4byte	.LVL3
 9137 00b0 0100     		.2byte	0x1
 9138 00b2 50       		.byte	0x50
 9139 00b3 3A000000 		.4byte	.LVL8
 9140 00b7 3E000000 		.4byte	.LVL9
 9141 00bb 0100     		.2byte	0x1
 9142 00bd 50       		.byte	0x50
 9143 00be 00000000 		.4byte	0
 9144 00c2 00000000 		.4byte	0
 9145              	.LLST4:
 9146 00c6 28000000 		.4byte	.LVL5
 9147 00ca 2B000000 		.4byte	.LVL6-1
 9148 00ce 0100     		.2byte	0x1
 9149 00d0 50       		.byte	0x50
 9150 00d1 2B000000 		.4byte	.LVL6-1
 9151 00d5 3A000000 		.4byte	.LVL8
 9152 00d9 0100     		.2byte	0x1
ARM GAS  C:\Users\pearlstl\AppData\Local\Temp\ccIMJlIA.s 			page 183


 9153 00db 56       		.byte	0x56
 9154 00dc 48000000 		.4byte	.LVL11
 9155 00e0 E4020000 		.4byte	.LFE59
 9156 00e4 0100     		.2byte	0x1
 9157 00e6 56       		.byte	0x56
 9158 00e7 00000000 		.4byte	0
 9159 00eb 00000000 		.4byte	0
 9160              	.LLST5:
 9161 00ef 28000000 		.4byte	.LVL5
 9162 00f3 30000000 		.4byte	.LVL7
 9163 00f7 0200     		.2byte	0x2
 9164 00f9 30       		.byte	0x30
 9165 00fa 9F       		.byte	0x9f
 9166 00fb 00000000 		.4byte	0
 9167 00ff 00000000 		.4byte	0
 9168              	.LLST6:
 9169 0103 28000000 		.4byte	.LVL5
 9170 0107 2B000000 		.4byte	.LVL6-1
 9171 010b 0100     		.2byte	0x1
 9172 010d 50       		.byte	0x50
 9173 010e 2B000000 		.4byte	.LVL6-1
 9174 0112 30000000 		.4byte	.LVL7
 9175 0116 0100     		.2byte	0x1
 9176 0118 56       		.byte	0x56
 9177 0119 00000000 		.4byte	0
 9178 011d 00000000 		.4byte	0
 9179              	.LLST8:
 9180 0121 4C000000 		.4byte	.LVL12
 9181 0125 54000000 		.4byte	.LVL13
 9182 0129 0100     		.2byte	0x1
 9183 012b 50       		.byte	0x50
 9184 012c 54000000 		.4byte	.LVL13
 9185 0130 8A010000 		.4byte	.LVL28
 9186 0134 0100     		.2byte	0x1
 9187 0136 58       		.byte	0x58
 9188 0137 AE010000 		.4byte	.LVL32
 9189 013b E8010000 		.4byte	.LVL34
 9190 013f 0100     		.2byte	0x1
 9191 0141 58       		.byte	0x58
 9192 0142 0A020000 		.4byte	.LVL37
 9193 0146 E4020000 		.4byte	.LFE59
 9194 014a 0100     		.2byte	0x1
 9195 014c 58       		.byte	0x58
 9196 014d 00000000 		.4byte	0
 9197 0151 00000000 		.4byte	0
 9198              	.LLST9:
 9199 0155 60000000 		.4byte	.LVL15
 9200 0159 64000000 		.4byte	.LVL16
 9201 015d 0100     		.2byte	0x1
 9202 015f 50       		.byte	0x50
 9203 0160 64000000 		.4byte	.LVL16
 9204 0164 94010000 		.4byte	.LVL29
 9205 0168 0100     		.2byte	0x1
 9206 016a 54       		.byte	0x54
 9207 016b AE010000 		.4byte	.LVL32
 9208 016f E4020000 		.4byte	.LFE59
 9209 0173 0100     		.2byte	0x1
ARM GAS  C:\Users\pearlstl\AppData\Local\Temp\ccIMJlIA.s 			page 184


 9210 0175 54       		.byte	0x54
 9211 0176 00000000 		.4byte	0
 9212 017a 00000000 		.4byte	0
 9213              	.LLST10:
 9214 017e C4000000 		.4byte	.LVL18
 9215 0182 AE010000 		.4byte	.LVL32
 9216 0186 0100     		.2byte	0x1
 9217 0188 5A       		.byte	0x5a
 9218 0189 E4010000 		.4byte	.LVL33
 9219 018d E4020000 		.4byte	.LFE59
 9220 0191 0100     		.2byte	0x1
 9221 0193 5A       		.byte	0x5a
 9222 0194 00000000 		.4byte	0
 9223 0198 00000000 		.4byte	0
 9224              	.LLST11:
 9225 019c CC000000 		.4byte	.LVL20
 9226 01a0 AE010000 		.4byte	.LVL32
 9227 01a4 0100     		.2byte	0x1
 9228 01a6 5B       		.byte	0x5b
 9229 01a7 E4010000 		.4byte	.LVL33
 9230 01ab E4020000 		.4byte	.LFE59
 9231 01af 0100     		.2byte	0x1
 9232 01b1 5B       		.byte	0x5b
 9233 01b2 00000000 		.4byte	0
 9234 01b6 00000000 		.4byte	0
 9235              	.LLST12:
 9236 01ba D4000000 		.4byte	.LVL22
 9237 01be AE010000 		.4byte	.LVL32
 9238 01c2 0100     		.2byte	0x1
 9239 01c4 59       		.byte	0x59
 9240 01c5 E4010000 		.4byte	.LVL33
 9241 01c9 E4020000 		.4byte	.LFE59
 9242 01cd 0100     		.2byte	0x1
 9243 01cf 59       		.byte	0x59
 9244 01d0 00000000 		.4byte	0
 9245 01d4 00000000 		.4byte	0
 9246              	.LLST13:
 9247 01d8 E0000000 		.4byte	.LVL24
 9248 01dc 0C010000 		.4byte	.LVL25
 9249 01e0 0100     		.2byte	0x1
 9250 01e2 52       		.byte	0x52
 9251 01e3 94020000 		.4byte	.LVL41
 9252 01e7 A3020000 		.4byte	.LVL42-1
 9253 01eb 0100     		.2byte	0x1
 9254 01ed 52       		.byte	0x52
 9255 01ee 00000000 		.4byte	0
 9256 01f2 00000000 		.4byte	0
 9257              	.LLST14:
 9258 01f6 00000000 		.4byte	.LVL45
 9259 01fa 0B000000 		.4byte	.LVL46-1
 9260 01fe 0100     		.2byte	0x1
 9261 0200 50       		.byte	0x50
 9262 0201 0B000000 		.4byte	.LVL46-1
 9263 0205 2C000000 		.4byte	.LFE58
 9264 0209 0400     		.2byte	0x4
 9265 020b F3       		.byte	0xf3
 9266 020c 01       		.uleb128 0x1
ARM GAS  C:\Users\pearlstl\AppData\Local\Temp\ccIMJlIA.s 			page 185


 9267 020d 50       		.byte	0x50
 9268 020e 9F       		.byte	0x9f
 9269 020f 00000000 		.4byte	0
 9270 0213 00000000 		.4byte	0
 9271              	.LLST15:
 9272 0217 00000000 		.4byte	.LVL45
 9273 021b 0B000000 		.4byte	.LVL46-1
 9274 021f 0100     		.2byte	0x1
 9275 0221 51       		.byte	0x51
 9276 0222 0B000000 		.4byte	.LVL46-1
 9277 0226 2C000000 		.4byte	.LFE58
 9278 022a 0400     		.2byte	0x4
 9279 022c F3       		.byte	0xf3
 9280 022d 01       		.uleb128 0x1
 9281 022e 51       		.byte	0x51
 9282 022f 9F       		.byte	0x9f
 9283 0230 00000000 		.4byte	0
 9284 0234 00000000 		.4byte	0
 9285              	.LLST16:
 9286 0238 00000000 		.4byte	.LVL45
 9287 023c 0B000000 		.4byte	.LVL46-1
 9288 0240 0100     		.2byte	0x1
 9289 0242 52       		.byte	0x52
 9290 0243 0B000000 		.4byte	.LVL46-1
 9291 0247 1E000000 		.4byte	.LVL50
 9292 024b 0100     		.2byte	0x1
 9293 024d 55       		.byte	0x55
 9294 024e 1E000000 		.4byte	.LVL50
 9295 0252 21000000 		.4byte	.LVL51-1
 9296 0256 0100     		.2byte	0x1
 9297 0258 50       		.byte	0x50
 9298 0259 21000000 		.4byte	.LVL51-1
 9299 025d 2C000000 		.4byte	.LFE58
 9300 0261 0400     		.2byte	0x4
 9301 0263 F3       		.byte	0xf3
 9302 0264 01       		.uleb128 0x1
 9303 0265 52       		.byte	0x52
 9304 0266 9F       		.byte	0x9f
 9305 0267 00000000 		.4byte	0
 9306 026b 00000000 		.4byte	0
 9307              	.LLST17:
 9308 026f 0C000000 		.4byte	.LVL46
 9309 0273 18000000 		.4byte	.LVL49
 9310 0277 0100     		.2byte	0x1
 9311 0279 50       		.byte	0x50
 9312 027a 00000000 		.4byte	0
 9313 027e 00000000 		.4byte	0
 9314              	.LLST18:
 9315 0282 16000000 		.4byte	.LVL48
 9316 0286 1E000000 		.4byte	.LVL50
 9317 028a 0100     		.2byte	0x1
 9318 028c 55       		.byte	0x55
 9319 028d 1E000000 		.4byte	.LVL50
 9320 0291 21000000 		.4byte	.LVL51-1
 9321 0295 0100     		.2byte	0x1
 9322 0297 50       		.byte	0x50
 9323 0298 21000000 		.4byte	.LVL51-1
ARM GAS  C:\Users\pearlstl\AppData\Local\Temp\ccIMJlIA.s 			page 186


 9324 029c 2C000000 		.4byte	.LFE58
 9325 02a0 0400     		.2byte	0x4
 9326 02a2 F3       		.byte	0xf3
 9327 02a3 01       		.uleb128 0x1
 9328 02a4 52       		.byte	0x52
 9329 02a5 9F       		.byte	0x9f
 9330 02a6 00000000 		.4byte	0
 9331 02aa 00000000 		.4byte	0
 9332              	.LLST19:
 9333 02ae 00000000 		.4byte	.LVL52
 9334 02b2 0D000000 		.4byte	.LVL53-1
 9335 02b6 0100     		.2byte	0x1
 9336 02b8 50       		.byte	0x50
 9337 02b9 0D000000 		.4byte	.LVL53-1
 9338 02bd 78010000 		.4byte	.LFE52
 9339 02c1 0100     		.2byte	0x1
 9340 02c3 58       		.byte	0x58
 9341 02c4 00000000 		.4byte	0
 9342 02c8 00000000 		.4byte	0
 9343              	.LLST20:
 9344 02cc 00000000 		.4byte	.LVL52
 9345 02d0 0D000000 		.4byte	.LVL53-1
 9346 02d4 0100     		.2byte	0x1
 9347 02d6 51       		.byte	0x51
 9348 02d7 0D000000 		.4byte	.LVL53-1
 9349 02db 6E000000 		.4byte	.LVL62
 9350 02df 0100     		.2byte	0x1
 9351 02e1 57       		.byte	0x57
 9352 02e2 6E000000 		.4byte	.LVL62
 9353 02e6 8E000000 		.4byte	.LVL66
 9354 02ea 0400     		.2byte	0x4
 9355 02ec F3       		.byte	0xf3
 9356 02ed 01       		.uleb128 0x1
 9357 02ee 51       		.byte	0x51
 9358 02ef 9F       		.byte	0x9f
 9359 02f0 8E000000 		.4byte	.LVL66
 9360 02f4 78010000 		.4byte	.LFE52
 9361 02f8 0100     		.2byte	0x1
 9362 02fa 57       		.byte	0x57
 9363 02fb 00000000 		.4byte	0
 9364 02ff 00000000 		.4byte	0
 9365              	.LLST21:
 9366 0303 0E000000 		.4byte	.LVL53
 9367 0307 19000000 		.4byte	.LVL54-1
 9368 030b 0100     		.2byte	0x1
 9369 030d 50       		.byte	0x50
 9370 030e 19000000 		.4byte	.LVL54-1
 9371 0312 88000000 		.4byte	.LVL65
 9372 0316 0100     		.2byte	0x1
 9373 0318 55       		.byte	0x55
 9374 0319 8E000000 		.4byte	.LVL66
 9375 031d 10010000 		.4byte	.LVL86
 9376 0321 0100     		.2byte	0x1
 9377 0323 55       		.byte	0x55
 9378 0324 14010000 		.4byte	.LVL87
 9379 0328 78010000 		.4byte	.LFE52
 9380 032c 0100     		.2byte	0x1
ARM GAS  C:\Users\pearlstl\AppData\Local\Temp\ccIMJlIA.s 			page 187


 9381 032e 55       		.byte	0x55
 9382 032f 00000000 		.4byte	0
 9383 0333 00000000 		.4byte	0
 9384              	.LLST22:
 9385 0337 1A000000 		.4byte	.LVL54
 9386 033b 2A000000 		.4byte	.LVL55
 9387 033f 0100     		.2byte	0x1
 9388 0341 50       		.byte	0x50
 9389 0342 2A000000 		.4byte	.LVL55
 9390 0346 88000000 		.4byte	.LVL65
 9391 034a 0100     		.2byte	0x1
 9392 034c 54       		.byte	0x54
 9393 034d 8E000000 		.4byte	.LVL66
 9394 0351 E2000000 		.4byte	.LVL81
 9395 0355 0100     		.2byte	0x1
 9396 0357 54       		.byte	0x54
 9397 0358 14010000 		.4byte	.LVL87
 9398 035c 30010000 		.4byte	.LVL91
 9399 0360 0100     		.2byte	0x1
 9400 0362 54       		.byte	0x54
 9401 0363 30010000 		.4byte	.LVL91
 9402 0367 32010000 		.4byte	.LVL92
 9403 036b 0100     		.2byte	0x1
 9404 036d 50       		.byte	0x50
 9405 036e 32010000 		.4byte	.LVL92
 9406 0372 3A010000 		.4byte	.LVL94
 9407 0376 0100     		.2byte	0x1
 9408 0378 54       		.byte	0x54
 9409 0379 52010000 		.4byte	.LVL98
 9410 037d 78010000 		.4byte	.LFE52
 9411 0381 0100     		.2byte	0x1
 9412 0383 54       		.byte	0x54
 9413 0384 00000000 		.4byte	0
 9414 0388 00000000 		.4byte	0
 9415              	.LLST23:
 9416 038c 68000000 		.4byte	.LVL60
 9417 0390 6A000000 		.4byte	.LVL61
 9418 0394 0100     		.2byte	0x1
 9419 0396 50       		.byte	0x50
 9420 0397 6A000000 		.4byte	.LVL61
 9421 039b 78000000 		.4byte	.LVL63
 9422 039f 0100     		.2byte	0x1
 9423 03a1 53       		.byte	0x53
 9424 03a2 00000000 		.4byte	0
 9425 03a6 00000000 		.4byte	0
 9426              	.LLST24:
 9427 03aa A0000000 		.4byte	.LVL69
 9428 03ae C2000000 		.4byte	.LVL76
 9429 03b2 0100     		.2byte	0x1
 9430 03b4 56       		.byte	0x56
 9431 03b5 5A010000 		.4byte	.LVL100
 9432 03b9 78010000 		.4byte	.LFE52
 9433 03bd 0100     		.2byte	0x1
 9434 03bf 56       		.byte	0x56
 9435 03c0 00000000 		.4byte	0
 9436 03c4 00000000 		.4byte	0
 9437              	.LLST25:
ARM GAS  C:\Users\pearlstl\AppData\Local\Temp\ccIMJlIA.s 			page 188


 9438 03c8 AC000000 		.4byte	.LVL72
 9439 03cc B3000000 		.4byte	.LVL73-1
 9440 03d0 0100     		.2byte	0x1
 9441 03d2 52       		.byte	0x52
 9442 03d3 62010000 		.4byte	.LVL102
 9443 03d7 78010000 		.4byte	.LFE52
 9444 03db 0100     		.2byte	0x1
 9445 03dd 52       		.byte	0x52
 9446 03de 00000000 		.4byte	0
 9447 03e2 00000000 		.4byte	0
 9448              	.LLST26:
 9449 03e6 E0000000 		.4byte	.LVL80
 9450 03ea EC000000 		.4byte	.LVL82
 9451 03ee 0100     		.2byte	0x1
 9452 03f0 50       		.byte	0x50
 9453 03f1 EC000000 		.4byte	.LVL82
 9454 03f5 10010000 		.4byte	.LVL86
 9455 03f9 0100     		.2byte	0x1
 9456 03fb 54       		.byte	0x54
 9457 03fc 3A010000 		.4byte	.LVL94
 9458 0400 40010000 		.4byte	.LVL95
 9459 0404 0100     		.2byte	0x1
 9460 0406 50       		.byte	0x50
 9461 0407 40010000 		.4byte	.LVL95
 9462 040b 52010000 		.4byte	.LVL98
 9463 040f 0100     		.2byte	0x1
 9464 0411 54       		.byte	0x54
 9465 0412 00000000 		.4byte	0
 9466 0416 00000000 		.4byte	0
 9467              	.LLST27:
 9468 041a C0000000 		.4byte	.LVL75
 9469 041e D4000000 		.4byte	.LVL78
 9470 0422 0200     		.2byte	0x2
 9471 0424 31       		.byte	0x31
 9472 0425 9F       		.byte	0x9f
 9473 0426 00000000 		.4byte	0
 9474 042a 00000000 		.4byte	0
 9475              	.LLST28:
 9476 042e C0000000 		.4byte	.LVL75
 9477 0432 D4000000 		.4byte	.LVL78
 9478 0436 0100     		.2byte	0x1
 9479 0438 55       		.byte	0x55
 9480 0439 00000000 		.4byte	0
 9481 043d 00000000 		.4byte	0
 9482              	.LLST29:
 9483 0441 C8000000 		.4byte	.LVL77
 9484 0445 D4000000 		.4byte	.LVL78
 9485 0449 0200     		.2byte	0x2
 9486 044b 31       		.byte	0x31
 9487 044c 9F       		.byte	0x9f
 9488 044d 00000000 		.4byte	0
 9489 0451 00000000 		.4byte	0
 9490              	.LLST30:
 9491 0455 C8000000 		.4byte	.LVL77
 9492 0459 D3000000 		.4byte	.LVL78-1
 9493 045d 0100     		.2byte	0x1
 9494 045f 50       		.byte	0x50
ARM GAS  C:\Users\pearlstl\AppData\Local\Temp\ccIMJlIA.s 			page 189


 9495 0460 00000000 		.4byte	0
 9496 0464 00000000 		.4byte	0
 9497              	.LLST31:
 9498 0468 00000000 		.4byte	.LVL103
 9499 046c 16000000 		.4byte	.LVL104
 9500 0470 0100     		.2byte	0x1
 9501 0472 50       		.byte	0x50
 9502 0473 16000000 		.4byte	.LVL104
 9503 0477 AE000000 		.4byte	.LFE53
 9504 047b 0100     		.2byte	0x1
 9505 047d 56       		.byte	0x56
 9506 047e 00000000 		.4byte	0
 9507 0482 00000000 		.4byte	0
 9508              	.LLST32:
 9509 0486 00000000 		.4byte	.LVL103
 9510 048a 18000000 		.4byte	.LVL105
 9511 048e 0100     		.2byte	0x1
 9512 0490 51       		.byte	0x51
 9513 0491 18000000 		.4byte	.LVL105
 9514 0495 1B000000 		.4byte	.LVL106-1
 9515 0499 0100     		.2byte	0x1
 9516 049b 50       		.byte	0x50
 9517 049c 1B000000 		.4byte	.LVL106-1
 9518 04a0 AE000000 		.4byte	.LFE53
 9519 04a4 0400     		.2byte	0x4
 9520 04a6 F3       		.byte	0xf3
 9521 04a7 01       		.uleb128 0x1
 9522 04a8 51       		.byte	0x51
 9523 04a9 9F       		.byte	0x9f
 9524 04aa 00000000 		.4byte	0
 9525 04ae 00000000 		.4byte	0
 9526              	.LLST33:
 9527 04b2 24000000 		.4byte	.LVL108
 9528 04b6 26000000 		.4byte	.LVL109
 9529 04ba 0100     		.2byte	0x1
 9530 04bc 50       		.byte	0x50
 9531 04bd 26000000 		.4byte	.LVL109
 9532 04c1 31000000 		.4byte	.LVL111-1
 9533 04c5 0100     		.2byte	0x1
 9534 04c7 53       		.byte	0x53
 9535 04c8 00000000 		.4byte	0
 9536 04cc 00000000 		.4byte	0
 9537              	.LLST34:
 9538 04d0 2E000000 		.4byte	.LVL110
 9539 04d4 84000000 		.4byte	.LVL119
 9540 04d8 0100     		.2byte	0x1
 9541 04da 58       		.byte	0x58
 9542 04db 84000000 		.4byte	.LVL119
 9543 04df A4000000 		.4byte	.LVL122
 9544 04e3 0400     		.2byte	0x4
 9545 04e5 78       		.byte	0x78
 9546 04e6 00       		.sleb128 0
 9547 04e7 1F       		.byte	0x1f
 9548 04e8 9F       		.byte	0x9f
 9549 04e9 AA000000 		.4byte	.LVL123
 9550 04ed AE000000 		.4byte	.LFE53
 9551 04f1 0100     		.2byte	0x1
ARM GAS  C:\Users\pearlstl\AppData\Local\Temp\ccIMJlIA.s 			page 190


 9552 04f3 58       		.byte	0x58
 9553 04f4 00000000 		.4byte	0
 9554 04f8 00000000 		.4byte	0
 9555              	.LLST35:
 9556 04fc 2E000000 		.4byte	.LVL110
 9557 0500 7E000000 		.4byte	.LVL117
 9558 0504 0100     		.2byte	0x1
 9559 0506 55       		.byte	0x55
 9560 0507 7E000000 		.4byte	.LVL117
 9561 050b A4000000 		.4byte	.LVL122
 9562 050f 0400     		.2byte	0x4
 9563 0511 75       		.byte	0x75
 9564 0512 00       		.sleb128 0
 9565 0513 1F       		.byte	0x1f
 9566 0514 9F       		.byte	0x9f
 9567 0515 AA000000 		.4byte	.LVL123
 9568 0519 AE000000 		.4byte	.LFE53
 9569 051d 0100     		.2byte	0x1
 9570 051f 55       		.byte	0x55
 9571 0520 00000000 		.4byte	0
 9572 0524 00000000 		.4byte	0
 9573              	.LLST36:
 9574 0528 32000000 		.4byte	.LVL111
 9575 052c 70000000 		.4byte	.LVL113
 9576 0530 0100     		.2byte	0x1
 9577 0532 50       		.byte	0x50
 9578 0533 AA000000 		.4byte	.LVL123
 9579 0537 AE000000 		.4byte	.LFE53
 9580 053b 0100     		.2byte	0x1
 9581 053d 50       		.byte	0x50
 9582 053e 00000000 		.4byte	0
 9583 0542 00000000 		.4byte	0
 9584              	.LLST37:
 9585 0546 32000000 		.4byte	.LVL111
 9586 054a 68000000 		.4byte	.LVL112
 9587 054e 0200     		.2byte	0x2
 9588 0550 30       		.byte	0x30
 9589 0551 9F       		.byte	0x9f
 9590 0552 68000000 		.4byte	.LVL112
 9591 0556 A4000000 		.4byte	.LVL122
 9592 055a 0200     		.2byte	0x2
 9593 055c 31       		.byte	0x31
 9594 055d 9F       		.byte	0x9f
 9595 055e AA000000 		.4byte	.LVL123
 9596 0562 AE000000 		.4byte	.LFE53
 9597 0566 0200     		.2byte	0x2
 9598 0568 30       		.byte	0x30
 9599 0569 9F       		.byte	0x9f
 9600 056a 00000000 		.4byte	0
 9601 056e 00000000 		.4byte	0
 9602              	.LLST38:
 9603 0572 76000000 		.4byte	.LVL115
 9604 0576 7E000000 		.4byte	.LVL117
 9605 057a 0700     		.2byte	0x7
 9606 057c 75       		.byte	0x75
 9607 057d 00       		.sleb128 0
 9608 057e 1F       		.byte	0x1f
ARM GAS  C:\Users\pearlstl\AppData\Local\Temp\ccIMJlIA.s 			page 191


 9609 057f 77       		.byte	0x77
 9610 0580 00       		.sleb128 0
 9611 0581 1E       		.byte	0x1e
 9612 0582 9F       		.byte	0x9f
 9613 0583 7E000000 		.4byte	.LVL117
 9614 0587 A4000000 		.4byte	.LVL122
 9615 058b 0800     		.2byte	0x8
 9616 058d 75       		.byte	0x75
 9617 058e 00       		.sleb128 0
 9618 058f 1F       		.byte	0x1f
 9619 0590 1F       		.byte	0x1f
 9620 0591 77       		.byte	0x77
 9621 0592 00       		.sleb128 0
 9622 0593 1E       		.byte	0x1e
 9623 0594 9F       		.byte	0x9f
 9624 0595 00000000 		.4byte	0
 9625 0599 00000000 		.4byte	0
 9626              	.LLST39:
 9627 059d 80000000 		.4byte	.LVL118
 9628 05a1 84000000 		.4byte	.LVL119
 9629 05a5 0700     		.2byte	0x7
 9630 05a7 78       		.byte	0x78
 9631 05a8 00       		.sleb128 0
 9632 05a9 1F       		.byte	0x1f
 9633 05aa 74       		.byte	0x74
 9634 05ab 00       		.sleb128 0
 9635 05ac 1E       		.byte	0x1e
 9636 05ad 9F       		.byte	0x9f
 9637 05ae 84000000 		.4byte	.LVL119
 9638 05b2 A4000000 		.4byte	.LVL122
 9639 05b6 0800     		.2byte	0x8
 9640 05b8 78       		.byte	0x78
 9641 05b9 00       		.sleb128 0
 9642 05ba 1F       		.byte	0x1f
 9643 05bb 1F       		.byte	0x1f
 9644 05bc 74       		.byte	0x74
 9645 05bd 00       		.sleb128 0
 9646 05be 1E       		.byte	0x1e
 9647 05bf 9F       		.byte	0x9f
 9648 05c0 00000000 		.4byte	0
 9649 05c4 00000000 		.4byte	0
 9650              	.LLST40:
 9651 05c8 8A000000 		.4byte	.LVL120
 9652 05cc 99000000 		.4byte	.LVL121-1
 9653 05d0 0100     		.2byte	0x1
 9654 05d2 50       		.byte	0x50
 9655 05d3 00000000 		.4byte	0
 9656 05d7 00000000 		.4byte	0
 9657              	.LLST41:
 9658 05db 9A000000 		.4byte	.LVL121
 9659 05df A4000000 		.4byte	.LVL122
 9660 05e3 0200     		.2byte	0x2
 9661 05e5 31       		.byte	0x31
 9662 05e6 9F       		.byte	0x9f
 9663 05e7 00000000 		.4byte	0
 9664 05eb 00000000 		.4byte	0
 9665              	.LLST42:
ARM GAS  C:\Users\pearlstl\AppData\Local\Temp\ccIMJlIA.s 			page 192


 9666 05ef 00000000 		.4byte	.LVL124
 9667 05f3 0F000000 		.4byte	.LVL125-1
 9668 05f7 0100     		.2byte	0x1
 9669 05f9 50       		.byte	0x50
 9670 05fa 0F000000 		.4byte	.LVL125-1
 9671 05fe CE000000 		.4byte	.LFE54
 9672 0602 0100     		.2byte	0x1
 9673 0604 55       		.byte	0x55
 9674 0605 00000000 		.4byte	0
 9675 0609 00000000 		.4byte	0
 9676              	.LLST43:
 9677 060d 00000000 		.4byte	.LVL124
 9678 0611 0F000000 		.4byte	.LVL125-1
 9679 0615 0100     		.2byte	0x1
 9680 0617 51       		.byte	0x51
 9681 0618 0F000000 		.4byte	.LVL125-1
 9682 061c 42000000 		.4byte	.LVL128
 9683 0620 0100     		.2byte	0x1
 9684 0622 57       		.byte	0x57
 9685 0623 42000000 		.4byte	.LVL128
 9686 0627 48000000 		.4byte	.LVL129
 9687 062b 0400     		.2byte	0x4
 9688 062d F3       		.byte	0xf3
 9689 062e 01       		.uleb128 0x1
 9690 062f 51       		.byte	0x51
 9691 0630 9F       		.byte	0x9f
 9692 0631 48000000 		.4byte	.LVL129
 9693 0635 66000000 		.4byte	.LVL133
 9694 0639 0100     		.2byte	0x1
 9695 063b 57       		.byte	0x57
 9696 063c 66000000 		.4byte	.LVL133
 9697 0640 CE000000 		.4byte	.LFE54
 9698 0644 0400     		.2byte	0x4
 9699 0646 F3       		.byte	0xf3
 9700 0647 01       		.uleb128 0x1
 9701 0648 51       		.byte	0x51
 9702 0649 9F       		.byte	0x9f
 9703 064a 00000000 		.4byte	0
 9704 064e 00000000 		.4byte	0
 9705              	.LLST44:
 9706 0652 00000000 		.4byte	.LVL124
 9707 0656 0F000000 		.4byte	.LVL125-1
 9708 065a 0100     		.2byte	0x1
 9709 065c 52       		.byte	0x52
 9710 065d 0F000000 		.4byte	.LVL125-1
 9711 0661 CE000000 		.4byte	.LFE54
 9712 0665 0400     		.2byte	0x4
 9713 0667 F3       		.byte	0xf3
 9714 0668 01       		.uleb128 0x1
 9715 0669 52       		.byte	0x52
 9716 066a 9F       		.byte	0x9f
 9717 066b 00000000 		.4byte	0
 9718 066f 00000000 		.4byte	0
 9719              	.LLST45:
 9720 0673 10000000 		.4byte	.LVL125
 9721 0677 42000000 		.4byte	.LVL128
 9722 067b 0100     		.2byte	0x1
ARM GAS  C:\Users\pearlstl\AppData\Local\Temp\ccIMJlIA.s 			page 193


 9723 067d 50       		.byte	0x50
 9724 067e 48000000 		.4byte	.LVL129
 9725 0682 4A000000 		.4byte	.LVL130
 9726 0686 0100     		.2byte	0x1
 9727 0688 50       		.byte	0x50
 9728 0689 00000000 		.4byte	0
 9729 068d 00000000 		.4byte	0
 9730              	.LLST46:
 9731 0691 14000000 		.4byte	.LVL126
 9732 0695 28000000 		.4byte	.LVL127
 9733 0699 0200     		.2byte	0x2
 9734 069b 30       		.byte	0x30
 9735 069c 9F       		.byte	0x9f
 9736 069d 00000000 		.4byte	0
 9737 06a1 00000000 		.4byte	0
 9738              	.LLST47:
 9739 06a5 52000000 		.4byte	.LVL131
 9740 06a9 A8000000 		.4byte	.LVL141
 9741 06ad 0100     		.2byte	0x1
 9742 06af 58       		.byte	0x58
 9743 06b0 A8000000 		.4byte	.LVL141
 9744 06b4 CA000000 		.4byte	.LVL145
 9745 06b8 0400     		.2byte	0x4
 9746 06ba 78       		.byte	0x78
 9747 06bb 00       		.sleb128 0
 9748 06bc 1F       		.byte	0x1f
 9749 06bd 9F       		.byte	0x9f
 9750 06be CA000000 		.4byte	.LVL145
 9751 06c2 CE000000 		.4byte	.LFE54
 9752 06c6 0100     		.2byte	0x1
 9753 06c8 58       		.byte	0x58
 9754 06c9 00000000 		.4byte	0
 9755 06cd 00000000 		.4byte	0
 9756              	.LLST48:
 9757 06d1 52000000 		.4byte	.LVL131
 9758 06d5 A2000000 		.4byte	.LVL139
 9759 06d9 0100     		.2byte	0x1
 9760 06db 56       		.byte	0x56
 9761 06dc A2000000 		.4byte	.LVL139
 9762 06e0 CA000000 		.4byte	.LVL145
 9763 06e4 0400     		.2byte	0x4
 9764 06e6 76       		.byte	0x76
 9765 06e7 00       		.sleb128 0
 9766 06e8 1F       		.byte	0x1f
 9767 06e9 9F       		.byte	0x9f
 9768 06ea CA000000 		.4byte	.LVL145
 9769 06ee CE000000 		.4byte	.LFE54
 9770 06f2 0100     		.2byte	0x1
 9771 06f4 56       		.byte	0x56
 9772 06f5 00000000 		.4byte	0
 9773 06f9 00000000 		.4byte	0
 9774              	.LLST49:
 9775 06fd 52000000 		.4byte	.LVL131
 9776 0701 55000000 		.4byte	.LVL132-1
 9777 0705 0100     		.2byte	0x1
 9778 0707 50       		.byte	0x50
 9779 0708 55000000 		.4byte	.LVL132-1
ARM GAS  C:\Users\pearlstl\AppData\Local\Temp\ccIMJlIA.s 			page 194


 9780 070c CE000000 		.4byte	.LFE54
 9781 0710 0100     		.2byte	0x1
 9782 0712 55       		.byte	0x55
 9783 0713 00000000 		.4byte	0
 9784 0717 00000000 		.4byte	0
 9785              	.LLST50:
 9786 071b 56000000 		.4byte	.LVL132
 9787 071f 94000000 		.4byte	.LVL135
 9788 0723 0100     		.2byte	0x1
 9789 0725 50       		.byte	0x50
 9790 0726 CA000000 		.4byte	.LVL145
 9791 072a CE000000 		.4byte	.LFE54
 9792 072e 0100     		.2byte	0x1
 9793 0730 50       		.byte	0x50
 9794 0731 00000000 		.4byte	0
 9795 0735 00000000 		.4byte	0
 9796              	.LLST51:
 9797 0739 56000000 		.4byte	.LVL132
 9798 073d 8C000000 		.4byte	.LVL134
 9799 0741 0200     		.2byte	0x2
 9800 0743 30       		.byte	0x30
 9801 0744 9F       		.byte	0x9f
 9802 0745 8C000000 		.4byte	.LVL134
 9803 0749 CA000000 		.4byte	.LVL145
 9804 074d 0200     		.2byte	0x2
 9805 074f 31       		.byte	0x31
 9806 0750 9F       		.byte	0x9f
 9807 0751 CA000000 		.4byte	.LVL145
 9808 0755 CE000000 		.4byte	.LFE54
 9809 0759 0200     		.2byte	0x2
 9810 075b 30       		.byte	0x30
 9811 075c 9F       		.byte	0x9f
 9812 075d 00000000 		.4byte	0
 9813 0761 00000000 		.4byte	0
 9814              	.LLST52:
 9815 0765 9A000000 		.4byte	.LVL137
 9816 0769 A2000000 		.4byte	.LVL139
 9817 076d 0700     		.2byte	0x7
 9818 076f 76       		.byte	0x76
 9819 0770 00       		.sleb128 0
 9820 0771 1F       		.byte	0x1f
 9821 0772 77       		.byte	0x77
 9822 0773 00       		.sleb128 0
 9823 0774 1E       		.byte	0x1e
 9824 0775 9F       		.byte	0x9f
 9825 0776 A2000000 		.4byte	.LVL139
 9826 077a CA000000 		.4byte	.LVL145
 9827 077e 0800     		.2byte	0x8
 9828 0780 76       		.byte	0x76
 9829 0781 00       		.sleb128 0
 9830 0782 1F       		.byte	0x1f
 9831 0783 1F       		.byte	0x1f
 9832 0784 77       		.byte	0x77
 9833 0785 00       		.sleb128 0
 9834 0786 1E       		.byte	0x1e
 9835 0787 9F       		.byte	0x9f
 9836 0788 00000000 		.4byte	0
ARM GAS  C:\Users\pearlstl\AppData\Local\Temp\ccIMJlIA.s 			page 195


 9837 078c 00000000 		.4byte	0
 9838              	.LLST53:
 9839 0790 A4000000 		.4byte	.LVL140
 9840 0794 A8000000 		.4byte	.LVL141
 9841 0798 0700     		.2byte	0x7
 9842 079a 78       		.byte	0x78
 9843 079b 00       		.sleb128 0
 9844 079c 1F       		.byte	0x1f
 9845 079d 74       		.byte	0x74
 9846 079e 00       		.sleb128 0
 9847 079f 1E       		.byte	0x1e
 9848 07a0 9F       		.byte	0x9f
 9849 07a1 A8000000 		.4byte	.LVL141
 9850 07a5 CA000000 		.4byte	.LVL145
 9851 07a9 0800     		.2byte	0x8
 9852 07ab 78       		.byte	0x78
 9853 07ac 00       		.sleb128 0
 9854 07ad 1F       		.byte	0x1f
 9855 07ae 1F       		.byte	0x1f
 9856 07af 74       		.byte	0x74
 9857 07b0 00       		.sleb128 0
 9858 07b1 1E       		.byte	0x1e
 9859 07b2 9F       		.byte	0x9f
 9860 07b3 00000000 		.4byte	0
 9861 07b7 00000000 		.4byte	0
 9862              	.LLST54:
 9863 07bb AE000000 		.4byte	.LVL142
 9864 07bf BD000000 		.4byte	.LVL143-1
 9865 07c3 0100     		.2byte	0x1
 9866 07c5 50       		.byte	0x50
 9867 07c6 00000000 		.4byte	0
 9868 07ca 00000000 		.4byte	0
 9869              	.LLST55:
 9870 07ce BE000000 		.4byte	.LVL143
 9871 07d2 C8000000 		.4byte	.LVL144
 9872 07d6 0200     		.2byte	0x2
 9873 07d8 31       		.byte	0x31
 9874 07d9 9F       		.byte	0x9f
 9875 07da 00000000 		.4byte	0
 9876 07de 00000000 		.4byte	0
 9877              	.LLST56:
 9878 07e2 00000000 		.4byte	.LVL146
 9879 07e6 11000000 		.4byte	.LVL147-1
 9880 07ea 0100     		.2byte	0x1
 9881 07ec 50       		.byte	0x50
 9882 07ed 11000000 		.4byte	.LVL147-1
 9883 07f1 0C010000 		.4byte	.LFE55
 9884 07f5 0100     		.2byte	0x1
 9885 07f7 57       		.byte	0x57
 9886 07f8 00000000 		.4byte	0
 9887 07fc 00000000 		.4byte	0
 9888              	.LLST57:
 9889 0800 00000000 		.4byte	.LVL146
 9890 0804 11000000 		.4byte	.LVL147-1
 9891 0808 0100     		.2byte	0x1
 9892 080a 51       		.byte	0x51
 9893 080b 11000000 		.4byte	.LVL147-1
ARM GAS  C:\Users\pearlstl\AppData\Local\Temp\ccIMJlIA.s 			page 196


 9894 080f 0C010000 		.4byte	.LFE55
 9895 0813 0400     		.2byte	0x4
 9896 0815 F3       		.byte	0xf3
 9897 0816 01       		.uleb128 0x1
 9898 0817 51       		.byte	0x51
 9899 0818 9F       		.byte	0x9f
 9900 0819 00000000 		.4byte	0
 9901 081d 00000000 		.4byte	0
 9902              	.LLST58:
 9903 0821 00000000 		.4byte	.LVL146
 9904 0825 11000000 		.4byte	.LVL147-1
 9905 0829 0100     		.2byte	0x1
 9906 082b 52       		.byte	0x52
 9907 082c 11000000 		.4byte	.LVL147-1
 9908 0830 0C010000 		.4byte	.LFE55
 9909 0834 0400     		.2byte	0x4
 9910 0836 F3       		.byte	0xf3
 9911 0837 01       		.uleb128 0x1
 9912 0838 52       		.byte	0x52
 9913 0839 9F       		.byte	0x9f
 9914 083a 00000000 		.4byte	0
 9915 083e 00000000 		.4byte	0
 9916              	.LLST59:
 9917 0842 00000000 		.4byte	.LVL146
 9918 0846 11000000 		.4byte	.LVL147-1
 9919 084a 0100     		.2byte	0x1
 9920 084c 53       		.byte	0x53
 9921 084d 11000000 		.4byte	.LVL147-1
 9922 0851 0C010000 		.4byte	.LFE55
 9923 0855 0400     		.2byte	0x4
 9924 0857 F3       		.byte	0xf3
 9925 0858 01       		.uleb128 0x1
 9926 0859 53       		.byte	0x53
 9927 085a 9F       		.byte	0x9f
 9928 085b 00000000 		.4byte	0
 9929 085f 00000000 		.4byte	0
 9930              	.LLST60:
 9931 0863 12000000 		.4byte	.LVL147
 9932 0867 24000000 		.4byte	.LVL148
 9933 086b 0100     		.2byte	0x1
 9934 086d 50       		.byte	0x50
 9935 086e 24000000 		.4byte	.LVL148
 9936 0872 F4000000 		.4byte	.LVL164
 9937 0876 0100     		.2byte	0x1
 9938 0878 5A       		.byte	0x5a
 9939 0879 FA000000 		.4byte	.LVL165
 9940 087d 0C010000 		.4byte	.LFE55
 9941 0881 0100     		.2byte	0x1
 9942 0883 5A       		.byte	0x5a
 9943 0884 00000000 		.4byte	0
 9944 0888 00000000 		.4byte	0
 9945              	.LLST61:
 9946 088c 12000000 		.4byte	.LVL147
 9947 0890 48000000 		.4byte	.LVL149
 9948 0894 0200     		.2byte	0x2
 9949 0896 30       		.byte	0x30
 9950 0897 9F       		.byte	0x9f
ARM GAS  C:\Users\pearlstl\AppData\Local\Temp\ccIMJlIA.s 			page 197


 9951 0898 48000000 		.4byte	.LVL149
 9952 089c F4000000 		.4byte	.LVL164
 9953 08a0 0200     		.2byte	0x2
 9954 08a2 31       		.byte	0x31
 9955 08a3 9F       		.byte	0x9f
 9956 08a4 FA000000 		.4byte	.LVL165
 9957 08a8 0C010000 		.4byte	.LFE55
 9958 08ac 0200     		.2byte	0x2
 9959 08ae 30       		.byte	0x30
 9960 08af 9F       		.byte	0x9f
 9961 08b0 00000000 		.4byte	0
 9962 08b4 00000000 		.4byte	0
 9963              	.LLST62:
 9964 08b8 72000000 		.4byte	.LVL153
 9965 08bc F4000000 		.4byte	.LVL164
 9966 08c0 0100     		.2byte	0x1
 9967 08c2 54       		.byte	0x54
 9968 08c3 00000000 		.4byte	0
 9969 08c7 00000000 		.4byte	0
 9970              	.LLST63:
 9971 08cb 74000000 		.4byte	.LVL154
 9972 08cf F4000000 		.4byte	.LVL164
 9973 08d3 0100     		.2byte	0x1
 9974 08d5 55       		.byte	0x55
 9975 08d6 00000000 		.4byte	0
 9976 08da 00000000 		.4byte	0
 9977              	.LLST64:
 9978 08de 76000000 		.4byte	.LVL155
 9979 08e2 7F000000 		.4byte	.LVL156-1
 9980 08e6 0100     		.2byte	0x1
 9981 08e8 50       		.byte	0x50
 9982 08e9 7F000000 		.4byte	.LVL156-1
 9983 08ed E2000000 		.4byte	.LVL162
 9984 08f1 0100     		.2byte	0x1
 9985 08f3 56       		.byte	0x56
 9986 08f4 E2000000 		.4byte	.LVL162
 9987 08f8 E9000000 		.4byte	.LVL163-1
 9988 08fc 0100     		.2byte	0x1
 9989 08fe 50       		.byte	0x50
 9990 08ff E9000000 		.4byte	.LVL163-1
 9991 0903 F4000000 		.4byte	.LVL164
 9992 0907 0100     		.2byte	0x1
 9993 0909 56       		.byte	0x56
 9994 090a 00000000 		.4byte	0
 9995 090e 00000000 		.4byte	0
 9996              	.LLST65:
 9997 0912 EA000000 		.4byte	.LVL163
 9998 0916 F4000000 		.4byte	.LVL164
 9999 091a 0200     		.2byte	0x2
 10000 091c 31       		.byte	0x31
 10001 091d 9F       		.byte	0x9f
 10002 091e 00000000 		.4byte	0
 10003 0922 00000000 		.4byte	0
 10004              	.LLST66:
 10005 0926 82000000 		.4byte	.LVL157
 10006 092a E2000000 		.4byte	.LVL162
 10007 092e 0100     		.2byte	0x1
ARM GAS  C:\Users\pearlstl\AppData\Local\Temp\ccIMJlIA.s 			page 198


 10008 0930 59       		.byte	0x59
 10009 0931 00000000 		.4byte	0
 10010 0935 00000000 		.4byte	0
 10011              	.LLST67:
 10012 0939 AC000000 		.4byte	.LVL159
 10013 093d E2000000 		.4byte	.LVL162
 10014 0941 0100     		.2byte	0x1
 10015 0943 58       		.byte	0x58
 10016 0944 00000000 		.4byte	0
 10017 0948 00000000 		.4byte	0
 10018              	.LLST68:
 10019 094c 00000000 		.4byte	.LVL166
 10020 0950 0B000000 		.4byte	.LVL167-1
 10021 0954 0100     		.2byte	0x1
 10022 0956 50       		.byte	0x50
 10023 0957 0B000000 		.4byte	.LVL167-1
 10024 095b 8C020000 		.4byte	.LFE60
 10025 095f 0400     		.2byte	0x4
 10026 0961 F3       		.byte	0xf3
 10027 0962 01       		.uleb128 0x1
 10028 0963 50       		.byte	0x50
 10029 0964 9F       		.byte	0x9f
 10030 0965 00000000 		.4byte	0
 10031 0969 00000000 		.4byte	0
 10032              	.LLST69:
 10033 096d 00000000 		.4byte	.LVL166
 10034 0971 0B000000 		.4byte	.LVL167-1
 10035 0975 0100     		.2byte	0x1
 10036 0977 51       		.byte	0x51
 10037 0978 0B000000 		.4byte	.LVL167-1
 10038 097c 8C020000 		.4byte	.LFE60
 10039 0980 0400     		.2byte	0x4
 10040 0982 F3       		.byte	0xf3
 10041 0983 01       		.uleb128 0x1
 10042 0984 51       		.byte	0x51
 10043 0985 9F       		.byte	0x9f
 10044 0986 00000000 		.4byte	0
 10045 098a 00000000 		.4byte	0
 10046              	.LLST70:
 10047 098e 0E000000 		.4byte	.LVL168
 10048 0992 1A000000 		.4byte	.LVL169
 10049 0996 0100     		.2byte	0x1
 10050 0998 50       		.byte	0x50
 10051 0999 20000000 		.4byte	.LVL170
 10052 099d 23000000 		.4byte	.LVL171-1
 10053 09a1 0100     		.2byte	0x1
 10054 09a3 50       		.byte	0x50
 10055 09a4 23000000 		.4byte	.LVL171-1
 10056 09a8 02010000 		.4byte	.LVL202
 10057 09ac 0100     		.2byte	0x1
 10058 09ae 55       		.byte	0x55
 10059 09af 02010000 		.4byte	.LVL202
 10060 09b3 05010000 		.4byte	.LVL203-1
 10061 09b7 0100     		.2byte	0x1
 10062 09b9 50       		.byte	0x50
 10063 09ba 05010000 		.4byte	.LVL203-1
 10064 09be 60010000 		.4byte	.LVL209
ARM GAS  C:\Users\pearlstl\AppData\Local\Temp\ccIMJlIA.s 			page 199


 10065 09c2 0100     		.2byte	0x1
 10066 09c4 55       		.byte	0x55
 10067 09c5 FE010000 		.4byte	.LVL210
 10068 09c9 8C020000 		.4byte	.LFE60
 10069 09cd 0100     		.2byte	0x1
 10070 09cf 55       		.byte	0x55
 10071 09d0 00000000 		.4byte	0
 10072 09d4 00000000 		.4byte	0
 10073              	.LLST71:
 10074 09d8 26000000 		.4byte	.LVL172
 10075 09dc 28000000 		.4byte	.LVL173
 10076 09e0 0100     		.2byte	0x1
 10077 09e2 50       		.byte	0x50
 10078 09e3 28000000 		.4byte	.LVL173
 10079 09e7 56000000 		.4byte	.LVL180
 10080 09eb 0100     		.2byte	0x1
 10081 09ed 54       		.byte	0x54
 10082 09ee 00000000 		.4byte	0
 10083 09f2 00000000 		.4byte	0
 10084              	.LLST72:
 10085 09f6 2E000000 		.4byte	.LVL175
 10086 09fa 30000000 		.4byte	.LVL176
 10087 09fe 0100     		.2byte	0x1
 10088 0a00 50       		.byte	0x50
 10089 0a01 30000000 		.4byte	.LVL176
 10090 0a05 6A000000 		.4byte	.LVL185
 10091 0a09 0100     		.2byte	0x1
 10092 0a0b 56       		.byte	0x56
 10093 0a0c 00000000 		.4byte	0
 10094 0a10 00000000 		.4byte	0
 10095              	.LLST73:
 10096 0a14 4E000000 		.4byte	.LVL178
 10097 0a18 02010000 		.4byte	.LVL202
 10098 0a1c 0100     		.2byte	0x1
 10099 0a1e 55       		.byte	0x55
 10100 0a1f FE010000 		.4byte	.LVL210
 10101 0a23 8C020000 		.4byte	.LFE60
 10102 0a27 0100     		.2byte	0x1
 10103 0a29 55       		.byte	0x55
 10104 0a2a 00000000 		.4byte	0
 10105 0a2e 00000000 		.4byte	0
 10106              	.LLST74:
 10107 0a32 56000000 		.4byte	.LVL180
 10108 0a36 59000000 		.4byte	.LVL181-1
 10109 0a3a 0100     		.2byte	0x1
 10110 0a3c 50       		.byte	0x50
 10111 0a3d 59000000 		.4byte	.LVL181-1
 10112 0a41 C4000000 		.4byte	.LVL194
 10113 0a45 0100     		.2byte	0x1
 10114 0a47 54       		.byte	0x54
 10115 0a48 FE010000 		.4byte	.LVL210
 10116 0a4c 74020000 		.4byte	.LVL223
 10117 0a50 0100     		.2byte	0x1
 10118 0a52 54       		.byte	0x54
 10119 0a53 80020000 		.4byte	.LVL227
 10120 0a57 8C020000 		.4byte	.LFE60
 10121 0a5b 0100     		.2byte	0x1
ARM GAS  C:\Users\pearlstl\AppData\Local\Temp\ccIMJlIA.s 			page 200


 10122 0a5d 54       		.byte	0x54
 10123 0a5e 00000000 		.4byte	0
 10124 0a62 00000000 		.4byte	0
 10125              	.LLST75:
 10126 0a66 5E000000 		.4byte	.LVL182
 10127 0a6a 61000000 		.4byte	.LVL183-1
 10128 0a6e 0100     		.2byte	0x1
 10129 0a70 50       		.byte	0x50
 10130 0a71 61000000 		.4byte	.LVL183-1
 10131 0a75 02010000 		.4byte	.LVL202
 10132 0a79 0100     		.2byte	0x1
 10133 0a7b 5B       		.byte	0x5b
 10134 0a7c FE010000 		.4byte	.LVL210
 10135 0a80 8C020000 		.4byte	.LFE60
 10136 0a84 0100     		.2byte	0x1
 10137 0a86 5B       		.byte	0x5b
 10138 0a87 00000000 		.4byte	0
 10139 0a8b 00000000 		.4byte	0
 10140              	.LLST76:
 10141 0a8f 6A000000 		.4byte	.LVL185
 10142 0a93 6C000000 		.4byte	.LVL186
 10143 0a97 0100     		.2byte	0x1
 10144 0a99 50       		.byte	0x50
 10145 0a9a 6C000000 		.4byte	.LVL186
 10146 0a9e A0000000 		.4byte	.LVL190
 10147 0aa2 0100     		.2byte	0x1
 10148 0aa4 56       		.byte	0x56
 10149 0aa5 00000000 		.4byte	0
 10150 0aa9 00000000 		.4byte	0
 10151              	.LLST77:
 10152 0aad 9C000000 		.4byte	.LVL189
 10153 0ab1 A0000000 		.4byte	.LVL190
 10154 0ab5 0500     		.2byte	0x5
 10155 0ab7 58       		.byte	0x58
 10156 0ab8 93       		.byte	0x93
 10157 0ab9 02       		.uleb128 0x2
 10158 0aba 93       		.byte	0x93
 10159 0abb 02       		.uleb128 0x2
 10160 0abc A0000000 		.4byte	.LVL190
 10161 0ac0 BA000000 		.4byte	.LVL192
 10162 0ac4 0600     		.2byte	0x6
 10163 0ac6 58       		.byte	0x58
 10164 0ac7 93       		.byte	0x93
 10165 0ac8 02       		.uleb128 0x2
 10166 0ac9 56       		.byte	0x56
 10167 0aca 93       		.byte	0x93
 10168 0acb 02       		.uleb128 0x2
 10169 0acc BA000000 		.4byte	.LVL192
 10170 0ad0 C0000000 		.4byte	.LVL193
 10171 0ad4 0600     		.2byte	0x6
 10172 0ad6 58       		.byte	0x58
 10173 0ad7 93       		.byte	0x93
 10174 0ad8 02       		.uleb128 0x2
 10175 0ad9 56       		.byte	0x56
 10176 0ada 93       		.byte	0x93
 10177 0adb 02       		.uleb128 0x2
 10178 0adc C0000000 		.4byte	.LVL193
ARM GAS  C:\Users\pearlstl\AppData\Local\Temp\ccIMJlIA.s 			page 201


 10179 0ae0 C8000000 		.4byte	.LVL195
 10180 0ae4 1300     		.2byte	0x13
 10181 0ae6 58       		.byte	0x58
 10182 0ae7 93       		.byte	0x93
 10183 0ae8 02       		.uleb128 0x2
 10184 0ae9 76       		.byte	0x76
 10185 0aea 00       		.sleb128 0
 10186 0aeb 40       		.byte	0x40
 10187 0aec 24       		.byte	0x24
 10188 0aed 40       		.byte	0x40
 10189 0aee 26       		.byte	0x26
 10190 0aef 70       		.byte	0x70
 10191 0af0 00       		.sleb128 0
 10192 0af1 40       		.byte	0x40
 10193 0af2 24       		.byte	0x24
 10194 0af3 40       		.byte	0x40
 10195 0af4 26       		.byte	0x26
 10196 0af5 1B       		.byte	0x1b
 10197 0af6 9F       		.byte	0x9f
 10198 0af7 93       		.byte	0x93
 10199 0af8 02       		.uleb128 0x2
 10200 0af9 C8000000 		.4byte	.LVL195
 10201 0afd CC000000 		.4byte	.LVL196
 10202 0b01 0500     		.2byte	0x5
 10203 0b03 58       		.byte	0x58
 10204 0b04 93       		.byte	0x93
 10205 0b05 02       		.uleb128 0x2
 10206 0b06 93       		.byte	0x93
 10207 0b07 02       		.uleb128 0x2
 10208 0b08 FE010000 		.4byte	.LVL210
 10209 0b0c 12020000 		.4byte	.LVL212
 10210 0b10 0600     		.2byte	0x6
 10211 0b12 58       		.byte	0x58
 10212 0b13 93       		.byte	0x93
 10213 0b14 02       		.uleb128 0x2
 10214 0b15 56       		.byte	0x56
 10215 0b16 93       		.byte	0x93
 10216 0b17 02       		.uleb128 0x2
 10217 0b18 12020000 		.4byte	.LVL212
 10218 0b1c 34020000 		.4byte	.LVL216
 10219 0b20 0600     		.2byte	0x6
 10220 0b22 58       		.byte	0x58
 10221 0b23 93       		.byte	0x93
 10222 0b24 02       		.uleb128 0x2
 10223 0b25 59       		.byte	0x59
 10224 0b26 93       		.byte	0x93
 10225 0b27 02       		.uleb128 0x2
 10226 0b28 34020000 		.4byte	.LVL216
 10227 0b2c 72020000 		.4byte	.LVL222
 10228 0b30 0600     		.2byte	0x6
 10229 0b32 58       		.byte	0x58
 10230 0b33 93       		.byte	0x93
 10231 0b34 02       		.uleb128 0x2
 10232 0b35 56       		.byte	0x56
 10233 0b36 93       		.byte	0x93
 10234 0b37 02       		.uleb128 0x2
 10235 0b38 72020000 		.4byte	.LVL222
ARM GAS  C:\Users\pearlstl\AppData\Local\Temp\ccIMJlIA.s 			page 202


 10236 0b3c 74020000 		.4byte	.LVL223
 10237 0b40 0600     		.2byte	0x6
 10238 0b42 58       		.byte	0x58
 10239 0b43 93       		.byte	0x93
 10240 0b44 02       		.uleb128 0x2
 10241 0b45 56       		.byte	0x56
 10242 0b46 93       		.byte	0x93
 10243 0b47 02       		.uleb128 0x2
 10244 0b48 80020000 		.4byte	.LVL227
 10245 0b4c 86020000 		.4byte	.LVL229
 10246 0b50 0600     		.2byte	0x6
 10247 0b52 58       		.byte	0x58
 10248 0b53 93       		.byte	0x93
 10249 0b54 02       		.uleb128 0x2
 10250 0b55 56       		.byte	0x56
 10251 0b56 93       		.byte	0x93
 10252 0b57 02       		.uleb128 0x2
 10253 0b58 86020000 		.4byte	.LVL229
 10254 0b5c 8C020000 		.4byte	.LFE60
 10255 0b60 0600     		.2byte	0x6
 10256 0b62 58       		.byte	0x58
 10257 0b63 93       		.byte	0x93
 10258 0b64 02       		.uleb128 0x2
 10259 0b65 59       		.byte	0x59
 10260 0b66 93       		.byte	0x93
 10261 0b67 02       		.uleb128 0x2
 10262 0b68 00000000 		.4byte	0
 10263 0b6c 00000000 		.4byte	0
 10264              	.LLST78:
 10265 0b70 D4000000 		.4byte	.LVL197
 10266 0b74 E4000000 		.4byte	.LVL199
 10267 0b78 0100     		.2byte	0x1
 10268 0b7a 56       		.byte	0x56
 10269 0b7b 7A020000 		.4byte	.LVL225
 10270 0b7f 7E020000 		.4byte	.LVL226
 10271 0b83 0100     		.2byte	0x1
 10272 0b85 56       		.byte	0x56
 10273 0b86 00000000 		.4byte	0
 10274 0b8a 00000000 		.4byte	0
 10275              	.LLST79:
 10276 0b8e DA000000 		.4byte	.LVL198
 10277 0b92 F0000000 		.4byte	.LVL200
 10278 0b96 0100     		.2byte	0x1
 10279 0b98 50       		.byte	0x50
 10280 0b99 74020000 		.4byte	.LVL223
 10281 0b9d 78020000 		.4byte	.LVL224
 10282 0ba1 0100     		.2byte	0x1
 10283 0ba3 50       		.byte	0x50
 10284 0ba4 7A020000 		.4byte	.LVL225
 10285 0ba8 80020000 		.4byte	.LVL227
 10286 0bac 0100     		.2byte	0x1
 10287 0bae 50       		.byte	0x50
 10288 0baf 00000000 		.4byte	0
 10289 0bb3 00000000 		.4byte	0
 10290              	.LLST80:
 10291 0bb7 06020000 		.4byte	.LVL211
 10292 0bbb 12020000 		.4byte	.LVL212
ARM GAS  C:\Users\pearlstl\AppData\Local\Temp\ccIMJlIA.s 			page 203


 10293 0bbf 0200     		.2byte	0x2
 10294 0bc1 30       		.byte	0x30
 10295 0bc2 9F       		.byte	0x9f
 10296 0bc3 12020000 		.4byte	.LVL212
 10297 0bc7 1A020000 		.4byte	.LVL213
 10298 0bcb 0100     		.2byte	0x1
 10299 0bcd 51       		.byte	0x51
 10300 0bce 2A020000 		.4byte	.LVL214
 10301 0bd2 2E020000 		.4byte	.LVL215
 10302 0bd6 0100     		.2byte	0x1
 10303 0bd8 51       		.byte	0x51
 10304 0bd9 84020000 		.4byte	.LVL228
 10305 0bdd 8C020000 		.4byte	.LFE60
 10306 0be1 0200     		.2byte	0x2
 10307 0be3 30       		.byte	0x30
 10308 0be4 9F       		.byte	0x9f
 10309 0be5 00000000 		.4byte	0
 10310 0be9 00000000 		.4byte	0
 10311              	.LLST81:
 10312 0bed 3E020000 		.4byte	.LVL217
 10313 0bf1 4A020000 		.4byte	.LVL218
 10314 0bf5 0200     		.2byte	0x2
 10315 0bf7 30       		.byte	0x30
 10316 0bf8 9F       		.byte	0x9f
 10317 0bf9 4A020000 		.4byte	.LVL218
 10318 0bfd 56020000 		.4byte	.LVL219
 10319 0c01 0100     		.2byte	0x1
 10320 0c03 50       		.byte	0x50
 10321 0c04 66020000 		.4byte	.LVL220
 10322 0c08 6A020000 		.4byte	.LVL221
 10323 0c0c 0100     		.2byte	0x1
 10324 0c0e 50       		.byte	0x50
 10325 0c0f 80020000 		.4byte	.LVL227
 10326 0c13 84020000 		.4byte	.LVL228
 10327 0c17 0200     		.2byte	0x2
 10328 0c19 30       		.byte	0x30
 10329 0c1a 9F       		.byte	0x9f
 10330 0c1b 00000000 		.4byte	0
 10331 0c1f 00000000 		.4byte	0
 10332              	.LLST82:
 10333 0c23 08010000 		.4byte	.LVL204
 10334 0c27 0A010000 		.4byte	.LVL205
 10335 0c2b 0100     		.2byte	0x1
 10336 0c2d 50       		.byte	0x50
 10337 0c2e 0A010000 		.4byte	.LVL205
 10338 0c32 1D010000 		.4byte	.LVL207-1
 10339 0c36 0100     		.2byte	0x1
 10340 0c38 52       		.byte	0x52
 10341 0c39 00000000 		.4byte	0
 10342 0c3d 00000000 		.4byte	0
 10343              	.LLST83:
 10344 0c41 1A010000 		.4byte	.LVL206
 10345 0c45 1D010000 		.4byte	.LVL207-1
 10346 0c49 0100     		.2byte	0x1
 10347 0c4b 50       		.byte	0x50
 10348 0c4c 1D010000 		.4byte	.LVL207-1
 10349 0c50 60010000 		.4byte	.LVL209
ARM GAS  C:\Users\pearlstl\AppData\Local\Temp\ccIMJlIA.s 			page 204


 10350 0c54 0100     		.2byte	0x1
 10351 0c56 55       		.byte	0x55
 10352 0c57 00000000 		.4byte	0
 10353 0c5b 00000000 		.4byte	0
 10354              	.LLST84:
 10355 0c5f 1E010000 		.4byte	.LVL207
 10356 0c63 FE010000 		.4byte	.LVL210
 10357 0c67 0100     		.2byte	0x1
 10358 0c69 50       		.byte	0x50
 10359 0c6a 00000000 		.4byte	0
 10360 0c6e 00000000 		.4byte	0
 10361              	.LLST85:
 10362 0c72 40010000 		.4byte	.LVL208
 10363 0c76 60010000 		.4byte	.LVL209
 10364 0c7a 0200     		.2byte	0x2
 10365 0c7c 30       		.byte	0x30
 10366 0c7d 9F       		.byte	0x9f
 10367 0c7e 00000000 		.4byte	0
 10368 0c82 00000000 		.4byte	0
 10369              	.LLST86:
 10370 0c86 00000000 		.4byte	.LVL230
 10371 0c8a 09000000 		.4byte	.LVL232-1
 10372 0c8e 0100     		.2byte	0x1
 10373 0c90 50       		.byte	0x50
 10374 0c91 09000000 		.4byte	.LVL232-1
 10375 0c95 0A000000 		.4byte	.LFE56
 10376 0c99 0400     		.2byte	0x4
 10377 0c9b F3       		.byte	0xf3
 10378 0c9c 01       		.uleb128 0x1
 10379 0c9d 50       		.byte	0x50
 10380 0c9e 9F       		.byte	0x9f
 10381 0c9f 00000000 		.4byte	0
 10382 0ca3 00000000 		.4byte	0
 10383              	.LLST87:
 10384 0ca7 00000000 		.4byte	.LVL230
 10385 0cab 06000000 		.4byte	.LVL231
 10386 0caf 0100     		.2byte	0x1
 10387 0cb1 51       		.byte	0x51
 10388 0cb2 06000000 		.4byte	.LVL231
 10389 0cb6 0A000000 		.4byte	.LFE56
 10390 0cba 0400     		.2byte	0x4
 10391 0cbc F3       		.byte	0xf3
 10392 0cbd 01       		.uleb128 0x1
 10393 0cbe 51       		.byte	0x51
 10394 0cbf 9F       		.byte	0x9f
 10395 0cc0 00000000 		.4byte	0
 10396 0cc4 00000000 		.4byte	0
 10397              	.LLST88:
 10398 0cc8 00000000 		.4byte	.LVL230
 10399 0ccc 09000000 		.4byte	.LVL232-1
 10400 0cd0 0100     		.2byte	0x1
 10401 0cd2 52       		.byte	0x52
 10402 0cd3 09000000 		.4byte	.LVL232-1
 10403 0cd7 0A000000 		.4byte	.LFE56
 10404 0cdb 0400     		.2byte	0x4
 10405 0cdd F3       		.byte	0xf3
 10406 0cde 01       		.uleb128 0x1
ARM GAS  C:\Users\pearlstl\AppData\Local\Temp\ccIMJlIA.s 			page 205


 10407 0cdf 52       		.byte	0x52
 10408 0ce0 9F       		.byte	0x9f
 10409 0ce1 00000000 		.4byte	0
 10410 0ce5 00000000 		.4byte	0
 10411              	.LLST89:
 10412 0ce9 00000000 		.4byte	.LVL233
 10413 0ced 05000000 		.4byte	.LVL234-1
 10414 0cf1 0100     		.2byte	0x1
 10415 0cf3 50       		.byte	0x50
 10416 0cf4 05000000 		.4byte	.LVL234-1
 10417 0cf8 06000000 		.4byte	.LVL234
 10418 0cfc 0400     		.2byte	0x4
 10419 0cfe F3       		.byte	0xf3
 10420 0cff 01       		.uleb128 0x1
 10421 0d00 50       		.byte	0x50
 10422 0d01 9F       		.byte	0x9f
 10423 0d02 06000000 		.4byte	.LVL234
 10424 0d06 08000000 		.4byte	.LVL235
 10425 0d0a 0100     		.2byte	0x1
 10426 0d0c 50       		.byte	0x50
 10427 0d0d 08000000 		.4byte	.LVL235
 10428 0d11 0A000000 		.4byte	.LFE57
 10429 0d15 0400     		.2byte	0x4
 10430 0d17 F3       		.byte	0xf3
 10431 0d18 01       		.uleb128 0x1
 10432 0d19 50       		.byte	0x50
 10433 0d1a 9F       		.byte	0x9f
 10434 0d1b 00000000 		.4byte	0
 10435 0d1f 00000000 		.4byte	0
 10436              	.LLST90:
 10437 0d23 00000000 		.4byte	.LVL233
 10438 0d27 05000000 		.4byte	.LVL234-1
 10439 0d2b 0100     		.2byte	0x1
 10440 0d2d 51       		.byte	0x51
 10441 0d2e 05000000 		.4byte	.LVL234-1
 10442 0d32 06000000 		.4byte	.LVL234
 10443 0d36 0400     		.2byte	0x4
 10444 0d38 F3       		.byte	0xf3
 10445 0d39 01       		.uleb128 0x1
 10446 0d3a 51       		.byte	0x51
 10447 0d3b 9F       		.byte	0x9f
 10448 0d3c 06000000 		.4byte	.LVL234
 10449 0d40 0A000000 		.4byte	.LFE57
 10450 0d44 0100     		.2byte	0x1
 10451 0d46 51       		.byte	0x51
 10452 0d47 00000000 		.4byte	0
 10453 0d4b 00000000 		.4byte	0
 10454              		.section	.debug_aranges,"",%progbits
 10455 0000 5C000000 		.4byte	0x5c
 10456 0004 0200     		.2byte	0x2
 10457 0006 00000000 		.4byte	.Ldebug_info0
 10458 000a 04       		.byte	0x4
 10459 000b 00       		.byte	0
 10460 000c 0000     		.2byte	0
 10461 000e 0000     		.2byte	0
 10462 0010 00000000 		.4byte	.LFB59
 10463 0014 E4020000 		.4byte	.LFE59-.LFB59
ARM GAS  C:\Users\pearlstl\AppData\Local\Temp\ccIMJlIA.s 			page 206


 10464 0018 00000000 		.4byte	.LFB58
 10465 001c 2C000000 		.4byte	.LFE58-.LFB58
 10466 0020 00000000 		.4byte	.LFB52
 10467 0024 78010000 		.4byte	.LFE52-.LFB52
 10468 0028 00000000 		.4byte	.LFB53
 10469 002c AE000000 		.4byte	.LFE53-.LFB53
 10470 0030 00000000 		.4byte	.LFB54
 10471 0034 CE000000 		.4byte	.LFE54-.LFB54
 10472 0038 00000000 		.4byte	.LFB55
 10473 003c 0C010000 		.4byte	.LFE55-.LFB55
 10474 0040 00000000 		.4byte	.LFB60
 10475 0044 8C020000 		.4byte	.LFE60-.LFB60
 10476 0048 00000000 		.4byte	.LFB56
 10477 004c 0A000000 		.4byte	.LFE56-.LFB56
 10478 0050 00000000 		.4byte	.LFB57
 10479 0054 0A000000 		.4byte	.LFE57-.LFB57
 10480 0058 00000000 		.4byte	0
 10481 005c 00000000 		.4byte	0
 10482              		.section	.debug_ranges,"",%progbits
 10483              	.Ldebug_ranges0:
 10484 0000 28000000 		.4byte	.LBB10
 10485 0004 2C000000 		.4byte	.LBE10
 10486 0008 2E000000 		.4byte	.LBB13
 10487 000c 30000000 		.4byte	.LBE13
 10488 0010 00000000 		.4byte	0
 10489 0014 00000000 		.4byte	0
 10490 0018 32000000 		.4byte	.LBB14
 10491 001c 34000000 		.4byte	.LBE14
 10492 0020 48000000 		.4byte	.LBB17
 10493 0024 E4020000 		.4byte	.LBE17
 10494 0028 00000000 		.4byte	0
 10495 002c 00000000 		.4byte	0
 10496 0030 32000000 		.4byte	.LBB15
 10497 0034 34000000 		.4byte	.LBE15
 10498 0038 52000000 		.4byte	.LBB16
 10499 003c E4020000 		.4byte	.LBE16
 10500 0040 00000000 		.4byte	0
 10501 0044 00000000 		.4byte	0
 10502 0048 16000000 		.4byte	.LBB20
 10503 004c 1A000000 		.4byte	.LBE20
 10504 0050 1E000000 		.4byte	.LBB23
 10505 0054 2C000000 		.4byte	.LBE23
 10506 0058 00000000 		.4byte	0
 10507 005c 00000000 		.4byte	0
 10508 0060 8E000000 		.4byte	.LBB31
 10509 0064 0A010000 		.4byte	.LBE31
 10510 0068 3A010000 		.4byte	.LBB38
 10511 006c 78010000 		.4byte	.LBE38
 10512 0070 00000000 		.4byte	0
 10513 0074 00000000 		.4byte	0
 10514 0078 C0000000 		.4byte	.LBB34
 10515 007c C2000000 		.4byte	.LBE34
 10516 0080 C8000000 		.4byte	.LBB37
 10517 0084 D4000000 		.4byte	.LBE37
 10518 0088 00000000 		.4byte	0
 10519 008c 00000000 		.4byte	0
 10520 0090 24000000 		.4byte	.LBB42
ARM GAS  C:\Users\pearlstl\AppData\Local\Temp\ccIMJlIA.s 			page 207


 10521 0094 26000000 		.4byte	.LBE42
 10522 0098 2E000000 		.4byte	.LBB45
 10523 009c A4000000 		.4byte	.LBE45
 10524 00a0 00000000 		.4byte	0
 10525 00a4 00000000 		.4byte	0
 10526 00a8 48000000 		.4byte	.LBB49
 10527 00ac 4A000000 		.4byte	.LBE49
 10528 00b0 52000000 		.4byte	.LBB52
 10529 00b4 CE000000 		.4byte	.LBE52
 10530 00b8 00000000 		.4byte	0
 10531 00bc 00000000 		.4byte	0
 10532 00c0 20000000 		.4byte	.LBB62
 10533 00c4 00010000 		.4byte	.LBE62
 10534 00c8 FE010000 		.4byte	.LBB76
 10535 00cc 8C020000 		.4byte	.LBE76
 10536 00d0 00000000 		.4byte	0
 10537 00d4 00000000 		.4byte	0
 10538 00d8 4E000000 		.4byte	.LBB63
 10539 00dc 00010000 		.4byte	.LBE63
 10540 00e0 FE010000 		.4byte	.LBB70
 10541 00e4 8C020000 		.4byte	.LBE70
 10542 00e8 00000000 		.4byte	0
 10543 00ec 00000000 		.4byte	0
 10544 00f0 FE010000 		.4byte	.LBB65
 10545 00f4 36020000 		.4byte	.LBE65
 10546 00f8 84020000 		.4byte	.LBB68
 10547 00fc 8C020000 		.4byte	.LBE68
 10548 0100 00000000 		.4byte	0
 10549 0104 00000000 		.4byte	0
 10550 0108 36020000 		.4byte	.LBB66
 10551 010c 74020000 		.4byte	.LBE66
 10552 0110 80020000 		.4byte	.LBB67
 10553 0114 84020000 		.4byte	.LBE67
 10554 0118 00000000 		.4byte	0
 10555 011c 00000000 		.4byte	0
 10556 0120 08010000 		.4byte	.LBB72
 10557 0124 0A010000 		.4byte	.LBE72
 10558 0128 1A010000 		.4byte	.LBB75
 10559 012c FE010000 		.4byte	.LBE75
 10560 0130 00000000 		.4byte	0
 10561 0134 00000000 		.4byte	0
 10562 0138 00000000 		.4byte	.LFB59
 10563 013c E4020000 		.4byte	.LFE59
 10564 0140 00000000 		.4byte	.LFB58
 10565 0144 2C000000 		.4byte	.LFE58
 10566 0148 00000000 		.4byte	.LFB52
 10567 014c 78010000 		.4byte	.LFE52
 10568 0150 00000000 		.4byte	.LFB53
 10569 0154 AE000000 		.4byte	.LFE53
 10570 0158 00000000 		.4byte	.LFB54
 10571 015c CE000000 		.4byte	.LFE54
 10572 0160 00000000 		.4byte	.LFB55
 10573 0164 0C010000 		.4byte	.LFE55
 10574 0168 00000000 		.4byte	.LFB60
 10575 016c 8C020000 		.4byte	.LFE60
 10576 0170 00000000 		.4byte	.LFB56
 10577 0174 0A000000 		.4byte	.LFE56
ARM GAS  C:\Users\pearlstl\AppData\Local\Temp\ccIMJlIA.s 			page 208


 10578 0178 00000000 		.4byte	.LFB57
 10579 017c 0A000000 		.4byte	.LFE57
 10580 0180 00000000 		.4byte	0
 10581 0184 00000000 		.4byte	0
 10582              		.section	.debug_line,"",%progbits
 10583              	.Ldebug_line0:
 10584 0000 93070000 		.section	.debug_str,"MS",%progbits,1
 10584      02007304 
 10584      00000201 
 10584      FB0E0D00 
 10584      01010101 
 10585              	.LASF15:
 10586 0000 696E7438 		.ascii	"int8_t\000"
 10586      5F7400
 10587              	.LASF131:
 10588 0007 636F6C6F 		.ascii	"color_chroma_key\000"
 10588      725F6368 
 10588      726F6D61 
 10588      5F6B6579 
 10588      00
 10589              	.LASF100:
 10590 0018 6C765F6C 		.ascii	"lv_ll_node_t\000"
 10590      6C5F6E6F 
 10590      64655F74 
 10590      00
 10591              	.LASF23:
 10592 0025 6164765F 		.ascii	"adv_w\000"
 10592      7700
 10593              	.LASF326:
 10594 002b 68656164 		.ascii	"header_pr\000"
 10594      65725F70 
 10594      7200
 10595              	.LASF42:
 10596 0035 73697A65 		.ascii	"sizetype\000"
 10596      74797065 
 10596      00
 10597              	.LASF56:
 10598 003e 73746172 		.ascii	"start\000"
 10598      7400
 10599              	.LASF39:
 10600 0044 6C765F63 		.ascii	"lv_color32_t\000"
 10600      6F6C6F72 
 10600      33325F74 
 10600      00
 10601              	.LASF333:
 10602 0051 63656C6C 		.ascii	"cell\000"
 10602      00
 10603              	.LASF47:
 10604 0056 4C565F41 		.ascii	"LV_ANIM_ON\000"
 10604      4E494D5F 
 10604      4F4E00
 10605              	.LASF312:
 10606 0061 4C565F54 		.ascii	"LV_TILEVIEW_STYLE_MAIN\000"
 10606      494C4556 
 10606      4945575F 
 10606      5354594C 
 10606      455F4D41 
ARM GAS  C:\Users\pearlstl\AppData\Local\Temp\ccIMJlIA.s 			page 209


 10607              	.LASF103:
 10608 0078 7461696C 		.ascii	"tail\000"
 10608      00
 10609              	.LASF239:
 10610 007d 4C565F53 		.ascii	"LV_SIGNAL_STYLE_CHG\000"
 10610      49474E41 
 10610      4C5F5354 
 10610      594C455F 
 10610      43484700 
 10611              	.LASF137:
 10612 0091 6163745F 		.ascii	"act_scr\000"
 10612      73637200 
 10613              	.LASF63:
 10614 0099 72657065 		.ascii	"repeat\000"
 10614      617400
 10615              	.LASF41:
 10616 00a0 6C765F6F 		.ascii	"lv_opa_t\000"
 10616      70615F74 
 10616      00
 10617              	.LASF19:
 10618 00a9 696E7433 		.ascii	"int32_t\000"
 10618      325F7400 
 10619              	.LASF89:
 10620 00b1 696E7465 		.ascii	"intense\000"
 10620      6E736500 
 10621              	.LASF300:
 10622 00b9 4C565F50 		.ascii	"LV_PAGE_STYLE_EDGE_FLASH\000"
 10622      4147455F 
 10622      5354594C 
 10622      455F4544 
 10622      47455F46 
 10623              	.LASF228:
 10624 00d2 4C565F45 		.ascii	"LV_EVENT_INSERT\000"
 10624      56454E54 
 10624      5F494E53 
 10624      45525400 
 10625              	.LASF44:
 10626 00e2 6C765F70 		.ascii	"lv_point_t\000"
 10626      6F696E74 
 10626      5F7400
 10627              	.LASF340:
 10628 00ed 6C6D6574 		.ascii	"lmeter\000"
 10628      657200
 10629              	.LASF247:
 10630 00f4 4C565F53 		.ascii	"LV_SIGNAL_LONG_PRESS\000"
 10630      49474E41 
 10630      4C5F4C4F 
 10630      4E475F50 
 10630      52455353 
 10631              	.LASF81:
 10632 0109 72616469 		.ascii	"radius\000"
 10632      757300
 10633              	.LASF264:
 10634 0110 6C765F72 		.ascii	"lv_reailgn_t\000"
 10634      6561696C 
 10634      676E5F74 
 10634      00
ARM GAS  C:\Users\pearlstl\AppData\Local\Temp\ccIMJlIA.s 			page 210


 10635              	.LASF31:
 10636 011d 6C696E65 		.ascii	"line_height\000"
 10636      5F686569 
 10636      67687400 
 10637              	.LASF54:
 10638 0129 70617468 		.ascii	"path_cb\000"
 10638      5F636200 
 10639              	.LASF152:
 10640 0131 636C6963 		.ascii	"click\000"
 10640      6B00
 10641              	.LASF257:
 10642 0137 6C765F61 		.ascii	"lv_align_t\000"
 10642      6C69676E 
 10642      5F7400
 10643              	.LASF249:
 10644 0142 4C565F53 		.ascii	"LV_SIGNAL_DRAG_BEGIN\000"
 10644      49474E41 
 10644      4C5F4452 
 10644      41475F42 
 10644      4547494E 
 10645              	.LASF328:
 10646 0157 68696768 		.ascii	"highlighted_days\000"
 10646      6C696768 
 10646      7465645F 
 10646      64617973 
 10646      00
 10647              	.LASF412:
 10648 0168 6C765F6F 		.ascii	"lv_obj_set_signal_cb\000"
 10648      626A5F73 
 10648      65745F73 
 10648      69676E61 
 10648      6C5F6362 
 10649              	.LASF355:
 10650 017d 7369676E 		.ascii	"sign\000"
 10650      00
 10651              	.LASF233:
 10652 0182 6C765F65 		.ascii	"lv_event_t\000"
 10652      76656E74 
 10652      5F7400
 10653              	.LASF365:
 10654 018d 74696C65 		.ascii	"tile_id\000"
 10654      5F696400 
 10655              	.LASF171:
 10656 0195 73746174 		.ascii	"state\000"
 10656      6500
 10657              	.LASF290:
 10658 019b 6C656674 		.ascii	"left_ip\000"
 10658      5F697000 
 10659              	.LASF375:
 10660 01a3 7365745F 		.ascii	"set_valid_drag_dirs\000"
 10660      76616C69 
 10660      645F6472 
 10660      61675F64 
 10660      69727300 
 10661              	.LASF97:
 10662 01b7 4C565F52 		.ascii	"LV_RES_INV\000"
 10662      45535F49 
ARM GAS  C:\Users\pearlstl\AppData\Local\Temp\ccIMJlIA.s 			page 211


 10662      4E5600
 10663              	.LASF404:
 10664 01c2 6C765F6F 		.ascii	"lv_obj_set_drag_throw\000"
 10664      626A5F73 
 10664      65745F64 
 10664      7261675F 
 10664      7468726F 
 10665              	.LASF243:
 10666 01d8 4C565F53 		.ascii	"LV_SIGNAL_PRESSED\000"
 10666      49474E41 
 10666      4C5F5052 
 10666      45535345 
 10666      4400
 10667              	.LASF391:
 10668 01ea 6C765F6F 		.ascii	"lv_obj_get_width\000"
 10668      626A5F67 
 10668      65745F77 
 10668      69647468 
 10668      00
 10669              	.LASF74:
 10670 01fb 74797065 		.ascii	"type\000"
 10670      00
 10671              	.LASF217:
 10672 0200 4C565F45 		.ascii	"LV_EVENT_LONG_PRESSED\000"
 10672      56454E54 
 10672      5F4C4F4E 
 10672      475F5052 
 10672      45535345 
 10673              	.LASF378:
 10674 0216 785F6D6F 		.ascii	"x_move\000"
 10674      766500
 10675              	.LASF267:
 10676 021d 4C565F46 		.ascii	"LV_FIT_NONE\000"
 10676      49545F4E 
 10676      4F4E4500 
 10677              	.LASF379:
 10678 0229 795F6D6F 		.ascii	"y_move\000"
 10678      766500
 10679              	.LASF284:
 10680 0230 7665725F 		.ascii	"ver_draw\000"
 10680      64726177 
 10680      00
 10681              	.LASF318:
 10682 0239 6C696768 		.ascii	"light\000"
 10682      7400
 10683              	.LASF173:
 10684 023f 5F6C765F 		.ascii	"_lv_indev_drv_t\000"
 10684      696E6465 
 10684      765F6472 
 10684      765F7400 
 10685              	.LASF336:
 10686 024f 636F6E74 		.ascii	"cont\000"
 10686      00
 10687              	.LASF367:
 10688 0254 785F636F 		.ascii	"x_coord\000"
 10688      6F726400 
 10689              	.LASF423:
ARM GAS  C:\Users\pearlstl\AppData\Local\Temp\ccIMJlIA.s 			page 212


 10690 025c 474E5520 		.ascii	"GNU C11 5.4.1 20160609 (release) [ARM/embedded-5-br"
 10690      43313120 
 10690      352E342E 
 10690      31203230 
 10690      31363036 
 10691 028f 616E6368 		.ascii	"anch revision 237715] -mcpu=cortex-m4 -mfloat-abi=s"
 10691      20726576 
 10691      6973696F 
 10691      6E203233 
 10691      37373135 
 10692 02c2 6F667466 		.ascii	"oftfp -mfpu=fpv4-sp-d16 -mthumb -g -O3 -ffunction-s"
 10692      70202D6D 
 10692      6670753D 
 10692      66707634 
 10692      2D73702D 
 10693 02f5 65637469 		.ascii	"ections -ffat-lto-objects\000"
 10693      6F6E7320 
 10693      2D666661 
 10693      742D6C74 
 10693      6F2D6F62 
 10694              	.LASF316:
 10695 030f 7072696D 		.ascii	"prim\000"
 10695      00
 10696              	.LASF112:
 10697 0314 7072696F 		.ascii	"prio\000"
 10697      00
 10698              	.LASF136:
 10699 0319 7363725F 		.ascii	"scr_ll\000"
 10699      6C6C00
 10700              	.LASF303:
 10701 0320 76616C69 		.ascii	"valid_pos_cnt\000"
 10701      645F706F 
 10701      735F636E 
 10701      7400
 10702              	.LASF168:
 10703 032e 706F696E 		.ascii	"point\000"
 10703      7400
 10704              	.LASF1:
 10705 0334 5F5F7569 		.ascii	"__uint8_t\000"
 10705      6E74385F 
 10705      7400
 10706              	.LASF37:
 10707 033e 616C7068 		.ascii	"alpha\000"
 10707      6100
 10708              	.LASF124:
 10709 0344 7665725F 		.ascii	"ver_res\000"
 10709      72657300 
 10710              	.LASF382:
 10711 034c 6C765F74 		.ascii	"lv_tileview_set_style\000"
 10711      696C6576 
 10711      6965775F 
 10711      7365745F 
 10711      7374796C 
 10712              	.LASF205:
 10713 0362 5F6C765F 		.ascii	"_lv_indev_t\000"
 10713      696E6465 
 10713      765F7400 
ARM GAS  C:\Users\pearlstl\AppData\Local\Temp\ccIMJlIA.s 			page 213


 10714              	.LASF416:
 10715 036e 6C765F65 		.ascii	"lv_event_send\000"
 10715      76656E74 
 10715      5F73656E 
 10715      6400
 10716              	.LASF369:
 10717 037c 785F6163 		.ascii	"x_act\000"
 10717      7400
 10718              	.LASF156:
 10719 0382 68696464 		.ascii	"hidden\000"
 10719      656E00
 10720              	.LASF60:
 10721 0389 72657065 		.ascii	"repeat_pause\000"
 10721      61745F70 
 10721      61757365 
 10721      00
 10722              	.LASF143:
 10723 0396 6C617374 		.ascii	"last_activity_time\000"
 10723      5F616374 
 10723      69766974 
 10723      795F7469 
 10723      6D6500
 10724              	.LASF9:
 10725 03a9 6C6F6E67 		.ascii	"long int\000"
 10725      20696E74 
 10725      00
 10726              	.LASF135:
 10727 03b2 72656672 		.ascii	"refr_task\000"
 10727      5F746173 
 10727      6B00
 10728              	.LASF126:
 10729 03bc 726F7461 		.ascii	"rotated\000"
 10729      74656400 
 10730              	.LASF192:
 10731 03c4 6C617374 		.ascii	"last_state\000"
 10731      5F737461 
 10731      746500
 10732              	.LASF368:
 10733 03cf 795F636F 		.ascii	"y_coord\000"
 10733      6F726400 
 10734              	.LASF352:
 10735 03d7 74696C65 		.ascii	"tileview\000"
 10735      76696577 
 10735      00
 10736              	.LASF361:
 10737 03e0 636F7079 		.ascii	"copy\000"
 10737      00
 10738              	.LASF102:
 10739 03e5 68656164 		.ascii	"head\000"
 10739      00
 10740              	.LASF174:
 10741 03ea 72656164 		.ascii	"read_cb\000"
 10741      5F636200 
 10742              	.LASF420:
 10743 03f2 6C765F69 		.ascii	"lv_indev_get_point\000"
 10743      6E646576 
 10743      5F676574 
ARM GAS  C:\Users\pearlstl\AppData\Local\Temp\ccIMJlIA.s 			page 214


 10743      5F706F69 
 10743      6E7400
 10744              	.LASF343:
 10745 0405 63686172 		.ascii	"chart\000"
 10745      7400
 10746              	.LASF189:
 10747 040b 6C617374 		.ascii	"last_pressed\000"
 10747      5F707265 
 10747      73736564 
 10747      00
 10748              	.LASF345:
 10749 0418 62746E6D 		.ascii	"btnm\000"
 10749      00
 10750              	.LASF294:
 10751 041d 7363726F 		.ascii	"scroll_prop\000"
 10751      6C6C5F70 
 10751      726F7000 
 10752              	.LASF380:
 10753 0429 70726564 		.ascii	"predict\000"
 10753      69637400 
 10754              	.LASF129:
 10755 0431 7365745F 		.ascii	"set_px_cb\000"
 10755      70785F63 
 10755      6200
 10756              	.LASF2:
 10757 043b 7369676E 		.ascii	"signed char\000"
 10757      65642063 
 10757      68617200 
 10758              	.LASF16:
 10759 0447 75696E74 		.ascii	"uint8_t\000"
 10759      385F7400 
 10760              	.LASF123:
 10761 044f 686F725F 		.ascii	"hor_res\000"
 10761      72657300 
 10762              	.LASF306:
 10763 0457 64726167 		.ascii	"drag_bottom_en\000"
 10763      5F626F74 
 10763      746F6D5F 
 10763      656E00
 10764              	.LASF315:
 10765 0466 74676C5F 		.ascii	"tgl_pr\000"
 10765      707200
 10766              	.LASF46:
 10767 046d 4C565F41 		.ascii	"LV_ANIM_OFF\000"
 10767      4E494D5F 
 10767      4F464600 
 10768              	.LASF276:
 10769 0479 6669745F 		.ascii	"fit_top\000"
 10769      746F7000 
 10770              	.LASF30:
 10771 0481 6765745F 		.ascii	"get_glyph_bitmap\000"
 10771      676C7970 
 10771      685F6269 
 10771      746D6170 
 10771      00
 10772              	.LASF291:
 10773 0492 7363726C 		.ascii	"scrl\000"
ARM GAS  C:\Users\pearlstl\AppData\Local\Temp\ccIMJlIA.s 			page 215


 10773      00
 10774              	.LASF35:
 10775 0497 626C7565 		.ascii	"blue\000"
 10775      00
 10776              	.LASF248:
 10777 049c 4C565F53 		.ascii	"LV_SIGNAL_LONG_PRESS_REP\000"
 10777      49474E41 
 10777      4C5F4C4F 
 10777      4E475F50 
 10777      52455353 
 10778              	.LASF394:
 10779 04b5 6C765F70 		.ascii	"lv_page_start_edge_flash\000"
 10779      6167655F 
 10779      73746172 
 10779      745F6564 
 10779      67655F66 
 10780              	.LASF311:
 10781 04ce 6C765F74 		.ascii	"lv_tileview_ext_t\000"
 10781      696C6576 
 10781      6965775F 
 10781      6578745F 
 10781      7400
 10782              	.LASF3:
 10783 04e0 756E7369 		.ascii	"unsigned char\000"
 10783      676E6564 
 10783      20636861 
 10783      7200
 10784              	.LASF138:
 10785 04ee 746F705F 		.ascii	"top_layer\000"
 10785      6C617965 
 10785      7200
 10786              	.LASF406:
 10787 04f8 6C765F74 		.ascii	"lv_theme_get_current\000"
 10787      68656D65 
 10787      5F676574 
 10787      5F637572 
 10787      72656E74 
 10788              	.LASF386:
 10789 050d 6C765F6F 		.ascii	"lv_obj_get_style\000"
 10789      626A5F67 
 10789      65745F73 
 10789      74796C65 
 10789      00
 10790              	.LASF241:
 10791 051e 4C565F53 		.ascii	"LV_SIGNAL_REFR_EXT_DRAW_PAD\000"
 10791      49474E41 
 10791      4C5F5245 
 10791      46525F45 
 10791      58545F44 
 10792              	.LASF159:
 10793 053a 64726167 		.ascii	"drag_dir\000"
 10793      5F646972 
 10793      00
 10794              	.LASF309:
 10795 0543 64726167 		.ascii	"drag_hor\000"
 10795      5F686F72 
 10795      00
ARM GAS  C:\Users\pearlstl\AppData\Local\Temp\ccIMJlIA.s 			page 216


 10796              	.LASF110:
 10797 054c 7461736B 		.ascii	"task_cb\000"
 10797      5F636200 
 10798              	.LASF358:
 10799 0554 6C765F70 		.ascii	"lv_page_set_scrl_fit\000"
 10799      6167655F 
 10799      7365745F 
 10799      7363726C 
 10799      5F666974 
 10800              	.LASF324:
 10801 0569 6B6E6F62 		.ascii	"knob_on\000"
 10801      5F6F6E00 
 10802              	.LASF26:
 10803 0571 6F66735F 		.ascii	"ofs_x\000"
 10803      7800
 10804              	.LASF27:
 10805 0577 6F66735F 		.ascii	"ofs_y\000"
 10805      7900
 10806              	.LASF325:
 10807 057d 68656164 		.ascii	"header\000"
 10807      657200
 10808              	.LASF411:
 10809 0584 6C765F6F 		.ascii	"lv_obj_allocate_ext_attr\000"
 10809      626A5F61 
 10809      6C6C6F63 
 10809      6174655F 
 10809      6578745F 
 10810              	.LASF33:
 10811 059d 5F426F6F 		.ascii	"_Bool\000"
 10811      6C00
 10812              	.LASF256:
 10813 05a3 6C765F73 		.ascii	"lv_signal_cb_t\000"
 10813      69676E61 
 10813      6C5F6362 
 10813      5F7400
 10814              	.LASF353:
 10815 05b2 7461626C 		.ascii	"table\000"
 10815      6500
 10816              	.LASF141:
 10817 05b8 696E765F 		.ascii	"inv_area_joined\000"
 10817      61726561 
 10817      5F6A6F69 
 10817      6E656400 
 10818              	.LASF296:
 10819 05c8 6C765F70 		.ascii	"lv_page_ext_t\000"
 10819      6167655F 
 10819      6578745F 
 10819      7400
 10820              	.LASF43:
 10821 05d6 63686172 		.ascii	"char\000"
 10821      00
 10822              	.LASF169:
 10823 05db 62746E5F 		.ascii	"btn_id\000"
 10823      696400
 10824              	.LASF50:
 10825 05e2 6C765F61 		.ascii	"lv_anim_exec_xcb_t\000"
 10825      6E696D5F 
ARM GAS  C:\Users\pearlstl\AppData\Local\Temp\ccIMJlIA.s 			page 217


 10825      65786563 
 10825      5F786362 
 10825      5F7400
 10826              	.LASF92:
 10827 05f5 626F6479 		.ascii	"body\000"
 10827      00
 10828              	.LASF293:
 10829 05fa 616E696D 		.ascii	"anim_time\000"
 10829      5F74696D 
 10829      6500
 10830              	.LASF186:
 10831 0604 64726167 		.ascii	"drag_throw_vect\000"
 10831      5F746872 
 10831      6F775F76 
 10831      65637400 
 10832              	.LASF107:
 10833 0614 5F6C765F 		.ascii	"_lv_task_t\000"
 10833      7461736B 
 10833      5F7400
 10834              	.LASF6:
 10835 061f 5F5F7569 		.ascii	"__uint16_t\000"
 10835      6E743136 
 10835      5F7400
 10836              	.LASF330:
 10837 062a 7765656B 		.ascii	"week_box\000"
 10837      5F626F78 
 10837      00
 10838              	.LASF387:
 10839 0633 6C765F6F 		.ascii	"lv_obj_get_ext_attr\000"
 10839      626A5F67 
 10839      65745F65 
 10839      78745F61 
 10839      74747200 
 10840              	.LASF409:
 10841 0647 6C765F64 		.ascii	"lv_disp_get_ver_res\000"
 10841      6973705F 
 10841      6765745F 
 10841      7665725F 
 10841      72657300 
 10842              	.LASF49:
 10843 065b 6C765F61 		.ascii	"lv_anim_value_t\000"
 10843      6E696D5F 
 10843      76616C75 
 10843      655F7400 
 10844              	.LASF206:
 10845 066b 70726F63 		.ascii	"proc\000"
 10845      00
 10846              	.LASF408:
 10847 0670 6C765F64 		.ascii	"lv_disp_get_hor_res\000"
 10847      6973705F 
 10847      6765745F 
 10847      686F725F 
 10847      72657300 
 10848              	.LASF149:
 10849 0684 64657369 		.ascii	"design_cb\000"
 10849      676E5F63 
 10849      6200
ARM GAS  C:\Users\pearlstl\AppData\Local\Temp\ccIMJlIA.s 			page 218


 10850              	.LASF120:
 10851 068e 666C7573 		.ascii	"flushing\000"
 10851      68696E67 
 10851      00
 10852              	.LASF384:
 10853 0697 616E6365 		.ascii	"ancestor_scrl_signal\000"
 10853      73746F72 
 10853      5F736372 
 10853      6C5F7369 
 10853      676E616C 
 10854              	.LASF252:
 10855 06ac 4C565F53 		.ascii	"LV_SIGNAL_DEFOCUS\000"
 10855      49474E41 
 10855      4C5F4445 
 10855      464F4355 
 10855      5300
 10856              	.LASF225:
 10857 06be 4C565F45 		.ascii	"LV_EVENT_FOCUSED\000"
 10857      56454E54 
 10857      5F464F43 
 10857      55534544 
 10857      00
 10858              	.LASF349:
 10859 06cf 64646C69 		.ascii	"ddlist\000"
 10859      737400
 10860              	.LASF55:
 10861 06d6 72656164 		.ascii	"ready_cb\000"
 10861      795F6362 
 10861      00
 10862              	.LASF93:
 10863 06df 74657874 		.ascii	"text\000"
 10863      00
 10864              	.LASF399:
 10865 06e4 6C765F63 		.ascii	"lv_cont_set_fit4\000"
 10865      6F6E745F 
 10865      7365745F 
 10865      66697434 
 10865      00
 10866              	.LASF194:
 10867 06f5 706F696E 		.ascii	"pointer\000"
 10867      74657200 
 10868              	.LASF407:
 10869 06fd 6C765F70 		.ascii	"lv_page_set_style\000"
 10869      6167655F 
 10869      7365745F 
 10869      7374796C 
 10869      6500
 10870              	.LASF221:
 10871 070f 4C565F45 		.ascii	"LV_EVENT_DRAG_BEGIN\000"
 10871      56454E54 
 10871      5F445241 
 10871      475F4245 
 10871      47494E00 
 10872              	.LASF94:
 10873 0723 696D6167 		.ascii	"image\000"
 10873      6500
 10874              	.LASF90:
ARM GAS  C:\Users\pearlstl\AppData\Local\Temp\ccIMJlIA.s 			page 219


 10875 0729 726F756E 		.ascii	"rounded\000"
 10875      64656400 
 10876              	.LASF154:
 10877 0731 64726167 		.ascii	"drag_throw\000"
 10877      5F746872 
 10877      6F7700
 10878              	.LASF395:
 10879 073c 6C765F69 		.ascii	"lv_indev_get_act\000"
 10879      6E646576 
 10879      5F676574 
 10879      5F616374 
 10879      00
 10880              	.LASF405:
 10881 074d 6C765F6F 		.ascii	"lv_obj_set_event_cb\000"
 10881      626A5F73 
 10881      65745F65 
 10881      76656E74 
 10881      5F636200 
 10882              	.LASF167:
 10883 0761 6C765F69 		.ascii	"lv_indev_state_t\000"
 10883      6E646576 
 10883      5F737461 
 10883      74655F74 
 10883      00
 10884              	.LASF105:
 10885 0772 6C765F62 		.ascii	"lv_bidi_dir_t\000"
 10885      6964695F 
 10885      6469725F 
 10885      7400
 10886              	.LASF164:
 10887 0780 6578745F 		.ascii	"ext_draw_pad\000"
 10887      64726177 
 10887      5F706164 
 10887      00
 10888              	.LASF180:
 10889 078d 6C6F6E67 		.ascii	"long_press_rep_time\000"
 10889      5F707265 
 10889      73735F72 
 10889      65705F74 
 10889      696D6500 
 10890              	.LASF45:
 10891 07a1 6C765F61 		.ascii	"lv_area_t\000"
 10891      7265615F 
 10891      7400
 10892              	.LASF125:
 10893 07ab 62756666 		.ascii	"buffer\000"
 10893      657200
 10894              	.LASF299:
 10895 07b2 4C565F50 		.ascii	"LV_PAGE_STYLE_SB\000"
 10895      4147455F 
 10895      5354594C 
 10895      455F5342 
 10895      00
 10896              	.LASF219:
 10897 07c3 4C565F45 		.ascii	"LV_EVENT_CLICKED\000"
 10897      56454E54 
 10897      5F434C49 
ARM GAS  C:\Users\pearlstl\AppData\Local\Temp\ccIMJlIA.s 			page 220


 10897      434B4544 
 10897      00
 10898              	.LASF283:
 10899 07d4 686F725F 		.ascii	"hor_draw\000"
 10899      64726177 
 10899      00
 10900              	.LASF377:
 10901 07dd 706F696E 		.ascii	"point_act\000"
 10901      745F6163 
 10901      7400
 10902              	.LASF76:
 10903 07e7 6C656674 		.ascii	"left\000"
 10903      00
 10904              	.LASF354:
 10905 07ec 6C765F74 		.ascii	"lv_theme_t\000"
 10905      68656D65 
 10905      5F7400
 10906              	.LASF67:
 10907 07f7 6C765F61 		.ascii	"lv_anim_ready_cb_t\000"
 10907      6E696D5F 
 10907      72656164 
 10907      795F6362 
 10907      5F7400
 10908              	.LASF230:
 10909 080a 4C565F45 		.ascii	"LV_EVENT_APPLY\000"
 10909      56454E54 
 10909      5F415050 
 10909      4C5900
 10910              	.LASF165:
 10911 0819 7265616C 		.ascii	"realign\000"
 10911      69676E00 
 10912              	.LASF223:
 10913 0821 4C565F45 		.ascii	"LV_EVENT_DRAG_THROW_BEGIN\000"
 10913      56454E54 
 10913      5F445241 
 10913      475F5448 
 10913      524F575F 
 10914              	.LASF210:
 10915 083b 6C765F69 		.ascii	"lv_indev_t\000"
 10915      6E646576 
 10915      5F7400
 10916              	.LASF209:
 10917 0846 62746E5F 		.ascii	"btn_points\000"
 10917      706F696E 
 10917      747300
 10918              	.LASF242:
 10919 0851 4C565F53 		.ascii	"LV_SIGNAL_GET_TYPE\000"
 10919      49474E41 
 10919      4C5F4745 
 10919      545F5459 
 10919      504500
 10920              	.LASF203:
 10921 0864 77616974 		.ascii	"wait_until_release\000"
 10921      5F756E74 
 10921      696C5F72 
 10921      656C6561 
 10921      736500
ARM GAS  C:\Users\pearlstl\AppData\Local\Temp\ccIMJlIA.s 			page 221


 10922              	.LASF119:
 10923 0877 61726561 		.ascii	"area\000"
 10923      00
 10924              	.LASF295:
 10925 087c 7363726F 		.ascii	"scroll_prop_ip\000"
 10925      6C6C5F70 
 10925      726F705F 
 10925      697000
 10926              	.LASF193:
 10927 088b 6C617374 		.ascii	"last_key\000"
 10927      5F6B6579 
 10927      00
 10928              	.LASF286:
 10929 0894 656E6162 		.ascii	"enabled\000"
 10929      6C656400 
 10930              	.LASF96:
 10931 089c 6C765F73 		.ascii	"lv_style_t\000"
 10931      74796C65 
 10931      5F7400
 10932              	.LASF78:
 10933 08a7 696E6E65 		.ascii	"inner\000"
 10933      7200
 10934              	.LASF415:
 10935 08ad 6C765F6F 		.ascii	"lv_obj_set_pos\000"
 10935      626A5F73 
 10935      65745F70 
 10935      6F7300
 10936              	.LASF202:
 10937 08bc 64697361 		.ascii	"disabled\000"
 10937      626C6564 
 10937      00
 10938              	.LASF421:
 10939 08c5 6C765F69 		.ascii	"lv_indev_is_dragging\000"
 10939      6E646576 
 10939      5F69735F 
 10939      64726167 
 10939      67696E67 
 10940              	.LASF68:
 10941 08da 6C765F61 		.ascii	"lv_anim_t\000"
 10941      6E696D5F 
 10941      7400
 10942              	.LASF269:
 10943 08e4 4C565F46 		.ascii	"LV_FIT_FLOOD\000"
 10943      49545F46 
 10943      4C4F4F44 
 10943      00
 10944              	.LASF11:
 10945 08f1 6C6F6E67 		.ascii	"long unsigned int\000"
 10945      20756E73 
 10945      69676E65 
 10945      6420696E 
 10945      7400
 10946              	.LASF372:
 10947 0903 6C765F74 		.ascii	"lv_tileview_add_element\000"
 10947      696C6576 
 10947      6965775F 
 10947      6164645F 
ARM GAS  C:\Users\pearlstl\AppData\Local\Temp\ccIMJlIA.s 			page 222


 10947      656C656D 
 10948              	.LASF317:
 10949 091b 68696E74 		.ascii	"hint\000"
 10949      00
 10950              	.LASF356:
 10951 0920 70617261 		.ascii	"param\000"
 10951      6D00
 10952              	.LASF431:
 10953 0926 74696C65 		.ascii	"tileview_scrl_event_cb\000"
 10953      76696577 
 10953      5F736372 
 10953      6C5F6576 
 10953      656E745F 
 10954              	.LASF95:
 10955 093d 6C696E65 		.ascii	"line\000"
 10955      00
 10956              	.LASF251:
 10957 0942 4C565F53 		.ascii	"LV_SIGNAL_FOCUS\000"
 10957      49474E41 
 10957      4C5F464F 
 10957      43555300 
 10958              	.LASF339:
 10959 0952 736C6964 		.ascii	"slider\000"
 10959      657200
 10960              	.LASF229:
 10961 0959 4C565F45 		.ascii	"LV_EVENT_REFRESH\000"
 10961      56454E54 
 10961      5F524546 
 10961      52455348 
 10961      00
 10962              	.LASF48:
 10963 096a 6C765F61 		.ascii	"lv_anim_enable_t\000"
 10963      6E696D5F 
 10963      656E6162 
 10963      6C655F74 
 10963      00
 10964              	.LASF122:
 10965 097b 5F646973 		.ascii	"_disp_drv_t\000"
 10965      705F6472 
 10965      765F7400 
 10966              	.LASF208:
 10967 0987 67726F75 		.ascii	"group\000"
 10967      7000
 10968              	.LASF182:
 10969 098d 6163745F 		.ascii	"act_point\000"
 10969      706F696E 
 10969      7400
 10970              	.LASF188:
 10971 0997 6C617374 		.ascii	"last_obj\000"
 10971      5F6F626A 
 10971      00
 10972              	.LASF166:
 10973 09a0 6C765F69 		.ascii	"lv_indev_type_t\000"
 10973      6E646576 
 10973      5F747970 
 10973      655F7400 
 10974              	.LASF254:
ARM GAS  C:\Users\pearlstl\AppData\Local\Temp\ccIMJlIA.s 			page 223


 10975 09b0 4C565F53 		.ascii	"LV_SIGNAL_GET_EDITABLE\000"
 10975      49474E41 
 10975      4C5F4745 
 10975      545F4544 
 10975      49544142 
 10976              	.LASF427:
 10977 09c7 6C765F74 		.ascii	"lv_tileview_get_style\000"
 10977      696C6576 
 10977      6965775F 
 10977      6765745F 
 10977      7374796C 
 10978              	.LASF332:
 10979 09dd 6F6E656C 		.ascii	"oneline\000"
 10979      696E6500 
 10980              	.LASF121:
 10981 09e5 6C765F64 		.ascii	"lv_disp_buf_t\000"
 10981      6973705F 
 10981      6275665F 
 10981      7400
 10982              	.LASF373:
 10983 09f3 6C765F74 		.ascii	"lv_tileview_set_valid_positions\000"
 10983      696C6576 
 10983      6965775F 
 10983      7365745F 
 10983      76616C69 
 10984              	.LASF10:
 10985 0a13 5F5F7569 		.ascii	"__uint32_t\000"
 10985      6E743332 
 10985      5F7400
 10986              	.LASF147:
 10987 0a1e 6576656E 		.ascii	"event_cb\000"
 10987      745F6362 
 10987      00
 10988              	.LASF307:
 10989 0a27 64726167 		.ascii	"drag_left_en\000"
 10989      5F6C6566 
 10989      745F656E 
 10989      00
 10990              	.LASF77:
 10991 0a34 72696768 		.ascii	"right\000"
 10991      7400
 10992              	.LASF151:
 10993 0a3a 7374796C 		.ascii	"style_p\000"
 10993      655F7000 
 10994              	.LASF12:
 10995 0a42 6C6F6E67 		.ascii	"long long int\000"
 10995      206C6F6E 
 10995      6720696E 
 10995      7400
 10996              	.LASF72:
 10997 0a50 77696474 		.ascii	"width\000"
 10997      6800
 10998              	.LASF253:
 10999 0a56 4C565F53 		.ascii	"LV_SIGNAL_CONTROL\000"
 10999      49474E41 
 10999      4C5F434F 
 10999      4E54524F 
ARM GAS  C:\Users\pearlstl\AppData\Local\Temp\ccIMJlIA.s 			page 224


 10999      4C00
 11000              	.LASF75:
 11001 0a68 626F7474 		.ascii	"bottom\000"
 11001      6F6D00
 11002              	.LASF145:
 11003 0a6f 6368696C 		.ascii	"child_ll\000"
 11003      645F6C6C 
 11003      00
 11004              	.LASF321:
 11005 0a78 696E6469 		.ascii	"indic\000"
 11005      6300
 11006              	.LASF162:
 11007 0a7e 70726F74 		.ascii	"protect\000"
 11007      65637400 
 11008              	.LASF115:
 11009 0a86 62756631 		.ascii	"buf1\000"
 11009      00
 11010              	.LASF116:
 11011 0a8b 62756632 		.ascii	"buf2\000"
 11011      00
 11012              	.LASF183:
 11013 0a90 6C617374 		.ascii	"last_point\000"
 11013      5F706F69 
 11013      6E7400
 11014              	.LASF418:
 11015 0a9b 6C765F61 		.ascii	"lv_anim_create\000"
 11015      6E696D5F 
 11015      63726561 
 11015      746500
 11016              	.LASF187:
 11017 0aaa 6163745F 		.ascii	"act_obj\000"
 11017      6F626A00 
 11018              	.LASF376:
 11019 0ab2 64726167 		.ascii	"drag_end_handler\000"
 11019      5F656E64 
 11019      5F68616E 
 11019      646C6572 
 11019      00
 11020              	.LASF273:
 11021 0ac3 6C61796F 		.ascii	"layout\000"
 11021      757400
 11022              	.LASF351:
 11023 0aca 74616276 		.ascii	"tabview\000"
 11023      69657700 
 11024              	.LASF158:
 11025 0ad2 70617265 		.ascii	"parent_event\000"
 11025      6E745F65 
 11025      76656E74 
 11025      00
 11026              	.LASF235:
 11027 0adf 4C565F53 		.ascii	"LV_SIGNAL_CLEANUP\000"
 11027      49474E41 
 11027      4C5F434C 
 11027      45414E55 
 11027      5000
 11028              	.LASF261:
 11029 0af1 616C6967 		.ascii	"align\000"
ARM GAS  C:\Users\pearlstl\AppData\Local\Temp\ccIMJlIA.s 			page 225


 11029      6E00
 11030              	.LASF374:
 11031 0af7 6C765F74 		.ascii	"lv_tileview_signal\000"
 11031      696C6576 
 11031      6965775F 
 11031      7369676E 
 11031      616C00
 11032              	.LASF91:
 11033 0b0a 676C6173 		.ascii	"glass\000"
 11033      7300
 11034              	.LASF381:
 11035 0b10 6576656E 		.ascii	"event\000"
 11035      7400
 11036              	.LASF232:
 11037 0b16 4C565F45 		.ascii	"LV_EVENT_DELETE\000"
 11037      56454E54 
 11037      5F44454C 
 11037      45544500 
 11038              	.LASF278:
 11039 0b26 6C765F63 		.ascii	"lv_cont_ext_t\000"
 11039      6F6E745F 
 11039      6578745F 
 11039      7400
 11040              	.LASF14:
 11041 0b34 756E7369 		.ascii	"unsigned int\000"
 11041      676E6564 
 11041      20696E74 
 11041      00
 11042              	.LASF236:
 11043 0b41 4C565F53 		.ascii	"LV_SIGNAL_CHILD_CHG\000"
 11043      49474E41 
 11043      4C5F4348 
 11043      494C445F 
 11043      43484700 
 11044              	.LASF66:
 11045 0b55 6C765F61 		.ascii	"lv_anim_path_cb_t\000"
 11045      6E696D5F 
 11045      70617468 
 11045      5F63625F 
 11045      7400
 11046              	.LASF402:
 11047 0b67 6C765F6F 		.ascii	"lv_obj_get_height_fit\000"
 11047      626A5F67 
 11047      65745F68 
 11047      65696768 
 11047      745F6669 
 11048              	.LASF176:
 11049 0b7d 64697370 		.ascii	"disp\000"
 11049      00
 11050              	.LASF398:
 11051 0b82 6C765F6F 		.ascii	"lv_obj_refresh_style\000"
 11051      626A5F72 
 11051      65667265 
 11051      73685F73 
 11051      74796C65 
 11052              	.LASF346:
 11053 0b97 6D626F78 		.ascii	"mbox\000"
ARM GAS  C:\Users\pearlstl\AppData\Local\Temp\ccIMJlIA.s 			page 226


 11053      00
 11054              	.LASF170:
 11055 0b9c 656E635F 		.ascii	"enc_diff\000"
 11055      64696666 
 11055      00
 11056              	.LASF314:
 11057 0ba5 74676C5F 		.ascii	"tgl_rel\000"
 11057      72656C00 
 11058              	.LASF359:
 11059 0bad 7374796C 		.ascii	"style_bg\000"
 11059      655F6267 
 11059      00
 11060              	.LASF227:
 11061 0bb6 4C565F45 		.ascii	"LV_EVENT_VALUE_CHANGED\000"
 11061      56454E54 
 11061      5F56414C 
 11061      55455F43 
 11061      48414E47 
 11062              	.LASF140:
 11063 0bcd 696E765F 		.ascii	"inv_areas\000"
 11063      61726561 
 11063      7300
 11064              	.LASF262:
 11065 0bd7 6175746F 		.ascii	"auto_realign\000"
 11065      5F726561 
 11065      6C69676E 
 11065      00
 11066              	.LASF113:
 11067 0be4 6F6E6365 		.ascii	"once\000"
 11067      00
 11068              	.LASF357:
 11069 0be9 6C765F63 		.ascii	"lv_cont_set_fit\000"
 11069      6F6E745F 
 11069      7365745F 
 11069      66697400 
 11070              	.LASF28:
 11071 0bf9 6C765F66 		.ascii	"lv_font_glyph_dsc_t\000"
 11071      6F6E745F 
 11071      676C7970 
 11071      685F6473 
 11071      635F7400 
 11072              	.LASF348:
 11073 0c0d 6C697374 		.ascii	"list\000"
 11073      00
 11074              	.LASF80:
 11075 0c12 67726164 		.ascii	"grad_color\000"
 11075      5F636F6C 
 11075      6F7200
 11076              	.LASF274:
 11077 0c1d 6669745F 		.ascii	"fit_left\000"
 11077      6C656674 
 11077      00
 11078              	.LASF214:
 11079 0c26 4C565F45 		.ascii	"LV_EVENT_PRESSING\000"
 11079      56454E54 
 11079      5F505245 
 11079      5353494E 
ARM GAS  C:\Users\pearlstl\AppData\Local\Temp\ccIMJlIA.s 			page 227


 11079      4700
 11080              	.LASF301:
 11081 0c38 70616765 		.ascii	"page\000"
 11081      00
 11082              	.LASF133:
 11083 0c3d 5F646973 		.ascii	"_disp_t\000"
 11083      705F7400 
 11084              	.LASF323:
 11085 0c45 6B6E6F62 		.ascii	"knob_off\000"
 11085      5F6F6666 
 11085      00
 11086              	.LASF341:
 11087 0c4e 67617567 		.ascii	"gauge\000"
 11087      6500
 11088              	.LASF244:
 11089 0c54 4C565F53 		.ascii	"LV_SIGNAL_PRESSING\000"
 11089      49474E41 
 11089      4C5F5052 
 11089      45535349 
 11089      4E4700
 11090              	.LASF216:
 11091 0c67 4C565F45 		.ascii	"LV_EVENT_SHORT_CLICKED\000"
 11091      56454E54 
 11091      5F53484F 
 11091      52545F43 
 11091      4C49434B 
 11092              	.LASF218:
 11093 0c7e 4C565F45 		.ascii	"LV_EVENT_LONG_PRESSED_REPEAT\000"
 11093      56454E54 
 11093      5F4C4F4E 
 11093      475F5052 
 11093      45535345 
 11094              	.LASF99:
 11095 0c9b 6C765F72 		.ascii	"lv_res_t\000"
 11095      65735F74 
 11095      00
 11096              	.LASF388:
 11097 0ca4 6C765F6F 		.ascii	"lv_obj_get_x\000"
 11097      626A5F67 
 11097      65745F78 
 11097      00
 11098              	.LASF389:
 11099 0cb1 6C765F6F 		.ascii	"lv_obj_get_y\000"
 11099      626A5F67 
 11099      65745F79 
 11099      00
 11100              	.LASF117:
 11101 0cbe 6275665F 		.ascii	"buf_act\000"
 11101      61637400 
 11102              	.LASF410:
 11103 0cc6 6C765F70 		.ascii	"lv_page_create\000"
 11103      6167655F 
 11103      63726561 
 11103      746500
 11104              	.LASF22:
 11105 0cd5 6C6F6E67 		.ascii	"long double\000"
 11105      20646F75 
ARM GAS  C:\Users\pearlstl\AppData\Local\Temp\ccIMJlIA.s 			page 228


 11105      626C6500 
 11106              	.LASF118:
 11107 0ce1 73697A65 		.ascii	"size\000"
 11107      00
 11108              	.LASF280:
 11109 0ce6 7374796C 		.ascii	"style\000"
 11109      6500
 11110              	.LASF184:
 11111 0cec 76656374 		.ascii	"vect\000"
 11111      00
 11112              	.LASF150:
 11113 0cf1 6578745F 		.ascii	"ext_attr\000"
 11113      61747472 
 11113      00
 11114              	.LASF185:
 11115 0cfa 64726167 		.ascii	"drag_sum\000"
 11115      5F73756D 
 11115      00
 11116              	.LASF344:
 11117 0d03 63616C65 		.ascii	"calendar\000"
 11117      6E646172 
 11117      00
 11118              	.LASF198:
 11119 0d0c 70725F74 		.ascii	"pr_timestamp\000"
 11119      696D6573 
 11119      74616D70 
 11119      00
 11120              	.LASF211:
 11121 0d19 6C765F64 		.ascii	"lv_design_mode_t\000"
 11121      65736967 
 11121      6E5F6D6F 
 11121      64655F74 
 11121      00
 11122              	.LASF61:
 11123 0d2a 73756270 		.ascii	"subpx\000"
 11123      7800
 11124              	.LASF222:
 11125 0d30 4C565F45 		.ascii	"LV_EVENT_DRAG_END\000"
 11125      56454E54 
 11125      5F445241 
 11125      475F454E 
 11125      4400
 11126              	.LASF177:
 11127 0d42 72656164 		.ascii	"read_task\000"
 11127      5F746173 
 11127      6B00
 11128              	.LASF245:
 11129 0d4c 4C565F53 		.ascii	"LV_SIGNAL_PRESS_LOST\000"
 11129      49474E41 
 11129      4C5F5052 
 11129      4553535F 
 11129      4C4F5354 
 11130              	.LASF175:
 11131 0d61 66656564 		.ascii	"feedback_cb\000"
 11131      6261636B 
 11131      5F636200 
 11132              	.LASF429:
ARM GAS  C:\Users\pearlstl\AppData\Local\Temp\ccIMJlIA.s 			page 229


 11133 0d6d 6C765F74 		.ascii	"lv_tileview_create\000"
 11133      696C6576 
 11133      6965775F 
 11133      63726561 
 11133      746500
 11134              	.LASF250:
 11135 0d80 4C565F53 		.ascii	"LV_SIGNAL_DRAG_END\000"
 11135      49474E41 
 11135      4C5F4452 
 11135      41475F45 
 11135      4E4400
 11136              	.LASF213:
 11137 0d93 4C565F45 		.ascii	"LV_EVENT_PRESSED\000"
 11137      56454E54 
 11137      5F505245 
 11137      53534544 
 11137      00
 11138              	.LASF238:
 11139 0da4 4C565F53 		.ascii	"LV_SIGNAL_PARENT_SIZE_CHG\000"
 11139      49474E41 
 11139      4C5F5041 
 11139      52454E54 
 11139      5F53495A 
 11140              	.LASF231:
 11141 0dbe 4C565F45 		.ascii	"LV_EVENT_CANCEL\000"
 11141      56454E54 
 11141      5F43414E 
 11141      43454C00 
 11142              	.LASF371:
 11143 0dce 656C656D 		.ascii	"element\000"
 11143      656E7400 
 11144              	.LASF246:
 11145 0dd6 4C565F53 		.ascii	"LV_SIGNAL_RELEASED\000"
 11145      49474E41 
 11145      4C5F5245 
 11145      4C454153 
 11145      454400
 11146              	.LASF79:
 11147 0de9 6D61696E 		.ascii	"main_color\000"
 11147      5F636F6C 
 11147      6F7200
 11148              	.LASF419:
 11149 0df4 6C765F69 		.ascii	"lv_indev_get_vect\000"
 11149      6E646576 
 11149      5F676574 
 11149      5F766563 
 11149      7400
 11150              	.LASF0:
 11151 0e06 5F5F696E 		.ascii	"__int8_t\000"
 11151      74385F74 
 11151      00
 11152              	.LASF196:
 11153 0e0f 5F6C765F 		.ascii	"_lv_indev_proc_t\000"
 11153      696E6465 
 11153      765F7072 
 11153      6F635F74 
 11153      00
ARM GAS  C:\Users\pearlstl\AppData\Local\Temp\ccIMJlIA.s 			page 230


 11154              	.LASF414:
 11155 0e20 6C765F6F 		.ascii	"lv_obj_get_design_cb\000"
 11155      626A5F67 
 11155      65745F64 
 11155      65736967 
 11155      6E5F6362 
 11156              	.LASF255:
 11157 0e35 6C765F73 		.ascii	"lv_signal_t\000"
 11157      69676E61 
 11157      6C5F7400 
 11158              	.LASF65:
 11159 0e41 6861735F 		.ascii	"has_run\000"
 11159      72756E00 
 11160              	.LASF179:
 11161 0e49 6C6F6E67 		.ascii	"long_press_time\000"
 11161      5F707265 
 11161      73735F74 
 11161      696D6500 
 11162              	.LASF13:
 11163 0e59 6C6F6E67 		.ascii	"long long unsigned int\000"
 11163      206C6F6E 
 11163      6720756E 
 11163      7369676E 
 11163      65642069 
 11164              	.LASF18:
 11165 0e70 75696E74 		.ascii	"uint16_t\000"
 11165      31365F74 
 11165      00
 11166              	.LASF98:
 11167 0e79 4C565F52 		.ascii	"LV_RES_OK\000"
 11167      45535F4F 
 11167      4B00
 11168              	.LASF109:
 11169 0e83 6C617374 		.ascii	"last_run\000"
 11169      5F72756E 
 11169      00
 11170              	.LASF282:
 11171 0e8c 7665725F 		.ascii	"ver_area\000"
 11171      61726561 
 11171      00
 11172              	.LASF329:
 11173 0e95 696E6163 		.ascii	"inactive_days\000"
 11173      74697665 
 11173      5F646179 
 11173      7300
 11174              	.LASF40:
 11175 0ea3 6C765F63 		.ascii	"lv_color_t\000"
 11175      6F6C6F72 
 11175      5F7400
 11176              	.LASF383:
 11177 0eae 616E6365 		.ascii	"ancestor_signal\000"
 11177      73746F72 
 11177      5F736967 
 11177      6E616C00 
 11178              	.LASF260:
 11179 0ebe 796F6673 		.ascii	"yofs\000"
 11179      00
ARM GAS  C:\Users\pearlstl\AppData\Local\Temp\ccIMJlIA.s 			page 231


 11180              	.LASF201:
 11181 0ec3 72657365 		.ascii	"reset_query\000"
 11181      745F7175 
 11181      65727900 
 11182              	.LASF114:
 11183 0ecf 6C765F74 		.ascii	"lv_task_t\000"
 11183      61736B5F 
 11183      7400
 11184              	.LASF272:
 11185 0ed9 6C765F66 		.ascii	"lv_fit_t\000"
 11185      69745F74 
 11185      00
 11186              	.LASF364:
 11187 0ee2 616E696D 		.ascii	"anim\000"
 11187      00
 11188              	.LASF385:
 11189 0ee7 616E6365 		.ascii	"ancestor_design\000"
 11189      73746F72 
 11189      5F646573 
 11189      69676E00 
 11190              	.LASF53:
 11191 0ef7 65786563 		.ascii	"exec_cb\000"
 11191      5F636200 
 11192              	.LASF310:
 11193 0eff 64726167 		.ascii	"drag_ver\000"
 11193      5F766572 
 11193      00
 11194              	.LASF277:
 11195 0f08 6669745F 		.ascii	"fit_bottom\000"
 11195      626F7474 
 11195      6F6D00
 11196              	.LASF298:
 11197 0f13 4C565F50 		.ascii	"LV_PAGE_STYLE_SCRL\000"
 11197      4147455F 
 11197      5354594C 
 11197      455F5343 
 11197      524C00
 11198              	.LASF108:
 11199 0f26 70657269 		.ascii	"period\000"
 11199      6F6400
 11200              	.LASF128:
 11201 0f2d 726F756E 		.ascii	"rounder_cb\000"
 11201      6465725F 
 11201      636200
 11202              	.LASF320:
 11203 0f38 6465636F 		.ascii	"decor\000"
 11203      7200
 11204              	.LASF337:
 11205 0f3e 696D6762 		.ascii	"imgbtn\000"
 11205      746E00
 11206              	.LASF4:
 11207 0f45 5F5F696E 		.ascii	"__int16_t\000"
 11207      7431365F 
 11207      7400
 11208              	.LASF199:
 11209 0f4f 6C6F6E67 		.ascii	"longpr_rep_timestamp\000"
 11209      70725F72 
ARM GAS  C:\Users\pearlstl\AppData\Local\Temp\ccIMJlIA.s 			page 232


 11209      65705F74 
 11209      696D6573 
 11209      74616D70 
 11210              	.LASF335:
 11211 0f64 70616E65 		.ascii	"panel\000"
 11211      6C00
 11212              	.LASF191:
 11213 0f6a 64726167 		.ascii	"drag_in_prog\000"
 11213      5F696E5F 
 11213      70726F67 
 11213      00
 11214              	.LASF413:
 11215 0f77 6C765F6F 		.ascii	"lv_obj_get_signal_cb\000"
 11215      626A5F67 
 11215      65745F73 
 11215      69676E61 
 11215      6C5F6362 
 11216              	.LASF417:
 11217 0f8c 6C765F6F 		.ascii	"lv_obj_set_drag_parent\000"
 11217      626A5F73 
 11217      65745F64 
 11217      7261675F 
 11217      70617265 
 11218              	.LASF362:
 11219 0fa3 6E65775F 		.ascii	"new_tileview\000"
 11219      74696C65 
 11219      76696577 
 11219      00
 11220              	.LASF331:
 11221 0fb0 746F6461 		.ascii	"today_box\000"
 11221      795F626F 
 11221      7800
 11222              	.LASF390:
 11223 0fba 6C765F6F 		.ascii	"lv_obj_get_height\000"
 11223      626A5F67 
 11223      65745F68 
 11223      65696768 
 11223      7400
 11224              	.LASF38:
 11225 0fcc 66756C6C 		.ascii	"full\000"
 11225      00
 11226              	.LASF287:
 11227 0fd1 746F705F 		.ascii	"top_ip\000"
 11227      697000
 11228              	.LASF71:
 11229 0fd8 636F6C6F 		.ascii	"color\000"
 11229      7200
 11230              	.LASF57:
 11231 0fde 74696D65 		.ascii	"time\000"
 11231      00
 11232              	.LASF190:
 11233 0fe3 64726167 		.ascii	"drag_limit_out\000"
 11233      5F6C696D 
 11233      69745F6F 
 11233      757400
 11234              	.LASF88:
 11235 0ff2 6C696E65 		.ascii	"line_space\000"
ARM GAS  C:\Users\pearlstl\AppData\Local\Temp\ccIMJlIA.s 			page 233


 11235      5F737061 
 11235      636500
 11236              	.LASF259:
 11237 0ffd 786F6673 		.ascii	"xofs\000"
 11237      00
 11238              	.LASF275:
 11239 1002 6669745F 		.ascii	"fit_right\000"
 11239      72696768 
 11239      7400
 11240              	.LASF271:
 11241 100c 5F4C565F 		.ascii	"_LV_FIT_NUM\000"
 11241      4649545F 
 11241      4E554D00 
 11242              	.LASF266:
 11243 1018 6C765F6F 		.ascii	"lv_obj_t\000"
 11243      626A5F74 
 11243      00
 11244              	.LASF70:
 11245 1021 6C765F73 		.ascii	"lv_shadow_type_t\000"
 11245      6861646F 
 11245      775F7479 
 11245      70655F74 
 11245      00
 11246              	.LASF153:
 11247 1032 64726167 		.ascii	"drag\000"
 11247      00
 11248              	.LASF270:
 11249 1037 4C565F46 		.ascii	"LV_FIT_FILL\000"
 11249      49545F46 
 11249      494C4C00 
 11250              	.LASF302:
 11251 1043 76616C69 		.ascii	"valid_pos\000"
 11251      645F706F 
 11251      7300
 11252              	.LASF144:
 11253 104d 5F6C765F 		.ascii	"_lv_obj_t\000"
 11253      6F626A5F 
 11253      7400
 11254              	.LASF86:
 11255 1057 666F6E74 		.ascii	"font\000"
 11255      00
 11256              	.LASF87:
 11257 105c 6C657474 		.ascii	"letter_space\000"
 11257      65725F73 
 11257      70616365 
 11257      00
 11258              	.LASF134:
 11259 1069 64726976 		.ascii	"driver\000"
 11259      657200
 11260              	.LASF160:
 11261 1070 62617365 		.ascii	"base_dir\000"
 11261      5F646972 
 11261      00
 11262              	.LASF289:
 11263 1079 72696768 		.ascii	"right_ip\000"
 11263      745F6970 
 11263      00
ARM GAS  C:\Users\pearlstl\AppData\Local\Temp\ccIMJlIA.s 			page 234


 11264              	.LASF288:
 11265 1082 626F7474 		.ascii	"bottom_ip\000"
 11265      6F6D5F69 
 11265      7000
 11266              	.LASF25:
 11267 108c 626F785F 		.ascii	"box_h\000"
 11267      6800
 11268              	.LASF297:
 11269 1092 4C565F50 		.ascii	"LV_PAGE_STYLE_BG\000"
 11269      4147455F 
 11269      5354594C 
 11269      455F4247 
 11269      00
 11270              	.LASF258:
 11271 10a3 62617365 		.ascii	"base\000"
 11271      00
 11272              	.LASF24:
 11273 10a8 626F785F 		.ascii	"box_w\000"
 11273      7700
 11274              	.LASF5:
 11275 10ae 73686F72 		.ascii	"short int\000"
 11275      7420696E 
 11275      7400
 11276              	.LASF62:
 11277 10b8 706C6179 		.ascii	"playback\000"
 11277      6261636B 
 11277      00
 11278              	.LASF32:
 11279 10c1 62617365 		.ascii	"base_line\000"
 11279      5F6C696E 
 11279      6500
 11280              	.LASF142:
 11281 10cb 696E765F 		.ascii	"inv_p\000"
 11281      7000
 11282              	.LASF104:
 11283 10d1 6C765F6C 		.ascii	"lv_ll_t\000"
 11283      6C5F7400 
 11284              	.LASF285:
 11285 10d9 6D6F6465 		.ascii	"mode\000"
 11285      00
 11286              	.LASF195:
 11287 10de 6B657970 		.ascii	"keypad\000"
 11287      616400
 11288              	.LASF17:
 11289 10e5 696E7431 		.ascii	"int16_t\000"
 11289      365F7400 
 11290              	.LASF425:
 11291 10ed 433A5C55 		.ascii	"C:\\Users\\pearlstl\\Documents\\_Research\\projects"
 11291      73657273 
 11291      5C706561 
 11291      726C7374 
 11291      6C5C446F 
 11292 111b 5C74636F 		.ascii	"\\tcom_engineering\\embed_sw\\tcom_app\\tcom_app_ps"
 11292      6D5F656E 
 11292      67696E65 
 11292      6572696E 
 11292      675C656D 
ARM GAS  C:\Users\pearlstl\AppData\Local\Temp\ccIMJlIA.s 			page 235


 11293 114a 6F63365F 		.ascii	"oc6_lvgl6\\tcom_displ_test_psoc6.cydsn\000"
 11293      6C76676C 
 11293      365C7463 
 11293      6F6D5F64 
 11293      6973706C 
 11294              	.LASF237:
 11295 1170 4C565F53 		.ascii	"LV_SIGNAL_CORD_CHG\000"
 11295      49474E41 
 11295      4C5F434F 
 11295      52445F43 
 11295      484700
 11296              	.LASF432:
 11297 1183 6C765F73 		.ascii	"lv_style_transp_tight\000"
 11297      74796C65 
 11297      5F747261 
 11297      6E73705F 
 11297      74696768 
 11298              	.LASF146:
 11299 1199 636F6F72 		.ascii	"coords\000"
 11299      647300
 11300              	.LASF360:
 11301 11a0 696E6465 		.ascii	"indev\000"
 11301      7600
 11302              	.LASF139:
 11303 11a6 7379735F 		.ascii	"sys_layer\000"
 11303      6C617965 
 11303      7200
 11304              	.LASF347:
 11305 11b0 7370696E 		.ascii	"spinbox\000"
 11305      626F7800 
 11306              	.LASF157:
 11307 11b8 6F70615F 		.ascii	"opa_scale_en\000"
 11307      7363616C 
 11307      655F656E 
 11307      00
 11308              	.LASF327:
 11309 11c5 6461795F 		.ascii	"day_names\000"
 11309      6E616D65 
 11309      7300
 11310              	.LASF397:
 11311 11cf 6C765F6F 		.ascii	"lv_obj_handle_get_type_signal\000"
 11311      626A5F68 
 11311      616E646C 
 11311      655F6765 
 11311      745F7479 
 11312              	.LASF83:
 11313 11ed 73686164 		.ascii	"shadow\000"
 11313      6F7700
 11314              	.LASF204:
 11315 11f4 6C765F69 		.ascii	"lv_indev_proc_t\000"
 11315      6E646576 
 11315      5F70726F 
 11315      635F7400 
 11316              	.LASF226:
 11317 1204 4C565F45 		.ascii	"LV_EVENT_DEFOCUSED\000"
 11317      56454E54 
 11317      5F444546 
ARM GAS  C:\Users\pearlstl\AppData\Local\Temp\ccIMJlIA.s 			page 236


 11317      4F435553 
 11317      454400
 11318              	.LASF401:
 11319 1217 6C765F6F 		.ascii	"lv_obj_get_width_fit\000"
 11319      626A5F67 
 11319      65745F77 
 11319      69647468 
 11319      5F666974 
 11320              	.LASF366:
 11321 122c 76616C69 		.ascii	"valid\000"
 11321      6400
 11322              	.LASF155:
 11323 1232 64726167 		.ascii	"drag_parent\000"
 11323      5F706172 
 11323      656E7400 
 11324              	.LASF313:
 11325 123e 6C765F74 		.ascii	"lv_tileview_style_t\000"
 11325      696C6576 
 11325      6965775F 
 11325      7374796C 
 11325      655F7400 
 11326              	.LASF181:
 11327 1252 6C765F69 		.ascii	"lv_indev_drv_t\000"
 11327      6E646576 
 11327      5F647276 
 11327      5F7400
 11328              	.LASF240:
 11329 1261 4C565F53 		.ascii	"LV_SIGNAL_BASE_DIR_CHG\000"
 11329      49474E41 
 11329      4C5F4241 
 11329      53455F44 
 11329      49525F43 
 11330              	.LASF396:
 11331 1278 6C765F6F 		.ascii	"lv_obj_get_parent\000"
 11331      626A5F67 
 11331      65745F70 
 11331      6172656E 
 11331      7400
 11332              	.LASF58:
 11333 128a 6163745F 		.ascii	"act_time\000"
 11333      74696D65 
 11333      00
 11334              	.LASF178:
 11335 1293 64726167 		.ascii	"drag_limit\000"
 11335      5F6C696D 
 11335      697400
 11336              	.LASF132:
 11337 129e 6C765F64 		.ascii	"lv_disp_drv_t\000"
 11337      6973705F 
 11337      6472765F 
 11337      7400
 11338              	.LASF363:
 11339 12ac 636F7079 		.ascii	"copy_ext\000"
 11339      5F657874 
 11339      00
 11340              	.LASF422:
 11341 12b5 6C765F6F 		.ascii	"lv_obj_set_style\000"
ARM GAS  C:\Users\pearlstl\AppData\Local\Temp\ccIMJlIA.s 			page 237


 11341      626A5F73 
 11341      65745F73 
 11341      74796C65 
 11341      00
 11342              	.LASF334:
 11343 12c6 636F6E74 		.ascii	"content\000"
 11343      656E7400 
 11344              	.LASF84:
 11345 12ce 70616464 		.ascii	"padding\000"
 11345      696E6700 
 11346              	.LASF268:
 11347 12d6 4C565F46 		.ascii	"LV_FIT_TIGHT\000"
 11347      49545F54 
 11347      49474854 
 11347      00
 11348              	.LASF148:
 11349 12e3 7369676E 		.ascii	"signal_cb\000"
 11349      616C5F63 
 11349      6200
 11350              	.LASF20:
 11351 12ed 75696E74 		.ascii	"uint32_t\000"
 11351      33325F74 
 11351      00
 11352              	.LASF403:
 11353 12f6 6C765F6F 		.ascii	"lv_obj_set_size\000"
 11353      626A5F73 
 11353      65745F73 
 11353      697A6500 
 11354              	.LASF424:
 11355 1306 2E2E5C2E 		.ascii	"..\\..\\..\\lvgl\\version_6.1.2\\lvgl\\src\\lv_objx"
 11355      2E5C2E2E 
 11355      5C6C7667 
 11355      6C5C7665 
 11355      7273696F 
 11356 1332 5C6C765F 		.ascii	"\\lv_tileview.c\000"
 11356      74696C65 
 11356      76696577 
 11356      2E6300
 11357              	.LASF308:
 11358 1341 64726167 		.ascii	"drag_right_en\000"
 11358      5F726967 
 11358      68745F65 
 11358      6E00
 11359              	.LASF59:
 11360 134f 706C6179 		.ascii	"playback_pause\000"
 11360      6261636B 
 11360      5F706175 
 11360      736500
 11361              	.LASF393:
 11362 135e 6C765F6F 		.ascii	"lv_obj_set_x\000"
 11362      626A5F73 
 11362      65745F78 
 11362      00
 11363              	.LASF392:
 11364 136b 6C765F6F 		.ascii	"lv_obj_set_y\000"
 11364      626A5F73 
 11364      65745F79 
ARM GAS  C:\Users\pearlstl\AppData\Local\Temp\ccIMJlIA.s 			page 238


 11364      00
 11365              	.LASF319:
 11366 1378 6461726B 		.ascii	"dark\000"
 11366      00
 11367              	.LASF36:
 11368 137d 67726565 		.ascii	"green\000"
 11368      6E00
 11369              	.LASF34:
 11370 1383 6C765F66 		.ascii	"lv_font_t\000"
 11370      6F6E745F 
 11370      7400
 11371              	.LASF161:
 11372 138d 72657365 		.ascii	"reserved\000"
 11372      72766564 
 11372      00
 11373              	.LASF130:
 11374 1396 6D6F6E69 		.ascii	"monitor_cb\000"
 11374      746F725F 
 11374      636200
 11375              	.LASF7:
 11376 13a1 73686F72 		.ascii	"short unsigned int\000"
 11376      7420756E 
 11376      7369676E 
 11376      65642069 
 11376      6E7400
 11377              	.LASF430:
 11378 13b4 6C765F74 		.ascii	"lv_tileview_set_tile_act\000"
 11378      696C6576 
 11378      6965775F 
 11378      7365745F 
 11378      74696C65 
 11379              	.LASF279:
 11380 13cd 6C765F73 		.ascii	"lv_sb_mode_t\000"
 11380      625F6D6F 
 11380      64655F74 
 11380      00
 11381              	.LASF73:
 11382 13da 70617274 		.ascii	"part\000"
 11382      00
 11383              	.LASF400:
 11384 13df 6C765F70 		.ascii	"lv_page_get_scrl\000"
 11384      6167655F 
 11384      6765745F 
 11384      7363726C 
 11384      00
 11385              	.LASF224:
 11386 13f0 4C565F45 		.ascii	"LV_EVENT_KEY\000"
 11386      56454E54 
 11386      5F4B4559 
 11386      00
 11387              	.LASF21:
 11388 13fd 6C765F63 		.ascii	"lv_coord_t\000"
 11388      6F6F7264 
 11388      5F7400
 11389              	.LASF172:
 11390 1408 6C765F69 		.ascii	"lv_indev_data_t\000"
 11390      6E646576 
ARM GAS  C:\Users\pearlstl\AppData\Local\Temp\ccIMJlIA.s 			page 239


 11390      5F646174 
 11390      615F7400 
 11391              	.LASF127:
 11392 1418 666C7573 		.ascii	"flush_cb\000"
 11392      685F6362 
 11392      00
 11393              	.LASF111:
 11394 1421 75736572 		.ascii	"user_data\000"
 11394      5F646174 
 11394      6100
 11395              	.LASF215:
 11396 142b 4C565F45 		.ascii	"LV_EVENT_PRESS_LOST\000"
 11396      56454E54 
 11396      5F505245 
 11396      53535F4C 
 11396      4F535400 
 11397              	.LASF64:
 11398 143f 706C6179 		.ascii	"playback_now\000"
 11398      6261636B 
 11398      5F6E6F77 
 11398      00
 11399              	.LASF428:
 11400 144c 6C765F74 		.ascii	"lv_tileview_scrl_signal\000"
 11400      696C6576 
 11400      6965775F 
 11400      7363726C 
 11400      5F736967 
 11401              	.LASF82:
 11402 1464 626F7264 		.ascii	"border\000"
 11402      657200
 11403              	.LASF338:
 11404 146b 6C616265 		.ascii	"label\000"
 11404      6C00
 11405              	.LASF29:
 11406 1471 6765745F 		.ascii	"get_glyph_dsc\000"
 11406      676C7970 
 11406      685F6473 
 11406      6300
 11407              	.LASF8:
 11408 147f 5F5F696E 		.ascii	"__int32_t\000"
 11408      7433325F 
 11408      7400
 11409              	.LASF265:
 11410 1489 6C765F64 		.ascii	"lv_drag_dir_t\000"
 11410      7261675F 
 11410      6469725F 
 11410      7400
 11411              	.LASF69:
 11412 1497 6C765F62 		.ascii	"lv_border_part_t\000"
 11412      6F726465 
 11412      725F7061 
 11412      72745F74 
 11412      00
 11413              	.LASF200:
 11414 14a8 6C6F6E67 		.ascii	"long_pr_sent\000"
 11414      5F70725F 
 11414      73656E74 
ARM GAS  C:\Users\pearlstl\AppData\Local\Temp\ccIMJlIA.s 			page 240


 11414      00
 11415              	.LASF234:
 11416 14b5 6C765F65 		.ascii	"lv_event_cb_t\000"
 11416      76656E74 
 11416      5F63625F 
 11416      7400
 11417              	.LASF342:
 11418 14c3 7072656C 		.ascii	"preload\000"
 11418      6F616400 
 11419              	.LASF263:
 11420 14cb 6F726967 		.ascii	"origo_align\000"
 11420      6F5F616C 
 11420      69676E00 
 11421              	.LASF322:
 11422 14d7 6B6E6F62 		.ascii	"knob\000"
 11422      00
 11423              	.LASF305:
 11424 14dc 64726167 		.ascii	"drag_top_en\000"
 11424      5F746F70 
 11424      5F656E00 
 11425              	.LASF281:
 11426 14e8 686F725F 		.ascii	"hor_area\000"
 11426      61726561 
 11426      00
 11427              	.LASF85:
 11428 14f1 73656C5F 		.ascii	"sel_color\000"
 11428      636F6C6F 
 11428      7200
 11429              	.LASF106:
 11430 14fb 6C765F74 		.ascii	"lv_task_cb_t\000"
 11430      61736B5F 
 11430      63625F74 
 11430      00
 11431              	.LASF51:
 11432 1508 5F6C765F 		.ascii	"_lv_font_struct\000"
 11432      666F6E74 
 11432      5F737472 
 11432      75637400 
 11433              	.LASF197:
 11434 1518 74797065 		.ascii	"types\000"
 11434      7300
 11435              	.LASF52:
 11436 151e 5F6C765F 		.ascii	"_lv_anim_t\000"
 11436      616E696D 
 11436      5F7400
 11437              	.LASF370:
 11438 1529 795F6163 		.ascii	"y_act\000"
 11438      7400
 11439              	.LASF101:
 11440 152f 6E5F7369 		.ascii	"n_size\000"
 11440      7A6500
 11441              	.LASF207:
 11442 1536 63757273 		.ascii	"cursor\000"
 11442      6F7200
 11443              	.LASF426:
 11444 153d 5F6C765F 		.ascii	"_lv_group_t\000"
 11444      67726F75 
ARM GAS  C:\Users\pearlstl\AppData\Local\Temp\ccIMJlIA.s 			page 241


 11444      705F7400 
 11445              	.LASF220:
 11446 1549 4C565F45 		.ascii	"LV_EVENT_RELEASED\000"
 11446      56454E54 
 11446      5F52454C 
 11446      45415345 
 11446      4400
 11447              	.LASF212:
 11448 155b 6C765F64 		.ascii	"lv_design_cb_t\000"
 11448      65736967 
 11448      6E5F6362 
 11448      5F7400
 11449              	.LASF292:
 11450 156a 65646765 		.ascii	"edge_flash\000"
 11450      5F666C61 
 11450      736800
 11451              	.LASF304:
 11452 1575 6163745F 		.ascii	"act_id\000"
 11452      696400
 11453              	.LASF163:
 11454 157c 6F70615F 		.ascii	"opa_scale\000"
 11454      7363616C 
 11454      6500
 11455              	.LASF350:
 11456 1586 726F6C6C 		.ascii	"roller\000"
 11456      657200
 11457              		.ident	"GCC: (GNU Tools for ARM Embedded Processors) 5.4.1 20160609 (release) [ARM/embedded-5-bran
