ARM GAS  C:\Users\pearlstl\AppData\Local\Temp\ccIJtgHD.s 			page 1


   1              		.syntax unified
   2              		.cpu cortex-m4
   3              		.eabi_attribute 27, 1
   4              		.fpu fpv4-sp-d16
   5              		.eabi_attribute 20, 1
   6              		.eabi_attribute 21, 1
   7              		.eabi_attribute 23, 3
   8              		.eabi_attribute 24, 1
   9              		.eabi_attribute 25, 1
  10              		.eabi_attribute 26, 1
  11              		.eabi_attribute 30, 2
  12              		.eabi_attribute 34, 1
  13              		.eabi_attribute 18, 4
  14              		.thumb
  15              		.syntax unified
  16              		.file	"lv_table.c"
  17              		.text
  18              	.Ltext0:
  19              		.cfi_sections	.debug_frame
  20              		.section	.text.get_row_height,"ax",%progbits
  21              		.align	2
  22              		.thumb
  23              		.thumb_func
  24              		.type	get_row_height, %function
  25              	get_row_height:
  26              	.LFB55:
  27              		.file 1 "..\\..\\..\\lvgl\\version_6.1.2\\lvgl\\src\\lv_objx\\lv_table.c"
   1:..\..\..\lvgl\version_6.1.2\lvgl\src\lv_objx/lv_table.c **** /**
   2:..\..\..\lvgl\version_6.1.2\lvgl\src\lv_objx/lv_table.c ****  * @file lv_table.c
   3:..\..\..\lvgl\version_6.1.2\lvgl\src\lv_objx/lv_table.c ****  *
   4:..\..\..\lvgl\version_6.1.2\lvgl\src\lv_objx/lv_table.c ****  */
   5:..\..\..\lvgl\version_6.1.2\lvgl\src\lv_objx/lv_table.c **** 
   6:..\..\..\lvgl\version_6.1.2\lvgl\src\lv_objx/lv_table.c **** /*********************
   7:..\..\..\lvgl\version_6.1.2\lvgl\src\lv_objx/lv_table.c ****  *      INCLUDES
   8:..\..\..\lvgl\version_6.1.2\lvgl\src\lv_objx/lv_table.c ****  *********************/
   9:..\..\..\lvgl\version_6.1.2\lvgl\src\lv_objx/lv_table.c **** #include "lv_table.h"
  10:..\..\..\lvgl\version_6.1.2\lvgl\src\lv_objx/lv_table.c **** #if LV_USE_TABLE != 0
  11:..\..\..\lvgl\version_6.1.2\lvgl\src\lv_objx/lv_table.c **** 
  12:..\..\..\lvgl\version_6.1.2\lvgl\src\lv_objx/lv_table.c **** #include "../lv_core/lv_debug.h"
  13:..\..\..\lvgl\version_6.1.2\lvgl\src\lv_objx/lv_table.c **** #include "../lv_misc/lv_txt.h"
  14:..\..\..\lvgl\version_6.1.2\lvgl\src\lv_objx/lv_table.c **** #include "../lv_misc/lv_math.h"
  15:..\..\..\lvgl\version_6.1.2\lvgl\src\lv_objx/lv_table.c **** #include "../lv_draw/lv_draw_label.h"
  16:..\..\..\lvgl\version_6.1.2\lvgl\src\lv_objx/lv_table.c **** #include "../lv_themes/lv_theme.h"
  17:..\..\..\lvgl\version_6.1.2\lvgl\src\lv_objx/lv_table.c **** 
  18:..\..\..\lvgl\version_6.1.2\lvgl\src\lv_objx/lv_table.c **** /*********************
  19:..\..\..\lvgl\version_6.1.2\lvgl\src\lv_objx/lv_table.c ****  *      DEFINES
  20:..\..\..\lvgl\version_6.1.2\lvgl\src\lv_objx/lv_table.c ****  *********************/
  21:..\..\..\lvgl\version_6.1.2\lvgl\src\lv_objx/lv_table.c **** #define LV_OBJX_NAME "lv_table"
  22:..\..\..\lvgl\version_6.1.2\lvgl\src\lv_objx/lv_table.c **** 
  23:..\..\..\lvgl\version_6.1.2\lvgl\src\lv_objx/lv_table.c **** /**********************
  24:..\..\..\lvgl\version_6.1.2\lvgl\src\lv_objx/lv_table.c ****  *      TYPEDEFS
  25:..\..\..\lvgl\version_6.1.2\lvgl\src\lv_objx/lv_table.c ****  **********************/
  26:..\..\..\lvgl\version_6.1.2\lvgl\src\lv_objx/lv_table.c **** 
  27:..\..\..\lvgl\version_6.1.2\lvgl\src\lv_objx/lv_table.c **** /**********************
  28:..\..\..\lvgl\version_6.1.2\lvgl\src\lv_objx/lv_table.c ****  *  STATIC PROTOTYPES
  29:..\..\..\lvgl\version_6.1.2\lvgl\src\lv_objx/lv_table.c ****  **********************/
  30:..\..\..\lvgl\version_6.1.2\lvgl\src\lv_objx/lv_table.c **** static bool lv_table_design(lv_obj_t * table, const lv_area_t * mask, lv_design_mode_t mode);
ARM GAS  C:\Users\pearlstl\AppData\Local\Temp\ccIJtgHD.s 			page 2


  31:..\..\..\lvgl\version_6.1.2\lvgl\src\lv_objx/lv_table.c **** static lv_res_t lv_table_signal(lv_obj_t * table, lv_signal_t sign, void * param);
  32:..\..\..\lvgl\version_6.1.2\lvgl\src\lv_objx/lv_table.c **** static lv_coord_t get_row_height(lv_obj_t * table, uint16_t row_id);
  33:..\..\..\lvgl\version_6.1.2\lvgl\src\lv_objx/lv_table.c **** static void refr_size(lv_obj_t * table);
  34:..\..\..\lvgl\version_6.1.2\lvgl\src\lv_objx/lv_table.c **** 
  35:..\..\..\lvgl\version_6.1.2\lvgl\src\lv_objx/lv_table.c **** /**********************
  36:..\..\..\lvgl\version_6.1.2\lvgl\src\lv_objx/lv_table.c ****  *  STATIC VARIABLES
  37:..\..\..\lvgl\version_6.1.2\lvgl\src\lv_objx/lv_table.c ****  **********************/
  38:..\..\..\lvgl\version_6.1.2\lvgl\src\lv_objx/lv_table.c **** static lv_signal_cb_t ancestor_signal;
  39:..\..\..\lvgl\version_6.1.2\lvgl\src\lv_objx/lv_table.c **** static lv_design_cb_t ancestor_scrl_design;
  40:..\..\..\lvgl\version_6.1.2\lvgl\src\lv_objx/lv_table.c **** 
  41:..\..\..\lvgl\version_6.1.2\lvgl\src\lv_objx/lv_table.c **** /**********************
  42:..\..\..\lvgl\version_6.1.2\lvgl\src\lv_objx/lv_table.c ****  *      MACROS
  43:..\..\..\lvgl\version_6.1.2\lvgl\src\lv_objx/lv_table.c ****  **********************/
  44:..\..\..\lvgl\version_6.1.2\lvgl\src\lv_objx/lv_table.c **** 
  45:..\..\..\lvgl\version_6.1.2\lvgl\src\lv_objx/lv_table.c **** /**********************
  46:..\..\..\lvgl\version_6.1.2\lvgl\src\lv_objx/lv_table.c ****  *   GLOBAL FUNCTIONS
  47:..\..\..\lvgl\version_6.1.2\lvgl\src\lv_objx/lv_table.c ****  **********************/
  48:..\..\..\lvgl\version_6.1.2\lvgl\src\lv_objx/lv_table.c **** 
  49:..\..\..\lvgl\version_6.1.2\lvgl\src\lv_objx/lv_table.c **** /**
  50:..\..\..\lvgl\version_6.1.2\lvgl\src\lv_objx/lv_table.c ****  * Create a table object
  51:..\..\..\lvgl\version_6.1.2\lvgl\src\lv_objx/lv_table.c ****  * @param par pointer to an object, it will be the parent of the new table
  52:..\..\..\lvgl\version_6.1.2\lvgl\src\lv_objx/lv_table.c ****  * @param copy pointer to a table object, if not NULL then the new object will be copied from it
  53:..\..\..\lvgl\version_6.1.2\lvgl\src\lv_objx/lv_table.c ****  * @return pointer to the created table
  54:..\..\..\lvgl\version_6.1.2\lvgl\src\lv_objx/lv_table.c ****  */
  55:..\..\..\lvgl\version_6.1.2\lvgl\src\lv_objx/lv_table.c **** lv_obj_t * lv_table_create(lv_obj_t * par, const lv_obj_t * copy)
  56:..\..\..\lvgl\version_6.1.2\lvgl\src\lv_objx/lv_table.c **** {
  57:..\..\..\lvgl\version_6.1.2\lvgl\src\lv_objx/lv_table.c ****     LV_LOG_TRACE("table create started");
  58:..\..\..\lvgl\version_6.1.2\lvgl\src\lv_objx/lv_table.c **** 
  59:..\..\..\lvgl\version_6.1.2\lvgl\src\lv_objx/lv_table.c ****     /*Create the ancestor of table*/
  60:..\..\..\lvgl\version_6.1.2\lvgl\src\lv_objx/lv_table.c ****     lv_obj_t * new_table = lv_obj_create(par, copy);
  61:..\..\..\lvgl\version_6.1.2\lvgl\src\lv_objx/lv_table.c ****     LV_ASSERT_MEM(new_table);
  62:..\..\..\lvgl\version_6.1.2\lvgl\src\lv_objx/lv_table.c ****     if(new_table == NULL) return NULL;
  63:..\..\..\lvgl\version_6.1.2\lvgl\src\lv_objx/lv_table.c **** 
  64:..\..\..\lvgl\version_6.1.2\lvgl\src\lv_objx/lv_table.c ****     /*Allocate the table type specific extended data*/
  65:..\..\..\lvgl\version_6.1.2\lvgl\src\lv_objx/lv_table.c ****     lv_table_ext_t * ext = lv_obj_allocate_ext_attr(new_table, sizeof(lv_table_ext_t));
  66:..\..\..\lvgl\version_6.1.2\lvgl\src\lv_objx/lv_table.c ****     LV_ASSERT_MEM(ext);
  67:..\..\..\lvgl\version_6.1.2\lvgl\src\lv_objx/lv_table.c ****     if(ext == NULL) return NULL;
  68:..\..\..\lvgl\version_6.1.2\lvgl\src\lv_objx/lv_table.c ****     if(ancestor_signal == NULL) ancestor_signal = lv_obj_get_signal_cb(new_table);
  69:..\..\..\lvgl\version_6.1.2\lvgl\src\lv_objx/lv_table.c ****     if(ancestor_scrl_design == NULL) ancestor_scrl_design = lv_obj_get_design_cb(new_table);
  70:..\..\..\lvgl\version_6.1.2\lvgl\src\lv_objx/lv_table.c **** 
  71:..\..\..\lvgl\version_6.1.2\lvgl\src\lv_objx/lv_table.c ****     /*Initialize the allocated 'ext' */
  72:..\..\..\lvgl\version_6.1.2\lvgl\src\lv_objx/lv_table.c ****     ext->cell_data     = NULL;
  73:..\..\..\lvgl\version_6.1.2\lvgl\src\lv_objx/lv_table.c ****     ext->cell_style[0] = &lv_style_plain;
  74:..\..\..\lvgl\version_6.1.2\lvgl\src\lv_objx/lv_table.c ****     ext->cell_style[1] = &lv_style_plain;
  75:..\..\..\lvgl\version_6.1.2\lvgl\src\lv_objx/lv_table.c ****     ext->cell_style[2] = &lv_style_plain;
  76:..\..\..\lvgl\version_6.1.2\lvgl\src\lv_objx/lv_table.c ****     ext->cell_style[3] = &lv_style_plain;
  77:..\..\..\lvgl\version_6.1.2\lvgl\src\lv_objx/lv_table.c ****     ext->col_cnt       = 0;
  78:..\..\..\lvgl\version_6.1.2\lvgl\src\lv_objx/lv_table.c ****     ext->row_cnt       = 0;
  79:..\..\..\lvgl\version_6.1.2\lvgl\src\lv_objx/lv_table.c **** 
  80:..\..\..\lvgl\version_6.1.2\lvgl\src\lv_objx/lv_table.c ****     uint16_t i;
  81:..\..\..\lvgl\version_6.1.2\lvgl\src\lv_objx/lv_table.c ****     for(i = 0; i < LV_TABLE_COL_MAX; i++) {
  82:..\..\..\lvgl\version_6.1.2\lvgl\src\lv_objx/lv_table.c ****         ext->col_w[i] = LV_DPI;
  83:..\..\..\lvgl\version_6.1.2\lvgl\src\lv_objx/lv_table.c ****     }
  84:..\..\..\lvgl\version_6.1.2\lvgl\src\lv_objx/lv_table.c **** 
  85:..\..\..\lvgl\version_6.1.2\lvgl\src\lv_objx/lv_table.c ****     /*The signal and design functions are not copied so set them here*/
  86:..\..\..\lvgl\version_6.1.2\lvgl\src\lv_objx/lv_table.c ****     lv_obj_set_signal_cb(new_table, lv_table_signal);
  87:..\..\..\lvgl\version_6.1.2\lvgl\src\lv_objx/lv_table.c ****     lv_obj_set_design_cb(new_table, lv_table_design);
ARM GAS  C:\Users\pearlstl\AppData\Local\Temp\ccIJtgHD.s 			page 3


  88:..\..\..\lvgl\version_6.1.2\lvgl\src\lv_objx/lv_table.c **** 
  89:..\..\..\lvgl\version_6.1.2\lvgl\src\lv_objx/lv_table.c ****     /*Init the new table table*/
  90:..\..\..\lvgl\version_6.1.2\lvgl\src\lv_objx/lv_table.c ****     if(copy == NULL) {
  91:..\..\..\lvgl\version_6.1.2\lvgl\src\lv_objx/lv_table.c ****         /*Set the default styles*/
  92:..\..\..\lvgl\version_6.1.2\lvgl\src\lv_objx/lv_table.c ****         lv_theme_t * th = lv_theme_get_current();
  93:..\..\..\lvgl\version_6.1.2\lvgl\src\lv_objx/lv_table.c ****         if(th) {
  94:..\..\..\lvgl\version_6.1.2\lvgl\src\lv_objx/lv_table.c ****             lv_table_set_style(new_table, LV_TABLE_STYLE_BG, th->style.table.bg);
  95:..\..\..\lvgl\version_6.1.2\lvgl\src\lv_objx/lv_table.c ****             lv_table_set_style(new_table, LV_TABLE_STYLE_CELL1, th->style.table.cell);
  96:..\..\..\lvgl\version_6.1.2\lvgl\src\lv_objx/lv_table.c ****             lv_table_set_style(new_table, LV_TABLE_STYLE_CELL2, th->style.table.cell);
  97:..\..\..\lvgl\version_6.1.2\lvgl\src\lv_objx/lv_table.c ****             lv_table_set_style(new_table, LV_TABLE_STYLE_CELL3, th->style.table.cell);
  98:..\..\..\lvgl\version_6.1.2\lvgl\src\lv_objx/lv_table.c ****             lv_table_set_style(new_table, LV_TABLE_STYLE_CELL4, th->style.table.cell);
  99:..\..\..\lvgl\version_6.1.2\lvgl\src\lv_objx/lv_table.c ****         } else {
 100:..\..\..\lvgl\version_6.1.2\lvgl\src\lv_objx/lv_table.c ****             lv_table_set_style(new_table, LV_TABLE_STYLE_BG, &lv_style_plain_color);
 101:..\..\..\lvgl\version_6.1.2\lvgl\src\lv_objx/lv_table.c ****         }
 102:..\..\..\lvgl\version_6.1.2\lvgl\src\lv_objx/lv_table.c ****         lv_obj_set_click(new_table, false); /*Can be removed if click support is added*/
 103:..\..\..\lvgl\version_6.1.2\lvgl\src\lv_objx/lv_table.c ****     }
 104:..\..\..\lvgl\version_6.1.2\lvgl\src\lv_objx/lv_table.c ****     /*Copy an existing table*/
 105:..\..\..\lvgl\version_6.1.2\lvgl\src\lv_objx/lv_table.c ****     else {
 106:..\..\..\lvgl\version_6.1.2\lvgl\src\lv_objx/lv_table.c ****         lv_table_ext_t * copy_ext = lv_obj_get_ext_attr(copy);
 107:..\..\..\lvgl\version_6.1.2\lvgl\src\lv_objx/lv_table.c ****         ext->cell_style[0]        = copy_ext->cell_style[0];
 108:..\..\..\lvgl\version_6.1.2\lvgl\src\lv_objx/lv_table.c ****         ext->cell_style[1]        = copy_ext->cell_style[1];
 109:..\..\..\lvgl\version_6.1.2\lvgl\src\lv_objx/lv_table.c ****         ext->cell_style[2]        = copy_ext->cell_style[2];
 110:..\..\..\lvgl\version_6.1.2\lvgl\src\lv_objx/lv_table.c ****         ext->cell_style[3]        = copy_ext->cell_style[3];
 111:..\..\..\lvgl\version_6.1.2\lvgl\src\lv_objx/lv_table.c ****         lv_table_set_row_cnt(new_table, copy_ext->row_cnt);
 112:..\..\..\lvgl\version_6.1.2\lvgl\src\lv_objx/lv_table.c ****         lv_table_set_col_cnt(new_table, copy_ext->col_cnt);
 113:..\..\..\lvgl\version_6.1.2\lvgl\src\lv_objx/lv_table.c **** 
 114:..\..\..\lvgl\version_6.1.2\lvgl\src\lv_objx/lv_table.c ****         /*Refresh the style with new signal function*/
 115:..\..\..\lvgl\version_6.1.2\lvgl\src\lv_objx/lv_table.c ****         lv_obj_refresh_style(new_table);
 116:..\..\..\lvgl\version_6.1.2\lvgl\src\lv_objx/lv_table.c ****     }
 117:..\..\..\lvgl\version_6.1.2\lvgl\src\lv_objx/lv_table.c **** 
 118:..\..\..\lvgl\version_6.1.2\lvgl\src\lv_objx/lv_table.c ****     LV_LOG_INFO("table created");
 119:..\..\..\lvgl\version_6.1.2\lvgl\src\lv_objx/lv_table.c **** 
 120:..\..\..\lvgl\version_6.1.2\lvgl\src\lv_objx/lv_table.c ****     return new_table;
 121:..\..\..\lvgl\version_6.1.2\lvgl\src\lv_objx/lv_table.c **** }
 122:..\..\..\lvgl\version_6.1.2\lvgl\src\lv_objx/lv_table.c **** 
 123:..\..\..\lvgl\version_6.1.2\lvgl\src\lv_objx/lv_table.c **** /*=====================
 124:..\..\..\lvgl\version_6.1.2\lvgl\src\lv_objx/lv_table.c ****  * Setter functions
 125:..\..\..\lvgl\version_6.1.2\lvgl\src\lv_objx/lv_table.c ****  *====================*/
 126:..\..\..\lvgl\version_6.1.2\lvgl\src\lv_objx/lv_table.c **** 
 127:..\..\..\lvgl\version_6.1.2\lvgl\src\lv_objx/lv_table.c **** /**
 128:..\..\..\lvgl\version_6.1.2\lvgl\src\lv_objx/lv_table.c ****  * Set the value of a cell.
 129:..\..\..\lvgl\version_6.1.2\lvgl\src\lv_objx/lv_table.c ****  * @param table pointer to a Table object
 130:..\..\..\lvgl\version_6.1.2\lvgl\src\lv_objx/lv_table.c ****  * @param row id of the row [0 .. row_cnt -1]
 131:..\..\..\lvgl\version_6.1.2\lvgl\src\lv_objx/lv_table.c ****  * @param col id of the column [0 .. col_cnt -1]
 132:..\..\..\lvgl\version_6.1.2\lvgl\src\lv_objx/lv_table.c ****  * @param txt text to display in the cell. It will be copied and saved so this variable is not
 133:..\..\..\lvgl\version_6.1.2\lvgl\src\lv_objx/lv_table.c ****  * required after this function call.
 134:..\..\..\lvgl\version_6.1.2\lvgl\src\lv_objx/lv_table.c ****  */
 135:..\..\..\lvgl\version_6.1.2\lvgl\src\lv_objx/lv_table.c **** void lv_table_set_cell_value(lv_obj_t * table, uint16_t row, uint16_t col, const char * txt)
 136:..\..\..\lvgl\version_6.1.2\lvgl\src\lv_objx/lv_table.c **** {
 137:..\..\..\lvgl\version_6.1.2\lvgl\src\lv_objx/lv_table.c ****     LV_ASSERT_OBJ(table, LV_OBJX_NAME);
 138:..\..\..\lvgl\version_6.1.2\lvgl\src\lv_objx/lv_table.c ****     LV_ASSERT_NULL(txt);
 139:..\..\..\lvgl\version_6.1.2\lvgl\src\lv_objx/lv_table.c **** 
 140:..\..\..\lvgl\version_6.1.2\lvgl\src\lv_objx/lv_table.c ****     lv_table_ext_t * ext = lv_obj_get_ext_attr(table);
 141:..\..\..\lvgl\version_6.1.2\lvgl\src\lv_objx/lv_table.c ****     if(row >= ext->row_cnt || col >= ext->col_cnt) {
 142:..\..\..\lvgl\version_6.1.2\lvgl\src\lv_objx/lv_table.c ****         LV_LOG_WARN("lv_table_set_cell_value: invalid row or column");
 143:..\..\..\lvgl\version_6.1.2\lvgl\src\lv_objx/lv_table.c ****         return;
 144:..\..\..\lvgl\version_6.1.2\lvgl\src\lv_objx/lv_table.c ****     }
ARM GAS  C:\Users\pearlstl\AppData\Local\Temp\ccIJtgHD.s 			page 4


 145:..\..\..\lvgl\version_6.1.2\lvgl\src\lv_objx/lv_table.c ****     uint32_t cell = row * ext->col_cnt + col;
 146:..\..\..\lvgl\version_6.1.2\lvgl\src\lv_objx/lv_table.c ****     lv_table_cell_format_t format;
 147:..\..\..\lvgl\version_6.1.2\lvgl\src\lv_objx/lv_table.c **** 
 148:..\..\..\lvgl\version_6.1.2\lvgl\src\lv_objx/lv_table.c ****     /*Save the format byte*/
 149:..\..\..\lvgl\version_6.1.2\lvgl\src\lv_objx/lv_table.c ****     if(ext->cell_data[cell]) {
 150:..\..\..\lvgl\version_6.1.2\lvgl\src\lv_objx/lv_table.c ****         format.format_byte = ext->cell_data[cell][0];
 151:..\..\..\lvgl\version_6.1.2\lvgl\src\lv_objx/lv_table.c ****     }
 152:..\..\..\lvgl\version_6.1.2\lvgl\src\lv_objx/lv_table.c ****     /*Initialize the format byte*/
 153:..\..\..\lvgl\version_6.1.2\lvgl\src\lv_objx/lv_table.c ****     else {
 154:..\..\..\lvgl\version_6.1.2\lvgl\src\lv_objx/lv_table.c **** #if LV_USE_BIDI
 155:..\..\..\lvgl\version_6.1.2\lvgl\src\lv_objx/lv_table.c ****         lv_bidi_dir_t base_dir = lv_obj_get_base_dir(table);
 156:..\..\..\lvgl\version_6.1.2\lvgl\src\lv_objx/lv_table.c ****         if(base_dir == LV_BIDI_DIR_LTR) format.s.align = LV_LABEL_ALIGN_LEFT;
 157:..\..\..\lvgl\version_6.1.2\lvgl\src\lv_objx/lv_table.c ****         else if(base_dir == LV_BIDI_DIR_RTL) format.s.align = LV_LABEL_ALIGN_RIGHT;
 158:..\..\..\lvgl\version_6.1.2\lvgl\src\lv_objx/lv_table.c ****         else if(base_dir == LV_BIDI_DIR_AUTO) format.s.align = lv_bidi_detect_base_dir(txt);
 159:..\..\..\lvgl\version_6.1.2\lvgl\src\lv_objx/lv_table.c **** #else
 160:..\..\..\lvgl\version_6.1.2\lvgl\src\lv_objx/lv_table.c ****         format.s.align = LV_LABEL_ALIGN_LEFT;
 161:..\..\..\lvgl\version_6.1.2\lvgl\src\lv_objx/lv_table.c **** #endif
 162:..\..\..\lvgl\version_6.1.2\lvgl\src\lv_objx/lv_table.c **** 
 163:..\..\..\lvgl\version_6.1.2\lvgl\src\lv_objx/lv_table.c ****         format.s.right_merge = 0;
 164:..\..\..\lvgl\version_6.1.2\lvgl\src\lv_objx/lv_table.c ****         format.s.type        = 0;
 165:..\..\..\lvgl\version_6.1.2\lvgl\src\lv_objx/lv_table.c ****         format.s.crop        = 0;
 166:..\..\..\lvgl\version_6.1.2\lvgl\src\lv_objx/lv_table.c ****     }
 167:..\..\..\lvgl\version_6.1.2\lvgl\src\lv_objx/lv_table.c **** 
 168:..\..\..\lvgl\version_6.1.2\lvgl\src\lv_objx/lv_table.c ****     ext->cell_data[cell] = lv_mem_realloc(ext->cell_data[cell], strlen(txt) + 2); /*+1: trailing '\
 169:..\..\..\lvgl\version_6.1.2\lvgl\src\lv_objx/lv_table.c ****     strcpy(ext->cell_data[cell] + 1, txt);  /*+1 to skip the format byte*/
 170:..\..\..\lvgl\version_6.1.2\lvgl\src\lv_objx/lv_table.c **** 
 171:..\..\..\lvgl\version_6.1.2\lvgl\src\lv_objx/lv_table.c ****     ext->cell_data[cell][0] = format.format_byte;
 172:..\..\..\lvgl\version_6.1.2\lvgl\src\lv_objx/lv_table.c ****     refr_size(table);
 173:..\..\..\lvgl\version_6.1.2\lvgl\src\lv_objx/lv_table.c **** }
 174:..\..\..\lvgl\version_6.1.2\lvgl\src\lv_objx/lv_table.c **** 
 175:..\..\..\lvgl\version_6.1.2\lvgl\src\lv_objx/lv_table.c **** /**
 176:..\..\..\lvgl\version_6.1.2\lvgl\src\lv_objx/lv_table.c ****  * Set the number of rows
 177:..\..\..\lvgl\version_6.1.2\lvgl\src\lv_objx/lv_table.c ****  * @param table table pointer to a Table object
 178:..\..\..\lvgl\version_6.1.2\lvgl\src\lv_objx/lv_table.c ****  * @param row_cnt number of rows
 179:..\..\..\lvgl\version_6.1.2\lvgl\src\lv_objx/lv_table.c ****  */
 180:..\..\..\lvgl\version_6.1.2\lvgl\src\lv_objx/lv_table.c **** void lv_table_set_row_cnt(lv_obj_t * table, uint16_t row_cnt)
 181:..\..\..\lvgl\version_6.1.2\lvgl\src\lv_objx/lv_table.c **** {
 182:..\..\..\lvgl\version_6.1.2\lvgl\src\lv_objx/lv_table.c ****     LV_ASSERT_OBJ(table, LV_OBJX_NAME);
 183:..\..\..\lvgl\version_6.1.2\lvgl\src\lv_objx/lv_table.c **** 
 184:..\..\..\lvgl\version_6.1.2\lvgl\src\lv_objx/lv_table.c ****     lv_table_ext_t * ext = lv_obj_get_ext_attr(table);
 185:..\..\..\lvgl\version_6.1.2\lvgl\src\lv_objx/lv_table.c ****     uint16_t old_row_cnt = ext->row_cnt;
 186:..\..\..\lvgl\version_6.1.2\lvgl\src\lv_objx/lv_table.c ****     ext->row_cnt         = row_cnt;
 187:..\..\..\lvgl\version_6.1.2\lvgl\src\lv_objx/lv_table.c **** 
 188:..\..\..\lvgl\version_6.1.2\lvgl\src\lv_objx/lv_table.c ****     if(ext->row_cnt > 0 && ext->col_cnt > 0) {
 189:..\..\..\lvgl\version_6.1.2\lvgl\src\lv_objx/lv_table.c ****         ext->cell_data = lv_mem_realloc(ext->cell_data, ext->row_cnt * ext->col_cnt * sizeof(char *
 190:..\..\..\lvgl\version_6.1.2\lvgl\src\lv_objx/lv_table.c **** 
 191:..\..\..\lvgl\version_6.1.2\lvgl\src\lv_objx/lv_table.c ****         /*Initilize the new fields*/
 192:..\..\..\lvgl\version_6.1.2\lvgl\src\lv_objx/lv_table.c ****         if(old_row_cnt < row_cnt) {
 193:..\..\..\lvgl\version_6.1.2\lvgl\src\lv_objx/lv_table.c ****             uint16_t old_cell_cnt = old_row_cnt * ext->col_cnt;
 194:..\..\..\lvgl\version_6.1.2\lvgl\src\lv_objx/lv_table.c ****             uint32_t new_cell_cnt = ext->col_cnt * ext->row_cnt;
 195:..\..\..\lvgl\version_6.1.2\lvgl\src\lv_objx/lv_table.c ****             memset(&ext->cell_data[old_cell_cnt], 0, (new_cell_cnt - old_cell_cnt) * sizeof(ext->ce
 196:..\..\..\lvgl\version_6.1.2\lvgl\src\lv_objx/lv_table.c ****         }
 197:..\..\..\lvgl\version_6.1.2\lvgl\src\lv_objx/lv_table.c ****     } else {
 198:..\..\..\lvgl\version_6.1.2\lvgl\src\lv_objx/lv_table.c ****         lv_mem_free(ext->cell_data);
 199:..\..\..\lvgl\version_6.1.2\lvgl\src\lv_objx/lv_table.c ****         ext->cell_data = NULL;
 200:..\..\..\lvgl\version_6.1.2\lvgl\src\lv_objx/lv_table.c ****     }
 201:..\..\..\lvgl\version_6.1.2\lvgl\src\lv_objx/lv_table.c **** 
ARM GAS  C:\Users\pearlstl\AppData\Local\Temp\ccIJtgHD.s 			page 5


 202:..\..\..\lvgl\version_6.1.2\lvgl\src\lv_objx/lv_table.c ****     refr_size(table);
 203:..\..\..\lvgl\version_6.1.2\lvgl\src\lv_objx/lv_table.c **** }
 204:..\..\..\lvgl\version_6.1.2\lvgl\src\lv_objx/lv_table.c **** 
 205:..\..\..\lvgl\version_6.1.2\lvgl\src\lv_objx/lv_table.c **** /**
 206:..\..\..\lvgl\version_6.1.2\lvgl\src\lv_objx/lv_table.c ****  * Set the number of columns
 207:..\..\..\lvgl\version_6.1.2\lvgl\src\lv_objx/lv_table.c ****  * @param table table pointer to a Table object
 208:..\..\..\lvgl\version_6.1.2\lvgl\src\lv_objx/lv_table.c ****  * @param col_cnt number of columns. Must be < LV_TABLE_COL_MAX
 209:..\..\..\lvgl\version_6.1.2\lvgl\src\lv_objx/lv_table.c ****  */
 210:..\..\..\lvgl\version_6.1.2\lvgl\src\lv_objx/lv_table.c **** void lv_table_set_col_cnt(lv_obj_t * table, uint16_t col_cnt)
 211:..\..\..\lvgl\version_6.1.2\lvgl\src\lv_objx/lv_table.c **** {
 212:..\..\..\lvgl\version_6.1.2\lvgl\src\lv_objx/lv_table.c ****     LV_ASSERT_OBJ(table, LV_OBJX_NAME);
 213:..\..\..\lvgl\version_6.1.2\lvgl\src\lv_objx/lv_table.c **** 
 214:..\..\..\lvgl\version_6.1.2\lvgl\src\lv_objx/lv_table.c ****     if(col_cnt >= LV_TABLE_COL_MAX) {
 215:..\..\..\lvgl\version_6.1.2\lvgl\src\lv_objx/lv_table.c ****         LV_LOG_WARN("lv_table_set_col_cnt: too many columns. Must be < LV_TABLE_COL_MAX.");
 216:..\..\..\lvgl\version_6.1.2\lvgl\src\lv_objx/lv_table.c ****         return;
 217:..\..\..\lvgl\version_6.1.2\lvgl\src\lv_objx/lv_table.c ****     }
 218:..\..\..\lvgl\version_6.1.2\lvgl\src\lv_objx/lv_table.c **** 
 219:..\..\..\lvgl\version_6.1.2\lvgl\src\lv_objx/lv_table.c ****     lv_table_ext_t * ext = lv_obj_get_ext_attr(table);
 220:..\..\..\lvgl\version_6.1.2\lvgl\src\lv_objx/lv_table.c ****     uint16_t old_col_cnt = ext->col_cnt;
 221:..\..\..\lvgl\version_6.1.2\lvgl\src\lv_objx/lv_table.c ****     ext->col_cnt         = col_cnt;
 222:..\..\..\lvgl\version_6.1.2\lvgl\src\lv_objx/lv_table.c **** 
 223:..\..\..\lvgl\version_6.1.2\lvgl\src\lv_objx/lv_table.c ****     if(ext->row_cnt > 0 && ext->col_cnt > 0) {
 224:..\..\..\lvgl\version_6.1.2\lvgl\src\lv_objx/lv_table.c ****         ext->cell_data = lv_mem_realloc(ext->cell_data, ext->row_cnt * ext->col_cnt * sizeof(char *
 225:..\..\..\lvgl\version_6.1.2\lvgl\src\lv_objx/lv_table.c ****         /*Initilize the new fields*/
 226:..\..\..\lvgl\version_6.1.2\lvgl\src\lv_objx/lv_table.c ****         if(old_col_cnt < col_cnt) {
 227:..\..\..\lvgl\version_6.1.2\lvgl\src\lv_objx/lv_table.c ****             uint16_t old_cell_cnt = old_col_cnt * ext->row_cnt;
 228:..\..\..\lvgl\version_6.1.2\lvgl\src\lv_objx/lv_table.c ****             uint32_t new_cell_cnt = ext->col_cnt * ext->row_cnt;
 229:..\..\..\lvgl\version_6.1.2\lvgl\src\lv_objx/lv_table.c ****             memset(&ext->cell_data[old_cell_cnt], 0, (new_cell_cnt - old_cell_cnt) * sizeof(ext->ce
 230:..\..\..\lvgl\version_6.1.2\lvgl\src\lv_objx/lv_table.c ****         }
 231:..\..\..\lvgl\version_6.1.2\lvgl\src\lv_objx/lv_table.c **** 
 232:..\..\..\lvgl\version_6.1.2\lvgl\src\lv_objx/lv_table.c ****     } else {
 233:..\..\..\lvgl\version_6.1.2\lvgl\src\lv_objx/lv_table.c ****         lv_mem_free(ext->cell_data);
 234:..\..\..\lvgl\version_6.1.2\lvgl\src\lv_objx/lv_table.c ****         ext->cell_data = NULL;
 235:..\..\..\lvgl\version_6.1.2\lvgl\src\lv_objx/lv_table.c ****     }
 236:..\..\..\lvgl\version_6.1.2\lvgl\src\lv_objx/lv_table.c ****     refr_size(table);
 237:..\..\..\lvgl\version_6.1.2\lvgl\src\lv_objx/lv_table.c **** }
 238:..\..\..\lvgl\version_6.1.2\lvgl\src\lv_objx/lv_table.c **** 
 239:..\..\..\lvgl\version_6.1.2\lvgl\src\lv_objx/lv_table.c **** /**
 240:..\..\..\lvgl\version_6.1.2\lvgl\src\lv_objx/lv_table.c ****  * Set the width of a column
 241:..\..\..\lvgl\version_6.1.2\lvgl\src\lv_objx/lv_table.c ****  * @param table table pointer to a Table object
 242:..\..\..\lvgl\version_6.1.2\lvgl\src\lv_objx/lv_table.c ****  * @param col_id id of the column [0 .. LV_TABLE_COL_MAX -1]
 243:..\..\..\lvgl\version_6.1.2\lvgl\src\lv_objx/lv_table.c ****  * @param w width of the column
 244:..\..\..\lvgl\version_6.1.2\lvgl\src\lv_objx/lv_table.c ****  */
 245:..\..\..\lvgl\version_6.1.2\lvgl\src\lv_objx/lv_table.c **** void lv_table_set_col_width(lv_obj_t * table, uint16_t col_id, lv_coord_t w)
 246:..\..\..\lvgl\version_6.1.2\lvgl\src\lv_objx/lv_table.c **** {
 247:..\..\..\lvgl\version_6.1.2\lvgl\src\lv_objx/lv_table.c ****     LV_ASSERT_OBJ(table, LV_OBJX_NAME);
 248:..\..\..\lvgl\version_6.1.2\lvgl\src\lv_objx/lv_table.c **** 
 249:..\..\..\lvgl\version_6.1.2\lvgl\src\lv_objx/lv_table.c ****     if(col_id >= LV_TABLE_COL_MAX) {
 250:..\..\..\lvgl\version_6.1.2\lvgl\src\lv_objx/lv_table.c ****         LV_LOG_WARN("lv_table_set_col_width: too big 'col_id'. Must be < LV_TABLE_COL_MAX.");
 251:..\..\..\lvgl\version_6.1.2\lvgl\src\lv_objx/lv_table.c ****         return;
 252:..\..\..\lvgl\version_6.1.2\lvgl\src\lv_objx/lv_table.c ****     }
 253:..\..\..\lvgl\version_6.1.2\lvgl\src\lv_objx/lv_table.c **** 
 254:..\..\..\lvgl\version_6.1.2\lvgl\src\lv_objx/lv_table.c ****     lv_table_ext_t * ext = lv_obj_get_ext_attr(table);
 255:..\..\..\lvgl\version_6.1.2\lvgl\src\lv_objx/lv_table.c ****     ext->col_w[col_id]   = w;
 256:..\..\..\lvgl\version_6.1.2\lvgl\src\lv_objx/lv_table.c ****     refr_size(table);
 257:..\..\..\lvgl\version_6.1.2\lvgl\src\lv_objx/lv_table.c **** }
 258:..\..\..\lvgl\version_6.1.2\lvgl\src\lv_objx/lv_table.c **** 
ARM GAS  C:\Users\pearlstl\AppData\Local\Temp\ccIJtgHD.s 			page 6


 259:..\..\..\lvgl\version_6.1.2\lvgl\src\lv_objx/lv_table.c **** /**
 260:..\..\..\lvgl\version_6.1.2\lvgl\src\lv_objx/lv_table.c ****  * Set the text align in a cell
 261:..\..\..\lvgl\version_6.1.2\lvgl\src\lv_objx/lv_table.c ****  * @param table pointer to a Table object
 262:..\..\..\lvgl\version_6.1.2\lvgl\src\lv_objx/lv_table.c ****  * @param row id of the row [0 .. row_cnt -1]
 263:..\..\..\lvgl\version_6.1.2\lvgl\src\lv_objx/lv_table.c ****  * @param col id of the column [0 .. col_cnt -1]
 264:..\..\..\lvgl\version_6.1.2\lvgl\src\lv_objx/lv_table.c ****  * @param align LV_LABEL_ALIGN_LEFT or LV_LABEL_ALIGN_CENTER or LV_LABEL_ALIGN_RIGHT
 265:..\..\..\lvgl\version_6.1.2\lvgl\src\lv_objx/lv_table.c ****  */
 266:..\..\..\lvgl\version_6.1.2\lvgl\src\lv_objx/lv_table.c **** void lv_table_set_cell_align(lv_obj_t * table, uint16_t row, uint16_t col, lv_label_align_t align)
 267:..\..\..\lvgl\version_6.1.2\lvgl\src\lv_objx/lv_table.c **** {
 268:..\..\..\lvgl\version_6.1.2\lvgl\src\lv_objx/lv_table.c ****     LV_ASSERT_OBJ(table, LV_OBJX_NAME);
 269:..\..\..\lvgl\version_6.1.2\lvgl\src\lv_objx/lv_table.c **** 
 270:..\..\..\lvgl\version_6.1.2\lvgl\src\lv_objx/lv_table.c ****     lv_table_ext_t * ext = lv_obj_get_ext_attr(table);
 271:..\..\..\lvgl\version_6.1.2\lvgl\src\lv_objx/lv_table.c ****     if(row >= ext->row_cnt || col >= ext->col_cnt) {
 272:..\..\..\lvgl\version_6.1.2\lvgl\src\lv_objx/lv_table.c ****         LV_LOG_WARN("lv_table_set_cell_align: invalid row or column");
 273:..\..\..\lvgl\version_6.1.2\lvgl\src\lv_objx/lv_table.c ****         return;
 274:..\..\..\lvgl\version_6.1.2\lvgl\src\lv_objx/lv_table.c ****     }
 275:..\..\..\lvgl\version_6.1.2\lvgl\src\lv_objx/lv_table.c ****     uint32_t cell = row * ext->col_cnt + col;
 276:..\..\..\lvgl\version_6.1.2\lvgl\src\lv_objx/lv_table.c **** 
 277:..\..\..\lvgl\version_6.1.2\lvgl\src\lv_objx/lv_table.c ****     if(ext->cell_data[cell] == NULL) {
 278:..\..\..\lvgl\version_6.1.2\lvgl\src\lv_objx/lv_table.c ****         ext->cell_data[cell]    = lv_mem_alloc(2); /*+1: trailing '\0; +1: format byte*/
 279:..\..\..\lvgl\version_6.1.2\lvgl\src\lv_objx/lv_table.c ****         ext->cell_data[cell][0] = 0;
 280:..\..\..\lvgl\version_6.1.2\lvgl\src\lv_objx/lv_table.c ****         ext->cell_data[cell][1] = '\0';
 281:..\..\..\lvgl\version_6.1.2\lvgl\src\lv_objx/lv_table.c ****     }
 282:..\..\..\lvgl\version_6.1.2\lvgl\src\lv_objx/lv_table.c **** 
 283:..\..\..\lvgl\version_6.1.2\lvgl\src\lv_objx/lv_table.c ****     lv_table_cell_format_t format;
 284:..\..\..\lvgl\version_6.1.2\lvgl\src\lv_objx/lv_table.c ****     format.format_byte      = ext->cell_data[cell][0];
 285:..\..\..\lvgl\version_6.1.2\lvgl\src\lv_objx/lv_table.c ****     format.s.align          = align;
 286:..\..\..\lvgl\version_6.1.2\lvgl\src\lv_objx/lv_table.c ****     ext->cell_data[cell][0] = format.format_byte;
 287:..\..\..\lvgl\version_6.1.2\lvgl\src\lv_objx/lv_table.c **** }
 288:..\..\..\lvgl\version_6.1.2\lvgl\src\lv_objx/lv_table.c **** 
 289:..\..\..\lvgl\version_6.1.2\lvgl\src\lv_objx/lv_table.c **** /**
 290:..\..\..\lvgl\version_6.1.2\lvgl\src\lv_objx/lv_table.c ****  * Set the type of a cell.
 291:..\..\..\lvgl\version_6.1.2\lvgl\src\lv_objx/lv_table.c ****  * @param table pointer to a Table object
 292:..\..\..\lvgl\version_6.1.2\lvgl\src\lv_objx/lv_table.c ****  * @param row id of the row [0 .. row_cnt -1]
 293:..\..\..\lvgl\version_6.1.2\lvgl\src\lv_objx/lv_table.c ****  * @param col id of the column [0 .. col_cnt -1]
 294:..\..\..\lvgl\version_6.1.2\lvgl\src\lv_objx/lv_table.c ****  * @param type 1,2,3 or 4. The cell style will be chosen accordingly.
 295:..\..\..\lvgl\version_6.1.2\lvgl\src\lv_objx/lv_table.c ****  */
 296:..\..\..\lvgl\version_6.1.2\lvgl\src\lv_objx/lv_table.c **** void lv_table_set_cell_type(lv_obj_t * table, uint16_t row, uint16_t col, uint8_t type)
 297:..\..\..\lvgl\version_6.1.2\lvgl\src\lv_objx/lv_table.c **** {
 298:..\..\..\lvgl\version_6.1.2\lvgl\src\lv_objx/lv_table.c ****     LV_ASSERT_OBJ(table, LV_OBJX_NAME);
 299:..\..\..\lvgl\version_6.1.2\lvgl\src\lv_objx/lv_table.c **** 
 300:..\..\..\lvgl\version_6.1.2\lvgl\src\lv_objx/lv_table.c ****     lv_table_ext_t * ext = lv_obj_get_ext_attr(table);
 301:..\..\..\lvgl\version_6.1.2\lvgl\src\lv_objx/lv_table.c ****     if(row >= ext->row_cnt || col >= ext->col_cnt) {
 302:..\..\..\lvgl\version_6.1.2\lvgl\src\lv_objx/lv_table.c ****         LV_LOG_WARN("lv_table_set_cell_type: invalid row or column");
 303:..\..\..\lvgl\version_6.1.2\lvgl\src\lv_objx/lv_table.c ****         return;
 304:..\..\..\lvgl\version_6.1.2\lvgl\src\lv_objx/lv_table.c ****     }
 305:..\..\..\lvgl\version_6.1.2\lvgl\src\lv_objx/lv_table.c ****     uint32_t cell = row * ext->col_cnt + col;
 306:..\..\..\lvgl\version_6.1.2\lvgl\src\lv_objx/lv_table.c **** 
 307:..\..\..\lvgl\version_6.1.2\lvgl\src\lv_objx/lv_table.c ****     if(ext->cell_data[cell] == NULL) {
 308:..\..\..\lvgl\version_6.1.2\lvgl\src\lv_objx/lv_table.c ****         ext->cell_data[cell]    = lv_mem_alloc(2); /*+1: trailing '\0; +1: format byte*/
 309:..\..\..\lvgl\version_6.1.2\lvgl\src\lv_objx/lv_table.c ****         ext->cell_data[cell][0] = 0;
 310:..\..\..\lvgl\version_6.1.2\lvgl\src\lv_objx/lv_table.c ****         ext->cell_data[cell][1] = '\0';
 311:..\..\..\lvgl\version_6.1.2\lvgl\src\lv_objx/lv_table.c ****     }
 312:..\..\..\lvgl\version_6.1.2\lvgl\src\lv_objx/lv_table.c **** 
 313:..\..\..\lvgl\version_6.1.2\lvgl\src\lv_objx/lv_table.c ****     if(type > 0) type--; /*User gives 1,2,3,4 but easier to handle 0, 1, 2, 3*/
 314:..\..\..\lvgl\version_6.1.2\lvgl\src\lv_objx/lv_table.c ****     if(type >= LV_TABLE_CELL_STYLE_CNT) type = LV_TABLE_CELL_STYLE_CNT - 1;
 315:..\..\..\lvgl\version_6.1.2\lvgl\src\lv_objx/lv_table.c **** 
ARM GAS  C:\Users\pearlstl\AppData\Local\Temp\ccIJtgHD.s 			page 7


 316:..\..\..\lvgl\version_6.1.2\lvgl\src\lv_objx/lv_table.c ****     lv_table_cell_format_t format;
 317:..\..\..\lvgl\version_6.1.2\lvgl\src\lv_objx/lv_table.c ****     format.format_byte      = ext->cell_data[cell][0];
 318:..\..\..\lvgl\version_6.1.2\lvgl\src\lv_objx/lv_table.c ****     format.s.type           = type;
 319:..\..\..\lvgl\version_6.1.2\lvgl\src\lv_objx/lv_table.c ****     ext->cell_data[cell][0] = format.format_byte;
 320:..\..\..\lvgl\version_6.1.2\lvgl\src\lv_objx/lv_table.c **** }
 321:..\..\..\lvgl\version_6.1.2\lvgl\src\lv_objx/lv_table.c **** 
 322:..\..\..\lvgl\version_6.1.2\lvgl\src\lv_objx/lv_table.c **** /**
 323:..\..\..\lvgl\version_6.1.2\lvgl\src\lv_objx/lv_table.c ****  * Set the cell crop. (Don't adjust the height of the cell according to its content)
 324:..\..\..\lvgl\version_6.1.2\lvgl\src\lv_objx/lv_table.c ****  * @param table pointer to a Table object
 325:..\..\..\lvgl\version_6.1.2\lvgl\src\lv_objx/lv_table.c ****  * @param row id of the row [0 .. row_cnt -1]
 326:..\..\..\lvgl\version_6.1.2\lvgl\src\lv_objx/lv_table.c ****  * @param col id of the column [0 .. col_cnt -1]
 327:..\..\..\lvgl\version_6.1.2\lvgl\src\lv_objx/lv_table.c ****  * @param crop true: crop the cell content; false: set the cell height to the content.
 328:..\..\..\lvgl\version_6.1.2\lvgl\src\lv_objx/lv_table.c ****  */
 329:..\..\..\lvgl\version_6.1.2\lvgl\src\lv_objx/lv_table.c **** void lv_table_set_cell_crop(lv_obj_t * table, uint16_t row, uint16_t col, bool crop)
 330:..\..\..\lvgl\version_6.1.2\lvgl\src\lv_objx/lv_table.c **** {
 331:..\..\..\lvgl\version_6.1.2\lvgl\src\lv_objx/lv_table.c ****     LV_ASSERT_OBJ(table, LV_OBJX_NAME);
 332:..\..\..\lvgl\version_6.1.2\lvgl\src\lv_objx/lv_table.c **** 
 333:..\..\..\lvgl\version_6.1.2\lvgl\src\lv_objx/lv_table.c ****     lv_table_ext_t * ext = lv_obj_get_ext_attr(table);
 334:..\..\..\lvgl\version_6.1.2\lvgl\src\lv_objx/lv_table.c ****     if(row >= ext->row_cnt || col >= ext->col_cnt) {
 335:..\..\..\lvgl\version_6.1.2\lvgl\src\lv_objx/lv_table.c ****         LV_LOG_WARN("lv_table_set_cell_crop: invalid row or column");
 336:..\..\..\lvgl\version_6.1.2\lvgl\src\lv_objx/lv_table.c ****         return;
 337:..\..\..\lvgl\version_6.1.2\lvgl\src\lv_objx/lv_table.c ****     }
 338:..\..\..\lvgl\version_6.1.2\lvgl\src\lv_objx/lv_table.c ****     uint32_t cell = row * ext->col_cnt + col;
 339:..\..\..\lvgl\version_6.1.2\lvgl\src\lv_objx/lv_table.c **** 
 340:..\..\..\lvgl\version_6.1.2\lvgl\src\lv_objx/lv_table.c ****     if(ext->cell_data[cell] == NULL) {
 341:..\..\..\lvgl\version_6.1.2\lvgl\src\lv_objx/lv_table.c ****         ext->cell_data[cell]    = lv_mem_alloc(2); /*+1: trailing '\0; +1: format byte*/
 342:..\..\..\lvgl\version_6.1.2\lvgl\src\lv_objx/lv_table.c ****         ext->cell_data[cell][0] = 0;
 343:..\..\..\lvgl\version_6.1.2\lvgl\src\lv_objx/lv_table.c ****         ext->cell_data[cell][1] = '\0';
 344:..\..\..\lvgl\version_6.1.2\lvgl\src\lv_objx/lv_table.c ****     }
 345:..\..\..\lvgl\version_6.1.2\lvgl\src\lv_objx/lv_table.c **** 
 346:..\..\..\lvgl\version_6.1.2\lvgl\src\lv_objx/lv_table.c ****     lv_table_cell_format_t format;
 347:..\..\..\lvgl\version_6.1.2\lvgl\src\lv_objx/lv_table.c ****     format.format_byte      = ext->cell_data[cell][0];
 348:..\..\..\lvgl\version_6.1.2\lvgl\src\lv_objx/lv_table.c ****     format.s.crop           = crop;
 349:..\..\..\lvgl\version_6.1.2\lvgl\src\lv_objx/lv_table.c ****     ext->cell_data[cell][0] = format.format_byte;
 350:..\..\..\lvgl\version_6.1.2\lvgl\src\lv_objx/lv_table.c **** }
 351:..\..\..\lvgl\version_6.1.2\lvgl\src\lv_objx/lv_table.c **** 
 352:..\..\..\lvgl\version_6.1.2\lvgl\src\lv_objx/lv_table.c **** /**
 353:..\..\..\lvgl\version_6.1.2\lvgl\src\lv_objx/lv_table.c ****  * Merge a cell with the right neighbor. The value of the cell to the right won't be displayed.
 354:..\..\..\lvgl\version_6.1.2\lvgl\src\lv_objx/lv_table.c ****  * @param table table pointer to a Table object
 355:..\..\..\lvgl\version_6.1.2\lvgl\src\lv_objx/lv_table.c ****  * @param row id of the row [0 .. row_cnt -1]
 356:..\..\..\lvgl\version_6.1.2\lvgl\src\lv_objx/lv_table.c ****  * @param col id of the column [0 .. col_cnt -1]
 357:..\..\..\lvgl\version_6.1.2\lvgl\src\lv_objx/lv_table.c ****  * @param en true: merge right; false: don't merge right
 358:..\..\..\lvgl\version_6.1.2\lvgl\src\lv_objx/lv_table.c ****  */
 359:..\..\..\lvgl\version_6.1.2\lvgl\src\lv_objx/lv_table.c **** void lv_table_set_cell_merge_right(lv_obj_t * table, uint16_t row, uint16_t col, bool en)
 360:..\..\..\lvgl\version_6.1.2\lvgl\src\lv_objx/lv_table.c **** {
 361:..\..\..\lvgl\version_6.1.2\lvgl\src\lv_objx/lv_table.c ****     LV_ASSERT_OBJ(table, LV_OBJX_NAME);
 362:..\..\..\lvgl\version_6.1.2\lvgl\src\lv_objx/lv_table.c **** 
 363:..\..\..\lvgl\version_6.1.2\lvgl\src\lv_objx/lv_table.c ****     lv_table_ext_t * ext = lv_obj_get_ext_attr(table);
 364:..\..\..\lvgl\version_6.1.2\lvgl\src\lv_objx/lv_table.c ****     if(row >= ext->row_cnt || col >= ext->col_cnt) {
 365:..\..\..\lvgl\version_6.1.2\lvgl\src\lv_objx/lv_table.c ****         LV_LOG_WARN("lv_table_set_cell_merge_right: invalid row or column");
 366:..\..\..\lvgl\version_6.1.2\lvgl\src\lv_objx/lv_table.c ****         return;
 367:..\..\..\lvgl\version_6.1.2\lvgl\src\lv_objx/lv_table.c ****     }
 368:..\..\..\lvgl\version_6.1.2\lvgl\src\lv_objx/lv_table.c **** 
 369:..\..\..\lvgl\version_6.1.2\lvgl\src\lv_objx/lv_table.c ****     uint32_t cell = row * ext->col_cnt + col;
 370:..\..\..\lvgl\version_6.1.2\lvgl\src\lv_objx/lv_table.c **** 
 371:..\..\..\lvgl\version_6.1.2\lvgl\src\lv_objx/lv_table.c ****     if(ext->cell_data[cell] == NULL) {
 372:..\..\..\lvgl\version_6.1.2\lvgl\src\lv_objx/lv_table.c ****         ext->cell_data[cell]    = lv_mem_alloc(2); /*+1: trailing '\0; +1: format byte*/
ARM GAS  C:\Users\pearlstl\AppData\Local\Temp\ccIJtgHD.s 			page 8


 373:..\..\..\lvgl\version_6.1.2\lvgl\src\lv_objx/lv_table.c ****         ext->cell_data[cell][0] = 0;
 374:..\..\..\lvgl\version_6.1.2\lvgl\src\lv_objx/lv_table.c ****         ext->cell_data[cell][1] = '\0';
 375:..\..\..\lvgl\version_6.1.2\lvgl\src\lv_objx/lv_table.c ****     }
 376:..\..\..\lvgl\version_6.1.2\lvgl\src\lv_objx/lv_table.c **** 
 377:..\..\..\lvgl\version_6.1.2\lvgl\src\lv_objx/lv_table.c ****     lv_table_cell_format_t format;
 378:..\..\..\lvgl\version_6.1.2\lvgl\src\lv_objx/lv_table.c ****     format.format_byte      = ext->cell_data[cell][0];
 379:..\..\..\lvgl\version_6.1.2\lvgl\src\lv_objx/lv_table.c ****     format.s.right_merge    = en ? 1 : 0;
 380:..\..\..\lvgl\version_6.1.2\lvgl\src\lv_objx/lv_table.c ****     ext->cell_data[cell][0] = format.format_byte;
 381:..\..\..\lvgl\version_6.1.2\lvgl\src\lv_objx/lv_table.c ****     refr_size(table);
 382:..\..\..\lvgl\version_6.1.2\lvgl\src\lv_objx/lv_table.c **** }
 383:..\..\..\lvgl\version_6.1.2\lvgl\src\lv_objx/lv_table.c **** 
 384:..\..\..\lvgl\version_6.1.2\lvgl\src\lv_objx/lv_table.c **** /**
 385:..\..\..\lvgl\version_6.1.2\lvgl\src\lv_objx/lv_table.c ****  * Set a style of a table.
 386:..\..\..\lvgl\version_6.1.2\lvgl\src\lv_objx/lv_table.c ****  * @param table pointer to table object
 387:..\..\..\lvgl\version_6.1.2\lvgl\src\lv_objx/lv_table.c ****  * @param type which style should be set
 388:..\..\..\lvgl\version_6.1.2\lvgl\src\lv_objx/lv_table.c ****  * @param style pointer to a style
 389:..\..\..\lvgl\version_6.1.2\lvgl\src\lv_objx/lv_table.c ****  */
 390:..\..\..\lvgl\version_6.1.2\lvgl\src\lv_objx/lv_table.c **** void lv_table_set_style(lv_obj_t * table, lv_table_style_t type, const lv_style_t * style)
 391:..\..\..\lvgl\version_6.1.2\lvgl\src\lv_objx/lv_table.c **** {
 392:..\..\..\lvgl\version_6.1.2\lvgl\src\lv_objx/lv_table.c ****     LV_ASSERT_OBJ(table, LV_OBJX_NAME);
 393:..\..\..\lvgl\version_6.1.2\lvgl\src\lv_objx/lv_table.c **** 
 394:..\..\..\lvgl\version_6.1.2\lvgl\src\lv_objx/lv_table.c ****     lv_table_ext_t * ext = lv_obj_get_ext_attr(table);
 395:..\..\..\lvgl\version_6.1.2\lvgl\src\lv_objx/lv_table.c **** 
 396:..\..\..\lvgl\version_6.1.2\lvgl\src\lv_objx/lv_table.c ****     switch(type) {
 397:..\..\..\lvgl\version_6.1.2\lvgl\src\lv_objx/lv_table.c ****         case LV_TABLE_STYLE_BG:
 398:..\..\..\lvgl\version_6.1.2\lvgl\src\lv_objx/lv_table.c ****             lv_obj_set_style(table, style);
 399:..\..\..\lvgl\version_6.1.2\lvgl\src\lv_objx/lv_table.c ****             refr_size(table);
 400:..\..\..\lvgl\version_6.1.2\lvgl\src\lv_objx/lv_table.c ****             break;
 401:..\..\..\lvgl\version_6.1.2\lvgl\src\lv_objx/lv_table.c ****         case LV_TABLE_STYLE_CELL1:
 402:..\..\..\lvgl\version_6.1.2\lvgl\src\lv_objx/lv_table.c ****             ext->cell_style[0] = style;
 403:..\..\..\lvgl\version_6.1.2\lvgl\src\lv_objx/lv_table.c ****             refr_size(table);
 404:..\..\..\lvgl\version_6.1.2\lvgl\src\lv_objx/lv_table.c ****             break;
 405:..\..\..\lvgl\version_6.1.2\lvgl\src\lv_objx/lv_table.c ****         case LV_TABLE_STYLE_CELL2:
 406:..\..\..\lvgl\version_6.1.2\lvgl\src\lv_objx/lv_table.c ****             ext->cell_style[1] = style;
 407:..\..\..\lvgl\version_6.1.2\lvgl\src\lv_objx/lv_table.c ****             refr_size(table);
 408:..\..\..\lvgl\version_6.1.2\lvgl\src\lv_objx/lv_table.c ****             break;
 409:..\..\..\lvgl\version_6.1.2\lvgl\src\lv_objx/lv_table.c ****         case LV_TABLE_STYLE_CELL3:
 410:..\..\..\lvgl\version_6.1.2\lvgl\src\lv_objx/lv_table.c ****             ext->cell_style[2] = style;
 411:..\..\..\lvgl\version_6.1.2\lvgl\src\lv_objx/lv_table.c ****             refr_size(table);
 412:..\..\..\lvgl\version_6.1.2\lvgl\src\lv_objx/lv_table.c ****             break;
 413:..\..\..\lvgl\version_6.1.2\lvgl\src\lv_objx/lv_table.c ****         case LV_TABLE_STYLE_CELL4:
 414:..\..\..\lvgl\version_6.1.2\lvgl\src\lv_objx/lv_table.c ****             ext->cell_style[3] = style;
 415:..\..\..\lvgl\version_6.1.2\lvgl\src\lv_objx/lv_table.c ****             refr_size(table);
 416:..\..\..\lvgl\version_6.1.2\lvgl\src\lv_objx/lv_table.c ****             break;
 417:..\..\..\lvgl\version_6.1.2\lvgl\src\lv_objx/lv_table.c ****     }
 418:..\..\..\lvgl\version_6.1.2\lvgl\src\lv_objx/lv_table.c **** }
 419:..\..\..\lvgl\version_6.1.2\lvgl\src\lv_objx/lv_table.c **** 
 420:..\..\..\lvgl\version_6.1.2\lvgl\src\lv_objx/lv_table.c **** /*=====================
 421:..\..\..\lvgl\version_6.1.2\lvgl\src\lv_objx/lv_table.c ****  * Getter functions
 422:..\..\..\lvgl\version_6.1.2\lvgl\src\lv_objx/lv_table.c ****  *====================*/
 423:..\..\..\lvgl\version_6.1.2\lvgl\src\lv_objx/lv_table.c **** 
 424:..\..\..\lvgl\version_6.1.2\lvgl\src\lv_objx/lv_table.c **** /**
 425:..\..\..\lvgl\version_6.1.2\lvgl\src\lv_objx/lv_table.c ****  * Get the value of a cell.
 426:..\..\..\lvgl\version_6.1.2\lvgl\src\lv_objx/lv_table.c ****  * @param table pointer to a Table object
 427:..\..\..\lvgl\version_6.1.2\lvgl\src\lv_objx/lv_table.c ****  * @param row id of the row [0 .. row_cnt -1]
 428:..\..\..\lvgl\version_6.1.2\lvgl\src\lv_objx/lv_table.c ****  * @param col id of the column [0 .. col_cnt -1]
 429:..\..\..\lvgl\version_6.1.2\lvgl\src\lv_objx/lv_table.c ****  * @return text in the cell
ARM GAS  C:\Users\pearlstl\AppData\Local\Temp\ccIJtgHD.s 			page 9


 430:..\..\..\lvgl\version_6.1.2\lvgl\src\lv_objx/lv_table.c ****  */
 431:..\..\..\lvgl\version_6.1.2\lvgl\src\lv_objx/lv_table.c **** const char * lv_table_get_cell_value(lv_obj_t * table, uint16_t row, uint16_t col)
 432:..\..\..\lvgl\version_6.1.2\lvgl\src\lv_objx/lv_table.c **** {
 433:..\..\..\lvgl\version_6.1.2\lvgl\src\lv_objx/lv_table.c ****     LV_ASSERT_OBJ(table, LV_OBJX_NAME);
 434:..\..\..\lvgl\version_6.1.2\lvgl\src\lv_objx/lv_table.c **** 
 435:..\..\..\lvgl\version_6.1.2\lvgl\src\lv_objx/lv_table.c ****     lv_table_ext_t * ext = lv_obj_get_ext_attr(table);
 436:..\..\..\lvgl\version_6.1.2\lvgl\src\lv_objx/lv_table.c ****     if(row >= ext->row_cnt || col >= ext->col_cnt) {
 437:..\..\..\lvgl\version_6.1.2\lvgl\src\lv_objx/lv_table.c ****         LV_LOG_WARN("lv_table_set_cell_value: invalid row or column");
 438:..\..\..\lvgl\version_6.1.2\lvgl\src\lv_objx/lv_table.c ****         return "";
 439:..\..\..\lvgl\version_6.1.2\lvgl\src\lv_objx/lv_table.c ****     }
 440:..\..\..\lvgl\version_6.1.2\lvgl\src\lv_objx/lv_table.c ****     uint32_t cell = row * ext->col_cnt + col;
 441:..\..\..\lvgl\version_6.1.2\lvgl\src\lv_objx/lv_table.c **** 
 442:..\..\..\lvgl\version_6.1.2\lvgl\src\lv_objx/lv_table.c ****     if(ext->cell_data[cell] == NULL) return "";
 443:..\..\..\lvgl\version_6.1.2\lvgl\src\lv_objx/lv_table.c **** 
 444:..\..\..\lvgl\version_6.1.2\lvgl\src\lv_objx/lv_table.c ****     return &ext->cell_data[cell][1]; /*Skip the format byte*/
 445:..\..\..\lvgl\version_6.1.2\lvgl\src\lv_objx/lv_table.c **** }
 446:..\..\..\lvgl\version_6.1.2\lvgl\src\lv_objx/lv_table.c **** 
 447:..\..\..\lvgl\version_6.1.2\lvgl\src\lv_objx/lv_table.c **** /**
 448:..\..\..\lvgl\version_6.1.2\lvgl\src\lv_objx/lv_table.c ****  * Get the number of rows.
 449:..\..\..\lvgl\version_6.1.2\lvgl\src\lv_objx/lv_table.c ****  * @param table table pointer to a Table object
 450:..\..\..\lvgl\version_6.1.2\lvgl\src\lv_objx/lv_table.c ****  * @return number of rows.
 451:..\..\..\lvgl\version_6.1.2\lvgl\src\lv_objx/lv_table.c ****  */
 452:..\..\..\lvgl\version_6.1.2\lvgl\src\lv_objx/lv_table.c **** uint16_t lv_table_get_row_cnt(lv_obj_t * table)
 453:..\..\..\lvgl\version_6.1.2\lvgl\src\lv_objx/lv_table.c **** {
 454:..\..\..\lvgl\version_6.1.2\lvgl\src\lv_objx/lv_table.c ****     LV_ASSERT_OBJ(table, LV_OBJX_NAME);
 455:..\..\..\lvgl\version_6.1.2\lvgl\src\lv_objx/lv_table.c **** 
 456:..\..\..\lvgl\version_6.1.2\lvgl\src\lv_objx/lv_table.c ****     lv_table_ext_t * ext = lv_obj_get_ext_attr(table);
 457:..\..\..\lvgl\version_6.1.2\lvgl\src\lv_objx/lv_table.c ****     return ext->row_cnt;
 458:..\..\..\lvgl\version_6.1.2\lvgl\src\lv_objx/lv_table.c **** }
 459:..\..\..\lvgl\version_6.1.2\lvgl\src\lv_objx/lv_table.c **** 
 460:..\..\..\lvgl\version_6.1.2\lvgl\src\lv_objx/lv_table.c **** /**
 461:..\..\..\lvgl\version_6.1.2\lvgl\src\lv_objx/lv_table.c ****  * Get the number of columns.
 462:..\..\..\lvgl\version_6.1.2\lvgl\src\lv_objx/lv_table.c ****  * @param table table pointer to a Table object
 463:..\..\..\lvgl\version_6.1.2\lvgl\src\lv_objx/lv_table.c ****  * @return number of columns.
 464:..\..\..\lvgl\version_6.1.2\lvgl\src\lv_objx/lv_table.c ****  */
 465:..\..\..\lvgl\version_6.1.2\lvgl\src\lv_objx/lv_table.c **** uint16_t lv_table_get_col_cnt(lv_obj_t * table)
 466:..\..\..\lvgl\version_6.1.2\lvgl\src\lv_objx/lv_table.c **** {
 467:..\..\..\lvgl\version_6.1.2\lvgl\src\lv_objx/lv_table.c ****     LV_ASSERT_OBJ(table, LV_OBJX_NAME);
 468:..\..\..\lvgl\version_6.1.2\lvgl\src\lv_objx/lv_table.c **** 
 469:..\..\..\lvgl\version_6.1.2\lvgl\src\lv_objx/lv_table.c ****     lv_table_ext_t * ext = lv_obj_get_ext_attr(table);
 470:..\..\..\lvgl\version_6.1.2\lvgl\src\lv_objx/lv_table.c ****     return ext->col_cnt;
 471:..\..\..\lvgl\version_6.1.2\lvgl\src\lv_objx/lv_table.c **** }
 472:..\..\..\lvgl\version_6.1.2\lvgl\src\lv_objx/lv_table.c **** 
 473:..\..\..\lvgl\version_6.1.2\lvgl\src\lv_objx/lv_table.c **** /**
 474:..\..\..\lvgl\version_6.1.2\lvgl\src\lv_objx/lv_table.c ****  * Get the width of a column
 475:..\..\..\lvgl\version_6.1.2\lvgl\src\lv_objx/lv_table.c ****  * @param table table pointer to a Table object
 476:..\..\..\lvgl\version_6.1.2\lvgl\src\lv_objx/lv_table.c ****  * @param col_id id of the column [0 .. LV_TABLE_COL_MAX -1]
 477:..\..\..\lvgl\version_6.1.2\lvgl\src\lv_objx/lv_table.c ****  * @return width of the column
 478:..\..\..\lvgl\version_6.1.2\lvgl\src\lv_objx/lv_table.c ****  */
 479:..\..\..\lvgl\version_6.1.2\lvgl\src\lv_objx/lv_table.c **** lv_coord_t lv_table_get_col_width(lv_obj_t * table, uint16_t col_id)
 480:..\..\..\lvgl\version_6.1.2\lvgl\src\lv_objx/lv_table.c **** {
 481:..\..\..\lvgl\version_6.1.2\lvgl\src\lv_objx/lv_table.c ****     LV_ASSERT_OBJ(table, LV_OBJX_NAME);
 482:..\..\..\lvgl\version_6.1.2\lvgl\src\lv_objx/lv_table.c **** 
 483:..\..\..\lvgl\version_6.1.2\lvgl\src\lv_objx/lv_table.c ****     if(col_id >= LV_TABLE_COL_MAX) {
 484:..\..\..\lvgl\version_6.1.2\lvgl\src\lv_objx/lv_table.c ****         LV_LOG_WARN("lv_table_set_col_width: too big 'col_id'. Must be < LV_TABLE_COL_MAX.");
 485:..\..\..\lvgl\version_6.1.2\lvgl\src\lv_objx/lv_table.c ****         return 0;
 486:..\..\..\lvgl\version_6.1.2\lvgl\src\lv_objx/lv_table.c ****     }
ARM GAS  C:\Users\pearlstl\AppData\Local\Temp\ccIJtgHD.s 			page 10


 487:..\..\..\lvgl\version_6.1.2\lvgl\src\lv_objx/lv_table.c **** 
 488:..\..\..\lvgl\version_6.1.2\lvgl\src\lv_objx/lv_table.c ****     lv_table_ext_t * ext = lv_obj_get_ext_attr(table);
 489:..\..\..\lvgl\version_6.1.2\lvgl\src\lv_objx/lv_table.c ****     return ext->col_w[col_id];
 490:..\..\..\lvgl\version_6.1.2\lvgl\src\lv_objx/lv_table.c **** }
 491:..\..\..\lvgl\version_6.1.2\lvgl\src\lv_objx/lv_table.c **** 
 492:..\..\..\lvgl\version_6.1.2\lvgl\src\lv_objx/lv_table.c **** /**
 493:..\..\..\lvgl\version_6.1.2\lvgl\src\lv_objx/lv_table.c ****  * Get the text align of a cell
 494:..\..\..\lvgl\version_6.1.2\lvgl\src\lv_objx/lv_table.c ****  * @param table pointer to a Table object
 495:..\..\..\lvgl\version_6.1.2\lvgl\src\lv_objx/lv_table.c ****  * @param row id of the row [0 .. row_cnt -1]
 496:..\..\..\lvgl\version_6.1.2\lvgl\src\lv_objx/lv_table.c ****  * @param col id of the column [0 .. col_cnt -1]
 497:..\..\..\lvgl\version_6.1.2\lvgl\src\lv_objx/lv_table.c ****  * @return LV_LABEL_ALIGN_LEFT (default in case of error) or LV_LABEL_ALIGN_CENTER or
 498:..\..\..\lvgl\version_6.1.2\lvgl\src\lv_objx/lv_table.c ****  * LV_LABEL_ALIGN_RIGHT
 499:..\..\..\lvgl\version_6.1.2\lvgl\src\lv_objx/lv_table.c ****  */
 500:..\..\..\lvgl\version_6.1.2\lvgl\src\lv_objx/lv_table.c **** lv_label_align_t lv_table_get_cell_align(lv_obj_t * table, uint16_t row, uint16_t col)
 501:..\..\..\lvgl\version_6.1.2\lvgl\src\lv_objx/lv_table.c **** {
 502:..\..\..\lvgl\version_6.1.2\lvgl\src\lv_objx/lv_table.c ****     LV_ASSERT_OBJ(table, LV_OBJX_NAME);
 503:..\..\..\lvgl\version_6.1.2\lvgl\src\lv_objx/lv_table.c **** 
 504:..\..\..\lvgl\version_6.1.2\lvgl\src\lv_objx/lv_table.c ****     lv_table_ext_t * ext = lv_obj_get_ext_attr(table);
 505:..\..\..\lvgl\version_6.1.2\lvgl\src\lv_objx/lv_table.c ****     if(row >= ext->row_cnt || col >= ext->col_cnt) {
 506:..\..\..\lvgl\version_6.1.2\lvgl\src\lv_objx/lv_table.c ****         LV_LOG_WARN("lv_table_set_cell_align: invalid row or column");
 507:..\..\..\lvgl\version_6.1.2\lvgl\src\lv_objx/lv_table.c ****         return LV_LABEL_ALIGN_LEFT; /*Just return with something*/
 508:..\..\..\lvgl\version_6.1.2\lvgl\src\lv_objx/lv_table.c ****     }
 509:..\..\..\lvgl\version_6.1.2\lvgl\src\lv_objx/lv_table.c ****     uint32_t cell = row * ext->col_cnt + col;
 510:..\..\..\lvgl\version_6.1.2\lvgl\src\lv_objx/lv_table.c **** 
 511:..\..\..\lvgl\version_6.1.2\lvgl\src\lv_objx/lv_table.c ****     if(ext->cell_data[cell] == NULL)
 512:..\..\..\lvgl\version_6.1.2\lvgl\src\lv_objx/lv_table.c ****         return LV_LABEL_ALIGN_LEFT; /*Just return with something*/
 513:..\..\..\lvgl\version_6.1.2\lvgl\src\lv_objx/lv_table.c ****     else {
 514:..\..\..\lvgl\version_6.1.2\lvgl\src\lv_objx/lv_table.c ****         lv_table_cell_format_t format;
 515:..\..\..\lvgl\version_6.1.2\lvgl\src\lv_objx/lv_table.c ****         format.format_byte = ext->cell_data[cell][0];
 516:..\..\..\lvgl\version_6.1.2\lvgl\src\lv_objx/lv_table.c ****         return format.s.align;
 517:..\..\..\lvgl\version_6.1.2\lvgl\src\lv_objx/lv_table.c ****     }
 518:..\..\..\lvgl\version_6.1.2\lvgl\src\lv_objx/lv_table.c **** }
 519:..\..\..\lvgl\version_6.1.2\lvgl\src\lv_objx/lv_table.c **** 
 520:..\..\..\lvgl\version_6.1.2\lvgl\src\lv_objx/lv_table.c **** /**
 521:..\..\..\lvgl\version_6.1.2\lvgl\src\lv_objx/lv_table.c ****  * Get the type of a cell
 522:..\..\..\lvgl\version_6.1.2\lvgl\src\lv_objx/lv_table.c ****  * @param table pointer to a Table object
 523:..\..\..\lvgl\version_6.1.2\lvgl\src\lv_objx/lv_table.c ****  * @param row id of the row [0 .. row_cnt -1]
 524:..\..\..\lvgl\version_6.1.2\lvgl\src\lv_objx/lv_table.c ****  * @param col id of the column [0 .. col_cnt -1]
 525:..\..\..\lvgl\version_6.1.2\lvgl\src\lv_objx/lv_table.c ****  * @return 1,2,3 or 4
 526:..\..\..\lvgl\version_6.1.2\lvgl\src\lv_objx/lv_table.c ****  */
 527:..\..\..\lvgl\version_6.1.2\lvgl\src\lv_objx/lv_table.c **** lv_label_align_t lv_table_get_cell_type(lv_obj_t * table, uint16_t row, uint16_t col)
 528:..\..\..\lvgl\version_6.1.2\lvgl\src\lv_objx/lv_table.c **** {
 529:..\..\..\lvgl\version_6.1.2\lvgl\src\lv_objx/lv_table.c ****     LV_ASSERT_OBJ(table, LV_OBJX_NAME);
 530:..\..\..\lvgl\version_6.1.2\lvgl\src\lv_objx/lv_table.c **** 
 531:..\..\..\lvgl\version_6.1.2\lvgl\src\lv_objx/lv_table.c ****     lv_table_ext_t * ext = lv_obj_get_ext_attr(table);
 532:..\..\..\lvgl\version_6.1.2\lvgl\src\lv_objx/lv_table.c ****     if(row >= ext->row_cnt || col >= ext->col_cnt) {
 533:..\..\..\lvgl\version_6.1.2\lvgl\src\lv_objx/lv_table.c ****         LV_LOG_WARN("lv_table_get_cell_type: invalid row or column");
 534:..\..\..\lvgl\version_6.1.2\lvgl\src\lv_objx/lv_table.c ****         return 1; /*Just return with something*/
 535:..\..\..\lvgl\version_6.1.2\lvgl\src\lv_objx/lv_table.c ****     }
 536:..\..\..\lvgl\version_6.1.2\lvgl\src\lv_objx/lv_table.c ****     uint32_t cell = row * ext->col_cnt + col;
 537:..\..\..\lvgl\version_6.1.2\lvgl\src\lv_objx/lv_table.c **** 
 538:..\..\..\lvgl\version_6.1.2\lvgl\src\lv_objx/lv_table.c ****     if(ext->cell_data[cell] == NULL)
 539:..\..\..\lvgl\version_6.1.2\lvgl\src\lv_objx/lv_table.c ****         return 1; /*Just return with something*/
 540:..\..\..\lvgl\version_6.1.2\lvgl\src\lv_objx/lv_table.c ****     else {
 541:..\..\..\lvgl\version_6.1.2\lvgl\src\lv_objx/lv_table.c ****         lv_table_cell_format_t format;
 542:..\..\..\lvgl\version_6.1.2\lvgl\src\lv_objx/lv_table.c ****         format.format_byte = ext->cell_data[cell][0];
 543:..\..\..\lvgl\version_6.1.2\lvgl\src\lv_objx/lv_table.c ****         return format.s.type + 1; /*0,1,2,3 is stored but user sees 1,2,3,4*/
ARM GAS  C:\Users\pearlstl\AppData\Local\Temp\ccIJtgHD.s 			page 11


 544:..\..\..\lvgl\version_6.1.2\lvgl\src\lv_objx/lv_table.c ****     }
 545:..\..\..\lvgl\version_6.1.2\lvgl\src\lv_objx/lv_table.c **** }
 546:..\..\..\lvgl\version_6.1.2\lvgl\src\lv_objx/lv_table.c **** 
 547:..\..\..\lvgl\version_6.1.2\lvgl\src\lv_objx/lv_table.c **** /**
 548:..\..\..\lvgl\version_6.1.2\lvgl\src\lv_objx/lv_table.c ****  * Get the crop property of a cell
 549:..\..\..\lvgl\version_6.1.2\lvgl\src\lv_objx/lv_table.c ****  * @param table pointer to a Table object
 550:..\..\..\lvgl\version_6.1.2\lvgl\src\lv_objx/lv_table.c ****  * @param row id of the row [0 .. row_cnt -1]
 551:..\..\..\lvgl\version_6.1.2\lvgl\src\lv_objx/lv_table.c ****  * @param col id of the column [0 .. col_cnt -1]
 552:..\..\..\lvgl\version_6.1.2\lvgl\src\lv_objx/lv_table.c ****  * @return true: text crop enabled; false: disabled
 553:..\..\..\lvgl\version_6.1.2\lvgl\src\lv_objx/lv_table.c ****  */
 554:..\..\..\lvgl\version_6.1.2\lvgl\src\lv_objx/lv_table.c **** lv_label_align_t lv_table_get_cell_crop(lv_obj_t * table, uint16_t row, uint16_t col)
 555:..\..\..\lvgl\version_6.1.2\lvgl\src\lv_objx/lv_table.c **** {
 556:..\..\..\lvgl\version_6.1.2\lvgl\src\lv_objx/lv_table.c ****     LV_ASSERT_OBJ(table, LV_OBJX_NAME);
 557:..\..\..\lvgl\version_6.1.2\lvgl\src\lv_objx/lv_table.c **** 
 558:..\..\..\lvgl\version_6.1.2\lvgl\src\lv_objx/lv_table.c ****     lv_table_ext_t * ext = lv_obj_get_ext_attr(table);
 559:..\..\..\lvgl\version_6.1.2\lvgl\src\lv_objx/lv_table.c ****     if(row >= ext->row_cnt || col >= ext->col_cnt) {
 560:..\..\..\lvgl\version_6.1.2\lvgl\src\lv_objx/lv_table.c ****         LV_LOG_WARN("lv_table_get_cell_crop: invalid row or column");
 561:..\..\..\lvgl\version_6.1.2\lvgl\src\lv_objx/lv_table.c ****         return false; /*Just return with something*/
 562:..\..\..\lvgl\version_6.1.2\lvgl\src\lv_objx/lv_table.c ****     }
 563:..\..\..\lvgl\version_6.1.2\lvgl\src\lv_objx/lv_table.c ****     uint32_t cell = row * ext->col_cnt + col;
 564:..\..\..\lvgl\version_6.1.2\lvgl\src\lv_objx/lv_table.c **** 
 565:..\..\..\lvgl\version_6.1.2\lvgl\src\lv_objx/lv_table.c ****     if(ext->cell_data[cell] == NULL)
 566:..\..\..\lvgl\version_6.1.2\lvgl\src\lv_objx/lv_table.c ****         return false; /*Just return with something*/
 567:..\..\..\lvgl\version_6.1.2\lvgl\src\lv_objx/lv_table.c ****     else {
 568:..\..\..\lvgl\version_6.1.2\lvgl\src\lv_objx/lv_table.c ****         lv_table_cell_format_t format;
 569:..\..\..\lvgl\version_6.1.2\lvgl\src\lv_objx/lv_table.c ****         format.format_byte = ext->cell_data[cell][0];
 570:..\..\..\lvgl\version_6.1.2\lvgl\src\lv_objx/lv_table.c ****         return format.s.crop;
 571:..\..\..\lvgl\version_6.1.2\lvgl\src\lv_objx/lv_table.c ****     }
 572:..\..\..\lvgl\version_6.1.2\lvgl\src\lv_objx/lv_table.c **** }
 573:..\..\..\lvgl\version_6.1.2\lvgl\src\lv_objx/lv_table.c **** 
 574:..\..\..\lvgl\version_6.1.2\lvgl\src\lv_objx/lv_table.c **** /**
 575:..\..\..\lvgl\version_6.1.2\lvgl\src\lv_objx/lv_table.c ****  * Get the cell merge attribute.
 576:..\..\..\lvgl\version_6.1.2\lvgl\src\lv_objx/lv_table.c ****  * @param table table pointer to a Table object
 577:..\..\..\lvgl\version_6.1.2\lvgl\src\lv_objx/lv_table.c ****  * @param row id of the row [0 .. row_cnt -1]
 578:..\..\..\lvgl\version_6.1.2\lvgl\src\lv_objx/lv_table.c ****  * @param col id of the column [0 .. col_cnt -1]
 579:..\..\..\lvgl\version_6.1.2\lvgl\src\lv_objx/lv_table.c ****  * @return true: merge right; false: don't merge right
 580:..\..\..\lvgl\version_6.1.2\lvgl\src\lv_objx/lv_table.c ****  */
 581:..\..\..\lvgl\version_6.1.2\lvgl\src\lv_objx/lv_table.c **** bool lv_table_get_cell_merge_right(lv_obj_t * table, uint16_t row, uint16_t col)
 582:..\..\..\lvgl\version_6.1.2\lvgl\src\lv_objx/lv_table.c **** {
 583:..\..\..\lvgl\version_6.1.2\lvgl\src\lv_objx/lv_table.c ****     LV_ASSERT_OBJ(table, LV_OBJX_NAME);
 584:..\..\..\lvgl\version_6.1.2\lvgl\src\lv_objx/lv_table.c **** 
 585:..\..\..\lvgl\version_6.1.2\lvgl\src\lv_objx/lv_table.c ****     lv_table_ext_t * ext = lv_obj_get_ext_attr(table);
 586:..\..\..\lvgl\version_6.1.2\lvgl\src\lv_objx/lv_table.c ****     if(row >= ext->row_cnt || col >= ext->col_cnt) {
 587:..\..\..\lvgl\version_6.1.2\lvgl\src\lv_objx/lv_table.c ****         LV_LOG_WARN("lv_table_get_cell_merge_right: invalid row or column");
 588:..\..\..\lvgl\version_6.1.2\lvgl\src\lv_objx/lv_table.c ****         return false;
 589:..\..\..\lvgl\version_6.1.2\lvgl\src\lv_objx/lv_table.c ****     }
 590:..\..\..\lvgl\version_6.1.2\lvgl\src\lv_objx/lv_table.c **** 
 591:..\..\..\lvgl\version_6.1.2\lvgl\src\lv_objx/lv_table.c ****     uint32_t cell = row * ext->col_cnt + col;
 592:..\..\..\lvgl\version_6.1.2\lvgl\src\lv_objx/lv_table.c **** 
 593:..\..\..\lvgl\version_6.1.2\lvgl\src\lv_objx/lv_table.c ****     if(ext->cell_data[cell] == NULL)
 594:..\..\..\lvgl\version_6.1.2\lvgl\src\lv_objx/lv_table.c ****         return false;
 595:..\..\..\lvgl\version_6.1.2\lvgl\src\lv_objx/lv_table.c ****     else {
 596:..\..\..\lvgl\version_6.1.2\lvgl\src\lv_objx/lv_table.c ****         lv_table_cell_format_t format;
 597:..\..\..\lvgl\version_6.1.2\lvgl\src\lv_objx/lv_table.c ****         format.format_byte = ext->cell_data[cell][0];
 598:..\..\..\lvgl\version_6.1.2\lvgl\src\lv_objx/lv_table.c ****         return format.s.right_merge ? true : false;
 599:..\..\..\lvgl\version_6.1.2\lvgl\src\lv_objx/lv_table.c ****     }
 600:..\..\..\lvgl\version_6.1.2\lvgl\src\lv_objx/lv_table.c **** }
ARM GAS  C:\Users\pearlstl\AppData\Local\Temp\ccIJtgHD.s 			page 12


 601:..\..\..\lvgl\version_6.1.2\lvgl\src\lv_objx/lv_table.c **** 
 602:..\..\..\lvgl\version_6.1.2\lvgl\src\lv_objx/lv_table.c **** /**
 603:..\..\..\lvgl\version_6.1.2\lvgl\src\lv_objx/lv_table.c ****  * Get style of a table.
 604:..\..\..\lvgl\version_6.1.2\lvgl\src\lv_objx/lv_table.c ****  * @param table pointer to table object
 605:..\..\..\lvgl\version_6.1.2\lvgl\src\lv_objx/lv_table.c ****  * @param type which style should be get
 606:..\..\..\lvgl\version_6.1.2\lvgl\src\lv_objx/lv_table.c ****  * @return style pointer to the style
 607:..\..\..\lvgl\version_6.1.2\lvgl\src\lv_objx/lv_table.c ****  */
 608:..\..\..\lvgl\version_6.1.2\lvgl\src\lv_objx/lv_table.c **** const lv_style_t * lv_table_get_style(const lv_obj_t * table, lv_table_style_t type)
 609:..\..\..\lvgl\version_6.1.2\lvgl\src\lv_objx/lv_table.c **** {
 610:..\..\..\lvgl\version_6.1.2\lvgl\src\lv_objx/lv_table.c ****     LV_ASSERT_OBJ(table, LV_OBJX_NAME);
 611:..\..\..\lvgl\version_6.1.2\lvgl\src\lv_objx/lv_table.c **** 
 612:..\..\..\lvgl\version_6.1.2\lvgl\src\lv_objx/lv_table.c ****     lv_table_ext_t * ext     = lv_obj_get_ext_attr(table);
 613:..\..\..\lvgl\version_6.1.2\lvgl\src\lv_objx/lv_table.c ****     const lv_style_t * style = NULL;
 614:..\..\..\lvgl\version_6.1.2\lvgl\src\lv_objx/lv_table.c **** 
 615:..\..\..\lvgl\version_6.1.2\lvgl\src\lv_objx/lv_table.c ****     switch(type) {
 616:..\..\..\lvgl\version_6.1.2\lvgl\src\lv_objx/lv_table.c ****         case LV_TABLE_STYLE_BG: style = lv_obj_get_style(table); break;
 617:..\..\..\lvgl\version_6.1.2\lvgl\src\lv_objx/lv_table.c ****         case LV_TABLE_STYLE_CELL1: style = ext->cell_style[0]; break;
 618:..\..\..\lvgl\version_6.1.2\lvgl\src\lv_objx/lv_table.c ****         case LV_TABLE_STYLE_CELL2: style = ext->cell_style[1]; break;
 619:..\..\..\lvgl\version_6.1.2\lvgl\src\lv_objx/lv_table.c ****         case LV_TABLE_STYLE_CELL3: style = ext->cell_style[2]; break;
 620:..\..\..\lvgl\version_6.1.2\lvgl\src\lv_objx/lv_table.c ****         case LV_TABLE_STYLE_CELL4: style = ext->cell_style[3]; break;
 621:..\..\..\lvgl\version_6.1.2\lvgl\src\lv_objx/lv_table.c ****         default: return NULL;
 622:..\..\..\lvgl\version_6.1.2\lvgl\src\lv_objx/lv_table.c ****     }
 623:..\..\..\lvgl\version_6.1.2\lvgl\src\lv_objx/lv_table.c **** 
 624:..\..\..\lvgl\version_6.1.2\lvgl\src\lv_objx/lv_table.c ****     return style;
 625:..\..\..\lvgl\version_6.1.2\lvgl\src\lv_objx/lv_table.c **** }
 626:..\..\..\lvgl\version_6.1.2\lvgl\src\lv_objx/lv_table.c **** 
 627:..\..\..\lvgl\version_6.1.2\lvgl\src\lv_objx/lv_table.c **** /**********************
 628:..\..\..\lvgl\version_6.1.2\lvgl\src\lv_objx/lv_table.c ****  *   STATIC FUNCTIONS
 629:..\..\..\lvgl\version_6.1.2\lvgl\src\lv_objx/lv_table.c ****  **********************/
 630:..\..\..\lvgl\version_6.1.2\lvgl\src\lv_objx/lv_table.c **** 
 631:..\..\..\lvgl\version_6.1.2\lvgl\src\lv_objx/lv_table.c **** /**
 632:..\..\..\lvgl\version_6.1.2\lvgl\src\lv_objx/lv_table.c ****  * Handle the drawing related tasks of the tables
 633:..\..\..\lvgl\version_6.1.2\lvgl\src\lv_objx/lv_table.c ****  * @param table pointer to an object
 634:..\..\..\lvgl\version_6.1.2\lvgl\src\lv_objx/lv_table.c ****  * @param mask the object will be drawn only in this area
 635:..\..\..\lvgl\version_6.1.2\lvgl\src\lv_objx/lv_table.c ****  * @param mode LV_DESIGN_COVER_CHK: only check if the object fully covers the 'mask_p' area
 636:..\..\..\lvgl\version_6.1.2\lvgl\src\lv_objx/lv_table.c ****  *                                  (return 'true' if yes)
 637:..\..\..\lvgl\version_6.1.2\lvgl\src\lv_objx/lv_table.c ****  *             LV_DESIGN_DRAW: draw the object (always return 'true')
 638:..\..\..\lvgl\version_6.1.2\lvgl\src\lv_objx/lv_table.c ****  *             LV_DESIGN_DRAW_POST: drawing after every children are drawn
 639:..\..\..\lvgl\version_6.1.2\lvgl\src\lv_objx/lv_table.c ****  * @param return true/false, depends on 'mode'
 640:..\..\..\lvgl\version_6.1.2\lvgl\src\lv_objx/lv_table.c ****  */
 641:..\..\..\lvgl\version_6.1.2\lvgl\src\lv_objx/lv_table.c **** static bool lv_table_design(lv_obj_t * table, const lv_area_t * mask, lv_design_mode_t mode)
 642:..\..\..\lvgl\version_6.1.2\lvgl\src\lv_objx/lv_table.c **** {
 643:..\..\..\lvgl\version_6.1.2\lvgl\src\lv_objx/lv_table.c ****     /*Return false if the object is not covers the mask_p area*/
 644:..\..\..\lvgl\version_6.1.2\lvgl\src\lv_objx/lv_table.c ****     if(mode == LV_DESIGN_COVER_CHK) {
 645:..\..\..\lvgl\version_6.1.2\lvgl\src\lv_objx/lv_table.c ****         return false;
 646:..\..\..\lvgl\version_6.1.2\lvgl\src\lv_objx/lv_table.c ****     }
 647:..\..\..\lvgl\version_6.1.2\lvgl\src\lv_objx/lv_table.c ****     /*Draw the object*/
 648:..\..\..\lvgl\version_6.1.2\lvgl\src\lv_objx/lv_table.c ****     else if(mode == LV_DESIGN_DRAW_MAIN) {
 649:..\..\..\lvgl\version_6.1.2\lvgl\src\lv_objx/lv_table.c ****         ancestor_scrl_design(table, mask, mode);
 650:..\..\..\lvgl\version_6.1.2\lvgl\src\lv_objx/lv_table.c **** 
 651:..\..\..\lvgl\version_6.1.2\lvgl\src\lv_objx/lv_table.c ****         lv_table_ext_t * ext        = lv_obj_get_ext_attr(table);
 652:..\..\..\lvgl\version_6.1.2\lvgl\src\lv_objx/lv_table.c ****         const lv_style_t * bg_style = lv_obj_get_style(table);
 653:..\..\..\lvgl\version_6.1.2\lvgl\src\lv_objx/lv_table.c ****         lv_coord_t h_row;
 654:..\..\..\lvgl\version_6.1.2\lvgl\src\lv_objx/lv_table.c ****         lv_point_t txt_size;
 655:..\..\..\lvgl\version_6.1.2\lvgl\src\lv_objx/lv_table.c ****         lv_area_t cell_area;
 656:..\..\..\lvgl\version_6.1.2\lvgl\src\lv_objx/lv_table.c ****         lv_area_t txt_area;
 657:..\..\..\lvgl\version_6.1.2\lvgl\src\lv_objx/lv_table.c ****         lv_txt_flag_t txt_flags;
ARM GAS  C:\Users\pearlstl\AppData\Local\Temp\ccIJtgHD.s 			page 13


 658:..\..\..\lvgl\version_6.1.2\lvgl\src\lv_objx/lv_table.c ****         lv_opa_t opa_scale = lv_obj_get_opa_scale(table);
 659:..\..\..\lvgl\version_6.1.2\lvgl\src\lv_objx/lv_table.c **** 
 660:..\..\..\lvgl\version_6.1.2\lvgl\src\lv_objx/lv_table.c ****         uint16_t col;
 661:..\..\..\lvgl\version_6.1.2\lvgl\src\lv_objx/lv_table.c ****         uint16_t row;
 662:..\..\..\lvgl\version_6.1.2\lvgl\src\lv_objx/lv_table.c ****         uint16_t cell = 0;
 663:..\..\..\lvgl\version_6.1.2\lvgl\src\lv_objx/lv_table.c **** 
 664:..\..\..\lvgl\version_6.1.2\lvgl\src\lv_objx/lv_table.c ****         cell_area.y2 = table->coords.y1 + bg_style->body.padding.top;
 665:..\..\..\lvgl\version_6.1.2\lvgl\src\lv_objx/lv_table.c ****         for(row = 0; row < ext->row_cnt; row++) {
 666:..\..\..\lvgl\version_6.1.2\lvgl\src\lv_objx/lv_table.c ****             h_row = get_row_height(table, row);
 667:..\..\..\lvgl\version_6.1.2\lvgl\src\lv_objx/lv_table.c **** 
 668:..\..\..\lvgl\version_6.1.2\lvgl\src\lv_objx/lv_table.c ****             cell_area.y1 = cell_area.y2 + 1;
 669:..\..\..\lvgl\version_6.1.2\lvgl\src\lv_objx/lv_table.c ****             cell_area.y2 = cell_area.y1 + h_row - 1;
 670:..\..\..\lvgl\version_6.1.2\lvgl\src\lv_objx/lv_table.c **** 
 671:..\..\..\lvgl\version_6.1.2\lvgl\src\lv_objx/lv_table.c ****             cell_area.x2 = table->coords.x1 + bg_style->body.padding.left;
 672:..\..\..\lvgl\version_6.1.2\lvgl\src\lv_objx/lv_table.c **** 
 673:..\..\..\lvgl\version_6.1.2\lvgl\src\lv_objx/lv_table.c ****             for(col = 0; col < ext->col_cnt; col++) {
 674:..\..\..\lvgl\version_6.1.2\lvgl\src\lv_objx/lv_table.c **** 
 675:..\..\..\lvgl\version_6.1.2\lvgl\src\lv_objx/lv_table.c ****                 lv_table_cell_format_t format;
 676:..\..\..\lvgl\version_6.1.2\lvgl\src\lv_objx/lv_table.c ****                 if(ext->cell_data[cell]) {
 677:..\..\..\lvgl\version_6.1.2\lvgl\src\lv_objx/lv_table.c ****                     format.format_byte = ext->cell_data[cell][0];
 678:..\..\..\lvgl\version_6.1.2\lvgl\src\lv_objx/lv_table.c ****                 } else {
 679:..\..\..\lvgl\version_6.1.2\lvgl\src\lv_objx/lv_table.c ****                     format.s.right_merge = 0;
 680:..\..\..\lvgl\version_6.1.2\lvgl\src\lv_objx/lv_table.c ****                     format.s.align       = LV_LABEL_ALIGN_LEFT;
 681:..\..\..\lvgl\version_6.1.2\lvgl\src\lv_objx/lv_table.c ****                     format.s.type        = 0;
 682:..\..\..\lvgl\version_6.1.2\lvgl\src\lv_objx/lv_table.c ****                     format.s.crop        = 1;
 683:..\..\..\lvgl\version_6.1.2\lvgl\src\lv_objx/lv_table.c ****                 }
 684:..\..\..\lvgl\version_6.1.2\lvgl\src\lv_objx/lv_table.c **** 
 685:..\..\..\lvgl\version_6.1.2\lvgl\src\lv_objx/lv_table.c **** 
 686:..\..\..\lvgl\version_6.1.2\lvgl\src\lv_objx/lv_table.c ****                 lv_style_t cell_style;
 687:..\..\..\lvgl\version_6.1.2\lvgl\src\lv_objx/lv_table.c ****                 lv_style_copy(&cell_style, ext->cell_style[format.s.type]);
 688:..\..\..\lvgl\version_6.1.2\lvgl\src\lv_objx/lv_table.c ****                 cell_area.x1 = cell_area.x2 + 1;
 689:..\..\..\lvgl\version_6.1.2\lvgl\src\lv_objx/lv_table.c ****                 cell_area.x2 = cell_area.x1 + ext->col_w[col] - 1;
 690:..\..\..\lvgl\version_6.1.2\lvgl\src\lv_objx/lv_table.c **** 
 691:..\..\..\lvgl\version_6.1.2\lvgl\src\lv_objx/lv_table.c ****                 uint16_t col_merge = 0;
 692:..\..\..\lvgl\version_6.1.2\lvgl\src\lv_objx/lv_table.c ****                 for(col_merge = 0; col_merge + col < ext->col_cnt - 1; col_merge++) {
 693:..\..\..\lvgl\version_6.1.2\lvgl\src\lv_objx/lv_table.c **** 
 694:..\..\..\lvgl\version_6.1.2\lvgl\src\lv_objx/lv_table.c ****                     if(ext->cell_data[cell + col_merge] != NULL) {
 695:..\..\..\lvgl\version_6.1.2\lvgl\src\lv_objx/lv_table.c ****                         format.format_byte = ext->cell_data[cell + col_merge][0];
 696:..\..\..\lvgl\version_6.1.2\lvgl\src\lv_objx/lv_table.c ****                         if(format.s.right_merge)
 697:..\..\..\lvgl\version_6.1.2\lvgl\src\lv_objx/lv_table.c ****                             cell_area.x2 += ext->col_w[col + col_merge + 1];
 698:..\..\..\lvgl\version_6.1.2\lvgl\src\lv_objx/lv_table.c ****                         else
 699:..\..\..\lvgl\version_6.1.2\lvgl\src\lv_objx/lv_table.c ****                             break;
 700:..\..\..\lvgl\version_6.1.2\lvgl\src\lv_objx/lv_table.c ****                     } else {
 701:..\..\..\lvgl\version_6.1.2\lvgl\src\lv_objx/lv_table.c ****                         break;
 702:..\..\..\lvgl\version_6.1.2\lvgl\src\lv_objx/lv_table.c ****                     }
 703:..\..\..\lvgl\version_6.1.2\lvgl\src\lv_objx/lv_table.c ****                 }
 704:..\..\..\lvgl\version_6.1.2\lvgl\src\lv_objx/lv_table.c **** 
 705:..\..\..\lvgl\version_6.1.2\lvgl\src\lv_objx/lv_table.c ****                 lv_draw_rect(&cell_area, mask, &cell_style, opa_scale);
 706:..\..\..\lvgl\version_6.1.2\lvgl\src\lv_objx/lv_table.c **** 
 707:..\..\..\lvgl\version_6.1.2\lvgl\src\lv_objx/lv_table.c ****                 if(ext->cell_data[cell]) {
 708:..\..\..\lvgl\version_6.1.2\lvgl\src\lv_objx/lv_table.c **** 
 709:..\..\..\lvgl\version_6.1.2\lvgl\src\lv_objx/lv_table.c ****                     txt_area.x1 = cell_area.x1 + cell_style.body.padding.left;
 710:..\..\..\lvgl\version_6.1.2\lvgl\src\lv_objx/lv_table.c ****                     txt_area.x2 = cell_area.x2 - cell_style.body.padding.right;
 711:..\..\..\lvgl\version_6.1.2\lvgl\src\lv_objx/lv_table.c ****                     txt_area.y1 = cell_area.y1 + cell_style.body.padding.top;
 712:..\..\..\lvgl\version_6.1.2\lvgl\src\lv_objx/lv_table.c ****                     txt_area.y2 = cell_area.y2 - cell_style.body.padding.bottom;
 713:..\..\..\lvgl\version_6.1.2\lvgl\src\lv_objx/lv_table.c ****                     /*Align the content to the middle if not cropped*/
 714:..\..\..\lvgl\version_6.1.2\lvgl\src\lv_objx/lv_table.c ****                     if(format.s.crop == 0) {
ARM GAS  C:\Users\pearlstl\AppData\Local\Temp\ccIJtgHD.s 			page 14


 715:..\..\..\lvgl\version_6.1.2\lvgl\src\lv_objx/lv_table.c ****                         txt_flags = LV_TXT_FLAG_NONE;
 716:..\..\..\lvgl\version_6.1.2\lvgl\src\lv_objx/lv_table.c ****                     } else {
 717:..\..\..\lvgl\version_6.1.2\lvgl\src\lv_objx/lv_table.c ****                         txt_flags = LV_TXT_FLAG_EXPAND;
 718:..\..\..\lvgl\version_6.1.2\lvgl\src\lv_objx/lv_table.c ****                     }
 719:..\..\..\lvgl\version_6.1.2\lvgl\src\lv_objx/lv_table.c **** 
 720:..\..\..\lvgl\version_6.1.2\lvgl\src\lv_objx/lv_table.c ****                     lv_txt_get_size(&txt_size, ext->cell_data[cell] + 1, cell_style.text.font,
 721:..\..\..\lvgl\version_6.1.2\lvgl\src\lv_objx/lv_table.c ****                                     cell_style.text.letter_space, cell_style.text.line_space,
 722:..\..\..\lvgl\version_6.1.2\lvgl\src\lv_objx/lv_table.c ****                                     lv_area_get_width(&txt_area), txt_flags);
 723:..\..\..\lvgl\version_6.1.2\lvgl\src\lv_objx/lv_table.c **** 
 724:..\..\..\lvgl\version_6.1.2\lvgl\src\lv_objx/lv_table.c ****                     /*Align the content to the middle if not cropped*/
 725:..\..\..\lvgl\version_6.1.2\lvgl\src\lv_objx/lv_table.c ****                     if(format.s.crop == 0) {
 726:..\..\..\lvgl\version_6.1.2\lvgl\src\lv_objx/lv_table.c ****                         txt_area.y1 = cell_area.y1 + h_row / 2 - txt_size.y / 2;
 727:..\..\..\lvgl\version_6.1.2\lvgl\src\lv_objx/lv_table.c ****                         txt_area.y2 = cell_area.y1 + h_row / 2 + txt_size.y / 2;
 728:..\..\..\lvgl\version_6.1.2\lvgl\src\lv_objx/lv_table.c ****                     }
 729:..\..\..\lvgl\version_6.1.2\lvgl\src\lv_objx/lv_table.c **** 
 730:..\..\..\lvgl\version_6.1.2\lvgl\src\lv_objx/lv_table.c ****                     switch(format.s.align) {
 731:..\..\..\lvgl\version_6.1.2\lvgl\src\lv_objx/lv_table.c ****                         default:
 732:..\..\..\lvgl\version_6.1.2\lvgl\src\lv_objx/lv_table.c ****                         case LV_LABEL_ALIGN_LEFT: txt_flags |= LV_TXT_FLAG_NONE; break;
 733:..\..\..\lvgl\version_6.1.2\lvgl\src\lv_objx/lv_table.c ****                         case LV_LABEL_ALIGN_RIGHT: txt_flags |= LV_TXT_FLAG_RIGHT; break;
 734:..\..\..\lvgl\version_6.1.2\lvgl\src\lv_objx/lv_table.c ****                         case LV_LABEL_ALIGN_CENTER: txt_flags |= LV_TXT_FLAG_CENTER; break;
 735:..\..\..\lvgl\version_6.1.2\lvgl\src\lv_objx/lv_table.c ****                     }
 736:..\..\..\lvgl\version_6.1.2\lvgl\src\lv_objx/lv_table.c **** 
 737:..\..\..\lvgl\version_6.1.2\lvgl\src\lv_objx/lv_table.c ****                     lv_area_t label_mask;
 738:..\..\..\lvgl\version_6.1.2\lvgl\src\lv_objx/lv_table.c ****                     bool label_mask_ok;
 739:..\..\..\lvgl\version_6.1.2\lvgl\src\lv_objx/lv_table.c ****                     label_mask_ok = lv_area_intersect(&label_mask, mask, &cell_area);
 740:..\..\..\lvgl\version_6.1.2\lvgl\src\lv_objx/lv_table.c ****                     if(label_mask_ok) {
 741:..\..\..\lvgl\version_6.1.2\lvgl\src\lv_objx/lv_table.c ****                         lv_draw_label(&txt_area, &label_mask, &cell_style, opa_scale, ext->cell_dat
 742:..\..\..\lvgl\version_6.1.2\lvgl\src\lv_objx/lv_table.c ****                                       txt_flags, NULL, NULL, NULL, lv_obj_get_base_dir(table));
 743:..\..\..\lvgl\version_6.1.2\lvgl\src\lv_objx/lv_table.c ****                     }
 744:..\..\..\lvgl\version_6.1.2\lvgl\src\lv_objx/lv_table.c ****                     /*Draw lines after '\n's*/
 745:..\..\..\lvgl\version_6.1.2\lvgl\src\lv_objx/lv_table.c ****                     lv_point_t p1;
 746:..\..\..\lvgl\version_6.1.2\lvgl\src\lv_objx/lv_table.c ****                     lv_point_t p2;
 747:..\..\..\lvgl\version_6.1.2\lvgl\src\lv_objx/lv_table.c ****                     p1.x = cell_area.x1;
 748:..\..\..\lvgl\version_6.1.2\lvgl\src\lv_objx/lv_table.c ****                     p2.x = cell_area.x2;
 749:..\..\..\lvgl\version_6.1.2\lvgl\src\lv_objx/lv_table.c ****                     uint16_t i;
 750:..\..\..\lvgl\version_6.1.2\lvgl\src\lv_objx/lv_table.c ****                     for(i = 1; ext->cell_data[cell][i] != '\0'; i++) {
 751:..\..\..\lvgl\version_6.1.2\lvgl\src\lv_objx/lv_table.c ****                         if(ext->cell_data[cell][i] == '\n') {
 752:..\..\..\lvgl\version_6.1.2\lvgl\src\lv_objx/lv_table.c ****                             ext->cell_data[cell][i] = '\0';
 753:..\..\..\lvgl\version_6.1.2\lvgl\src\lv_objx/lv_table.c ****                             lv_txt_get_size(&txt_size, ext->cell_data[cell] + 1, cell_style.text.fo
 754:..\..\..\lvgl\version_6.1.2\lvgl\src\lv_objx/lv_table.c ****                                             cell_style.text.letter_space, cell_style.text.line_spac
 755:..\..\..\lvgl\version_6.1.2\lvgl\src\lv_objx/lv_table.c ****                                             lv_area_get_width(&txt_area), txt_flags);
 756:..\..\..\lvgl\version_6.1.2\lvgl\src\lv_objx/lv_table.c **** 
 757:..\..\..\lvgl\version_6.1.2\lvgl\src\lv_objx/lv_table.c ****                             p1.y = txt_area.y1 + txt_size.y + cell_style.text.line_space / 2;
 758:..\..\..\lvgl\version_6.1.2\lvgl\src\lv_objx/lv_table.c ****                             p2.y = txt_area.y1 + txt_size.y + cell_style.text.line_space / 2;
 759:..\..\..\lvgl\version_6.1.2\lvgl\src\lv_objx/lv_table.c ****                             lv_draw_line(&p1, &p2, mask, &cell_style, opa_scale);
 760:..\..\..\lvgl\version_6.1.2\lvgl\src\lv_objx/lv_table.c **** 
 761:..\..\..\lvgl\version_6.1.2\lvgl\src\lv_objx/lv_table.c ****                             ext->cell_data[cell][i] = '\n';
 762:..\..\..\lvgl\version_6.1.2\lvgl\src\lv_objx/lv_table.c ****                         }
 763:..\..\..\lvgl\version_6.1.2\lvgl\src\lv_objx/lv_table.c ****                     }
 764:..\..\..\lvgl\version_6.1.2\lvgl\src\lv_objx/lv_table.c ****                 }
 765:..\..\..\lvgl\version_6.1.2\lvgl\src\lv_objx/lv_table.c **** 
 766:..\..\..\lvgl\version_6.1.2\lvgl\src\lv_objx/lv_table.c ****                 cell += col_merge + 1;
 767:..\..\..\lvgl\version_6.1.2\lvgl\src\lv_objx/lv_table.c ****                 col += col_merge;
 768:..\..\..\lvgl\version_6.1.2\lvgl\src\lv_objx/lv_table.c ****             }
 769:..\..\..\lvgl\version_6.1.2\lvgl\src\lv_objx/lv_table.c ****         }
 770:..\..\..\lvgl\version_6.1.2\lvgl\src\lv_objx/lv_table.c ****     }
 771:..\..\..\lvgl\version_6.1.2\lvgl\src\lv_objx/lv_table.c ****     /*Post draw when the children are drawn*/
ARM GAS  C:\Users\pearlstl\AppData\Local\Temp\ccIJtgHD.s 			page 15


 772:..\..\..\lvgl\version_6.1.2\lvgl\src\lv_objx/lv_table.c ****     else if(mode == LV_DESIGN_DRAW_POST) {
 773:..\..\..\lvgl\version_6.1.2\lvgl\src\lv_objx/lv_table.c ****     }
 774:..\..\..\lvgl\version_6.1.2\lvgl\src\lv_objx/lv_table.c **** 
 775:..\..\..\lvgl\version_6.1.2\lvgl\src\lv_objx/lv_table.c ****     return true;
 776:..\..\..\lvgl\version_6.1.2\lvgl\src\lv_objx/lv_table.c **** }
 777:..\..\..\lvgl\version_6.1.2\lvgl\src\lv_objx/lv_table.c **** 
 778:..\..\..\lvgl\version_6.1.2\lvgl\src\lv_objx/lv_table.c **** /**
 779:..\..\..\lvgl\version_6.1.2\lvgl\src\lv_objx/lv_table.c ****  * Signal function of the table
 780:..\..\..\lvgl\version_6.1.2\lvgl\src\lv_objx/lv_table.c ****  * @param table pointer to a table object
 781:..\..\..\lvgl\version_6.1.2\lvgl\src\lv_objx/lv_table.c ****  * @param sign a signal type from lv_signal_t enum
 782:..\..\..\lvgl\version_6.1.2\lvgl\src\lv_objx/lv_table.c ****  * @param param pointer to a signal specific variable
 783:..\..\..\lvgl\version_6.1.2\lvgl\src\lv_objx/lv_table.c ****  * @return LV_RES_OK: the object is not deleted in the function; LV_RES_INV: the object is deleted
 784:..\..\..\lvgl\version_6.1.2\lvgl\src\lv_objx/lv_table.c ****  */
 785:..\..\..\lvgl\version_6.1.2\lvgl\src\lv_objx/lv_table.c **** static lv_res_t lv_table_signal(lv_obj_t * table, lv_signal_t sign, void * param)
 786:..\..\..\lvgl\version_6.1.2\lvgl\src\lv_objx/lv_table.c **** {
 787:..\..\..\lvgl\version_6.1.2\lvgl\src\lv_objx/lv_table.c ****     lv_res_t res;
 788:..\..\..\lvgl\version_6.1.2\lvgl\src\lv_objx/lv_table.c **** 
 789:..\..\..\lvgl\version_6.1.2\lvgl\src\lv_objx/lv_table.c ****     /* Include the ancient signal function */
 790:..\..\..\lvgl\version_6.1.2\lvgl\src\lv_objx/lv_table.c ****     res = ancestor_signal(table, sign, param);
 791:..\..\..\lvgl\version_6.1.2\lvgl\src\lv_objx/lv_table.c ****     if(res != LV_RES_OK) return res;
 792:..\..\..\lvgl\version_6.1.2\lvgl\src\lv_objx/lv_table.c ****     if(sign == LV_SIGNAL_GET_TYPE) return lv_obj_handle_get_type_signal(param, LV_OBJX_NAME);
 793:..\..\..\lvgl\version_6.1.2\lvgl\src\lv_objx/lv_table.c **** 
 794:..\..\..\lvgl\version_6.1.2\lvgl\src\lv_objx/lv_table.c ****     if(sign == LV_SIGNAL_CLEANUP) {
 795:..\..\..\lvgl\version_6.1.2\lvgl\src\lv_objx/lv_table.c ****         /*Free the cell texts*/
 796:..\..\..\lvgl\version_6.1.2\lvgl\src\lv_objx/lv_table.c ****         lv_table_ext_t * ext = lv_obj_get_ext_attr(table);
 797:..\..\..\lvgl\version_6.1.2\lvgl\src\lv_objx/lv_table.c ****         uint16_t cell;
 798:..\..\..\lvgl\version_6.1.2\lvgl\src\lv_objx/lv_table.c ****         for(cell = 0; cell < ext->col_cnt * ext->row_cnt; cell++) {
 799:..\..\..\lvgl\version_6.1.2\lvgl\src\lv_objx/lv_table.c ****             if(ext->cell_data[cell]) {
 800:..\..\..\lvgl\version_6.1.2\lvgl\src\lv_objx/lv_table.c ****                 lv_mem_free(ext->cell_data[cell]);
 801:..\..\..\lvgl\version_6.1.2\lvgl\src\lv_objx/lv_table.c ****                 ext->cell_data[cell] = NULL;
 802:..\..\..\lvgl\version_6.1.2\lvgl\src\lv_objx/lv_table.c ****             }
 803:..\..\..\lvgl\version_6.1.2\lvgl\src\lv_objx/lv_table.c ****         }
 804:..\..\..\lvgl\version_6.1.2\lvgl\src\lv_objx/lv_table.c ****         if(ext->cell_data != NULL)
 805:..\..\..\lvgl\version_6.1.2\lvgl\src\lv_objx/lv_table.c ****             lv_mem_free(ext->cell_data);
 806:..\..\..\lvgl\version_6.1.2\lvgl\src\lv_objx/lv_table.c ****     }
 807:..\..\..\lvgl\version_6.1.2\lvgl\src\lv_objx/lv_table.c **** 
 808:..\..\..\lvgl\version_6.1.2\lvgl\src\lv_objx/lv_table.c ****     return res;
 809:..\..\..\lvgl\version_6.1.2\lvgl\src\lv_objx/lv_table.c **** }
 810:..\..\..\lvgl\version_6.1.2\lvgl\src\lv_objx/lv_table.c **** 
 811:..\..\..\lvgl\version_6.1.2\lvgl\src\lv_objx/lv_table.c **** static void refr_size(lv_obj_t * table)
 812:..\..\..\lvgl\version_6.1.2\lvgl\src\lv_objx/lv_table.c **** {
 813:..\..\..\lvgl\version_6.1.2\lvgl\src\lv_objx/lv_table.c ****     lv_coord_t h = 0;
 814:..\..\..\lvgl\version_6.1.2\lvgl\src\lv_objx/lv_table.c ****     lv_coord_t w = 0;
 815:..\..\..\lvgl\version_6.1.2\lvgl\src\lv_objx/lv_table.c **** 
 816:..\..\..\lvgl\version_6.1.2\lvgl\src\lv_objx/lv_table.c ****     lv_table_ext_t * ext = lv_obj_get_ext_attr(table);
 817:..\..\..\lvgl\version_6.1.2\lvgl\src\lv_objx/lv_table.c **** 
 818:..\..\..\lvgl\version_6.1.2\lvgl\src\lv_objx/lv_table.c ****     uint16_t i;
 819:..\..\..\lvgl\version_6.1.2\lvgl\src\lv_objx/lv_table.c ****     for(i = 0; i < ext->col_cnt; i++) {
 820:..\..\..\lvgl\version_6.1.2\lvgl\src\lv_objx/lv_table.c ****         w += ext->col_w[i];
 821:..\..\..\lvgl\version_6.1.2\lvgl\src\lv_objx/lv_table.c ****     }
 822:..\..\..\lvgl\version_6.1.2\lvgl\src\lv_objx/lv_table.c ****     for(i = 0; i < ext->row_cnt; i++) {
 823:..\..\..\lvgl\version_6.1.2\lvgl\src\lv_objx/lv_table.c ****         h += get_row_height(table, i);
 824:..\..\..\lvgl\version_6.1.2\lvgl\src\lv_objx/lv_table.c ****     }
 825:..\..\..\lvgl\version_6.1.2\lvgl\src\lv_objx/lv_table.c **** 
 826:..\..\..\lvgl\version_6.1.2\lvgl\src\lv_objx/lv_table.c ****     const lv_style_t * bg_style = lv_obj_get_style(table);
 827:..\..\..\lvgl\version_6.1.2\lvgl\src\lv_objx/lv_table.c **** 
 828:..\..\..\lvgl\version_6.1.2\lvgl\src\lv_objx/lv_table.c ****     w += bg_style->body.padding.left + bg_style->body.padding.right;
ARM GAS  C:\Users\pearlstl\AppData\Local\Temp\ccIJtgHD.s 			page 16


 829:..\..\..\lvgl\version_6.1.2\lvgl\src\lv_objx/lv_table.c ****     h += bg_style->body.padding.top + bg_style->body.padding.bottom;
 830:..\..\..\lvgl\version_6.1.2\lvgl\src\lv_objx/lv_table.c **** 
 831:..\..\..\lvgl\version_6.1.2\lvgl\src\lv_objx/lv_table.c ****     lv_obj_set_size(table, w + 1, h + 1);
 832:..\..\..\lvgl\version_6.1.2\lvgl\src\lv_objx/lv_table.c ****     lv_obj_invalidate(table);
 833:..\..\..\lvgl\version_6.1.2\lvgl\src\lv_objx/lv_table.c **** }
 834:..\..\..\lvgl\version_6.1.2\lvgl\src\lv_objx/lv_table.c **** 
 835:..\..\..\lvgl\version_6.1.2\lvgl\src\lv_objx/lv_table.c **** static lv_coord_t get_row_height(lv_obj_t * table, uint16_t row_id)
 836:..\..\..\lvgl\version_6.1.2\lvgl\src\lv_objx/lv_table.c **** {
  28              		.loc 1 836 0
  29              		.cfi_startproc
  30              		@ args = 0, pretend = 0, frame = 8
  31              		@ frame_needed = 0, uses_anonymous_args = 0
  32              	.LVL0:
  33 0000 2DE9F047 		push	{r4, r5, r6, r7, r8, r9, r10, lr}
  34              		.cfi_def_cfa_offset 32
  35              		.cfi_offset 4, -32
  36              		.cfi_offset 5, -28
  37              		.cfi_offset 6, -24
  38              		.cfi_offset 7, -20
  39              		.cfi_offset 8, -16
  40              		.cfi_offset 9, -12
  41              		.cfi_offset 10, -8
  42              		.cfi_offset 14, -4
  43 0004 86B0     		sub	sp, sp, #24
  44              		.cfi_def_cfa_offset 56
  45              		.loc 1 836 0
  46 0006 0C46     		mov	r4, r1
 837:..\..\..\lvgl\version_6.1.2\lvgl\src\lv_objx/lv_table.c ****     lv_table_ext_t * ext = lv_obj_get_ext_attr(table);
  47              		.loc 1 837 0
  48 0008 FFF7FEFF 		bl	lv_obj_get_ext_attr
  49              	.LVL1:
 838:..\..\..\lvgl\version_6.1.2\lvgl\src\lv_objx/lv_table.c ****     lv_point_t txt_size;
 839:..\..\..\lvgl\version_6.1.2\lvgl\src\lv_objx/lv_table.c ****     lv_coord_t txt_w;
 840:..\..\..\lvgl\version_6.1.2\lvgl\src\lv_objx/lv_table.c ****     const lv_style_t * cell_style;
 841:..\..\..\lvgl\version_6.1.2\lvgl\src\lv_objx/lv_table.c **** 
 842:..\..\..\lvgl\version_6.1.2\lvgl\src\lv_objx/lv_table.c ****     uint16_t row_start = row_id * ext->col_cnt;
 843:..\..\..\lvgl\version_6.1.2\lvgl\src\lv_objx/lv_table.c ****     uint16_t cell;
 844:..\..\..\lvgl\version_6.1.2\lvgl\src\lv_objx/lv_table.c ****     uint16_t col;
 845:..\..\..\lvgl\version_6.1.2\lvgl\src\lv_objx/lv_table.c ****     lv_coord_t h_max = lv_font_get_line_height(ext->cell_style[0]->text.font) + ext->cell_style[0]-
  50              		.loc 1 845 0
  51 000c 8268     		ldr	r2, [r0, #8]
 842:..\..\..\lvgl\version_6.1.2\lvgl\src\lv_objx/lv_table.c ****     uint16_t cell;
  52              		.loc 1 842 0
  53 000e B0F800E0 		ldrh	lr, [r0]
  54              		.loc 1 845 0
  55 0012 118C     		ldrh	r1, [r2, #32]
  56 0014 538C     		ldrh	r3, [r2, #34]
 837:..\..\..\lvgl\version_6.1.2\lvgl\src\lv_objx/lv_table.c ****     lv_table_ext_t * ext = lv_obj_get_ext_attr(table);
  57              		.loc 1 837 0
  58 0016 0646     		mov	r6, r0
  59              	.LVL2:
  60 0018 506B     		ldr	r0, [r2, #52]
  61              	.LVL3:
 842:..\..\..\lvgl\version_6.1.2\lvgl\src\lv_objx/lv_table.c ****     uint16_t cell;
  62              		.loc 1 842 0
  63 001a 1EFB04F4 		smulbb	r4, lr, r4
  64              		.loc 1 845 0
ARM GAS  C:\Users\pearlstl\AppData\Local\Temp\ccIJtgHD.s 			page 17


  65 001e 077A     		ldrb	r7, [r0, #8]	@ zero_extendqisi2
  66 0020 0B44     		add	r3, r3, r1
 842:..\..\..\lvgl\version_6.1.2\lvgl\src\lv_objx/lv_table.c ****     uint16_t cell;
  67              		.loc 1 842 0
  68 0022 A5B2     		uxth	r5, r4
  69              	.LVL4:
  70              		.loc 1 845 0
  71 0024 1F44     		add	r7, r7, r3
 846:..\..\..\lvgl\version_6.1.2\lvgl\src\lv_objx/lv_table.c ****                        ext->cell_style[0]->body.padding.bottom;
 847:..\..\..\lvgl\version_6.1.2\lvgl\src\lv_objx/lv_table.c **** 
 848:..\..\..\lvgl\version_6.1.2\lvgl\src\lv_objx/lv_table.c ****     for(cell = row_start, col = 0; cell < row_start + ext->col_cnt; cell++, col++) {
  72              		.loc 1 848 0
  73 0026 0EEB0503 		add	r3, lr, r5
  74 002a AB42     		cmp	r3, r5
 845:..\..\..\lvgl\version_6.1.2\lvgl\src\lv_objx/lv_table.c ****                        ext->cell_style[0]->body.padding.bottom;
  75              		.loc 1 845 0
  76 002c 3FB2     		sxth	r7, r7
  77              	.LVL5:
  78              		.loc 1 848 0
  79 002e 51DD     		ble	.L2
  80 0030 A846     		mov	r8, r5
  81 0032 4FF00009 		mov	r9, #0
  82              	.LVL6:
  83              	.L9:
 849:..\..\..\lvgl\version_6.1.2\lvgl\src\lv_objx/lv_table.c ****         if(ext->cell_data[cell] != NULL) {
  84              		.loc 1 849 0
  85 0036 7168     		ldr	r1, [r6, #4]
  86 0038 51F825C0 		ldr	ip, [r1, r5, lsl #2]
  87 003c BCF1000F 		cmp	ip, #0
  88 0040 3ED0     		beq	.L3
  89              	.LBB41:
 850:..\..\..\lvgl\version_6.1.2\lvgl\src\lv_objx/lv_table.c **** 
 851:..\..\..\lvgl\version_6.1.2\lvgl\src\lv_objx/lv_table.c ****             txt_w              = ext->col_w[col];
  90              		.loc 1 851 0
  91 0042 09F10C03 		add	r3, r9, #12
 852:..\..\..\lvgl\version_6.1.2\lvgl\src\lv_objx/lv_table.c ****             uint16_t col_merge = 0;
 853:..\..\..\lvgl\version_6.1.2\lvgl\src\lv_objx/lv_table.c ****             for(col_merge = 0; col_merge + col < ext->col_cnt - 1; col_merge++) {
  92              		.loc 1 853 0
  93 0046 0EF1FF3A 		add	r10, lr, #-1
  94 004a D145     		cmp	r9, r10
 851:..\..\..\lvgl\version_6.1.2\lvgl\src\lv_objx/lv_table.c ****             uint16_t col_merge = 0;
  95              		.loc 1 851 0
  96 004c 36F91320 		ldrsh	r2, [r6, r3, lsl #1]
  97              	.LVL7:
  98              		.loc 1 853 0
  99 0050 6DDA     		bge	.L10
 100              	.LVL8:
 101              	.LBB42:
 854:..\..\..\lvgl\version_6.1.2\lvgl\src\lv_objx/lv_table.c **** 
 855:..\..\..\lvgl\version_6.1.2\lvgl\src\lv_objx/lv_table.c ****                 if(ext->cell_data[cell + col_merge] != NULL) {
 856:..\..\..\lvgl\version_6.1.2\lvgl\src\lv_objx/lv_table.c ****                     lv_table_cell_format_t format;
 857:..\..\..\lvgl\version_6.1.2\lvgl\src\lv_objx/lv_table.c ****                     format.format_byte = ext->cell_data[cell + col_merge][0];
 858:..\..\..\lvgl\version_6.1.2\lvgl\src\lv_objx/lv_table.c ****                     if(format.s.right_merge)
 102              		.loc 1 858 0
 103 0052 9CF80030 		ldrb	r3, [ip]	@ zero_extendqisi2
 104 0056 03F00403 		and	r3, r3, #4
 105 005a 03F0FF04 		and	r4, r3, #255
ARM GAS  C:\Users\pearlstl\AppData\Local\Temp\ccIJtgHD.s 			page 18


 106 005e ABB1     		cbz	r3, .L4
 107 0060 4B46     		mov	r3, r9
 108 0062 0024     		movs	r4, #0
 109 0064 05E0     		b	.L5
 110              	.LVL9:
 111              	.L6:
 112              	.LBE42:
 855:..\..\..\lvgl\version_6.1.2\lvgl\src\lv_objx/lv_table.c ****                     lv_table_cell_format_t format;
 113              		.loc 1 855 0
 114 0066 51F82000 		ldr	r0, [r1, r0, lsl #2]
 115              	.LVL10:
 116 006a 78B1     		cbz	r0, .L4
 117              	.LBB43:
 118              		.loc 1 858 0
 119 006c 0078     		ldrb	r0, [r0]	@ zero_extendqisi2
 120              	.LVL11:
 121 006e 4007     		lsls	r0, r0, #29
 122 0070 0CD5     		bpl	.L4
 123              	.LVL12:
 124              	.L5:
 859:..\..\..\lvgl\version_6.1.2\lvgl\src\lv_objx/lv_table.c ****                         txt_w += ext->col_w[col + col_merge + 1];
 125              		.loc 1 859 0
 126 0072 0D33     		adds	r3, r3, #13
 127              	.LBE43:
 853:..\..\..\lvgl\version_6.1.2\lvgl\src\lv_objx/lv_table.c **** 
 128              		.loc 1 853 0
 129 0074 0134     		adds	r4, r4, #1
 130              	.LVL13:
 131              	.LBB44:
 132              		.loc 1 859 0
 133 0076 36F81330 		ldrh	r3, [r6, r3, lsl #1]
 134              	.LBE44:
 853:..\..\..\lvgl\version_6.1.2\lvgl\src\lv_objx/lv_table.c **** 
 135              		.loc 1 853 0
 136 007a A4B2     		uxth	r4, r4
 137              	.LBB45:
 138              		.loc 1 859 0
 139 007c 1A44     		add	r2, r2, r3
 140              	.LVL14:
 141              	.LBE45:
 853:..\..\..\lvgl\version_6.1.2\lvgl\src\lv_objx/lv_table.c **** 
 142              		.loc 1 853 0
 143 007e 09EB0403 		add	r3, r9, r4
 144 0082 5345     		cmp	r3, r10
 855:..\..\..\lvgl\version_6.1.2\lvgl\src\lv_objx/lv_table.c ****                     lv_table_cell_format_t format;
 145              		.loc 1 855 0
 146 0084 04EB0500 		add	r0, r4, r5
 147              	.LBB46:
 148              		.loc 1 859 0
 149 0088 12B2     		sxth	r2, r2
 150              	.LVL15:
 151              	.LBE46:
 853:..\..\..\lvgl\version_6.1.2\lvgl\src\lv_objx/lv_table.c **** 
 152              		.loc 1 853 0
 153 008a ECDB     		blt	.L6
 154              	.LVL16:
 155              	.L4:
ARM GAS  C:\Users\pearlstl\AppData\Local\Temp\ccIJtgHD.s 			page 19


 860:..\..\..\lvgl\version_6.1.2\lvgl\src\lv_objx/lv_table.c ****                     else
 861:..\..\..\lvgl\version_6.1.2\lvgl\src\lv_objx/lv_table.c ****                         break;
 862:..\..\..\lvgl\version_6.1.2\lvgl\src\lv_objx/lv_table.c ****                 } else {
 863:..\..\..\lvgl\version_6.1.2\lvgl\src\lv_objx/lv_table.c ****                     break;
 864:..\..\..\lvgl\version_6.1.2\lvgl\src\lv_objx/lv_table.c ****                 }
 865:..\..\..\lvgl\version_6.1.2\lvgl\src\lv_objx/lv_table.c ****             }
 866:..\..\..\lvgl\version_6.1.2\lvgl\src\lv_objx/lv_table.c **** 
 867:..\..\..\lvgl\version_6.1.2\lvgl\src\lv_objx/lv_table.c ****             lv_table_cell_format_t format;
 868:..\..\..\lvgl\version_6.1.2\lvgl\src\lv_objx/lv_table.c ****             format.format_byte = ext->cell_data[cell][0];
 156              		.loc 1 868 0
 157 008c 9CF80030 		ldrb	r3, [ip]	@ zero_extendqisi2
 869:..\..\..\lvgl\version_6.1.2\lvgl\src\lv_objx/lv_table.c ****             cell_style         = ext->cell_style[format.s.type];
 158              		.loc 1 869 0
 159 0090 C3F3C101 		ubfx	r1, r3, #3, #2
 160 0094 0231     		adds	r1, r1, #2
 870:..\..\..\lvgl\version_6.1.2\lvgl\src\lv_objx/lv_table.c **** 
 871:..\..\..\lvgl\version_6.1.2\lvgl\src\lv_objx/lv_table.c ****             /*With text crop assume 1 line*/
 872:..\..\..\lvgl\version_6.1.2\lvgl\src\lv_objx/lv_table.c ****             if(format.s.crop) {
 161              		.loc 1 872 0
 162 0096 03F02003 		and	r3, r3, #32
 869:..\..\..\lvgl\version_6.1.2\lvgl\src\lv_objx/lv_table.c ****             cell_style         = ext->cell_style[format.s.type];
 163              		.loc 1 869 0
 164 009a 56F821A0 		ldr	r10, [r6, r1, lsl #2]
 165              	.LVL17:
 166              		.loc 1 872 0
 167 009e 03F0FF00 		and	r0, r3, #255
 168 00a2 DBB1     		cbz	r3, .L7
 169 00a4 DAF83430 		ldr	r3, [r10, #52]
 873:..\..\..\lvgl\version_6.1.2\lvgl\src\lv_objx/lv_table.c ****                 h_max = LV_MATH_MAX(lv_font_get_line_height(cell_style->text.font) + cell_style->bo
 170              		.loc 1 873 0
 171 00a8 BAF92000 		ldrsh	r0, [r10, #32]
 172 00ac 1A7A     		ldrb	r2, [r3, #8]	@ zero_extendqisi2
 173              	.LVL18:
 174 00ae BAF92210 		ldrsh	r1, [r10, #34]
 175 00b2 1318     		adds	r3, r2, r0
 176              	.LVL19:
 177 00b4 0B44     		add	r3, r3, r1
 178 00b6 BB42     		cmp	r3, r7
 179 00b8 02DD     		ble	.L3
 180              	.LVL20:
 181              		.loc 1 873 0 is_stmt 0 discriminator 1
 182 00ba 4718     		adds	r7, r0, r1
 183              	.LVL21:
 184 00bc 1744     		add	r7, r7, r2
 185 00be 3FB2     		sxth	r7, r7
 186              	.LVL22:
 187              	.L3:
 188              	.LBE41:
 848:..\..\..\lvgl\version_6.1.2\lvgl\src\lv_objx/lv_table.c ****         if(ext->cell_data[cell] != NULL) {
 189              		.loc 1 848 0 is_stmt 1 discriminator 2
 190 00c0 0135     		adds	r5, r5, #1
 191              	.LVL23:
 192 00c2 ADB2     		uxth	r5, r5
 193              	.LVL24:
 194 00c4 0EEB0803 		add	r3, lr, r8
 195 00c8 09F10104 		add	r4, r9, #1
 196 00cc 9D42     		cmp	r5, r3
ARM GAS  C:\Users\pearlstl\AppData\Local\Temp\ccIJtgHD.s 			page 20


 197 00ce 1FFA84F9 		uxth	r9, r4
 198              	.LVL25:
 199 00d2 B0DB     		blt	.L9
 200              	.LVL26:
 201              	.L2:
 874:..\..\..\lvgl\version_6.1.2\lvgl\src\lv_objx/lv_table.c ****                                         cell_style->body.padding.bottom,
 875:..\..\..\lvgl\version_6.1.2\lvgl\src\lv_objx/lv_table.c ****                                     h_max);
 876:..\..\..\lvgl\version_6.1.2\lvgl\src\lv_objx/lv_table.c ****             }
 877:..\..\..\lvgl\version_6.1.2\lvgl\src\lv_objx/lv_table.c ****             /*Without text crop calculate the height of the text in the cell*/
 878:..\..\..\lvgl\version_6.1.2\lvgl\src\lv_objx/lv_table.c ****             else {
 879:..\..\..\lvgl\version_6.1.2\lvgl\src\lv_objx/lv_table.c ****                 txt_w -= cell_style->body.padding.left + cell_style->body.padding.right;
 880:..\..\..\lvgl\version_6.1.2\lvgl\src\lv_objx/lv_table.c **** 
 881:..\..\..\lvgl\version_6.1.2\lvgl\src\lv_objx/lv_table.c ****                 lv_txt_get_size(&txt_size, ext->cell_data[cell] + 1, cell_style->text.font,
 882:..\..\..\lvgl\version_6.1.2\lvgl\src\lv_objx/lv_table.c ****                                 cell_style->text.letter_space, cell_style->text.line_space, txt_w, 
 883:..\..\..\lvgl\version_6.1.2\lvgl\src\lv_objx/lv_table.c **** 
 884:..\..\..\lvgl\version_6.1.2\lvgl\src\lv_objx/lv_table.c ****                 h_max = LV_MATH_MAX(txt_size.y + cell_style->body.padding.top + cell_style->body.pa
 885:..\..\..\lvgl\version_6.1.2\lvgl\src\lv_objx/lv_table.c ****                 cell += col_merge;
 886:..\..\..\lvgl\version_6.1.2\lvgl\src\lv_objx/lv_table.c ****                 col += col_merge;
 887:..\..\..\lvgl\version_6.1.2\lvgl\src\lv_objx/lv_table.c ****             }
 888:..\..\..\lvgl\version_6.1.2\lvgl\src\lv_objx/lv_table.c ****         }
 889:..\..\..\lvgl\version_6.1.2\lvgl\src\lv_objx/lv_table.c ****     }
 890:..\..\..\lvgl\version_6.1.2\lvgl\src\lv_objx/lv_table.c **** 
 891:..\..\..\lvgl\version_6.1.2\lvgl\src\lv_objx/lv_table.c ****     return h_max;
 892:..\..\..\lvgl\version_6.1.2\lvgl\src\lv_objx/lv_table.c **** }
 202              		.loc 1 892 0
 203 00d4 3846     		mov	r0, r7
 204 00d6 06B0     		add	sp, sp, #24
 205              		.cfi_remember_state
 206              		.cfi_def_cfa_offset 32
 207              		@ sp needed
 208 00d8 BDE8F087 		pop	{r4, r5, r6, r7, r8, r9, r10, pc}
 209              	.LVL27:
 210              	.L7:
 211              		.cfi_restore_state
 212              	.LBB47:
 879:..\..\..\lvgl\version_6.1.2\lvgl\src\lv_objx/lv_table.c **** 
 213              		.loc 1 879 0
 214 00dc BAF824E0 		ldrh	lr, [r10, #36]
 215 00e0 BAF82610 		ldrh	r1, [r10, #38]
 881:..\..\..\lvgl\version_6.1.2\lvgl\src\lv_objx/lv_table.c ****                                 cell_style->text.letter_space, cell_style->text.line_space, txt_w, 
 216              		.loc 1 881 0
 217 00e4 BAF93830 		ldrsh	r3, [r10, #56]
 879:..\..\..\lvgl\version_6.1.2\lvgl\src\lv_objx/lv_table.c **** 
 218              		.loc 1 879 0
 219 00e8 7144     		add	r1, r1, lr
 220 00ea 521A     		subs	r2, r2, r1
 221              	.LVL28:
 881:..\..\..\lvgl\version_6.1.2\lvgl\src\lv_objx/lv_table.c ****                                 cell_style->text.letter_space, cell_style->text.line_space, txt_w, 
 222              		.loc 1 881 0
 223 00ec 11B2     		sxth	r1, r2
 224 00ee DAF83420 		ldr	r2, [r10, #52]
 225              	.LVL29:
 226 00f2 0290     		str	r0, [sp, #8]
 227 00f4 0191     		str	r1, [sp, #4]
 228 00f6 BAF93A10 		ldrsh	r1, [r10, #58]
 229              	.LVL30:
 230 00fa 0091     		str	r1, [sp]
ARM GAS  C:\Users\pearlstl\AppData\Local\Temp\ccIJtgHD.s 			page 21


 231 00fc 05A8     		add	r0, sp, #20
 232 00fe 0CF10101 		add	r1, ip, #1
 233 0102 FFF7FEFF 		bl	lv_txt_get_size
 234              	.LVL31:
 884:..\..\..\lvgl\version_6.1.2\lvgl\src\lv_objx/lv_table.c ****                 cell += col_merge;
 235              		.loc 1 884 0
 236 0106 BDF91610 		ldrsh	r1, [sp, #22]
 237 010a BAF92030 		ldrsh	r3, [r10, #32]
 238 010e BAF92220 		ldrsh	r2, [r10, #34]
 239 0112 B6F800E0 		ldrh	lr, [r6]
 240 0116 0B44     		add	r3, r3, r1
 241 0118 1344     		add	r3, r3, r2
 242 011a 9F42     		cmp	r7, r3
 885:..\..\..\lvgl\version_6.1.2\lvgl\src\lv_objx/lv_table.c ****                 col += col_merge;
 243              		.loc 1 885 0
 244 011c 2544     		add	r5, r5, r4
 245              	.LVL32:
 884:..\..\..\lvgl\version_6.1.2\lvgl\src\lv_objx/lv_table.c ****                 cell += col_merge;
 246              		.loc 1 884 0
 247 011e B8BF     		it	lt
 248 0120 1F46     		movlt	r7, r3
 249              	.LVL33:
 886:..\..\..\lvgl\version_6.1.2\lvgl\src\lv_objx/lv_table.c ****             }
 250              		.loc 1 886 0
 251 0122 4C44     		add	r4, r4, r9
 885:..\..\..\lvgl\version_6.1.2\lvgl\src\lv_objx/lv_table.c ****                 col += col_merge;
 252              		.loc 1 885 0
 253 0124 ADB2     		uxth	r5, r5
 886:..\..\..\lvgl\version_6.1.2\lvgl\src\lv_objx/lv_table.c ****             }
 254              		.loc 1 886 0
 255 0126 1FFA84F9 		uxth	r9, r4
 256              	.LVL34:
 884:..\..\..\lvgl\version_6.1.2\lvgl\src\lv_objx/lv_table.c ****                 cell += col_merge;
 257              		.loc 1 884 0
 258 012a 3FB2     		sxth	r7, r7
 259              	.LVL35:
 260 012c C8E7     		b	.L3
 261              	.LVL36:
 262              	.L10:
 853:..\..\..\lvgl\version_6.1.2\lvgl\src\lv_objx/lv_table.c **** 
 263              		.loc 1 853 0
 264 012e 0024     		movs	r4, #0
 265 0130 ACE7     		b	.L4
 266              	.LBE47:
 267              		.cfi_endproc
 268              	.LFE55:
 269              		.size	get_row_height, .-get_row_height
 270 0132 00BF     		.section	.text.lv_table_signal,"ax",%progbits
 271              		.align	2
 272              		.thumb
 273              		.thumb_func
 274              		.type	lv_table_signal, %function
 275              	lv_table_signal:
 276              	.LFB53:
 786:..\..\..\lvgl\version_6.1.2\lvgl\src\lv_objx/lv_table.c ****     lv_res_t res;
 277              		.loc 1 786 0
 278              		.cfi_startproc
ARM GAS  C:\Users\pearlstl\AppData\Local\Temp\ccIJtgHD.s 			page 22


 279              		@ args = 0, pretend = 0, frame = 0
 280              		@ frame_needed = 0, uses_anonymous_args = 0
 281              	.LVL37:
 790:..\..\..\lvgl\version_6.1.2\lvgl\src\lv_objx/lv_table.c ****     if(res != LV_RES_OK) return res;
 282              		.loc 1 790 0
 283 0000 1B4B     		ldr	r3, .L47
 786:..\..\..\lvgl\version_6.1.2\lvgl\src\lv_objx/lv_table.c ****     lv_res_t res;
 284              		.loc 1 786 0
 285 0002 70B5     		push	{r4, r5, r6, lr}
 286              		.cfi_def_cfa_offset 16
 287              		.cfi_offset 4, -16
 288              		.cfi_offset 5, -12
 289              		.cfi_offset 6, -8
 290              		.cfi_offset 14, -4
 790:..\..\..\lvgl\version_6.1.2\lvgl\src\lv_objx/lv_table.c ****     if(res != LV_RES_OK) return res;
 291              		.loc 1 790 0
 292 0004 1B68     		ldr	r3, [r3]
 786:..\..\..\lvgl\version_6.1.2\lvgl\src\lv_objx/lv_table.c ****     lv_res_t res;
 293              		.loc 1 786 0
 294 0006 0546     		mov	r5, r0
 295 0008 0C46     		mov	r4, r1
 296 000a 1646     		mov	r6, r2
 790:..\..\..\lvgl\version_6.1.2\lvgl\src\lv_objx/lv_table.c ****     if(res != LV_RES_OK) return res;
 297              		.loc 1 790 0
 298 000c 9847     		blx	r3
 299              	.LVL38:
 791:..\..\..\lvgl\version_6.1.2\lvgl\src\lv_objx/lv_table.c ****     if(sign == LV_SIGNAL_GET_TYPE) return lv_obj_handle_get_type_signal(param, LV_OBJX_NAME);
 300              		.loc 1 791 0
 301 000e 0128     		cmp	r0, #1
 302 0010 00D0     		beq	.L44
 809:..\..\..\lvgl\version_6.1.2\lvgl\src\lv_objx/lv_table.c **** 
 303              		.loc 1 809 0
 304 0012 70BD     		pop	{r4, r5, r6, pc}
 305              	.LVL39:
 306              	.L44:
 792:..\..\..\lvgl\version_6.1.2\lvgl\src\lv_objx/lv_table.c **** 
 307              		.loc 1 792 0
 308 0014 072C     		cmp	r4, #7
 309 0016 25D0     		beq	.L45
 794:..\..\..\lvgl\version_6.1.2\lvgl\src\lv_objx/lv_table.c ****         /*Free the cell texts*/
 310              		.loc 1 794 0
 311 0018 0CB1     		cbz	r4, .L46
 312              	.LVL40:
 313              	.L43:
 314              	.LBB48:
 805:..\..\..\lvgl\version_6.1.2\lvgl\src\lv_objx/lv_table.c ****     }
 315              		.loc 1 805 0
 316 001a 0120     		movs	r0, #1
 317              	.LBE48:
 809:..\..\..\lvgl\version_6.1.2\lvgl\src\lv_objx/lv_table.c **** 
 318              		.loc 1 809 0
 319 001c 70BD     		pop	{r4, r5, r6, pc}
 320              	.LVL41:
 321              	.L46:
 322              	.LBB49:
 796:..\..\..\lvgl\version_6.1.2\lvgl\src\lv_objx/lv_table.c ****         uint16_t cell;
 323              		.loc 1 796 0
ARM GAS  C:\Users\pearlstl\AppData\Local\Temp\ccIJtgHD.s 			page 23


 324 001e 2846     		mov	r0, r5
 325              	.LVL42:
 326 0020 FFF7FEFF 		bl	lv_obj_get_ext_attr
 327              	.LVL43:
 798:..\..\..\lvgl\version_6.1.2\lvgl\src\lv_objx/lv_table.c ****             if(ext->cell_data[cell]) {
 328              		.loc 1 798 0
 329 0024 0288     		ldrh	r2, [r0]
 330 0026 4388     		ldrh	r3, [r0, #2]
 331 0028 4168     		ldr	r1, [r0, #4]
 332 002a 03FB02F3 		mul	r3, r3, r2
 796:..\..\..\lvgl\version_6.1.2\lvgl\src\lv_objx/lv_table.c ****         uint16_t cell;
 333              		.loc 1 796 0
 334 002e 0546     		mov	r5, r0
 335              	.LVL44:
 798:..\..\..\lvgl\version_6.1.2\lvgl\src\lv_objx/lv_table.c ****             if(ext->cell_data[cell]) {
 336              		.loc 1 798 0
 337 0030 93B1     		cbz	r3, .L30
 801:..\..\..\lvgl\version_6.1.2\lvgl\src\lv_objx/lv_table.c ****             }
 338              		.loc 1 801 0
 339 0032 2646     		mov	r6, r4
 340              	.LVL45:
 341              	.L32:
 799:..\..\..\lvgl\version_6.1.2\lvgl\src\lv_objx/lv_table.c ****                 lv_mem_free(ext->cell_data[cell]);
 342              		.loc 1 799 0
 343 0034 51F82420 		ldr	r2, [r1, r4, lsl #2]
 800:..\..\..\lvgl\version_6.1.2\lvgl\src\lv_objx/lv_table.c ****                 ext->cell_data[cell] = NULL;
 344              		.loc 1 800 0
 345 0038 1046     		mov	r0, r2
 799:..\..\..\lvgl\version_6.1.2\lvgl\src\lv_objx/lv_table.c ****                 lv_mem_free(ext->cell_data[cell]);
 346              		.loc 1 799 0
 347 003a 4AB1     		cbz	r2, .L31
 800:..\..\..\lvgl\version_6.1.2\lvgl\src\lv_objx/lv_table.c ****                 ext->cell_data[cell] = NULL;
 348              		.loc 1 800 0
 349 003c FFF7FEFF 		bl	lv_mem_free
 350              	.LVL46:
 801:..\..\..\lvgl\version_6.1.2\lvgl\src\lv_objx/lv_table.c ****             }
 351              		.loc 1 801 0
 352 0040 6B68     		ldr	r3, [r5, #4]
 353 0042 2A88     		ldrh	r2, [r5]
 354 0044 43F82460 		str	r6, [r3, r4, lsl #2]
 355 0048 6B88     		ldrh	r3, [r5, #2]
 356 004a 6968     		ldr	r1, [r5, #4]
 357 004c 03FB02F3 		mul	r3, r3, r2
 358              	.L31:
 798:..\..\..\lvgl\version_6.1.2\lvgl\src\lv_objx/lv_table.c ****             if(ext->cell_data[cell]) {
 359              		.loc 1 798 0 discriminator 2
 360 0050 0134     		adds	r4, r4, #1
 361              	.LVL47:
 362 0052 A4B2     		uxth	r4, r4
 363              	.LVL48:
 364 0054 9C42     		cmp	r4, r3
 365 0056 EDDB     		blt	.L32
 366              	.LVL49:
 367              	.L30:
 804:..\..\..\lvgl\version_6.1.2\lvgl\src\lv_objx/lv_table.c ****             lv_mem_free(ext->cell_data);
 368              		.loc 1 804 0
 369 0058 0029     		cmp	r1, #0
ARM GAS  C:\Users\pearlstl\AppData\Local\Temp\ccIJtgHD.s 			page 24


 370 005a DED0     		beq	.L43
 805:..\..\..\lvgl\version_6.1.2\lvgl\src\lv_objx/lv_table.c ****     }
 371              		.loc 1 805 0
 372 005c 0846     		mov	r0, r1
 373 005e FFF7FEFF 		bl	lv_mem_free
 374              	.LVL50:
 375 0062 DAE7     		b	.L43
 376              	.LVL51:
 377              	.L45:
 378              	.LBE49:
 792:..\..\..\lvgl\version_6.1.2\lvgl\src\lv_objx/lv_table.c **** 
 379              		.loc 1 792 0 discriminator 1
 380 0064 3046     		mov	r0, r6
 381              	.LVL52:
 382 0066 0349     		ldr	r1, .L47+4
 809:..\..\..\lvgl\version_6.1.2\lvgl\src\lv_objx/lv_table.c **** 
 383              		.loc 1 809 0 discriminator 1
 384 0068 BDE87040 		pop	{r4, r5, r6, lr}
 385              		.cfi_restore 14
 386              		.cfi_restore 6
 387              		.cfi_restore 5
 388              		.cfi_restore 4
 389              		.cfi_def_cfa_offset 0
 390              	.LVL53:
 792:..\..\..\lvgl\version_6.1.2\lvgl\src\lv_objx/lv_table.c **** 
 391              		.loc 1 792 0 discriminator 1
 392 006c FFF7FEBF 		b	lv_obj_handle_get_type_signal
 393              	.LVL54:
 394              	.L48:
 395              		.align	2
 396              	.L47:
 397 0070 00000000 		.word	.LANCHOR0
 398 0074 00000000 		.word	.LC0
 399              		.cfi_endproc
 400              	.LFE53:
 401              		.size	lv_table_signal, .-lv_table_signal
 402              		.section	.text.lv_table_design,"ax",%progbits
 403              		.align	2
 404              		.thumb
 405              		.thumb_func
 406              		.type	lv_table_design, %function
 407              	lv_table_design:
 408              	.LFB52:
 642:..\..\..\lvgl\version_6.1.2\lvgl\src\lv_objx/lv_table.c ****     /*Return false if the object is not covers the mask_p area*/
 409              		.loc 1 642 0
 410              		.cfi_startproc
 411              		@ args = 0, pretend = 0, frame = 160
 412              		@ frame_needed = 0, uses_anonymous_args = 0
 413              	.LVL55:
 644:..\..\..\lvgl\version_6.1.2\lvgl\src\lv_objx/lv_table.c ****         return false;
 414              		.loc 1 644 0
 415 0000 022A     		cmp	r2, #2
 416 0002 00F0C081 		beq	.L78
 648:..\..\..\lvgl\version_6.1.2\lvgl\src\lv_objx/lv_table.c ****         ancestor_scrl_design(table, mask, mode);
 417              		.loc 1 648 0
 418 0006 0AB1     		cbz	r2, .L112
 775:..\..\..\lvgl\version_6.1.2\lvgl\src\lv_objx/lv_table.c **** }
ARM GAS  C:\Users\pearlstl\AppData\Local\Temp\ccIJtgHD.s 			page 25


 419              		.loc 1 775 0
 420 0008 0120     		movs	r0, #1
 421              	.LVL56:
 422 000a 7047     		bx	lr
 423              	.LVL57:
 424              	.L112:
 642:..\..\..\lvgl\version_6.1.2\lvgl\src\lv_objx/lv_table.c ****     /*Return false if the object is not covers the mask_p area*/
 425              		.loc 1 642 0
 426 000c 2DE9F04F 		push	{r4, r5, r6, r7, r8, r9, r10, fp, lr}
 427              		.cfi_def_cfa_offset 36
 428              		.cfi_offset 4, -36
 429              		.cfi_offset 5, -32
 430              		.cfi_offset 6, -28
 431              		.cfi_offset 7, -24
 432              		.cfi_offset 8, -20
 433              		.cfi_offset 9, -16
 434              		.cfi_offset 10, -12
 435              		.cfi_offset 11, -8
 436              		.cfi_offset 14, -4
 437              	.LBB59:
 438              	.LBB60:
 649:..\..\..\lvgl\version_6.1.2\lvgl\src\lv_objx/lv_table.c **** 
 439              		.loc 1 649 0
 440 0010 C84B     		ldr	r3, .L118
 441              	.LBE60:
 442              	.LBE59:
 642:..\..\..\lvgl\version_6.1.2\lvgl\src\lv_objx/lv_table.c ****     /*Return false if the object is not covers the mask_p area*/
 443              		.loc 1 642 0
 444 0012 AFB0     		sub	sp, sp, #188
 445              		.cfi_def_cfa_offset 224
 446 0014 0546     		mov	r5, r0
 447              	.LVL58:
 448              	.LBB70:
 449              	.LBB68:
 649:..\..\..\lvgl\version_6.1.2\lvgl\src\lv_objx/lv_table.c **** 
 450              		.loc 1 649 0
 451 0016 5B68     		ldr	r3, [r3, #4]
 452 0018 0891     		str	r1, [sp, #32]
 453              	.LVL59:
 454 001a 1446     		mov	r4, r2
 455 001c 0D90     		str	r0, [sp, #52]
 456 001e 9847     		blx	r3
 457              	.LVL60:
 651:..\..\..\lvgl\version_6.1.2\lvgl\src\lv_objx/lv_table.c ****         const lv_style_t * bg_style = lv_obj_get_style(table);
 458              		.loc 1 651 0
 459 0020 2846     		mov	r0, r5
 460 0022 FFF7FEFF 		bl	lv_obj_get_ext_attr
 461              	.LVL61:
 462 0026 8246     		mov	r10, r0
 463              	.LVL62:
 652:..\..\..\lvgl\version_6.1.2\lvgl\src\lv_objx/lv_table.c ****         lv_coord_t h_row;
 464              		.loc 1 652 0
 465 0028 2846     		mov	r0, r5
 466              	.LVL63:
 467 002a FFF7FEFF 		bl	lv_obj_get_style
 468              	.LVL64:
 469 002e 0646     		mov	r6, r0
ARM GAS  C:\Users\pearlstl\AppData\Local\Temp\ccIJtgHD.s 			page 26


 470 0030 0F90     		str	r0, [sp, #60]
 471              	.LVL65:
 658:..\..\..\lvgl\version_6.1.2\lvgl\src\lv_objx/lv_table.c **** 
 472              		.loc 1 658 0
 473 0032 2846     		mov	r0, r5
 474              	.LVL66:
 475 0034 FFF7FEFF 		bl	lv_obj_get_opa_scale
 476              	.LVL67:
 664:..\..\..\lvgl\version_6.1.2\lvgl\src\lv_objx/lv_table.c ****         for(row = 0; row < ext->row_cnt; row++) {
 477              		.loc 1 664 0
 478 0038 338C     		ldrh	r3, [r6, #32]
 479 003a 698A     		ldrh	r1, [r5, #18]
 665:..\..\..\lvgl\version_6.1.2\lvgl\src\lv_objx/lv_table.c ****             h_row = get_row_height(table, row);
 480              		.loc 1 665 0
 481 003c BAF80220 		ldrh	r2, [r10, #2]
 658:..\..\..\lvgl\version_6.1.2\lvgl\src\lv_objx/lv_table.c **** 
 482              		.loc 1 658 0
 483 0040 0990     		str	r0, [sp, #36]
 484              	.LVL68:
 664:..\..\..\lvgl\version_6.1.2\lvgl\src\lv_objx/lv_table.c ****         for(row = 0; row < ext->row_cnt; row++) {
 485              		.loc 1 664 0
 486 0042 0B44     		add	r3, r3, r1
 487 0044 ADF85630 		strh	r3, [sp, #86]	@ movhi
 488              	.LVL69:
 665:..\..\..\lvgl\version_6.1.2\lvgl\src\lv_objx/lv_table.c ****             h_row = get_row_height(table, row);
 489              		.loc 1 665 0
 490 0048 002A     		cmp	r2, #0
 491 004a 00F05081 		beq	.L76
 492 004e A346     		mov	fp, r4
 493 0050 0E94     		str	r4, [sp, #56]
 494              	.LVL70:
 495              	.L75:
 666:..\..\..\lvgl\version_6.1.2\lvgl\src\lv_objx/lv_table.c **** 
 496              		.loc 1 666 0
 497 0052 0D9C     		ldr	r4, [sp, #52]
 498 0054 0E99     		ldr	r1, [sp, #56]
 499 0056 2046     		mov	r0, r4
 500 0058 FFF7FEFF 		bl	get_row_height
 501              	.LVL71:
 668:..\..\..\lvgl\version_6.1.2\lvgl\src\lv_objx/lv_table.c ****             cell_area.y2 = cell_area.y1 + h_row - 1;
 502              		.loc 1 668 0
 503 005c BDF85620 		ldrh	r2, [sp, #86]
 671:..\..\..\lvgl\version_6.1.2\lvgl\src\lv_objx/lv_table.c **** 
 504              		.loc 1 671 0
 505 0060 0F9B     		ldr	r3, [sp, #60]
 506 0062 248A     		ldrh	r4, [r4, #16]
 507 0064 9B8C     		ldrh	r3, [r3, #36]
 669:..\..\..\lvgl\version_6.1.2\lvgl\src\lv_objx/lv_table.c **** 
 508              		.loc 1 669 0
 509 0066 1118     		adds	r1, r2, r0
 510 0068 ADF85610 		strh	r1, [sp, #86]	@ movhi
 673:..\..\..\lvgl\version_6.1.2\lvgl\src\lv_objx/lv_table.c **** 
 511              		.loc 1 673 0
 512 006c BAF80010 		ldrh	r1, [r10]
 668:..\..\..\lvgl\version_6.1.2\lvgl\src\lv_objx/lv_table.c ****             cell_area.y2 = cell_area.y1 + h_row - 1;
 513              		.loc 1 668 0
 514 0070 0132     		adds	r2, r2, #1
ARM GAS  C:\Users\pearlstl\AppData\Local\Temp\ccIJtgHD.s 			page 27


 671:..\..\..\lvgl\version_6.1.2\lvgl\src\lv_objx/lv_table.c **** 
 515              		.loc 1 671 0
 516 0072 2344     		add	r3, r3, r4
 668:..\..\..\lvgl\version_6.1.2\lvgl\src\lv_objx/lv_table.c ****             cell_area.y2 = cell_area.y1 + h_row - 1;
 517              		.loc 1 668 0
 518 0074 ADF85220 		strh	r2, [sp, #82]	@ movhi
 671:..\..\..\lvgl\version_6.1.2\lvgl\src\lv_objx/lv_table.c **** 
 519              		.loc 1 671 0
 520 0078 ADF85430 		strh	r3, [sp, #84]	@ movhi
 521              	.LVL72:
 673:..\..\..\lvgl\version_6.1.2\lvgl\src\lv_objx/lv_table.c **** 
 522              		.loc 1 673 0
 523 007c 0029     		cmp	r1, #0
 524 007e 00F02D81 		beq	.L52
 525              	.LBB61:
 526              	.LBB62:
 726:..\..\..\lvgl\version_6.1.2\lvgl\src\lv_objx/lv_table.c ****                         txt_area.y2 = cell_area.y1 + h_row / 2 + txt_size.y / 2;
 527              		.loc 1 726 0
 528 0082 00EBD073 		add	r3, r0, r0, lsr #31
 529 0086 C3F34F03 		ubfx	r3, r3, #1, #16
 530 008a DAF80400 		ldr	r0, [r10, #4]
 531              	.LVL73:
 532 008e 0C93     		str	r3, [sp, #48]
 533 0090 4FF00009 		mov	r9, #0
 534 0094 B846     		mov	r8, r7
 535              	.LVL74:
 536              	.L74:
 537              	.LBE62:
 676:..\..\..\lvgl\version_6.1.2\lvgl\src\lv_objx/lv_table.c ****                     format.format_byte = ext->cell_data[cell][0];
 538              		.loc 1 676 0
 539 0096 50F82B30 		ldr	r3, [r0, fp, lsl #2]
 540 009a 4FEA8B07 		lsl	r7, fp, #2
 541 009e 002B     		cmp	r3, #0
 542 00a0 00F06581 		beq	.L53
 677:..\..\..\lvgl\version_6.1.2\lvgl\src\lv_objx/lv_table.c ****                 } else {
 543              		.loc 1 677 0
 544 00a4 1B78     		ldrb	r3, [r3]	@ zero_extendqisi2
 545 00a6 9846     		mov	r8, r3
 546              	.LVL75:
 547 00a8 C3F3C103 		ubfx	r3, r3, #3, #2
 548              	.L54:
 687:..\..\..\lvgl\version_6.1.2\lvgl\src\lv_objx/lv_table.c ****                 cell_area.x1 = cell_area.x2 + 1;
 549              		.loc 1 687 0
 550 00ac 0233     		adds	r3, r3, #2
 551 00ae 1AA8     		add	r0, sp, #104
 552 00b0 5AF82310 		ldr	r1, [r10, r3, lsl #2]
 553 00b4 FFF7FEFF 		bl	lv_style_copy
 554              	.LVL76:
 689:..\..\..\lvgl\version_6.1.2\lvgl\src\lv_objx/lv_table.c **** 
 555              		.loc 1 689 0
 556 00b8 09F10C02 		add	r2, r9, #12
 688:..\..\..\lvgl\version_6.1.2\lvgl\src\lv_objx/lv_table.c ****                 cell_area.x2 = cell_area.x1 + ext->col_w[col] - 1;
 557              		.loc 1 688 0
 558 00bc BDF85430 		ldrh	r3, [sp, #84]
 692:..\..\..\lvgl\version_6.1.2\lvgl\src\lv_objx/lv_table.c **** 
 559              		.loc 1 692 0
 560 00c0 BAF80060 		ldrh	r6, [r10]
ARM GAS  C:\Users\pearlstl\AppData\Local\Temp\ccIJtgHD.s 			page 28


 689:..\..\..\lvgl\version_6.1.2\lvgl\src\lv_objx/lv_table.c **** 
 561              		.loc 1 689 0
 562 00c4 3AF81220 		ldrh	r2, [r10, r2, lsl #1]
 692:..\..\..\lvgl\version_6.1.2\lvgl\src\lv_objx/lv_table.c **** 
 563              		.loc 1 692 0
 564 00c8 013E     		subs	r6, r6, #1
 689:..\..\..\lvgl\version_6.1.2\lvgl\src\lv_objx/lv_table.c **** 
 565              		.loc 1 689 0
 566 00ca 1A44     		add	r2, r2, r3
 567 00cc 12B2     		sxth	r2, r2
 688:..\..\..\lvgl\version_6.1.2\lvgl\src\lv_objx/lv_table.c ****                 cell_area.x2 = cell_area.x1 + ext->col_w[col] - 1;
 568              		.loc 1 688 0
 569 00ce 0133     		adds	r3, r3, #1
 692:..\..\..\lvgl\version_6.1.2\lvgl\src\lv_objx/lv_table.c **** 
 570              		.loc 1 692 0
 571 00d0 B145     		cmp	r9, r6
 689:..\..\..\lvgl\version_6.1.2\lvgl\src\lv_objx/lv_table.c **** 
 572              		.loc 1 689 0
 573 00d2 ADF85420 		strh	r2, [sp, #84]	@ movhi
 574              	.LVL77:
 688:..\..\..\lvgl\version_6.1.2\lvgl\src\lv_objx/lv_table.c ****                 cell_area.x2 = cell_area.x1 + ext->col_w[col] - 1;
 575              		.loc 1 688 0
 576 00d6 ADF85030 		strh	r3, [sp, #80]	@ movhi
 692:..\..\..\lvgl\version_6.1.2\lvgl\src\lv_objx/lv_table.c **** 
 577              		.loc 1 692 0
 578 00da 80F25181 		bge	.L57
 694:..\..\..\lvgl\version_6.1.2\lvgl\src\lv_objx/lv_table.c ****                         format.format_byte = ext->cell_data[cell + col_merge][0];
 579              		.loc 1 694 0
 580 00de DAF804C0 		ldr	ip, [r10, #4]
 581 00e2 5CF80730 		ldr	r3, [ip, r7]
 582 00e6 002B     		cmp	r3, #0
 583 00e8 00F04A81 		beq	.L57
 695:..\..\..\lvgl\version_6.1.2\lvgl\src\lv_objx/lv_table.c ****                         if(format.s.right_merge)
 584              		.loc 1 695 0
 585 00ec 1878     		ldrb	r0, [r3]	@ zero_extendqisi2
 696:..\..\..\lvgl\version_6.1.2\lvgl\src\lv_objx/lv_table.c ****                             cell_area.x2 += ext->col_w[col + col_merge + 1];
 586              		.loc 1 696 0
 587 00ee 4307     		lsls	r3, r0, #29
 695:..\..\..\lvgl\version_6.1.2\lvgl\src\lv_objx/lv_table.c ****                         if(format.s.right_merge)
 588              		.loc 1 695 0
 589 00f0 8046     		mov	r8, r0
 696:..\..\..\lvgl\version_6.1.2\lvgl\src\lv_objx/lv_table.c ****                             cell_area.x2 += ext->col_w[col + col_merge + 1];
 590              		.loc 1 696 0
 591 00f2 40F14581 		bpl	.L57
 592 00f6 4FF0000E 		mov	lr, #0
 593 00fa 7446     		mov	r4, lr
 594 00fc 4946     		mov	r1, r9
 595 00fe 09E0     		b	.L58
 596              	.LVL78:
 597              	.L61:
 694:..\..\..\lvgl\version_6.1.2\lvgl\src\lv_objx/lv_table.c ****                         format.format_byte = ext->cell_data[cell + col_merge][0];
 598              		.loc 1 694 0
 599 0100 5CF82550 		ldr	r5, [ip, r5, lsl #2]
 600 0104 ADB1     		cbz	r5, .L110
 695:..\..\..\lvgl\version_6.1.2\lvgl\src\lv_objx/lv_table.c ****                         if(format.s.right_merge)
 601              		.loc 1 695 0
 602 0106 2878     		ldrb	r0, [r5]	@ zero_extendqisi2
ARM GAS  C:\Users\pearlstl\AppData\Local\Temp\ccIJtgHD.s 			page 29


 696:..\..\..\lvgl\version_6.1.2\lvgl\src\lv_objx/lv_table.c ****                             cell_area.x2 += ext->col_w[col + col_merge + 1];
 603              		.loc 1 696 0
 604 0108 4507     		lsls	r5, r0, #29
 605 010a 4FF0010E 		mov	lr, #1
 606 010e 40F11381 		bpl	.L113
 692:..\..\..\lvgl\version_6.1.2\lvgl\src\lv_objx/lv_table.c **** 
 607              		.loc 1 692 0
 608 0112 1C46     		mov	r4, r3
 609              	.LVL79:
 610              	.L58:
 697:..\..\..\lvgl\version_6.1.2\lvgl\src\lv_objx/lv_table.c ****                         else
 611              		.loc 1 697 0
 612 0114 0D31     		adds	r1, r1, #13
 692:..\..\..\lvgl\version_6.1.2\lvgl\src\lv_objx/lv_table.c **** 
 613              		.loc 1 692 0
 614 0116 631C     		adds	r3, r4, #1
 697:..\..\..\lvgl\version_6.1.2\lvgl\src\lv_objx/lv_table.c ****                         else
 615              		.loc 1 697 0
 616 0118 3AF81110 		ldrh	r1, [r10, r1, lsl #1]
 692:..\..\..\lvgl\version_6.1.2\lvgl\src\lv_objx/lv_table.c **** 
 617              		.loc 1 692 0
 618 011c 9BB2     		uxth	r3, r3
 619              	.LVL80:
 697:..\..\..\lvgl\version_6.1.2\lvgl\src\lv_objx/lv_table.c ****                         else
 620              		.loc 1 697 0
 621 011e 0A44     		add	r2, r2, r1
 692:..\..\..\lvgl\version_6.1.2\lvgl\src\lv_objx/lv_table.c **** 
 622              		.loc 1 692 0
 623 0120 09EB0301 		add	r1, r9, r3
 697:..\..\..\lvgl\version_6.1.2\lvgl\src\lv_objx/lv_table.c ****                         else
 624              		.loc 1 697 0
 625 0124 12B2     		sxth	r2, r2
 692:..\..\..\lvgl\version_6.1.2\lvgl\src\lv_objx/lv_table.c **** 
 626              		.loc 1 692 0
 627 0126 B142     		cmp	r1, r6
 694:..\..\..\lvgl\version_6.1.2\lvgl\src\lv_objx/lv_table.c ****                         format.format_byte = ext->cell_data[cell + col_merge][0];
 628              		.loc 1 694 0
 629 0128 03EB0B05 		add	r5, r3, fp
 697:..\..\..\lvgl\version_6.1.2\lvgl\src\lv_objx/lv_table.c ****                         else
 630              		.loc 1 697 0
 631 012c ADF85420 		strh	r2, [sp, #84]	@ movhi
 692:..\..\..\lvgl\version_6.1.2\lvgl\src\lv_objx/lv_table.c **** 
 632              		.loc 1 692 0
 633 0130 E6DB     		blt	.L61
 634              	.L110:
 635 0132 BEF1000F 		cmp	lr, #0
 636 0136 40F02881 		bne	.L114
 637              	.L62:
 638 013a 0234     		adds	r4, r4, #2
 639 013c A3B2     		uxth	r3, r4
 640              	.LVL81:
 641 013e 0B93     		str	r3, [sp, #44]
 642              	.LVL82:
 643              	.L56:
 705:..\..\..\lvgl\version_6.1.2\lvgl\src\lv_objx/lv_table.c **** 
 644              		.loc 1 705 0
 645 0140 0899     		ldr	r1, [sp, #32]
ARM GAS  C:\Users\pearlstl\AppData\Local\Temp\ccIJtgHD.s 			page 30


 646 0142 099B     		ldr	r3, [sp, #36]
 647 0144 14A8     		add	r0, sp, #80
 648 0146 1AAA     		add	r2, sp, #104
 649 0148 FFF7FEFF 		bl	lv_draw_rect
 650              	.LVL83:
 707:..\..\..\lvgl\version_6.1.2\lvgl\src\lv_objx/lv_table.c **** 
 651              		.loc 1 707 0
 652 014c DAF80400 		ldr	r0, [r10, #4]
 653 0150 C159     		ldr	r1, [r0, r7]
 654 0152 0029     		cmp	r1, #0
 655 0154 00F0B580 		beq	.L63
 656              	.LBB63:
 709:..\..\..\lvgl\version_6.1.2\lvgl\src\lv_objx/lv_table.c ****                     txt_area.x2 = cell_area.x2 - cell_style.body.padding.right;
 657              		.loc 1 709 0
 658 0158 BDF85050 		ldrh	r5, [sp, #80]
 710:..\..\..\lvgl\version_6.1.2\lvgl\src\lv_objx/lv_table.c ****                     txt_area.y1 = cell_area.y1 + cell_style.body.padding.top;
 659              		.loc 1 710 0
 660 015c BDF85400 		ldrh	r0, [sp, #84]
 709:..\..\..\lvgl\version_6.1.2\lvgl\src\lv_objx/lv_table.c ****                     txt_area.x2 = cell_area.x2 - cell_style.body.padding.right;
 661              		.loc 1 709 0
 662 0160 BDF88C20 		ldrh	r2, [sp, #140]
 710:..\..\..\lvgl\version_6.1.2\lvgl\src\lv_objx/lv_table.c ****                     txt_area.y1 = cell_area.y1 + cell_style.body.padding.top;
 663              		.loc 1 710 0
 664 0164 BDF88E30 		ldrh	r3, [sp, #142]
 711:..\..\..\lvgl\version_6.1.2\lvgl\src\lv_objx/lv_table.c ****                     txt_area.y2 = cell_area.y2 - cell_style.body.padding.bottom;
 665              		.loc 1 711 0
 666 0168 BDF85260 		ldrh	r6, [sp, #82]
 667 016c BDF88840 		ldrh	r4, [sp, #136]
 709:..\..\..\lvgl\version_6.1.2\lvgl\src\lv_objx/lv_table.c ****                     txt_area.x2 = cell_area.x2 - cell_style.body.padding.right;
 668              		.loc 1 709 0
 669 0170 2A44     		add	r2, r2, r5
 710:..\..\..\lvgl\version_6.1.2\lvgl\src\lv_objx/lv_table.c ****                     txt_area.y1 = cell_area.y1 + cell_style.body.padding.top;
 670              		.loc 1 710 0
 671 0172 C31A     		subs	r3, r0, r3
 712:..\..\..\lvgl\version_6.1.2\lvgl\src\lv_objx/lv_table.c ****                     /*Align the content to the middle if not cropped*/
 672              		.loc 1 712 0
 673 0174 BDF88A50 		ldrh	r5, [sp, #138]
 674 0178 BDF85600 		ldrh	r0, [sp, #86]
 711:..\..\..\lvgl\version_6.1.2\lvgl\src\lv_objx/lv_table.c ****                     txt_area.y2 = cell_area.y2 - cell_style.body.padding.bottom;
 675              		.loc 1 711 0
 676 017c 3444     		add	r4, r4, r6
 712:..\..\..\lvgl\version_6.1.2\lvgl\src\lv_objx/lv_table.c ****                     /*Align the content to the middle if not cropped*/
 677              		.loc 1 712 0
 678 017e 451B     		subs	r5, r0, r5
 709:..\..\..\lvgl\version_6.1.2\lvgl\src\lv_objx/lv_table.c ****                     txt_area.x2 = cell_area.x2 - cell_style.body.padding.right;
 679              		.loc 1 709 0
 680 0180 92B2     		uxth	r2, r2
 710:..\..\..\lvgl\version_6.1.2\lvgl\src\lv_objx/lv_table.c ****                     txt_area.y1 = cell_area.y1 + cell_style.body.padding.top;
 681              		.loc 1 710 0
 682 0182 9BB2     		uxth	r3, r3
 683              	.LVL84:
 714:..\..\..\lvgl\version_6.1.2\lvgl\src\lv_objx/lv_table.c ****                         txt_flags = LV_TXT_FLAG_NONE;
 684              		.loc 1 714 0
 685 0184 08F02000 		and	r0, r8, #32
 711:..\..\..\lvgl\version_6.1.2\lvgl\src\lv_objx/lv_table.c ****                     txt_area.y2 = cell_area.y2 - cell_style.body.padding.bottom;
 686              		.loc 1 711 0
 687 0188 ADF85A40 		strh	r4, [sp, #90]	@ movhi
ARM GAS  C:\Users\pearlstl\AppData\Local\Temp\ccIJtgHD.s 			page 31


 709:..\..\..\lvgl\version_6.1.2\lvgl\src\lv_objx/lv_table.c ****                     txt_area.x2 = cell_area.x2 - cell_style.body.padding.right;
 688              		.loc 1 709 0
 689 018c ADF85820 		strh	r2, [sp, #88]	@ movhi
 710:..\..\..\lvgl\version_6.1.2\lvgl\src\lv_objx/lv_table.c ****                     txt_area.y1 = cell_area.y1 + cell_style.body.padding.top;
 690              		.loc 1 710 0
 691 0190 ADF85C30 		strh	r3, [sp, #92]	@ movhi
 712:..\..\..\lvgl\version_6.1.2\lvgl\src\lv_objx/lv_table.c ****                     /*Align the content to the middle if not cropped*/
 692              		.loc 1 712 0
 693 0194 ADF85E50 		strh	r5, [sp, #94]	@ movhi
 714:..\..\..\lvgl\version_6.1.2\lvgl\src\lv_objx/lv_table.c ****                         txt_flags = LV_TXT_FLAG_NONE;
 694              		.loc 1 714 0
 695 0198 00F0FF04 		and	r4, r0, #255
 696 019c 0028     		cmp	r0, #0
 697 019e 40F0AA80 		bne	.L115
 698              	.LVL85:
 720:..\..\..\lvgl\version_6.1.2\lvgl\src\lv_objx/lv_table.c ****                                     cell_style.text.letter_space, cell_style.text.line_space,
 699              		.loc 1 720 0
 700 01a2 581C     		adds	r0, r3, #1
 701 01a4 801A     		subs	r0, r0, r2
 702 01a6 BDF9A250 		ldrsh	r5, [sp, #162]
 703 01aa BDF9A030 		ldrsh	r3, [sp, #160]
 704 01ae 279A     		ldr	r2, [sp, #156]
 705 01b0 0294     		str	r4, [sp, #8]
 706 01b2 00B2     		sxth	r0, r0
 707 01b4 11AE     		add	r6, sp, #68
 708 01b6 0190     		str	r0, [sp, #4]
 709 01b8 0131     		adds	r1, r1, #1
 710 01ba 3046     		mov	r0, r6
 711 01bc 0095     		str	r5, [sp]
 712 01be 0A96     		str	r6, [sp, #40]
 713 01c0 FFF7FEFF 		bl	lv_txt_get_size
 714              	.LVL86:
 726:..\..\..\lvgl\version_6.1.2\lvgl\src\lv_objx/lv_table.c ****                         txt_area.y2 = cell_area.y1 + h_row / 2 + txt_size.y / 2;
 715              		.loc 1 726 0
 716 01c4 0C9B     		ldr	r3, [sp, #48]
 717 01c6 BDF85220 		ldrh	r2, [sp, #82]
 718 01ca BDF94610 		ldrsh	r1, [sp, #70]
 719 01ce 1A44     		add	r2, r2, r3
 720 01d0 93B2     		uxth	r3, r2
 721 01d2 01EBD172 		add	r2, r1, r1, lsr #31
 722 01d6 A3EB6201 		sub	r1, r3, r2, asr #1
 727:..\..\..\lvgl\version_6.1.2\lvgl\src\lv_objx/lv_table.c ****                     }
 723              		.loc 1 727 0
 724 01da 03EB6203 		add	r3, r3, r2, asr #1
 725 01de ADF85E30 		strh	r3, [sp, #94]	@ movhi
 726 01e2 0823     		movs	r3, #8
 727 01e4 0793     		str	r3, [sp, #28]
 730:..\..\..\lvgl\version_6.1.2\lvgl\src\lv_objx/lv_table.c ****                         default:
 728              		.loc 1 730 0
 729 01e6 08F00303 		and	r3, r8, #3
 730 01ea 012B     		cmp	r3, #1
 726:..\..\..\lvgl\version_6.1.2\lvgl\src\lv_objx/lv_table.c ****                         txt_area.y2 = cell_area.y1 + h_row / 2 + txt_size.y / 2;
 731              		.loc 1 726 0
 732 01ec ADF85A10 		strh	r1, [sp, #90]	@ movhi
 727:..\..\..\lvgl\version_6.1.2\lvgl\src\lv_objx/lv_table.c ****                     }
 733              		.loc 1 727 0
 734 01f0 4FF00402 		mov	r2, #4
ARM GAS  C:\Users\pearlstl\AppData\Local\Temp\ccIJtgHD.s 			page 32


 730:..\..\..\lvgl\version_6.1.2\lvgl\src\lv_objx/lv_table.c ****                         default:
 735              		.loc 1 730 0
 736 01f4 00F09B80 		beq	.L67
 737              	.LVL87:
 738              	.L117:
 739 01f8 079A     		ldr	r2, [sp, #28]
 740 01fa 022B     		cmp	r3, #2
 741 01fc 18BF     		it	ne
 742 01fe 2246     		movne	r2, r4
 743 0200 0792     		str	r2, [sp, #28]
 744              	.L68:
 745              	.LVL88:
 739:..\..\..\lvgl\version_6.1.2\lvgl\src\lv_objx/lv_table.c ****                     if(label_mask_ok) {
 746              		.loc 1 739 0
 747 0202 18A8     		add	r0, sp, #96
 748 0204 14AA     		add	r2, sp, #80
 749 0206 0899     		ldr	r1, [sp, #32]
 750 0208 FFF7FEFF 		bl	lv_area_intersect
 751              	.LVL89:
 740:..\..\..\lvgl\version_6.1.2\lvgl\src\lv_objx/lv_table.c ****                         lv_draw_label(&txt_area, &label_mask, &cell_style, opa_scale, ext->cell_dat
 752              		.loc 1 740 0
 753 020c 0028     		cmp	r0, #0
 754 020e 40F09880 		bne	.L116
 755              	.LVL90:
 756              	.L69:
 750:..\..\..\lvgl\version_6.1.2\lvgl\src\lv_objx/lv_table.c ****                         if(ext->cell_data[cell][i] == '\n') {
 757              		.loc 1 750 0
 758 0212 DAF80400 		ldr	r0, [r10, #4]
 748:..\..\..\lvgl\version_6.1.2\lvgl\src\lv_objx/lv_table.c ****                     uint16_t i;
 759              		.loc 1 748 0
 760 0216 BDF85420 		ldrh	r2, [sp, #84]
 750:..\..\..\lvgl\version_6.1.2\lvgl\src\lv_objx/lv_table.c ****                         if(ext->cell_data[cell][i] == '\n') {
 761              		.loc 1 750 0
 762 021a C359     		ldr	r3, [r0, r7]
 747:..\..\..\lvgl\version_6.1.2\lvgl\src\lv_objx/lv_table.c ****                     p2.x = cell_area.x2;
 763              		.loc 1 747 0
 764 021c BDF85010 		ldrh	r1, [sp, #80]
 748:..\..\..\lvgl\version_6.1.2\lvgl\src\lv_objx/lv_table.c ****                     uint16_t i;
 765              		.loc 1 748 0
 766 0220 ADF84C20 		strh	r2, [sp, #76]	@ movhi
 767              	.LVL91:
 747:..\..\..\lvgl\version_6.1.2\lvgl\src\lv_objx/lv_table.c ****                     p2.x = cell_area.x2;
 768              		.loc 1 747 0
 769 0224 ADF84810 		strh	r1, [sp, #72]	@ movhi
 750:..\..\..\lvgl\version_6.1.2\lvgl\src\lv_objx/lv_table.c ****                         if(ext->cell_data[cell][i] == '\n') {
 770              		.loc 1 750 0
 771 0228 5D78     		ldrb	r5, [r3, #1]	@ zero_extendqisi2
 772 022a 5A1C     		adds	r2, r3, #1
 773 022c 002D     		cmp	r5, #0
 774 022e 48D0     		beq	.L63
 775 0230 0124     		movs	r4, #1
 776 0232 2646     		mov	r6, r4
 777 0234 06E0     		b	.L72
 778              	.LVL92:
 779              	.L71:
 780 0236 0134     		adds	r4, r4, #1
 781              	.LVL93:
ARM GAS  C:\Users\pearlstl\AppData\Local\Temp\ccIJtgHD.s 			page 33


 782 0238 A4B2     		uxth	r4, r4
 783              	.LVL94:
 784 023a 2646     		mov	r6, r4
 785 023c 1D5D     		ldrb	r5, [r3, r4]	@ zero_extendqisi2
 786 023e 1A19     		adds	r2, r3, r4
 787 0240 002D     		cmp	r5, #0
 788 0242 3ED0     		beq	.L63
 789              	.LVL95:
 790              	.L72:
 751:..\..\..\lvgl\version_6.1.2\lvgl\src\lv_objx/lv_table.c ****                             ext->cell_data[cell][i] = '\0';
 791              		.loc 1 751 0
 792 0244 0A2D     		cmp	r5, #10
 793 0246 F6D1     		bne	.L71
 752:..\..\..\lvgl\version_6.1.2\lvgl\src\lv_objx/lv_table.c ****                             lv_txt_get_size(&txt_size, ext->cell_data[cell] + 1, cell_style.text.fo
 794              		.loc 1 752 0
 795 0248 4FF00003 		mov	r3, #0
 796 024c 1370     		strb	r3, [r2]
 797              	.LVL96:
 753:..\..\..\lvgl\version_6.1.2\lvgl\src\lv_objx/lv_table.c ****                                             cell_style.text.letter_space, cell_style.text.line_spac
 798              		.loc 1 753 0
 799 024e BDF85C20 		ldrh	r2, [sp, #92]
 800 0252 DAF80410 		ldr	r1, [r10, #4]
 801 0256 BDF85800 		ldrh	r0, [sp, #88]
 802 025a C959     		ldr	r1, [r1, r7]
 803 025c BDF9A0C0 		ldrsh	ip, [sp, #160]
 804 0260 079B     		ldr	r3, [sp, #28]
 805 0262 BDF9A2E0 		ldrsh	lr, [sp, #162]
 806 0266 0293     		str	r3, [sp, #8]
 807 0268 0132     		adds	r2, r2, #1
 808 026a 101A     		subs	r0, r2, r0
 809 026c 00B2     		sxth	r0, r0
 810 026e 6346     		mov	r3, ip
 811 0270 279A     		ldr	r2, [sp, #156]
 812 0272 CDF800E0 		str	lr, [sp]
 813 0276 0190     		str	r0, [sp, #4]
 814 0278 0131     		adds	r1, r1, #1
 815 027a 0A98     		ldr	r0, [sp, #40]
 816 027c FFF7FEFF 		bl	lv_txt_get_size
 817              	.LVL97:
 757:..\..\..\lvgl\version_6.1.2\lvgl\src\lv_objx/lv_table.c ****                             p2.y = txt_area.y1 + txt_size.y + cell_style.text.line_space / 2;
 818              		.loc 1 757 0
 819 0280 BDF85AE0 		ldrh	lr, [sp, #90]
 820 0284 BDF9A220 		ldrsh	r2, [sp, #162]
 821 0288 BDF84630 		ldrh	r3, [sp, #70]
 759:..\..\..\lvgl\version_6.1.2\lvgl\src\lv_objx/lv_table.c **** 
 822              		.loc 1 759 0
 823 028c 0999     		ldr	r1, [sp, #36]
 824 028e 0091     		str	r1, [sp]
 757:..\..\..\lvgl\version_6.1.2\lvgl\src\lv_objx/lv_table.c ****                             p2.y = txt_area.y1 + txt_size.y + cell_style.text.line_space / 2;
 825              		.loc 1 757 0
 826 0290 7344     		add	r3, r3, lr
 827 0292 02EBD27E 		add	lr, r2, r2, lsr #31
 828 0296 03EB6E0E 		add	lr, r3, lr, asr #1
 829 029a 0FFA8EFE 		sxth	lr, lr
 759:..\..\..\lvgl\version_6.1.2\lvgl\src\lv_objx/lv_table.c **** 
 830              		.loc 1 759 0
 831 029e 1AAB     		add	r3, sp, #104
ARM GAS  C:\Users\pearlstl\AppData\Local\Temp\ccIJtgHD.s 			page 34


 832 02a0 12A8     		add	r0, sp, #72
 833 02a2 089A     		ldr	r2, [sp, #32]
 757:..\..\..\lvgl\version_6.1.2\lvgl\src\lv_objx/lv_table.c ****                             p2.y = txt_area.y1 + txt_size.y + cell_style.text.line_space / 2;
 834              		.loc 1 757 0
 835 02a4 ADF84AE0 		strh	lr, [sp, #74]	@ movhi
 759:..\..\..\lvgl\version_6.1.2\lvgl\src\lv_objx/lv_table.c **** 
 836              		.loc 1 759 0
 837 02a8 13A9     		add	r1, sp, #76
 758:..\..\..\lvgl\version_6.1.2\lvgl\src\lv_objx/lv_table.c ****                             lv_draw_line(&p1, &p2, mask, &cell_style, opa_scale);
 838              		.loc 1 758 0
 839 02aa ADF84EE0 		strh	lr, [sp, #78]	@ movhi
 759:..\..\..\lvgl\version_6.1.2\lvgl\src\lv_objx/lv_table.c **** 
 840              		.loc 1 759 0
 841 02ae FFF7FEFF 		bl	lv_draw_line
 842              	.LVL98:
 761:..\..\..\lvgl\version_6.1.2\lvgl\src\lv_objx/lv_table.c ****                         }
 843              		.loc 1 761 0
 844 02b2 DAF80430 		ldr	r3, [r10, #4]
 845 02b6 DB59     		ldr	r3, [r3, r7]
 846 02b8 9D55     		strb	r5, [r3, r6]
 847 02ba DAF80400 		ldr	r0, [r10, #4]
 848 02be C359     		ldr	r3, [r0, r7]
 849 02c0 B9E7     		b	.L71
 850              	.LVL99:
 851              	.L63:
 852              	.LBE63:
 853              	.LBE61:
 673:..\..\..\lvgl\version_6.1.2\lvgl\src\lv_objx/lv_table.c **** 
 854              		.loc 1 673 0
 855 02c2 0B9A     		ldr	r2, [sp, #44]
 856 02c4 BAF80030 		ldrh	r3, [r10]
 857 02c8 9144     		add	r9, r9, r2
 858              	.LVL100:
 859 02ca 1FFA89F9 		uxth	r9, r9
 860              	.LBB65:
 766:..\..\..\lvgl\version_6.1.2\lvgl\src\lv_objx/lv_table.c ****                 col += col_merge;
 861              		.loc 1 766 0
 862 02ce 9344     		add	fp, fp, r2
 863              	.LVL101:
 864              	.LBE65:
 673:..\..\..\lvgl\version_6.1.2\lvgl\src\lv_objx/lv_table.c **** 
 865              		.loc 1 673 0
 866 02d0 4B45     		cmp	r3, r9
 867              	.LBB66:
 766:..\..\..\lvgl\version_6.1.2\lvgl\src\lv_objx/lv_table.c ****                 col += col_merge;
 868              		.loc 1 766 0
 869 02d2 1FFA8BFB 		uxth	fp, fp
 870              	.LVL102:
 871              	.LBE66:
 673:..\..\..\lvgl\version_6.1.2\lvgl\src\lv_objx/lv_table.c **** 
 872              		.loc 1 673 0
 873 02d6 3FF6DEAE 		bhi	.L74
 874 02da 4746     		mov	r7, r8
 875              	.LVL103:
 876              	.L52:
 665:..\..\..\lvgl\version_6.1.2\lvgl\src\lv_objx/lv_table.c ****             h_row = get_row_height(table, row);
 877              		.loc 1 665 0
ARM GAS  C:\Users\pearlstl\AppData\Local\Temp\ccIJtgHD.s 			page 35


 878 02dc 0E9A     		ldr	r2, [sp, #56]
 879 02de BAF80230 		ldrh	r3, [r10, #2]
 880 02e2 0132     		adds	r2, r2, #1
 881 02e4 92B2     		uxth	r2, r2
 882 02e6 9342     		cmp	r3, r2
 883 02e8 0E92     		str	r2, [sp, #56]
 884              	.LVL104:
 885 02ea 3FF6B2AE 		bhi	.L75
 886              	.LVL105:
 887              	.L76:
 888 02ee 0120     		movs	r0, #1
 889              	.LBE68:
 890              	.LBE70:
 776:..\..\..\lvgl\version_6.1.2\lvgl\src\lv_objx/lv_table.c **** 
 891              		.loc 1 776 0
 892 02f0 2FB0     		add	sp, sp, #188
 893              		.cfi_remember_state
 894              		.cfi_def_cfa_offset 36
 895              		@ sp needed
 896 02f2 BDE8F08F 		pop	{r4, r5, r6, r7, r8, r9, r10, fp, pc}
 897              	.LVL106:
 898              	.L115:
 899              		.cfi_restore_state
 900              	.LBB71:
 901              	.LBB69:
 902              	.LBB67:
 903              	.LBB64:
 720:..\..\..\lvgl\version_6.1.2\lvgl\src\lv_objx/lv_table.c ****                                     cell_style.text.letter_space, cell_style.text.line_space,
 904              		.loc 1 720 0
 905 02f6 BDF9A240 		ldrsh	r4, [sp, #162]
 906 02fa 0094     		str	r4, [sp]
 907 02fc 581C     		adds	r0, r3, #1
 908 02fe 11AC     		add	r4, sp, #68
 909 0300 801A     		subs	r0, r0, r2
 910 0302 00B2     		sxth	r0, r0
 911 0304 2546     		mov	r5, r4
 912 0306 0A94     		str	r4, [sp, #40]
 913 0308 0224     		movs	r4, #2
 914 030a BDF9A030 		ldrsh	r3, [sp, #160]
 915 030e 279A     		ldr	r2, [sp, #156]
 916 0310 0190     		str	r0, [sp, #4]
 917 0312 0131     		adds	r1, r1, #1
 918 0314 2846     		mov	r0, r5
 919 0316 0294     		str	r4, [sp, #8]
 920 0318 FFF7FEFF 		bl	lv_txt_get_size
 921              	.LVL107:
 922 031c 0A23     		movs	r3, #10
 923 031e 0793     		str	r3, [sp, #28]
 730:..\..\..\lvgl\version_6.1.2\lvgl\src\lv_objx/lv_table.c ****                         default:
 924              		.loc 1 730 0
 925 0320 08F00303 		and	r3, r8, #3
 926 0324 012B     		cmp	r3, #1
 720:..\..\..\lvgl\version_6.1.2\lvgl\src\lv_objx/lv_table.c ****                                     cell_style.text.letter_space, cell_style.text.line_space,
 927              		.loc 1 720 0
 928 0326 4FF00602 		mov	r2, #6
 730:..\..\..\lvgl\version_6.1.2\lvgl\src\lv_objx/lv_table.c ****                         default:
 929              		.loc 1 730 0
ARM GAS  C:\Users\pearlstl\AppData\Local\Temp\ccIJtgHD.s 			page 36


 930 032a 7FF465AF 		bne	.L117
 931              	.LVL108:
 932              	.L67:
 734:..\..\..\lvgl\version_6.1.2\lvgl\src\lv_objx/lv_table.c ****                     }
 933              		.loc 1 734 0
 934 032e 0792     		str	r2, [sp, #28]
 935 0330 67E7     		b	.L68
 936              	.L119:
 937 0332 00BF     		.align	2
 938              	.L118:
 939 0334 00000000 		.word	.LANCHOR0
 940              	.LVL109:
 941              	.L113:
 942 0338 0234     		adds	r4, r4, #2
 943 033a A3B2     		uxth	r3, r4
 944              	.LVL110:
 945 033c 0B93     		str	r3, [sp, #44]
 946 033e 8046     		mov	r8, r0
 947 0340 FEE6     		b	.L56
 948              	.LVL111:
 949              	.L116:
 741:..\..\..\lvgl\version_6.1.2\lvgl\src\lv_objx/lv_table.c ****                                       txt_flags, NULL, NULL, NULL, lv_obj_get_base_dir(table));
 950              		.loc 1 741 0
 951 0342 DAF80430 		ldr	r3, [r10, #4]
 952 0346 0D98     		ldr	r0, [sp, #52]
 953              	.LVL112:
 954 0348 DC59     		ldr	r4, [r3, r7]
 955 034a FFF7FEFF 		bl	lv_obj_get_base_dir
 956              	.LVL113:
 957 034e 0023     		movs	r3, #0
 958 0350 0134     		adds	r4, r4, #1
 959 0352 0493     		str	r3, [sp, #16]
 960 0354 0393     		str	r3, [sp, #12]
 961 0356 0293     		str	r3, [sp, #8]
 962 0358 079B     		ldr	r3, [sp, #28]
 963 035a 0590     		str	r0, [sp, #20]
 964 035c 0193     		str	r3, [sp, #4]
 965 035e 0094     		str	r4, [sp]
 966 0360 18A9     		add	r1, sp, #96
 967 0362 099B     		ldr	r3, [sp, #36]
 968 0364 1AAA     		add	r2, sp, #104
 969 0366 16A8     		add	r0, sp, #88
 970              	.LVL114:
 971 0368 FFF7FEFF 		bl	lv_draw_label
 972              	.LVL115:
 973 036c 51E7     		b	.L69
 974              	.LVL116:
 975              	.L53:
 976              	.LBE64:
 679:..\..\..\lvgl\version_6.1.2\lvgl\src\lv_objx/lv_table.c ****                     format.s.align       = LV_LABEL_ALIGN_LEFT;
 977              		.loc 1 679 0
 978 036e 63F38208 		bfi	r8, r3, #2, #1
 680:..\..\..\lvgl\version_6.1.2\lvgl\src\lv_objx/lv_table.c ****                     format.s.type        = 0;
 979              		.loc 1 680 0
 980 0372 63F30108 		bfi	r8, r3, #0, #2
 681:..\..\..\lvgl\version_6.1.2\lvgl\src\lv_objx/lv_table.c ****                     format.s.crop        = 1;
 981              		.loc 1 681 0
ARM GAS  C:\Users\pearlstl\AppData\Local\Temp\ccIJtgHD.s 			page 37


 982 0376 63F3C408 		bfi	r8, r3, #3, #2
 682:..\..\..\lvgl\version_6.1.2\lvgl\src\lv_objx/lv_table.c ****                 }
 983              		.loc 1 682 0
 984 037a 48F02008 		orr	r8, r8, #32
 985              	.LVL117:
 986 037e 95E6     		b	.L54
 987              	.LVL118:
 988              	.L57:
 692:..\..\..\lvgl\version_6.1.2\lvgl\src\lv_objx/lv_table.c **** 
 989              		.loc 1 692 0
 990 0380 0123     		movs	r3, #1
 991 0382 0B93     		str	r3, [sp, #44]
 992 0384 DCE6     		b	.L56
 993              	.LVL119:
 994              	.L78:
 995              		.cfi_def_cfa_offset 0
 996              		.cfi_restore 4
 997              		.cfi_restore 5
 998              		.cfi_restore 6
 999              		.cfi_restore 7
 1000              		.cfi_restore 8
 1001              		.cfi_restore 9
 1002              		.cfi_restore 10
 1003              		.cfi_restore 11
 1004              		.cfi_restore 14
 1005              	.LBE67:
 1006              	.LBE69:
 1007              	.LBE71:
 645:..\..\..\lvgl\version_6.1.2\lvgl\src\lv_objx/lv_table.c ****     }
 1008              		.loc 1 645 0
 1009 0386 0020     		movs	r0, #0
 1010              	.LVL120:
 776:..\..\..\lvgl\version_6.1.2\lvgl\src\lv_objx/lv_table.c **** 
 1011              		.loc 1 776 0
 1012 0388 7047     		bx	lr
 1013              	.LVL121:
 1014              	.L114:
 1015              		.cfi_def_cfa_offset 224
 1016              		.cfi_offset 4, -36
 1017              		.cfi_offset 5, -32
 1018              		.cfi_offset 6, -28
 1019              		.cfi_offset 7, -24
 1020              		.cfi_offset 8, -20
 1021              		.cfi_offset 9, -16
 1022              		.cfi_offset 10, -12
 1023              		.cfi_offset 11, -8
 1024              		.cfi_offset 14, -4
 1025 038a 8046     		mov	r8, r0
 1026 038c D5E6     		b	.L62
 1027              		.cfi_endproc
 1028              	.LFE52:
 1029              		.size	lv_table_design, .-lv_table_design
 1030 038e 00BF     		.section	.text.lv_table_create,"ax",%progbits
 1031              		.align	2
 1032              		.global	lv_table_create
 1033              		.thumb
 1034              		.thumb_func
ARM GAS  C:\Users\pearlstl\AppData\Local\Temp\ccIJtgHD.s 			page 38


 1035              		.type	lv_table_create, %function
 1036              	lv_table_create:
 1037              	.LFB33:
  56:..\..\..\lvgl\version_6.1.2\lvgl\src\lv_objx/lv_table.c ****     LV_LOG_TRACE("table create started");
 1038              		.loc 1 56 0
 1039              		.cfi_startproc
 1040              		@ args = 0, pretend = 0, frame = 0
 1041              		@ frame_needed = 0, uses_anonymous_args = 0
 1042              	.LVL122:
 1043 0000 2DE9F047 		push	{r4, r5, r6, r7, r8, r9, r10, lr}
 1044              		.cfi_def_cfa_offset 32
 1045              		.cfi_offset 4, -32
 1046              		.cfi_offset 5, -28
 1047              		.cfi_offset 6, -24
 1048              		.cfi_offset 7, -20
 1049              		.cfi_offset 8, -16
 1050              		.cfi_offset 9, -12
 1051              		.cfi_offset 10, -8
 1052              		.cfi_offset 14, -4
  56:..\..\..\lvgl\version_6.1.2\lvgl\src\lv_objx/lv_table.c ****     LV_LOG_TRACE("table create started");
 1053              		.loc 1 56 0
 1054 0004 0E46     		mov	r6, r1
  60:..\..\..\lvgl\version_6.1.2\lvgl\src\lv_objx/lv_table.c ****     LV_ASSERT_MEM(new_table);
 1055              		.loc 1 60 0
 1056 0006 FFF7FEFF 		bl	lv_obj_create
 1057              	.LVL123:
  62:..\..\..\lvgl\version_6.1.2\lvgl\src\lv_objx/lv_table.c **** 
 1058              		.loc 1 62 0
 1059 000a 0028     		cmp	r0, #0
 1060 000c 00F09C82 		beq	.L123
  65:..\..\..\lvgl\version_6.1.2\lvgl\src\lv_objx/lv_table.c ****     LV_ASSERT_MEM(ext);
 1061              		.loc 1 65 0
 1062 0010 3021     		movs	r1, #48
 1063 0012 0746     		mov	r7, r0
 1064 0014 FFF7FEFF 		bl	lv_obj_allocate_ext_attr
 1065              	.LVL124:
  67:..\..\..\lvgl\version_6.1.2\lvgl\src\lv_objx/lv_table.c ****     if(ancestor_signal == NULL) ancestor_signal = lv_obj_get_signal_cb(new_table);
 1066              		.loc 1 67 0
 1067 0018 0446     		mov	r4, r0
 1068 001a 0028     		cmp	r0, #0
 1069 001c 00F09482 		beq	.L123
  68:..\..\..\lvgl\version_6.1.2\lvgl\src\lv_objx/lv_table.c ****     if(ancestor_scrl_design == NULL) ancestor_scrl_design = lv_obj_get_design_cb(new_table);
 1070              		.loc 1 68 0
 1071 0020 814D     		ldr	r5, .L221
 1072 0022 2B68     		ldr	r3, [r5]
 1073 0024 002B     		cmp	r3, #0
 1074 0026 00F09282 		beq	.L215
 1075              	.LVL125:
 1076              	.L124:
  69:..\..\..\lvgl\version_6.1.2\lvgl\src\lv_objx/lv_table.c **** 
 1077              		.loc 1 69 0
 1078 002a 6B68     		ldr	r3, [r5, #4]
 1079 002c 7E4D     		ldr	r5, .L221
 1080 002e 002B     		cmp	r3, #0
 1081 0030 00F09282 		beq	.L216
 1082              	.L125:
  82:..\..\..\lvgl\version_6.1.2\lvgl\src\lv_objx/lv_table.c ****     }
ARM GAS  C:\Users\pearlstl\AppData\Local\Temp\ccIJtgHD.s 			page 39


 1083              		.loc 1 82 0
 1084 0034 4FF09613 		mov	r3, #9830550
  73:..\..\..\lvgl\version_6.1.2\lvgl\src\lv_objx/lv_table.c ****     ext->cell_style[1] = &lv_style_plain;
 1085              		.loc 1 73 0
 1086 0038 7C4A     		ldr	r2, .L221+4
  86:..\..\..\lvgl\version_6.1.2\lvgl\src\lv_objx/lv_table.c ****     lv_obj_set_design_cb(new_table, lv_table_design);
 1087              		.loc 1 86 0
 1088 003a 7D49     		ldr	r1, .L221+8
  73:..\..\..\lvgl\version_6.1.2\lvgl\src\lv_objx/lv_table.c ****     ext->cell_style[1] = &lv_style_plain;
 1089              		.loc 1 73 0
 1090 003c A260     		str	r2, [r4, #8]
  72:..\..\..\lvgl\version_6.1.2\lvgl\src\lv_objx/lv_table.c ****     ext->cell_style[0] = &lv_style_plain;
 1091              		.loc 1 72 0
 1092 003e 0025     		movs	r5, #0
  86:..\..\..\lvgl\version_6.1.2\lvgl\src\lv_objx/lv_table.c ****     lv_obj_set_design_cb(new_table, lv_table_design);
 1093              		.loc 1 86 0
 1094 0040 3846     		mov	r0, r7
  72:..\..\..\lvgl\version_6.1.2\lvgl\src\lv_objx/lv_table.c ****     ext->cell_style[0] = &lv_style_plain;
 1095              		.loc 1 72 0
 1096 0042 6560     		str	r5, [r4, #4]
  77:..\..\..\lvgl\version_6.1.2\lvgl\src\lv_objx/lv_table.c ****     ext->row_cnt       = 0;
 1097              		.loc 1 77 0
 1098 0044 2580     		strh	r5, [r4]	@ movhi
  78:..\..\..\lvgl\version_6.1.2\lvgl\src\lv_objx/lv_table.c **** 
 1099              		.loc 1 78 0
 1100 0046 6580     		strh	r5, [r4, #2]	@ movhi
  74:..\..\..\lvgl\version_6.1.2\lvgl\src\lv_objx/lv_table.c ****     ext->cell_style[2] = &lv_style_plain;
 1101              		.loc 1 74 0
 1102 0048 E260     		str	r2, [r4, #12]
  75:..\..\..\lvgl\version_6.1.2\lvgl\src\lv_objx/lv_table.c ****     ext->cell_style[3] = &lv_style_plain;
 1103              		.loc 1 75 0
 1104 004a 2261     		str	r2, [r4, #16]
  76:..\..\..\lvgl\version_6.1.2\lvgl\src\lv_objx/lv_table.c ****     ext->col_cnt       = 0;
 1105              		.loc 1 76 0
 1106 004c 6261     		str	r2, [r4, #20]
  82:..\..\..\lvgl\version_6.1.2\lvgl\src\lv_objx/lv_table.c ****     }
 1107              		.loc 1 82 0
 1108 004e A361     		str	r3, [r4, #24]
 1109 0050 E361     		str	r3, [r4, #28]
 1110 0052 2362     		str	r3, [r4, #32]
 1111 0054 6362     		str	r3, [r4, #36]
 1112 0056 A362     		str	r3, [r4, #40]
 1113 0058 E362     		str	r3, [r4, #44]
 1114              	.LVL126:
  86:..\..\..\lvgl\version_6.1.2\lvgl\src\lv_objx/lv_table.c ****     lv_obj_set_design_cb(new_table, lv_table_design);
 1115              		.loc 1 86 0
 1116 005a FFF7FEFF 		bl	lv_obj_set_signal_cb
 1117              	.LVL127:
  87:..\..\..\lvgl\version_6.1.2\lvgl\src\lv_objx/lv_table.c **** 
 1118              		.loc 1 87 0
 1119 005e 7549     		ldr	r1, .L221+12
 1120 0060 3846     		mov	r0, r7
 1121 0062 FFF7FEFF 		bl	lv_obj_set_design_cb
 1122              	.LVL128:
  90:..\..\..\lvgl\version_6.1.2\lvgl\src\lv_objx/lv_table.c ****         /*Set the default styles*/
 1123              		.loc 1 90 0
 1124 0066 002E     		cmp	r6, #0
ARM GAS  C:\Users\pearlstl\AppData\Local\Temp\ccIJtgHD.s 			page 40


 1125 0068 00F0E680 		beq	.L217
 1126              	.LBB114:
 106:..\..\..\lvgl\version_6.1.2\lvgl\src\lv_objx/lv_table.c ****         ext->cell_style[0]        = copy_ext->cell_style[0];
 1127              		.loc 1 106 0
 1128 006c 3046     		mov	r0, r6
 1129 006e FFF7FEFF 		bl	lv_obj_get_ext_attr
 1130              	.LVL129:
 1131 0072 8146     		mov	r9, r0
 1132              	.LVL130:
 1133              	.LBB115:
 1134              	.LBB116:
 184:..\..\..\lvgl\version_6.1.2\lvgl\src\lv_objx/lv_table.c ****     uint16_t old_row_cnt = ext->row_cnt;
 1135              		.loc 1 184 0
 1136 0074 3846     		mov	r0, r7
 1137              	.LVL131:
 1138              	.LBE116:
 1139              	.LBE115:
 107:..\..\..\lvgl\version_6.1.2\lvgl\src\lv_objx/lv_table.c ****         ext->cell_style[1]        = copy_ext->cell_style[1];
 1140              		.loc 1 107 0
 1141 0076 D9F80830 		ldr	r3, [r9, #8]
 1142 007a A360     		str	r3, [r4, #8]
 108:..\..\..\lvgl\version_6.1.2\lvgl\src\lv_objx/lv_table.c ****         ext->cell_style[2]        = copy_ext->cell_style[2];
 1143              		.loc 1 108 0
 1144 007c D9F80C30 		ldr	r3, [r9, #12]
 1145 0080 E360     		str	r3, [r4, #12]
 109:..\..\..\lvgl\version_6.1.2\lvgl\src\lv_objx/lv_table.c ****         ext->cell_style[3]        = copy_ext->cell_style[3];
 1146              		.loc 1 109 0
 1147 0082 D9F81030 		ldr	r3, [r9, #16]
 1148 0086 2361     		str	r3, [r4, #16]
 110:..\..\..\lvgl\version_6.1.2\lvgl\src\lv_objx/lv_table.c ****         lv_table_set_row_cnt(new_table, copy_ext->row_cnt);
 1149              		.loc 1 110 0
 1150 0088 D9F81430 		ldr	r3, [r9, #20]
 1151 008c 6361     		str	r3, [r4, #20]
 111:..\..\..\lvgl\version_6.1.2\lvgl\src\lv_objx/lv_table.c ****         lv_table_set_col_cnt(new_table, copy_ext->col_cnt);
 1152              		.loc 1 111 0
 1153 008e B9F80260 		ldrh	r6, [r9, #2]
 1154              	.LVL132:
 1155              	.LBB125:
 1156              	.LBB122:
 184:..\..\..\lvgl\version_6.1.2\lvgl\src\lv_objx/lv_table.c ****     uint16_t old_row_cnt = ext->row_cnt;
 1157              		.loc 1 184 0
 1158 0092 FFF7FEFF 		bl	lv_obj_get_ext_attr
 1159              	.LVL133:
 185:..\..\..\lvgl\version_6.1.2\lvgl\src\lv_objx/lv_table.c ****     ext->row_cnt         = row_cnt;
 1160              		.loc 1 185 0
 1161 0096 B0F80280 		ldrh	r8, [r0, #2]
 186:..\..\..\lvgl\version_6.1.2\lvgl\src\lv_objx/lv_table.c **** 
 1162              		.loc 1 186 0
 1163 009a 4680     		strh	r6, [r0, #2]	@ movhi
 184:..\..\..\lvgl\version_6.1.2\lvgl\src\lv_objx/lv_table.c ****     uint16_t old_row_cnt = ext->row_cnt;
 1164              		.loc 1 184 0
 1165 009c 0446     		mov	r4, r0
 1166              	.LVL134:
 188:..\..\..\lvgl\version_6.1.2\lvgl\src\lv_objx/lv_table.c ****         ext->cell_data = lv_mem_realloc(ext->cell_data, ext->row_cnt * ext->col_cnt * sizeof(char *
 1167              		.loc 1 188 0
 1168 009e 1EB1     		cbz	r6, .L153
 1169 00a0 0388     		ldrh	r3, [r0]
ARM GAS  C:\Users\pearlstl\AppData\Local\Temp\ccIJtgHD.s 			page 41


 1170 00a2 002B     		cmp	r3, #0
 1171 00a4 40F0A780 		bne	.L218
 1172              	.L153:
 198:..\..\..\lvgl\version_6.1.2\lvgl\src\lv_objx/lv_table.c ****         ext->cell_data = NULL;
 1173              		.loc 1 198 0
 1174 00a8 6068     		ldr	r0, [r4, #4]
 1175              	.LVL135:
 1176 00aa FFF7FEFF 		bl	lv_mem_free
 1177              	.LVL136:
 199:..\..\..\lvgl\version_6.1.2\lvgl\src\lv_objx/lv_table.c ****     }
 1178              		.loc 1 199 0
 1179 00ae 0023     		movs	r3, #0
 1180 00b0 6360     		str	r3, [r4, #4]
 1181              	.L154:
 1182              	.LVL137:
 1183              	.LBB117:
 1184              	.LBB118:
 816:..\..\..\lvgl\version_6.1.2\lvgl\src\lv_objx/lv_table.c **** 
 1185              		.loc 1 816 0
 1186 00b2 3846     		mov	r0, r7
 1187 00b4 FFF7FEFF 		bl	lv_obj_get_ext_attr
 1188              	.LVL138:
 819:..\..\..\lvgl\version_6.1.2\lvgl\src\lv_objx/lv_table.c ****         w += ext->col_w[i];
 1189              		.loc 1 819 0
 1190 00b8 0488     		ldrh	r4, [r0]
 1191              	.LVL139:
 816:..\..\..\lvgl\version_6.1.2\lvgl\src\lv_objx/lv_table.c **** 
 1192              		.loc 1 816 0
 1193 00ba 8046     		mov	r8, r0
 1194              	.LVL140:
 819:..\..\..\lvgl\version_6.1.2\lvgl\src\lv_objx/lv_table.c ****         w += ext->col_w[i];
 1195              		.loc 1 819 0
 1196 00bc 74B1     		cbz	r4, .L155
 1197 00be 601E     		subs	r0, r4, #1
 1198              	.LVL141:
 1199 00c0 80B2     		uxth	r0, r0
 1200 00c2 0C30     		adds	r0, r0, #12
 1201 00c4 08EB4000 		add	r0, r8, r0, lsl #1
 1202 00c8 08F11602 		add	r2, r8, #22
 1203 00cc 0021     		movs	r1, #0
 1204              	.LVL142:
 1205              	.L156:
 820:..\..\..\lvgl\version_6.1.2\lvgl\src\lv_objx/lv_table.c ****     }
 1206              		.loc 1 820 0
 1207 00ce 32F8023F 		ldrh	r3, [r2, #2]!
 1208 00d2 CC18     		adds	r4, r1, r3
 1209 00d4 A4B2     		uxth	r4, r4
 819:..\..\..\lvgl\version_6.1.2\lvgl\src\lv_objx/lv_table.c ****         w += ext->col_w[i];
 1210              		.loc 1 819 0
 1211 00d6 8242     		cmp	r2, r0
 820:..\..\..\lvgl\version_6.1.2\lvgl\src\lv_objx/lv_table.c ****     }
 1212              		.loc 1 820 0
 1213 00d8 21B2     		sxth	r1, r4
 1214              	.LVL143:
 819:..\..\..\lvgl\version_6.1.2\lvgl\src\lv_objx/lv_table.c ****         w += ext->col_w[i];
 1215              		.loc 1 819 0
 1216 00da F8D1     		bne	.L156
ARM GAS  C:\Users\pearlstl\AppData\Local\Temp\ccIJtgHD.s 			page 42


 1217              	.LVL144:
 1218              	.L155:
 822:..\..\..\lvgl\version_6.1.2\lvgl\src\lv_objx/lv_table.c ****         h += get_row_height(table, i);
 1219              		.loc 1 822 0
 1220 00dc B8F80200 		ldrh	r0, [r8, #2]
 1221 00e0 0028     		cmp	r0, #0
 1222 00e2 00F02F82 		beq	.L179
 1223 00e6 0026     		movs	r6, #0
 1224              	.LVL145:
 1225 00e8 3546     		mov	r5, r6
 1226              	.LVL146:
 1227              	.L158:
 823:..\..\..\lvgl\version_6.1.2\lvgl\src\lv_objx/lv_table.c ****     }
 1228              		.loc 1 823 0
 1229 00ea 2946     		mov	r1, r5
 1230 00ec 3846     		mov	r0, r7
 1231 00ee FFF7FEFF 		bl	get_row_height
 1232              	.LVL147:
 822:..\..\..\lvgl\version_6.1.2\lvgl\src\lv_objx/lv_table.c ****         h += get_row_height(table, i);
 1233              		.loc 1 822 0
 1234 00f2 0135     		adds	r5, r5, #1
 1235              	.LVL148:
 1236 00f4 B8F80230 		ldrh	r3, [r8, #2]
 823:..\..\..\lvgl\version_6.1.2\lvgl\src\lv_objx/lv_table.c ****     }
 1237              		.loc 1 823 0
 1238 00f8 3044     		add	r0, r0, r6
 822:..\..\..\lvgl\version_6.1.2\lvgl\src\lv_objx/lv_table.c ****         h += get_row_height(table, i);
 1239              		.loc 1 822 0
 1240 00fa ADB2     		uxth	r5, r5
 823:..\..\..\lvgl\version_6.1.2\lvgl\src\lv_objx/lv_table.c ****     }
 1241              		.loc 1 823 0
 1242 00fc 1FFA80FA 		uxth	r10, r0
 822:..\..\..\lvgl\version_6.1.2\lvgl\src\lv_objx/lv_table.c ****         h += get_row_height(table, i);
 1243              		.loc 1 822 0
 1244 0100 AB42     		cmp	r3, r5
 823:..\..\..\lvgl\version_6.1.2\lvgl\src\lv_objx/lv_table.c ****     }
 1245              		.loc 1 823 0
 1246 0102 0FFA8AF6 		sxth	r6, r10
 1247              	.LVL149:
 822:..\..\..\lvgl\version_6.1.2\lvgl\src\lv_objx/lv_table.c ****         h += get_row_height(table, i);
 1248              		.loc 1 822 0
 1249 0106 F0D8     		bhi	.L158
 1250              	.LVL150:
 1251              	.L157:
 826:..\..\..\lvgl\version_6.1.2\lvgl\src\lv_objx/lv_table.c **** 
 1252              		.loc 1 826 0
 1253 0108 3846     		mov	r0, r7
 1254 010a FFF7FEFF 		bl	lv_obj_get_style
 1255              	.LVL151:
 1256 010e 0346     		mov	r3, r0
 1257              	.LVL152:
 831:..\..\..\lvgl\version_6.1.2\lvgl\src\lv_objx/lv_table.c ****     lv_obj_invalidate(table);
 1258              		.loc 1 831 0
 1259 0110 3846     		mov	r0, r7
 1260              	.LVL153:
 1261 0112 1D8C     		ldrh	r5, [r3, #32]
 1262 0114 5A8C     		ldrh	r2, [r3, #34]
ARM GAS  C:\Users\pearlstl\AppData\Local\Temp\ccIJtgHD.s 			page 43


 1263 0116 998C     		ldrh	r1, [r3, #36]
 1264 0118 DB8C     		ldrh	r3, [r3, #38]
 1265              	.LVL154:
 1266 011a 2A44     		add	r2, r2, r5
 1267 011c 1944     		add	r1, r1, r3
 1268 011e 0132     		adds	r2, r2, #1
 1269 0120 0131     		adds	r1, r1, #1
 1270 0122 2144     		add	r1, r1, r4
 1271 0124 5244     		add	r2, r2, r10
 1272 0126 12B2     		sxth	r2, r2
 1273 0128 09B2     		sxth	r1, r1
 1274 012a FFF7FEFF 		bl	lv_obj_set_size
 1275              	.LVL155:
 832:..\..\..\lvgl\version_6.1.2\lvgl\src\lv_objx/lv_table.c **** }
 1276              		.loc 1 832 0
 1277 012e 3846     		mov	r0, r7
 1278 0130 FFF7FEFF 		bl	lv_obj_invalidate
 1279              	.LVL156:
 1280              	.LBE118:
 1281              	.LBE117:
 1282              	.LBE122:
 1283              	.LBE125:
 112:..\..\..\lvgl\version_6.1.2\lvgl\src\lv_objx/lv_table.c **** 
 1284              		.loc 1 112 0
 1285 0134 B9F80040 		ldrh	r4, [r9]
 1286              	.LVL157:
 1287              	.LBB126:
 1288              	.LBB127:
 214:..\..\..\lvgl\version_6.1.2\lvgl\src\lv_objx/lv_table.c ****         LV_LOG_WARN("lv_table_set_col_cnt: too many columns. Must be < LV_TABLE_COL_MAX.");
 1289              		.loc 1 214 0
 1290 0138 0B2C     		cmp	r4, #11
 1291 013a 05D9     		bls	.L219
 1292              	.LVL158:
 1293              	.LBE127:
 1294              	.LBE126:
 115:..\..\..\lvgl\version_6.1.2\lvgl\src\lv_objx/lv_table.c ****     }
 1295              		.loc 1 115 0
 1296 013c 3846     		mov	r0, r7
 1297 013e FFF7FEFF 		bl	lv_obj_refresh_style
 1298              	.LVL159:
 1299 0142 3846     		mov	r0, r7
 1300              	.LBE114:
 121:..\..\..\lvgl\version_6.1.2\lvgl\src\lv_objx/lv_table.c **** 
 1301              		.loc 1 121 0
 1302 0144 BDE8F087 		pop	{r4, r5, r6, r7, r8, r9, r10, pc}
 1303              	.LVL160:
 1304              	.L219:
 1305              	.LBB143:
 1306              	.LBB139:
 1307              	.LBB137:
 1308              	.LBB128:
 1309              	.LBB129:
 219:..\..\..\lvgl\version_6.1.2\lvgl\src\lv_objx/lv_table.c ****     uint16_t old_col_cnt = ext->col_cnt;
 1310              		.loc 1 219 0
 1311 0148 3846     		mov	r0, r7
 1312 014a FFF7FEFF 		bl	lv_obj_get_ext_attr
 1313              	.LVL161:
ARM GAS  C:\Users\pearlstl\AppData\Local\Temp\ccIJtgHD.s 			page 44


 223:..\..\..\lvgl\version_6.1.2\lvgl\src\lv_objx/lv_table.c ****         ext->cell_data = lv_mem_realloc(ext->cell_data, ext->row_cnt * ext->col_cnt * sizeof(char *
 1314              		.loc 1 223 0
 1315 014e 4388     		ldrh	r3, [r0, #2]
 220:..\..\..\lvgl\version_6.1.2\lvgl\src\lv_objx/lv_table.c ****     ext->col_cnt         = col_cnt;
 1316              		.loc 1 220 0
 1317 0150 0688     		ldrh	r6, [r0]
 221:..\..\..\lvgl\version_6.1.2\lvgl\src\lv_objx/lv_table.c **** 
 1318              		.loc 1 221 0
 1319 0152 0480     		strh	r4, [r0]	@ movhi
 219:..\..\..\lvgl\version_6.1.2\lvgl\src\lv_objx/lv_table.c ****     uint16_t old_col_cnt = ext->col_cnt;
 1320              		.loc 1 219 0
 1321 0154 0546     		mov	r5, r0
 1322              	.LVL162:
 223:..\..\..\lvgl\version_6.1.2\lvgl\src\lv_objx/lv_table.c ****         ext->cell_data = lv_mem_realloc(ext->cell_data, ext->row_cnt * ext->col_cnt * sizeof(char *
 1323              		.loc 1 223 0
 1324 0156 13B1     		cbz	r3, .L160
 1325 0158 002C     		cmp	r4, #0
 1326 015a 40F00282 		bne	.L220
 1327              	.L160:
 233:..\..\..\lvgl\version_6.1.2\lvgl\src\lv_objx/lv_table.c ****         ext->cell_data = NULL;
 1328              		.loc 1 233 0
 1329 015e 6868     		ldr	r0, [r5, #4]
 1330              	.LVL163:
 1331 0160 FFF7FEFF 		bl	lv_mem_free
 1332              	.LVL164:
 234:..\..\..\lvgl\version_6.1.2\lvgl\src\lv_objx/lv_table.c ****     }
 1333              		.loc 1 234 0
 1334 0164 0023     		movs	r3, #0
 1335 0166 6B60     		str	r3, [r5, #4]
 1336              	.L161:
 1337              	.LVL165:
 1338              	.LBB130:
 1339              	.LBB131:
 816:..\..\..\lvgl\version_6.1.2\lvgl\src\lv_objx/lv_table.c **** 
 1340              		.loc 1 816 0
 1341 0168 3846     		mov	r0, r7
 1342 016a FFF7FEFF 		bl	lv_obj_get_ext_attr
 1343              	.LVL166:
 819:..\..\..\lvgl\version_6.1.2\lvgl\src\lv_objx/lv_table.c ****         w += ext->col_w[i];
 1344              		.loc 1 819 0
 1345 016e 0488     		ldrh	r4, [r0]
 1346              	.LVL167:
 816:..\..\..\lvgl\version_6.1.2\lvgl\src\lv_objx/lv_table.c **** 
 1347              		.loc 1 816 0
 1348 0170 8046     		mov	r8, r0
 1349              	.LVL168:
 819:..\..\..\lvgl\version_6.1.2\lvgl\src\lv_objx/lv_table.c ****         w += ext->col_w[i];
 1350              		.loc 1 819 0
 1351 0172 74B1     		cbz	r4, .L162
 1352 0174 601E     		subs	r0, r4, #1
 1353              	.LVL169:
 1354 0176 80B2     		uxth	r0, r0
 1355 0178 0C30     		adds	r0, r0, #12
 1356 017a 08EB4000 		add	r0, r8, r0, lsl #1
 1357 017e 08F11602 		add	r2, r8, #22
 1358 0182 0021     		movs	r1, #0
 1359              	.LVL170:
ARM GAS  C:\Users\pearlstl\AppData\Local\Temp\ccIJtgHD.s 			page 45


 1360              	.L163:
 820:..\..\..\lvgl\version_6.1.2\lvgl\src\lv_objx/lv_table.c ****     }
 1361              		.loc 1 820 0
 1362 0184 32F8023F 		ldrh	r3, [r2, #2]!
 1363 0188 CC18     		adds	r4, r1, r3
 1364 018a A4B2     		uxth	r4, r4
 819:..\..\..\lvgl\version_6.1.2\lvgl\src\lv_objx/lv_table.c ****         w += ext->col_w[i];
 1365              		.loc 1 819 0
 1366 018c 8242     		cmp	r2, r0
 820:..\..\..\lvgl\version_6.1.2\lvgl\src\lv_objx/lv_table.c ****     }
 1367              		.loc 1 820 0
 1368 018e 21B2     		sxth	r1, r4
 1369              	.LVL171:
 819:..\..\..\lvgl\version_6.1.2\lvgl\src\lv_objx/lv_table.c ****         w += ext->col_w[i];
 1370              		.loc 1 819 0
 1371 0190 F8D1     		bne	.L163
 1372              	.LVL172:
 1373              	.L162:
 822:..\..\..\lvgl\version_6.1.2\lvgl\src\lv_objx/lv_table.c ****         h += get_row_height(table, i);
 1374              		.loc 1 822 0
 1375 0192 B8F80200 		ldrh	r0, [r8, #2]
 1376 0196 0028     		cmp	r0, #0
 1377 0198 00F0FC81 		beq	.L181
 1378 019c 0026     		movs	r6, #0
 1379              	.LVL173:
 1380 019e 3546     		mov	r5, r6
 1381              	.LVL174:
 1382              	.L165:
 823:..\..\..\lvgl\version_6.1.2\lvgl\src\lv_objx/lv_table.c ****     }
 1383              		.loc 1 823 0
 1384 01a0 2946     		mov	r1, r5
 1385 01a2 3846     		mov	r0, r7
 1386 01a4 FFF7FEFF 		bl	get_row_height
 1387              	.LVL175:
 822:..\..\..\lvgl\version_6.1.2\lvgl\src\lv_objx/lv_table.c ****         h += get_row_height(table, i);
 1388              		.loc 1 822 0
 1389 01a8 0135     		adds	r5, r5, #1
 1390              	.LVL176:
 1391 01aa B8F80230 		ldrh	r3, [r8, #2]
 823:..\..\..\lvgl\version_6.1.2\lvgl\src\lv_objx/lv_table.c ****     }
 1392              		.loc 1 823 0
 1393 01ae 3044     		add	r0, r0, r6
 822:..\..\..\lvgl\version_6.1.2\lvgl\src\lv_objx/lv_table.c ****         h += get_row_height(table, i);
 1394              		.loc 1 822 0
 1395 01b0 ADB2     		uxth	r5, r5
 823:..\..\..\lvgl\version_6.1.2\lvgl\src\lv_objx/lv_table.c ****     }
 1396              		.loc 1 823 0
 1397 01b2 1FFA80F9 		uxth	r9, r0
 822:..\..\..\lvgl\version_6.1.2\lvgl\src\lv_objx/lv_table.c ****         h += get_row_height(table, i);
 1398              		.loc 1 822 0
 1399 01b6 AB42     		cmp	r3, r5
 823:..\..\..\lvgl\version_6.1.2\lvgl\src\lv_objx/lv_table.c ****     }
 1400              		.loc 1 823 0
 1401 01b8 0FFA89F6 		sxth	r6, r9
 1402              	.LVL177:
 822:..\..\..\lvgl\version_6.1.2\lvgl\src\lv_objx/lv_table.c ****         h += get_row_height(table, i);
 1403              		.loc 1 822 0
ARM GAS  C:\Users\pearlstl\AppData\Local\Temp\ccIJtgHD.s 			page 46


 1404 01bc F0D8     		bhi	.L165
 1405              	.LVL178:
 1406              	.L164:
 826:..\..\..\lvgl\version_6.1.2\lvgl\src\lv_objx/lv_table.c **** 
 1407              		.loc 1 826 0
 1408 01be 3846     		mov	r0, r7
 1409 01c0 FFF7FEFF 		bl	lv_obj_get_style
 1410              	.LVL179:
 1411 01c4 0346     		mov	r3, r0
 1412              	.LVL180:
 831:..\..\..\lvgl\version_6.1.2\lvgl\src\lv_objx/lv_table.c ****     lv_obj_invalidate(table);
 1413              		.loc 1 831 0
 1414 01c6 3846     		mov	r0, r7
 1415              	.LVL181:
 1416 01c8 1D8C     		ldrh	r5, [r3, #32]
 1417 01ca 5A8C     		ldrh	r2, [r3, #34]
 1418 01cc 998C     		ldrh	r1, [r3, #36]
 1419 01ce DB8C     		ldrh	r3, [r3, #38]
 1420              	.LVL182:
 1421 01d0 2A44     		add	r2, r2, r5
 1422 01d2 1944     		add	r1, r1, r3
 1423 01d4 0132     		adds	r2, r2, #1
 1424 01d6 0131     		adds	r1, r1, #1
 1425 01d8 4A44     		add	r2, r2, r9
 1426 01da 2144     		add	r1, r1, r4
 1427 01dc 12B2     		sxth	r2, r2
 1428 01de 09B2     		sxth	r1, r1
 1429 01e0 FFF7FEFF 		bl	lv_obj_set_size
 1430              	.LVL183:
 832:..\..\..\lvgl\version_6.1.2\lvgl\src\lv_objx/lv_table.c **** }
 1431              		.loc 1 832 0
 1432 01e4 3846     		mov	r0, r7
 1433 01e6 FFF7FEFF 		bl	lv_obj_invalidate
 1434              	.LVL184:
 1435              	.LBE131:
 1436              	.LBE130:
 1437              	.LBE129:
 1438              	.LBE128:
 1439              	.LBE137:
 1440              	.LBE139:
 115:..\..\..\lvgl\version_6.1.2\lvgl\src\lv_objx/lv_table.c ****     }
 1441              		.loc 1 115 0
 1442 01ea 3846     		mov	r0, r7
 1443 01ec FFF7FEFF 		bl	lv_obj_refresh_style
 1444              	.LVL185:
 1445 01f0 3846     		mov	r0, r7
 1446              	.LBE143:
 121:..\..\..\lvgl\version_6.1.2\lvgl\src\lv_objx/lv_table.c **** 
 1447              		.loc 1 121 0
 1448 01f2 BDE8F087 		pop	{r4, r5, r6, r7, r8, r9, r10, pc}
 1449              	.LVL186:
 1450              	.L218:
 1451              	.LBB144:
 1452              	.LBB140:
 1453              	.LBB123:
 189:..\..\..\lvgl\version_6.1.2\lvgl\src\lv_objx/lv_table.c **** 
 1454              		.loc 1 189 0
ARM GAS  C:\Users\pearlstl\AppData\Local\Temp\ccIJtgHD.s 			page 47


 1455 01f6 03FB06F1 		mul	r1, r3, r6
 1456 01fa 8900     		lsls	r1, r1, #2
 1457 01fc 4068     		ldr	r0, [r0, #4]
 1458              	.LVL187:
 1459 01fe FFF7FEFF 		bl	lv_mem_realloc
 1460              	.LVL188:
 192:..\..\..\lvgl\version_6.1.2\lvgl\src\lv_objx/lv_table.c ****             uint16_t old_cell_cnt = old_row_cnt * ext->col_cnt;
 1461              		.loc 1 192 0
 1462 0202 4645     		cmp	r6, r8
 189:..\..\..\lvgl\version_6.1.2\lvgl\src\lv_objx/lv_table.c **** 
 1463              		.loc 1 189 0
 1464 0204 6060     		str	r0, [r4, #4]
 192:..\..\..\lvgl\version_6.1.2\lvgl\src\lv_objx/lv_table.c ****             uint16_t old_cell_cnt = old_row_cnt * ext->col_cnt;
 1465              		.loc 1 192 0
 1466 0206 7FF654AF 		bls	.L154
 1467              	.LBB120:
 193:..\..\..\lvgl\version_6.1.2\lvgl\src\lv_objx/lv_table.c ****             uint32_t new_cell_cnt = ext->col_cnt * ext->row_cnt;
 1468              		.loc 1 193 0
 1469 020a 2288     		ldrh	r2, [r4]
 1470              	.LVL189:
 195:..\..\..\lvgl\version_6.1.2\lvgl\src\lv_objx/lv_table.c ****         }
 1471              		.loc 1 195 0
 1472 020c 6188     		ldrh	r1, [r4, #2]
 1473 020e 18FB02F3 		smulbb	r3, r8, r2
 1474 0212 9BB2     		uxth	r3, r3
 1475 0214 02FB01F2 		mul	r2, r2, r1
 1476              	.LVL190:
 1477 0218 D21A     		subs	r2, r2, r3
 1478 021a 2946     		mov	r1, r5
 1479 021c 00EB8300 		add	r0, r0, r3, lsl #2
 1480 0220 9200     		lsls	r2, r2, #2
 1481 0222 FFF7FEFF 		bl	memset
 1482              	.LVL191:
 1483 0226 44E7     		b	.L154
 1484              	.L222:
 1485              		.align	2
 1486              	.L221:
 1487 0228 00000000 		.word	.LANCHOR0
 1488 022c 00000000 		.word	lv_style_plain
 1489 0230 00000000 		.word	lv_table_signal
 1490 0234 00000000 		.word	lv_table_design
 1491              	.LVL192:
 1492              	.L217:
 1493              	.LBE120:
 1494              	.LBE123:
 1495              	.LBE140:
 1496              	.LBE144:
 1497              	.LBB145:
  92:..\..\..\lvgl\version_6.1.2\lvgl\src\lv_objx/lv_table.c ****         if(th) {
 1498              		.loc 1 92 0
 1499 0238 FFF7FEFF 		bl	lv_theme_get_current
 1500              	.LVL193:
  93:..\..\..\lvgl\version_6.1.2\lvgl\src\lv_objx/lv_table.c ****             lv_table_set_style(new_table, LV_TABLE_STYLE_BG, th->style.table.bg);
 1501              		.loc 1 93 0
 1502 023c 0546     		mov	r5, r0
 1503 023e 0028     		cmp	r0, #0
 1504 0240 00F0AA81 		beq	.L127
ARM GAS  C:\Users\pearlstl\AppData\Local\Temp\ccIJtgHD.s 			page 48


  94:..\..\..\lvgl\version_6.1.2\lvgl\src\lv_objx/lv_table.c ****             lv_table_set_style(new_table, LV_TABLE_STYLE_CELL1, th->style.table.cell);
 1505              		.loc 1 94 0
 1506 0244 D0F88841 		ldr	r4, [r0, #392]
 1507              	.LVL194:
 1508              	.LBB146:
 1509              	.LBB147:
 394:..\..\..\lvgl\version_6.1.2\lvgl\src\lv_objx/lv_table.c **** 
 1510              		.loc 1 394 0
 1511 0248 3846     		mov	r0, r7
 1512              	.LVL195:
 1513 024a FFF7FEFF 		bl	lv_obj_get_ext_attr
 1514              	.LVL196:
 1515              	.LBB148:
 1516              	.LBB149:
 398:..\..\..\lvgl\version_6.1.2\lvgl\src\lv_objx/lv_table.c ****             refr_size(table);
 1517              		.loc 1 398 0
 1518 024e 2146     		mov	r1, r4
 1519 0250 3846     		mov	r0, r7
 1520 0252 FFF7FEFF 		bl	lv_obj_set_style
 1521              	.LVL197:
 1522              	.LBB150:
 1523              	.LBB151:
 816:..\..\..\lvgl\version_6.1.2\lvgl\src\lv_objx/lv_table.c **** 
 1524              		.loc 1 816 0
 1525 0256 3846     		mov	r0, r7
 1526 0258 FFF7FEFF 		bl	lv_obj_get_ext_attr
 1527              	.LVL198:
 819:..\..\..\lvgl\version_6.1.2\lvgl\src\lv_objx/lv_table.c ****         w += ext->col_w[i];
 1528              		.loc 1 819 0
 1529 025c 0388     		ldrh	r3, [r0]
 816:..\..\..\lvgl\version_6.1.2\lvgl\src\lv_objx/lv_table.c **** 
 1530              		.loc 1 816 0
 1531 025e 8146     		mov	r9, r0
 1532              	.LVL199:
 819:..\..\..\lvgl\version_6.1.2\lvgl\src\lv_objx/lv_table.c ****         w += ext->col_w[i];
 1533              		.loc 1 819 0
 1534 0260 002B     		cmp	r3, #0
 1535 0262 00F0D881 		beq	.L166
 1536 0266 591E     		subs	r1, r3, #1
 1537 0268 89B2     		uxth	r1, r1
 1538 026a 0C31     		adds	r1, r1, #12
 1539 026c 00EB4101 		add	r1, r0, r1, lsl #1
 1540 0270 00F11602 		add	r2, r0, #22
 1541              	.LVL200:
 1542              	.L129:
 820:..\..\..\lvgl\version_6.1.2\lvgl\src\lv_objx/lv_table.c ****     }
 1543              		.loc 1 820 0
 1544 0274 32F8023F 		ldrh	r3, [r2, #2]!
 1545 0278 06EB0308 		add	r8, r6, r3
 1546 027c 1FFA88F8 		uxth	r8, r8
 819:..\..\..\lvgl\version_6.1.2\lvgl\src\lv_objx/lv_table.c ****         w += ext->col_w[i];
 1547              		.loc 1 819 0
 1548 0280 8A42     		cmp	r2, r1
 820:..\..\..\lvgl\version_6.1.2\lvgl\src\lv_objx/lv_table.c ****     }
 1549              		.loc 1 820 0
 1550 0282 0FFA88F6 		sxth	r6, r8
 1551              	.LVL201:
ARM GAS  C:\Users\pearlstl\AppData\Local\Temp\ccIJtgHD.s 			page 49


 819:..\..\..\lvgl\version_6.1.2\lvgl\src\lv_objx/lv_table.c ****         w += ext->col_w[i];
 1552              		.loc 1 819 0
 1553 0286 F5D1     		bne	.L129
 1554              	.LVL202:
 1555              	.L128:
 822:..\..\..\lvgl\version_6.1.2\lvgl\src\lv_objx/lv_table.c ****         h += get_row_height(table, i);
 1556              		.loc 1 822 0
 1557 0288 B9F80200 		ldrh	r0, [r9, #2]
 1558              	.LVL203:
 1559 028c 0028     		cmp	r0, #0
 1560 028e 00F0CA81 		beq	.L167
 1561 0292 0026     		movs	r6, #0
 1562 0294 3446     		mov	r4, r6
 1563              	.LVL204:
 1564              	.L131:
 823:..\..\..\lvgl\version_6.1.2\lvgl\src\lv_objx/lv_table.c ****     }
 1565              		.loc 1 823 0
 1566 0296 2146     		mov	r1, r4
 1567 0298 3846     		mov	r0, r7
 1568 029a FFF7FEFF 		bl	get_row_height
 1569              	.LVL205:
 822:..\..\..\lvgl\version_6.1.2\lvgl\src\lv_objx/lv_table.c ****         h += get_row_height(table, i);
 1570              		.loc 1 822 0
 1571 029e 0134     		adds	r4, r4, #1
 1572              	.LVL206:
 1573 02a0 B9F80230 		ldrh	r3, [r9, #2]
 823:..\..\..\lvgl\version_6.1.2\lvgl\src\lv_objx/lv_table.c ****     }
 1574              		.loc 1 823 0
 1575 02a4 3044     		add	r0, r0, r6
 822:..\..\..\lvgl\version_6.1.2\lvgl\src\lv_objx/lv_table.c ****         h += get_row_height(table, i);
 1576              		.loc 1 822 0
 1577 02a6 A4B2     		uxth	r4, r4
 823:..\..\..\lvgl\version_6.1.2\lvgl\src\lv_objx/lv_table.c ****     }
 1578              		.loc 1 823 0
 1579 02a8 1FFA80FA 		uxth	r10, r0
 822:..\..\..\lvgl\version_6.1.2\lvgl\src\lv_objx/lv_table.c ****         h += get_row_height(table, i);
 1580              		.loc 1 822 0
 1581 02ac A342     		cmp	r3, r4
 823:..\..\..\lvgl\version_6.1.2\lvgl\src\lv_objx/lv_table.c ****     }
 1582              		.loc 1 823 0
 1583 02ae 0FFA8AF6 		sxth	r6, r10
 1584              	.LVL207:
 822:..\..\..\lvgl\version_6.1.2\lvgl\src\lv_objx/lv_table.c ****         h += get_row_height(table, i);
 1585              		.loc 1 822 0
 1586 02b2 F0D8     		bhi	.L131
 1587              	.LVL208:
 1588              	.L130:
 826:..\..\..\lvgl\version_6.1.2\lvgl\src\lv_objx/lv_table.c **** 
 1589              		.loc 1 826 0
 1590 02b4 3846     		mov	r0, r7
 1591 02b6 FFF7FEFF 		bl	lv_obj_get_style
 1592              	.LVL209:
 1593 02ba 0346     		mov	r3, r0
 1594              	.LVL210:
 831:..\..\..\lvgl\version_6.1.2\lvgl\src\lv_objx/lv_table.c ****     lv_obj_invalidate(table);
 1595              		.loc 1 831 0
 1596 02bc 3846     		mov	r0, r7
ARM GAS  C:\Users\pearlstl\AppData\Local\Temp\ccIJtgHD.s 			page 50


 1597              	.LVL211:
 1598 02be 1C8C     		ldrh	r4, [r3, #32]
 1599 02c0 5A8C     		ldrh	r2, [r3, #34]
 1600 02c2 998C     		ldrh	r1, [r3, #36]
 1601 02c4 DB8C     		ldrh	r3, [r3, #38]
 1602              	.LVL212:
 1603 02c6 2244     		add	r2, r2, r4
 1604 02c8 1944     		add	r1, r1, r3
 1605 02ca 0132     		adds	r2, r2, #1
 1606 02cc 0131     		adds	r1, r1, #1
 1607 02ce 5244     		add	r2, r2, r10
 1608 02d0 4144     		add	r1, r1, r8
 1609 02d2 12B2     		sxth	r2, r2
 1610 02d4 09B2     		sxth	r1, r1
 1611 02d6 FFF7FEFF 		bl	lv_obj_set_size
 1612              	.LVL213:
 832:..\..\..\lvgl\version_6.1.2\lvgl\src\lv_objx/lv_table.c **** }
 1613              		.loc 1 832 0
 1614 02da 3846     		mov	r0, r7
 1615 02dc FFF7FEFF 		bl	lv_obj_invalidate
 1616              	.LVL214:
 1617              	.LBE151:
 1618              	.LBE150:
 1619              	.LBE149:
 1620              	.LBE148:
 1621              	.LBE147:
 1622              	.LBE146:
 1623              	.LBB162:
 1624              	.LBB163:
 394:..\..\..\lvgl\version_6.1.2\lvgl\src\lv_objx/lv_table.c **** 
 1625              		.loc 1 394 0
 1626 02e0 3846     		mov	r0, r7
 1627              	.LBE163:
 1628              	.LBE162:
  95:..\..\..\lvgl\version_6.1.2\lvgl\src\lv_objx/lv_table.c ****             lv_table_set_style(new_table, LV_TABLE_STYLE_CELL2, th->style.table.cell);
 1629              		.loc 1 95 0
 1630 02e2 D5F88C41 		ldr	r4, [r5, #396]
 1631              	.LVL215:
 1632              	.LBB173:
 1633              	.LBB170:
 394:..\..\..\lvgl\version_6.1.2\lvgl\src\lv_objx/lv_table.c **** 
 1634              		.loc 1 394 0
 1635 02e6 FFF7FEFF 		bl	lv_obj_get_ext_attr
 1636              	.LVL216:
 402:..\..\..\lvgl\version_6.1.2\lvgl\src\lv_objx/lv_table.c ****             refr_size(table);
 1637              		.loc 1 402 0
 1638 02ea 8460     		str	r4, [r0, #8]
 1639              	.LVL217:
 1640              	.LBB164:
 1641              	.LBB165:
 816:..\..\..\lvgl\version_6.1.2\lvgl\src\lv_objx/lv_table.c **** 
 1642              		.loc 1 816 0
 1643 02ec 3846     		mov	r0, r7
 1644              	.LVL218:
 1645 02ee FFF7FEFF 		bl	lv_obj_get_ext_attr
 1646              	.LVL219:
 819:..\..\..\lvgl\version_6.1.2\lvgl\src\lv_objx/lv_table.c ****         w += ext->col_w[i];
ARM GAS  C:\Users\pearlstl\AppData\Local\Temp\ccIJtgHD.s 			page 51


 1647              		.loc 1 819 0
 1648 02f2 0388     		ldrh	r3, [r0]
 816:..\..\..\lvgl\version_6.1.2\lvgl\src\lv_objx/lv_table.c **** 
 1649              		.loc 1 816 0
 1650 02f4 8146     		mov	r9, r0
 1651              	.LVL220:
 819:..\..\..\lvgl\version_6.1.2\lvgl\src\lv_objx/lv_table.c ****         w += ext->col_w[i];
 1652              		.loc 1 819 0
 1653 02f6 002B     		cmp	r3, #0
 1654 02f8 00F09381 		beq	.L168
 1655 02fc 581E     		subs	r0, r3, #1
 1656              	.LVL221:
 1657 02fe 80B2     		uxth	r0, r0
 1658 0300 0C30     		adds	r0, r0, #12
 1659 0302 09EB4000 		add	r0, r9, r0, lsl #1
 1660 0306 09F11602 		add	r2, r9, #22
 1661 030a 0021     		movs	r1, #0
 1662              	.LVL222:
 1663              	.L133:
 820:..\..\..\lvgl\version_6.1.2\lvgl\src\lv_objx/lv_table.c ****     }
 1664              		.loc 1 820 0
 1665 030c 32F8023F 		ldrh	r3, [r2, #2]!
 1666 0310 01EB0308 		add	r8, r1, r3
 1667 0314 1FFA88F8 		uxth	r8, r8
 819:..\..\..\lvgl\version_6.1.2\lvgl\src\lv_objx/lv_table.c ****         w += ext->col_w[i];
 1668              		.loc 1 819 0
 1669 0318 8242     		cmp	r2, r0
 820:..\..\..\lvgl\version_6.1.2\lvgl\src\lv_objx/lv_table.c ****     }
 1670              		.loc 1 820 0
 1671 031a 0FFA88F1 		sxth	r1, r8
 1672              	.LVL223:
 819:..\..\..\lvgl\version_6.1.2\lvgl\src\lv_objx/lv_table.c ****         w += ext->col_w[i];
 1673              		.loc 1 819 0
 1674 031e F5D1     		bne	.L133
 1675              	.LVL224:
 1676              	.L132:
 822:..\..\..\lvgl\version_6.1.2\lvgl\src\lv_objx/lv_table.c ****         h += get_row_height(table, i);
 1677              		.loc 1 822 0
 1678 0320 B9F80200 		ldrh	r0, [r9, #2]
 1679 0324 0028     		cmp	r0, #0
 1680 0326 00F08681 		beq	.L169
 1681 032a 0026     		movs	r6, #0
 1682 032c 3446     		mov	r4, r6
 1683              	.LVL225:
 1684              	.L135:
 823:..\..\..\lvgl\version_6.1.2\lvgl\src\lv_objx/lv_table.c ****     }
 1685              		.loc 1 823 0
 1686 032e 2146     		mov	r1, r4
 1687 0330 3846     		mov	r0, r7
 1688 0332 FFF7FEFF 		bl	get_row_height
 1689              	.LVL226:
 822:..\..\..\lvgl\version_6.1.2\lvgl\src\lv_objx/lv_table.c ****         h += get_row_height(table, i);
 1690              		.loc 1 822 0
 1691 0336 0134     		adds	r4, r4, #1
 1692              	.LVL227:
 1693 0338 B9F80230 		ldrh	r3, [r9, #2]
 823:..\..\..\lvgl\version_6.1.2\lvgl\src\lv_objx/lv_table.c ****     }
ARM GAS  C:\Users\pearlstl\AppData\Local\Temp\ccIJtgHD.s 			page 52


 1694              		.loc 1 823 0
 1695 033c 3044     		add	r0, r0, r6
 822:..\..\..\lvgl\version_6.1.2\lvgl\src\lv_objx/lv_table.c ****         h += get_row_height(table, i);
 1696              		.loc 1 822 0
 1697 033e A4B2     		uxth	r4, r4
 823:..\..\..\lvgl\version_6.1.2\lvgl\src\lv_objx/lv_table.c ****     }
 1698              		.loc 1 823 0
 1699 0340 1FFA80FA 		uxth	r10, r0
 822:..\..\..\lvgl\version_6.1.2\lvgl\src\lv_objx/lv_table.c ****         h += get_row_height(table, i);
 1700              		.loc 1 822 0
 1701 0344 A342     		cmp	r3, r4
 823:..\..\..\lvgl\version_6.1.2\lvgl\src\lv_objx/lv_table.c ****     }
 1702              		.loc 1 823 0
 1703 0346 0FFA8AF6 		sxth	r6, r10
 1704              	.LVL228:
 822:..\..\..\lvgl\version_6.1.2\lvgl\src\lv_objx/lv_table.c ****         h += get_row_height(table, i);
 1705              		.loc 1 822 0
 1706 034a F0D8     		bhi	.L135
 1707              	.LVL229:
 1708              	.L134:
 826:..\..\..\lvgl\version_6.1.2\lvgl\src\lv_objx/lv_table.c **** 
 1709              		.loc 1 826 0
 1710 034c 3846     		mov	r0, r7
 1711 034e FFF7FEFF 		bl	lv_obj_get_style
 1712              	.LVL230:
 1713 0352 0346     		mov	r3, r0
 1714              	.LVL231:
 831:..\..\..\lvgl\version_6.1.2\lvgl\src\lv_objx/lv_table.c ****     lv_obj_invalidate(table);
 1715              		.loc 1 831 0
 1716 0354 3846     		mov	r0, r7
 1717              	.LVL232:
 1718 0356 1C8C     		ldrh	r4, [r3, #32]
 1719 0358 5A8C     		ldrh	r2, [r3, #34]
 1720 035a 998C     		ldrh	r1, [r3, #36]
 1721 035c DB8C     		ldrh	r3, [r3, #38]
 1722              	.LVL233:
 1723 035e 2244     		add	r2, r2, r4
 1724 0360 1944     		add	r1, r1, r3
 1725 0362 0132     		adds	r2, r2, #1
 1726 0364 0131     		adds	r1, r1, #1
 1727 0366 5244     		add	r2, r2, r10
 1728 0368 4144     		add	r1, r1, r8
 1729 036a 12B2     		sxth	r2, r2
 1730 036c 09B2     		sxth	r1, r1
 1731 036e FFF7FEFF 		bl	lv_obj_set_size
 1732              	.LVL234:
 832:..\..\..\lvgl\version_6.1.2\lvgl\src\lv_objx/lv_table.c **** }
 1733              		.loc 1 832 0
 1734 0372 3846     		mov	r0, r7
 1735 0374 FFF7FEFF 		bl	lv_obj_invalidate
 1736              	.LVL235:
 1737              	.LBE165:
 1738              	.LBE164:
 1739              	.LBE170:
 1740              	.LBE173:
 1741              	.LBB174:
 1742              	.LBB175:
ARM GAS  C:\Users\pearlstl\AppData\Local\Temp\ccIJtgHD.s 			page 53


 394:..\..\..\lvgl\version_6.1.2\lvgl\src\lv_objx/lv_table.c **** 
 1743              		.loc 1 394 0
 1744 0378 3846     		mov	r0, r7
 1745              	.LBE175:
 1746              	.LBE174:
  96:..\..\..\lvgl\version_6.1.2\lvgl\src\lv_objx/lv_table.c ****             lv_table_set_style(new_table, LV_TABLE_STYLE_CELL3, th->style.table.cell);
 1747              		.loc 1 96 0
 1748 037a D5F88C41 		ldr	r4, [r5, #396]
 1749              	.LVL236:
 1750              	.LBB182:
 1751              	.LBB180:
 394:..\..\..\lvgl\version_6.1.2\lvgl\src\lv_objx/lv_table.c **** 
 1752              		.loc 1 394 0
 1753 037e FFF7FEFF 		bl	lv_obj_get_ext_attr
 1754              	.LVL237:
 406:..\..\..\lvgl\version_6.1.2\lvgl\src\lv_objx/lv_table.c ****             refr_size(table);
 1755              		.loc 1 406 0
 1756 0382 C460     		str	r4, [r0, #12]
 1757              	.LVL238:
 1758              	.LBB176:
 1759              	.LBB177:
 816:..\..\..\lvgl\version_6.1.2\lvgl\src\lv_objx/lv_table.c **** 
 1760              		.loc 1 816 0
 1761 0384 3846     		mov	r0, r7
 1762              	.LVL239:
 1763 0386 FFF7FEFF 		bl	lv_obj_get_ext_attr
 1764              	.LVL240:
 819:..\..\..\lvgl\version_6.1.2\lvgl\src\lv_objx/lv_table.c ****         w += ext->col_w[i];
 1765              		.loc 1 819 0
 1766 038a 0388     		ldrh	r3, [r0]
 816:..\..\..\lvgl\version_6.1.2\lvgl\src\lv_objx/lv_table.c **** 
 1767              		.loc 1 816 0
 1768 038c 8146     		mov	r9, r0
 1769              	.LVL241:
 819:..\..\..\lvgl\version_6.1.2\lvgl\src\lv_objx/lv_table.c ****         w += ext->col_w[i];
 1770              		.loc 1 819 0
 1771 038e 002B     		cmp	r3, #0
 1772 0390 00F04F81 		beq	.L170
 1773 0394 581E     		subs	r0, r3, #1
 1774              	.LVL242:
 1775 0396 80B2     		uxth	r0, r0
 1776 0398 0C30     		adds	r0, r0, #12
 1777 039a 09EB4000 		add	r0, r9, r0, lsl #1
 1778 039e 09F11602 		add	r2, r9, #22
 1779 03a2 0021     		movs	r1, #0
 1780              	.LVL243:
 1781              	.L137:
 820:..\..\..\lvgl\version_6.1.2\lvgl\src\lv_objx/lv_table.c ****     }
 1782              		.loc 1 820 0
 1783 03a4 32F8023F 		ldrh	r3, [r2, #2]!
 1784 03a8 01EB0308 		add	r8, r1, r3
 1785 03ac 1FFA88F8 		uxth	r8, r8
 819:..\..\..\lvgl\version_6.1.2\lvgl\src\lv_objx/lv_table.c ****         w += ext->col_w[i];
 1786              		.loc 1 819 0
 1787 03b0 8242     		cmp	r2, r0
 820:..\..\..\lvgl\version_6.1.2\lvgl\src\lv_objx/lv_table.c ****     }
 1788              		.loc 1 820 0
ARM GAS  C:\Users\pearlstl\AppData\Local\Temp\ccIJtgHD.s 			page 54


 1789 03b2 0FFA88F1 		sxth	r1, r8
 1790              	.LVL244:
 819:..\..\..\lvgl\version_6.1.2\lvgl\src\lv_objx/lv_table.c ****         w += ext->col_w[i];
 1791              		.loc 1 819 0
 1792 03b6 F5D1     		bne	.L137
 1793              	.LVL245:
 1794              	.L136:
 822:..\..\..\lvgl\version_6.1.2\lvgl\src\lv_objx/lv_table.c ****         h += get_row_height(table, i);
 1795              		.loc 1 822 0
 1796 03b8 B9F80200 		ldrh	r0, [r9, #2]
 1797 03bc 0028     		cmp	r0, #0
 1798 03be 00F03681 		beq	.L171
 1799 03c2 0026     		movs	r6, #0
 1800 03c4 3446     		mov	r4, r6
 1801              	.LVL246:
 1802              	.L139:
 823:..\..\..\lvgl\version_6.1.2\lvgl\src\lv_objx/lv_table.c ****     }
 1803              		.loc 1 823 0
 1804 03c6 2146     		mov	r1, r4
 1805 03c8 3846     		mov	r0, r7
 1806 03ca FFF7FEFF 		bl	get_row_height
 1807              	.LVL247:
 822:..\..\..\lvgl\version_6.1.2\lvgl\src\lv_objx/lv_table.c ****         h += get_row_height(table, i);
 1808              		.loc 1 822 0
 1809 03ce 0134     		adds	r4, r4, #1
 1810              	.LVL248:
 1811 03d0 B9F80230 		ldrh	r3, [r9, #2]
 823:..\..\..\lvgl\version_6.1.2\lvgl\src\lv_objx/lv_table.c ****     }
 1812              		.loc 1 823 0
 1813 03d4 3044     		add	r0, r0, r6
 822:..\..\..\lvgl\version_6.1.2\lvgl\src\lv_objx/lv_table.c ****         h += get_row_height(table, i);
 1814              		.loc 1 822 0
 1815 03d6 A4B2     		uxth	r4, r4
 823:..\..\..\lvgl\version_6.1.2\lvgl\src\lv_objx/lv_table.c ****     }
 1816              		.loc 1 823 0
 1817 03d8 1FFA80FA 		uxth	r10, r0
 822:..\..\..\lvgl\version_6.1.2\lvgl\src\lv_objx/lv_table.c ****         h += get_row_height(table, i);
 1818              		.loc 1 822 0
 1819 03dc A342     		cmp	r3, r4
 823:..\..\..\lvgl\version_6.1.2\lvgl\src\lv_objx/lv_table.c ****     }
 1820              		.loc 1 823 0
 1821 03de 0FFA8AF6 		sxth	r6, r10
 1822              	.LVL249:
 822:..\..\..\lvgl\version_6.1.2\lvgl\src\lv_objx/lv_table.c ****         h += get_row_height(table, i);
 1823              		.loc 1 822 0
 1824 03e2 F0D8     		bhi	.L139
 1825              	.LVL250:
 1826              	.L138:
 826:..\..\..\lvgl\version_6.1.2\lvgl\src\lv_objx/lv_table.c **** 
 1827              		.loc 1 826 0
 1828 03e4 3846     		mov	r0, r7
 1829 03e6 FFF7FEFF 		bl	lv_obj_get_style
 1830              	.LVL251:
 1831 03ea 0346     		mov	r3, r0
 1832              	.LVL252:
 831:..\..\..\lvgl\version_6.1.2\lvgl\src\lv_objx/lv_table.c ****     lv_obj_invalidate(table);
 1833              		.loc 1 831 0
ARM GAS  C:\Users\pearlstl\AppData\Local\Temp\ccIJtgHD.s 			page 55


 1834 03ec 3846     		mov	r0, r7
 1835              	.LVL253:
 1836 03ee 1C8C     		ldrh	r4, [r3, #32]
 1837 03f0 5A8C     		ldrh	r2, [r3, #34]
 1838 03f2 998C     		ldrh	r1, [r3, #36]
 1839 03f4 DB8C     		ldrh	r3, [r3, #38]
 1840              	.LVL254:
 1841 03f6 2244     		add	r2, r2, r4
 1842 03f8 1944     		add	r1, r1, r3
 1843 03fa 0132     		adds	r2, r2, #1
 1844 03fc 0131     		adds	r1, r1, #1
 1845 03fe 5244     		add	r2, r2, r10
 1846 0400 4144     		add	r1, r1, r8
 1847 0402 12B2     		sxth	r2, r2
 1848 0404 09B2     		sxth	r1, r1
 1849 0406 FFF7FEFF 		bl	lv_obj_set_size
 1850              	.LVL255:
 832:..\..\..\lvgl\version_6.1.2\lvgl\src\lv_objx/lv_table.c **** }
 1851              		.loc 1 832 0
 1852 040a 3846     		mov	r0, r7
 1853 040c FFF7FEFF 		bl	lv_obj_invalidate
 1854              	.LVL256:
 1855              	.LBE177:
 1856              	.LBE176:
 1857              	.LBE180:
 1858              	.LBE182:
 1859              	.LBB183:
 1860              	.LBB184:
 394:..\..\..\lvgl\version_6.1.2\lvgl\src\lv_objx/lv_table.c **** 
 1861              		.loc 1 394 0
 1862 0410 3846     		mov	r0, r7
 1863              	.LBE184:
 1864              	.LBE183:
  97:..\..\..\lvgl\version_6.1.2\lvgl\src\lv_objx/lv_table.c ****             lv_table_set_style(new_table, LV_TABLE_STYLE_CELL4, th->style.table.cell);
 1865              		.loc 1 97 0
 1866 0412 D5F88C41 		ldr	r4, [r5, #396]
 1867              	.LVL257:
 1868              	.LBB194:
 1869              	.LBB191:
 394:..\..\..\lvgl\version_6.1.2\lvgl\src\lv_objx/lv_table.c **** 
 1870              		.loc 1 394 0
 1871 0416 FFF7FEFF 		bl	lv_obj_get_ext_attr
 1872              	.LVL258:
 410:..\..\..\lvgl\version_6.1.2\lvgl\src\lv_objx/lv_table.c ****             refr_size(table);
 1873              		.loc 1 410 0
 1874 041a 0461     		str	r4, [r0, #16]
 1875              	.LVL259:
 1876              	.LBB185:
 1877              	.LBB186:
 816:..\..\..\lvgl\version_6.1.2\lvgl\src\lv_objx/lv_table.c **** 
 1878              		.loc 1 816 0
 1879 041c 3846     		mov	r0, r7
 1880              	.LVL260:
 1881 041e FFF7FEFF 		bl	lv_obj_get_ext_attr
 1882              	.LVL261:
 819:..\..\..\lvgl\version_6.1.2\lvgl\src\lv_objx/lv_table.c ****         w += ext->col_w[i];
 1883              		.loc 1 819 0
ARM GAS  C:\Users\pearlstl\AppData\Local\Temp\ccIJtgHD.s 			page 56


 1884 0422 0388     		ldrh	r3, [r0]
 816:..\..\..\lvgl\version_6.1.2\lvgl\src\lv_objx/lv_table.c **** 
 1885              		.loc 1 816 0
 1886 0424 8146     		mov	r9, r0
 1887              	.LVL262:
 819:..\..\..\lvgl\version_6.1.2\lvgl\src\lv_objx/lv_table.c ****         w += ext->col_w[i];
 1888              		.loc 1 819 0
 1889 0426 002B     		cmp	r3, #0
 1890 0428 00F0FF80 		beq	.L172
 1891 042c 581E     		subs	r0, r3, #1
 1892              	.LVL263:
 1893 042e 80B2     		uxth	r0, r0
 1894 0430 0C30     		adds	r0, r0, #12
 1895 0432 09EB4000 		add	r0, r9, r0, lsl #1
 1896 0436 09F11602 		add	r2, r9, #22
 1897 043a 0021     		movs	r1, #0
 1898              	.LVL264:
 1899              	.L141:
 820:..\..\..\lvgl\version_6.1.2\lvgl\src\lv_objx/lv_table.c ****     }
 1900              		.loc 1 820 0
 1901 043c 32F8023F 		ldrh	r3, [r2, #2]!
 1902 0440 01EB0308 		add	r8, r1, r3
 1903 0444 1FFA88F8 		uxth	r8, r8
 819:..\..\..\lvgl\version_6.1.2\lvgl\src\lv_objx/lv_table.c ****         w += ext->col_w[i];
 1904              		.loc 1 819 0
 1905 0448 8242     		cmp	r2, r0
 820:..\..\..\lvgl\version_6.1.2\lvgl\src\lv_objx/lv_table.c ****     }
 1906              		.loc 1 820 0
 1907 044a 0FFA88F1 		sxth	r1, r8
 1908              	.LVL265:
 819:..\..\..\lvgl\version_6.1.2\lvgl\src\lv_objx/lv_table.c ****         w += ext->col_w[i];
 1909              		.loc 1 819 0
 1910 044e F5D1     		bne	.L141
 1911              	.LVL266:
 1912              	.L140:
 822:..\..\..\lvgl\version_6.1.2\lvgl\src\lv_objx/lv_table.c ****         h += get_row_height(table, i);
 1913              		.loc 1 822 0
 1914 0450 B9F80200 		ldrh	r0, [r9, #2]
 1915 0454 0028     		cmp	r0, #0
 1916 0456 00F0E280 		beq	.L173
 1917 045a 0026     		movs	r6, #0
 1918 045c 3446     		mov	r4, r6
 1919              	.LVL267:
 1920              	.L143:
 823:..\..\..\lvgl\version_6.1.2\lvgl\src\lv_objx/lv_table.c ****     }
 1921              		.loc 1 823 0
 1922 045e 2146     		mov	r1, r4
 1923 0460 3846     		mov	r0, r7
 1924 0462 FFF7FEFF 		bl	get_row_height
 1925              	.LVL268:
 822:..\..\..\lvgl\version_6.1.2\lvgl\src\lv_objx/lv_table.c ****         h += get_row_height(table, i);
 1926              		.loc 1 822 0
 1927 0466 0134     		adds	r4, r4, #1
 1928              	.LVL269:
 1929 0468 B9F80230 		ldrh	r3, [r9, #2]
 823:..\..\..\lvgl\version_6.1.2\lvgl\src\lv_objx/lv_table.c ****     }
 1930              		.loc 1 823 0
ARM GAS  C:\Users\pearlstl\AppData\Local\Temp\ccIJtgHD.s 			page 57


 1931 046c 3044     		add	r0, r0, r6
 822:..\..\..\lvgl\version_6.1.2\lvgl\src\lv_objx/lv_table.c ****         h += get_row_height(table, i);
 1932              		.loc 1 822 0
 1933 046e A4B2     		uxth	r4, r4
 823:..\..\..\lvgl\version_6.1.2\lvgl\src\lv_objx/lv_table.c ****     }
 1934              		.loc 1 823 0
 1935 0470 1FFA80FA 		uxth	r10, r0
 822:..\..\..\lvgl\version_6.1.2\lvgl\src\lv_objx/lv_table.c ****         h += get_row_height(table, i);
 1936              		.loc 1 822 0
 1937 0474 A342     		cmp	r3, r4
 823:..\..\..\lvgl\version_6.1.2\lvgl\src\lv_objx/lv_table.c ****     }
 1938              		.loc 1 823 0
 1939 0476 0FFA8AF6 		sxth	r6, r10
 1940              	.LVL270:
 822:..\..\..\lvgl\version_6.1.2\lvgl\src\lv_objx/lv_table.c ****         h += get_row_height(table, i);
 1941              		.loc 1 822 0
 1942 047a F0D8     		bhi	.L143
 1943              	.LVL271:
 1944              	.L142:
 826:..\..\..\lvgl\version_6.1.2\lvgl\src\lv_objx/lv_table.c **** 
 1945              		.loc 1 826 0
 1946 047c 3846     		mov	r0, r7
 1947 047e FFF7FEFF 		bl	lv_obj_get_style
 1948              	.LVL272:
 1949 0482 0346     		mov	r3, r0
 1950              	.LVL273:
 831:..\..\..\lvgl\version_6.1.2\lvgl\src\lv_objx/lv_table.c ****     lv_obj_invalidate(table);
 1951              		.loc 1 831 0
 1952 0484 3846     		mov	r0, r7
 1953              	.LVL274:
 1954 0486 1C8C     		ldrh	r4, [r3, #32]
 1955 0488 5A8C     		ldrh	r2, [r3, #34]
 1956 048a 998C     		ldrh	r1, [r3, #36]
 1957 048c DB8C     		ldrh	r3, [r3, #38]
 1958              	.LVL275:
 1959 048e 2244     		add	r2, r2, r4
 1960 0490 1944     		add	r1, r1, r3
 1961 0492 0132     		adds	r2, r2, #1
 1962 0494 0131     		adds	r1, r1, #1
 1963 0496 4144     		add	r1, r1, r8
 1964 0498 5244     		add	r2, r2, r10
 1965 049a 12B2     		sxth	r2, r2
 1966 049c 09B2     		sxth	r1, r1
 1967 049e FFF7FEFF 		bl	lv_obj_set_size
 1968              	.LVL276:
 832:..\..\..\lvgl\version_6.1.2\lvgl\src\lv_objx/lv_table.c **** }
 1969              		.loc 1 832 0
 1970 04a2 3846     		mov	r0, r7
 1971 04a4 FFF7FEFF 		bl	lv_obj_invalidate
 1972              	.LVL277:
 1973              	.LBE186:
 1974              	.LBE185:
 1975              	.LBE191:
 1976              	.LBE194:
 1977              	.LBB195:
 1978              	.LBB196:
 394:..\..\..\lvgl\version_6.1.2\lvgl\src\lv_objx/lv_table.c **** 
ARM GAS  C:\Users\pearlstl\AppData\Local\Temp\ccIJtgHD.s 			page 58


 1979              		.loc 1 394 0
 1980 04a8 3846     		mov	r0, r7
 1981              	.LBE196:
 1982              	.LBE195:
  98:..\..\..\lvgl\version_6.1.2\lvgl\src\lv_objx/lv_table.c ****         } else {
 1983              		.loc 1 98 0
 1984 04aa D5F88C41 		ldr	r4, [r5, #396]
 1985              	.LVL278:
 1986              	.LBB203:
 1987              	.LBB201:
 394:..\..\..\lvgl\version_6.1.2\lvgl\src\lv_objx/lv_table.c **** 
 1988              		.loc 1 394 0
 1989 04ae FFF7FEFF 		bl	lv_obj_get_ext_attr
 1990              	.LVL279:
 414:..\..\..\lvgl\version_6.1.2\lvgl\src\lv_objx/lv_table.c ****             refr_size(table);
 1991              		.loc 1 414 0
 1992 04b2 4461     		str	r4, [r0, #20]
 1993              	.LVL280:
 1994              	.LBB197:
 1995              	.LBB198:
 816:..\..\..\lvgl\version_6.1.2\lvgl\src\lv_objx/lv_table.c **** 
 1996              		.loc 1 816 0
 1997 04b4 3846     		mov	r0, r7
 1998              	.LVL281:
 1999 04b6 FFF7FEFF 		bl	lv_obj_get_ext_attr
 2000              	.LVL282:
 819:..\..\..\lvgl\version_6.1.2\lvgl\src\lv_objx/lv_table.c ****         w += ext->col_w[i];
 2001              		.loc 1 819 0
 2002 04ba 0488     		ldrh	r4, [r0]
 2003              	.LVL283:
 816:..\..\..\lvgl\version_6.1.2\lvgl\src\lv_objx/lv_table.c **** 
 2004              		.loc 1 816 0
 2005 04bc 8046     		mov	r8, r0
 2006              	.LVL284:
 819:..\..\..\lvgl\version_6.1.2\lvgl\src\lv_objx/lv_table.c ****         w += ext->col_w[i];
 2007              		.loc 1 819 0
 2008 04be 74B1     		cbz	r4, .L144
 2009 04c0 601E     		subs	r0, r4, #1
 2010              	.LVL285:
 2011 04c2 80B2     		uxth	r0, r0
 2012 04c4 0C30     		adds	r0, r0, #12
 2013 04c6 08EB4000 		add	r0, r8, r0, lsl #1
 2014 04ca 08F11602 		add	r2, r8, #22
 2015 04ce 0021     		movs	r1, #0
 2016              	.LVL286:
 2017              	.L145:
 820:..\..\..\lvgl\version_6.1.2\lvgl\src\lv_objx/lv_table.c ****     }
 2018              		.loc 1 820 0
 2019 04d0 32F8023F 		ldrh	r3, [r2, #2]!
 2020 04d4 CC18     		adds	r4, r1, r3
 2021 04d6 A4B2     		uxth	r4, r4
 819:..\..\..\lvgl\version_6.1.2\lvgl\src\lv_objx/lv_table.c ****         w += ext->col_w[i];
 2022              		.loc 1 819 0
 2023 04d8 8242     		cmp	r2, r0
 820:..\..\..\lvgl\version_6.1.2\lvgl\src\lv_objx/lv_table.c ****     }
 2024              		.loc 1 820 0
 2025 04da 21B2     		sxth	r1, r4
ARM GAS  C:\Users\pearlstl\AppData\Local\Temp\ccIJtgHD.s 			page 59


 2026              	.LVL287:
 819:..\..\..\lvgl\version_6.1.2\lvgl\src\lv_objx/lv_table.c ****         w += ext->col_w[i];
 2027              		.loc 1 819 0
 2028 04dc F8D1     		bne	.L145
 2029              	.LVL288:
 2030              	.L144:
 822:..\..\..\lvgl\version_6.1.2\lvgl\src\lv_objx/lv_table.c ****         h += get_row_height(table, i);
 2031              		.loc 1 822 0
 2032 04de B8F80200 		ldrh	r0, [r8, #2]
 2033 04e2 0028     		cmp	r0, #0
 2034 04e4 00F09980 		beq	.L175
 2035 04e8 0026     		movs	r6, #0
 2036 04ea 3546     		mov	r5, r6
 2037              	.LVL289:
 2038              	.L147:
 823:..\..\..\lvgl\version_6.1.2\lvgl\src\lv_objx/lv_table.c ****     }
 2039              		.loc 1 823 0
 2040 04ec 2946     		mov	r1, r5
 2041 04ee 3846     		mov	r0, r7
 2042 04f0 FFF7FEFF 		bl	get_row_height
 2043              	.LVL290:
 822:..\..\..\lvgl\version_6.1.2\lvgl\src\lv_objx/lv_table.c ****         h += get_row_height(table, i);
 2044              		.loc 1 822 0
 2045 04f4 0135     		adds	r5, r5, #1
 2046              	.LVL291:
 2047 04f6 B8F80230 		ldrh	r3, [r8, #2]
 823:..\..\..\lvgl\version_6.1.2\lvgl\src\lv_objx/lv_table.c ****     }
 2048              		.loc 1 823 0
 2049 04fa 3044     		add	r0, r0, r6
 822:..\..\..\lvgl\version_6.1.2\lvgl\src\lv_objx/lv_table.c ****         h += get_row_height(table, i);
 2050              		.loc 1 822 0
 2051 04fc ADB2     		uxth	r5, r5
 823:..\..\..\lvgl\version_6.1.2\lvgl\src\lv_objx/lv_table.c ****     }
 2052              		.loc 1 823 0
 2053 04fe 1FFA80F9 		uxth	r9, r0
 822:..\..\..\lvgl\version_6.1.2\lvgl\src\lv_objx/lv_table.c ****         h += get_row_height(table, i);
 2054              		.loc 1 822 0
 2055 0502 AB42     		cmp	r3, r5
 823:..\..\..\lvgl\version_6.1.2\lvgl\src\lv_objx/lv_table.c ****     }
 2056              		.loc 1 823 0
 2057 0504 0FFA89F6 		sxth	r6, r9
 2058              	.LVL292:
 822:..\..\..\lvgl\version_6.1.2\lvgl\src\lv_objx/lv_table.c ****         h += get_row_height(table, i);
 2059              		.loc 1 822 0
 2060 0508 F0D8     		bhi	.L147
 2061              	.LVL293:
 2062              	.L146:
 826:..\..\..\lvgl\version_6.1.2\lvgl\src\lv_objx/lv_table.c **** 
 2063              		.loc 1 826 0
 2064 050a 3846     		mov	r0, r7
 2065 050c FFF7FEFF 		bl	lv_obj_get_style
 2066              	.LVL294:
 2067 0510 0346     		mov	r3, r0
 2068              	.LVL295:
 831:..\..\..\lvgl\version_6.1.2\lvgl\src\lv_objx/lv_table.c ****     lv_obj_invalidate(table);
 2069              		.loc 1 831 0
 2070 0512 3846     		mov	r0, r7
ARM GAS  C:\Users\pearlstl\AppData\Local\Temp\ccIJtgHD.s 			page 60


 2071              	.LVL296:
 2072 0514 1D8C     		ldrh	r5, [r3, #32]
 2073 0516 5A8C     		ldrh	r2, [r3, #34]
 2074 0518 998C     		ldrh	r1, [r3, #36]
 2075 051a DB8C     		ldrh	r3, [r3, #38]
 2076              	.LVL297:
 2077 051c 2A44     		add	r2, r2, r5
 2078 051e 1944     		add	r1, r1, r3
 2079 0520 0132     		adds	r2, r2, #1
 2080 0522 0131     		adds	r1, r1, #1
 2081 0524 4A44     		add	r2, r2, r9
 2082              	.LVL298:
 2083              	.L214:
 2084              	.LBE198:
 2085              	.LBE197:
 2086              	.LBE201:
 2087              	.LBE203:
 2088              	.LBB204:
 2089              	.LBB205:
 2090              	.LBB206:
 2091              	.LBB207:
 2092              	.LBB208:
 2093              	.LBB209:
 2094 0526 2144     		add	r1, r1, r4
 2095 0528 12B2     		sxth	r2, r2
 2096 052a 09B2     		sxth	r1, r1
 2097 052c FFF7FEFF 		bl	lv_obj_set_size
 2098              	.LVL299:
 832:..\..\..\lvgl\version_6.1.2\lvgl\src\lv_objx/lv_table.c **** }
 2099              		.loc 1 832 0
 2100 0530 3846     		mov	r0, r7
 2101 0532 FFF7FEFF 		bl	lv_obj_invalidate
 2102              	.LVL300:
 2103              	.LBE209:
 2104              	.LBE208:
 2105              	.LBE207:
 2106              	.LBE206:
 2107              	.LBE205:
 2108              	.LBE204:
 102:..\..\..\lvgl\version_6.1.2\lvgl\src\lv_objx/lv_table.c ****     }
 2109              		.loc 1 102 0
 2110 0536 3846     		mov	r0, r7
 2111 0538 0021     		movs	r1, #0
 2112 053a FFF7FEFF 		bl	lv_obj_set_click
 2113              	.LVL301:
 2114              	.LBE145:
 2115 053e 3846     		mov	r0, r7
 2116 0540 BDE8F087 		pop	{r4, r5, r6, r7, r8, r9, r10, pc}
 2117              	.LVL302:
 2118              	.L179:
 2119              	.LBB230:
 2120              	.LBB141:
 2121              	.LBB124:
 2122              	.LBB121:
 2123              	.LBB119:
 822:..\..\..\lvgl\version_6.1.2\lvgl\src\lv_objx/lv_table.c ****         h += get_row_height(table, i);
 2124              		.loc 1 822 0
ARM GAS  C:\Users\pearlstl\AppData\Local\Temp\ccIJtgHD.s 			page 61


 2125 0544 8246     		mov	r10, r0
 2126 0546 DFE5     		b	.L157
 2127              	.LVL303:
 2128              	.L123:
 2129              	.LBE119:
 2130              	.LBE121:
 2131              	.LBE124:
 2132              	.LBE141:
 2133              	.LBE230:
  62:..\..\..\lvgl\version_6.1.2\lvgl\src\lv_objx/lv_table.c **** 
 2134              		.loc 1 62 0
 2135 0548 0020     		movs	r0, #0
 2136 054a BDE8F087 		pop	{r4, r5, r6, r7, r8, r9, r10, pc}
 2137              	.LVL304:
 2138              	.L215:
  68:..\..\..\lvgl\version_6.1.2\lvgl\src\lv_objx/lv_table.c ****     if(ancestor_scrl_design == NULL) ancestor_scrl_design = lv_obj_get_design_cb(new_table);
 2139              		.loc 1 68 0 discriminator 1
 2140 054e 3846     		mov	r0, r7
 2141              	.LVL305:
 2142 0550 FFF7FEFF 		bl	lv_obj_get_signal_cb
 2143              	.LVL306:
 2144 0554 2860     		str	r0, [r5]
 2145 0556 68E5     		b	.L124
 2146              	.L216:
  69:..\..\..\lvgl\version_6.1.2\lvgl\src\lv_objx/lv_table.c **** 
 2147              		.loc 1 69 0 discriminator 1
 2148 0558 3846     		mov	r0, r7
 2149 055a FFF7FEFF 		bl	lv_obj_get_design_cb
 2150              	.LVL307:
 2151 055e 6860     		str	r0, [r5, #4]
 2152 0560 68E5     		b	.L125
 2153              	.LVL308:
 2154              	.L220:
 2155              	.LBB231:
 2156              	.LBB142:
 2157              	.LBB138:
 2158              	.LBB136:
 2159              	.LBB135:
 224:..\..\..\lvgl\version_6.1.2\lvgl\src\lv_objx/lv_table.c ****         /*Initilize the new fields*/
 2160              		.loc 1 224 0
 2161 0562 04FB03F1 		mul	r1, r4, r3
 2162 0566 8900     		lsls	r1, r1, #2
 2163 0568 4068     		ldr	r0, [r0, #4]
 2164              	.LVL309:
 2165 056a FFF7FEFF 		bl	lv_mem_realloc
 2166              	.LVL310:
 226:..\..\..\lvgl\version_6.1.2\lvgl\src\lv_objx/lv_table.c ****             uint16_t old_cell_cnt = old_col_cnt * ext->row_cnt;
 2167              		.loc 1 226 0
 2168 056e B442     		cmp	r4, r6
 224:..\..\..\lvgl\version_6.1.2\lvgl\src\lv_objx/lv_table.c ****         /*Initilize the new fields*/
 2169              		.loc 1 224 0
 2170 0570 6860     		str	r0, [r5, #4]
 226:..\..\..\lvgl\version_6.1.2\lvgl\src\lv_objx/lv_table.c ****             uint16_t old_cell_cnt = old_col_cnt * ext->row_cnt;
 2171              		.loc 1 226 0
 2172 0572 7FF6F9AD 		bls	.L161
 2173              	.LBB133:
 227:..\..\..\lvgl\version_6.1.2\lvgl\src\lv_objx/lv_table.c ****             uint32_t new_cell_cnt = ext->col_cnt * ext->row_cnt;
ARM GAS  C:\Users\pearlstl\AppData\Local\Temp\ccIJtgHD.s 			page 62


 2174              		.loc 1 227 0
 2175 0576 6A88     		ldrh	r2, [r5, #2]
 2176              	.LVL311:
 229:..\..\..\lvgl\version_6.1.2\lvgl\src\lv_objx/lv_table.c ****         }
 2177              		.loc 1 229 0
 2178 0578 2988     		ldrh	r1, [r5]
 2179 057a 16FB02F3 		smulbb	r3, r6, r2
 2180 057e 9BB2     		uxth	r3, r3
 2181 0580 02FB01F2 		mul	r2, r2, r1
 2182              	.LVL312:
 2183 0584 D21A     		subs	r2, r2, r3
 2184 0586 00EB8300 		add	r0, r0, r3, lsl #2
 2185 058a 9200     		lsls	r2, r2, #2
 2186 058c 0021     		movs	r1, #0
 2187 058e FFF7FEFF 		bl	memset
 2188              	.LVL313:
 2189 0592 E9E5     		b	.L161
 2190              	.LVL314:
 2191              	.L181:
 2192              	.LBE133:
 2193              	.LBB134:
 2194              	.LBB132:
 822:..\..\..\lvgl\version_6.1.2\lvgl\src\lv_objx/lv_table.c ****         h += get_row_height(table, i);
 2195              		.loc 1 822 0
 2196 0594 8146     		mov	r9, r0
 2197              	.LVL315:
 2198 0596 12E6     		b	.L164
 2199              	.LVL316:
 2200              	.L127:
 2201              	.LBE132:
 2202              	.LBE134:
 2203              	.LBE135:
 2204              	.LBE136:
 2205              	.LBE138:
 2206              	.LBE142:
 2207              	.LBE231:
 2208              	.LBB232:
 2209              	.LBB220:
 2210              	.LBB218:
 394:..\..\..\lvgl\version_6.1.2\lvgl\src\lv_objx/lv_table.c **** 
 2211              		.loc 1 394 0
 2212 0598 3846     		mov	r0, r7
 2213              	.LVL317:
 2214 059a FFF7FEFF 		bl	lv_obj_get_ext_attr
 2215              	.LVL318:
 2216              	.LBB216:
 2217              	.LBB214:
 398:..\..\..\lvgl\version_6.1.2\lvgl\src\lv_objx/lv_table.c ****             refr_size(table);
 2218              		.loc 1 398 0
 2219 059e 2949     		ldr	r1, .L223
 2220 05a0 3846     		mov	r0, r7
 2221 05a2 FFF7FEFF 		bl	lv_obj_set_style
 2222              	.LVL319:
 2223              	.LBB212:
 2224              	.LBB210:
 816:..\..\..\lvgl\version_6.1.2\lvgl\src\lv_objx/lv_table.c **** 
 2225              		.loc 1 816 0
ARM GAS  C:\Users\pearlstl\AppData\Local\Temp\ccIJtgHD.s 			page 63


 2226 05a6 3846     		mov	r0, r7
 2227 05a8 FFF7FEFF 		bl	lv_obj_get_ext_attr
 2228              	.LVL320:
 819:..\..\..\lvgl\version_6.1.2\lvgl\src\lv_objx/lv_table.c ****         w += ext->col_w[i];
 2229              		.loc 1 819 0
 2230 05ac 0388     		ldrh	r3, [r0]
 816:..\..\..\lvgl\version_6.1.2\lvgl\src\lv_objx/lv_table.c **** 
 2231              		.loc 1 816 0
 2232 05ae 8146     		mov	r9, r0
 2233              	.LVL321:
 819:..\..\..\lvgl\version_6.1.2\lvgl\src\lv_objx/lv_table.c ****         w += ext->col_w[i];
 2234              		.loc 1 819 0
 2235 05b0 002B     		cmp	r3, #0
 2236 05b2 44D0     		beq	.L176
 2237 05b4 591E     		subs	r1, r3, #1
 2238 05b6 89B2     		uxth	r1, r1
 2239 05b8 0C31     		adds	r1, r1, #12
 2240 05ba 00EB4101 		add	r1, r0, r1, lsl #1
 2241 05be 00F11602 		add	r2, r0, #22
 2242              	.LVL322:
 2243              	.L150:
 820:..\..\..\lvgl\version_6.1.2\lvgl\src\lv_objx/lv_table.c ****     }
 2244              		.loc 1 820 0
 2245 05c2 32F8023F 		ldrh	r3, [r2, #2]!
 2246 05c6 1E44     		add	r6, r6, r3
 2247              	.LVL323:
 2248 05c8 B4B2     		uxth	r4, r6
 819:..\..\..\lvgl\version_6.1.2\lvgl\src\lv_objx/lv_table.c ****         w += ext->col_w[i];
 2249              		.loc 1 819 0
 2250 05ca 8A42     		cmp	r2, r1
 820:..\..\..\lvgl\version_6.1.2\lvgl\src\lv_objx/lv_table.c ****     }
 2251              		.loc 1 820 0
 2252 05cc 26B2     		sxth	r6, r4
 2253              	.LVL324:
 819:..\..\..\lvgl\version_6.1.2\lvgl\src\lv_objx/lv_table.c ****         w += ext->col_w[i];
 2254              		.loc 1 819 0
 2255 05ce F8D1     		bne	.L150
 2256              	.LVL325:
 2257              	.L149:
 822:..\..\..\lvgl\version_6.1.2\lvgl\src\lv_objx/lv_table.c ****         h += get_row_height(table, i);
 2258              		.loc 1 822 0
 2259 05d0 B9F80200 		ldrh	r0, [r9, #2]
 2260              	.LVL326:
 2261 05d4 88B3     		cbz	r0, .L177
 2262 05d6 0026     		movs	r6, #0
 2263 05d8 3546     		mov	r5, r6
 2264              	.LVL327:
 2265              	.L152:
 823:..\..\..\lvgl\version_6.1.2\lvgl\src\lv_objx/lv_table.c ****     }
 2266              		.loc 1 823 0
 2267 05da 2946     		mov	r1, r5
 2268 05dc 3846     		mov	r0, r7
 2269 05de FFF7FEFF 		bl	get_row_height
 2270              	.LVL328:
 822:..\..\..\lvgl\version_6.1.2\lvgl\src\lv_objx/lv_table.c ****         h += get_row_height(table, i);
 2271              		.loc 1 822 0
 2272 05e2 0135     		adds	r5, r5, #1
ARM GAS  C:\Users\pearlstl\AppData\Local\Temp\ccIJtgHD.s 			page 64


 2273              	.LVL329:
 2274 05e4 B9F80230 		ldrh	r3, [r9, #2]
 823:..\..\..\lvgl\version_6.1.2\lvgl\src\lv_objx/lv_table.c ****     }
 2275              		.loc 1 823 0
 2276 05e8 3044     		add	r0, r0, r6
 822:..\..\..\lvgl\version_6.1.2\lvgl\src\lv_objx/lv_table.c ****         h += get_row_height(table, i);
 2277              		.loc 1 822 0
 2278 05ea ADB2     		uxth	r5, r5
 823:..\..\..\lvgl\version_6.1.2\lvgl\src\lv_objx/lv_table.c ****     }
 2279              		.loc 1 823 0
 2280 05ec 1FFA80F8 		uxth	r8, r0
 822:..\..\..\lvgl\version_6.1.2\lvgl\src\lv_objx/lv_table.c ****         h += get_row_height(table, i);
 2281              		.loc 1 822 0
 2282 05f0 AB42     		cmp	r3, r5
 823:..\..\..\lvgl\version_6.1.2\lvgl\src\lv_objx/lv_table.c ****     }
 2283              		.loc 1 823 0
 2284 05f2 0FFA88F6 		sxth	r6, r8
 2285              	.LVL330:
 822:..\..\..\lvgl\version_6.1.2\lvgl\src\lv_objx/lv_table.c ****         h += get_row_height(table, i);
 2286              		.loc 1 822 0
 2287 05f6 F0D8     		bhi	.L152
 2288              	.LVL331:
 2289              	.L151:
 826:..\..\..\lvgl\version_6.1.2\lvgl\src\lv_objx/lv_table.c **** 
 2290              		.loc 1 826 0
 2291 05f8 3846     		mov	r0, r7
 2292 05fa FFF7FEFF 		bl	lv_obj_get_style
 2293              	.LVL332:
 2294 05fe 0346     		mov	r3, r0
 2295              	.LVL333:
 831:..\..\..\lvgl\version_6.1.2\lvgl\src\lv_objx/lv_table.c ****     lv_obj_invalidate(table);
 2296              		.loc 1 831 0
 2297 0600 3846     		mov	r0, r7
 2298              	.LVL334:
 2299 0602 1D8C     		ldrh	r5, [r3, #32]
 2300 0604 5A8C     		ldrh	r2, [r3, #34]
 2301 0606 998C     		ldrh	r1, [r3, #36]
 2302 0608 DB8C     		ldrh	r3, [r3, #38]
 2303              	.LVL335:
 2304 060a 2A44     		add	r2, r2, r5
 2305 060c 1944     		add	r1, r1, r3
 2306 060e 0132     		adds	r2, r2, #1
 2307 0610 0131     		adds	r1, r1, #1
 2308 0612 4244     		add	r2, r2, r8
 2309 0614 87E7     		b	.L214
 2310              	.LVL336:
 2311              	.L166:
 2312              	.LBE210:
 2313              	.LBE212:
 2314              	.LBE214:
 2315              	.LBE216:
 2316              	.LBE218:
 2317              	.LBE220:
 2318              	.LBB221:
 2319              	.LBB160:
 2320              	.LBB158:
 2321              	.LBB156:
ARM GAS  C:\Users\pearlstl\AppData\Local\Temp\ccIJtgHD.s 			page 65


 2322              	.LBB154:
 2323              	.LBB152:
 819:..\..\..\lvgl\version_6.1.2\lvgl\src\lv_objx/lv_table.c ****         w += ext->col_w[i];
 2324              		.loc 1 819 0
 2325 0616 B046     		mov	r8, r6
 2326 0618 36E6     		b	.L128
 2327              	.LVL337:
 2328              	.L175:
 2329              	.LBE152:
 2330              	.LBE154:
 2331              	.LBE156:
 2332              	.LBE158:
 2333              	.LBE160:
 2334              	.LBE221:
 2335              	.LBB222:
 2336              	.LBB202:
 2337              	.LBB200:
 2338              	.LBB199:
 822:..\..\..\lvgl\version_6.1.2\lvgl\src\lv_objx/lv_table.c ****         h += get_row_height(table, i);
 2339              		.loc 1 822 0
 2340 061a 8146     		mov	r9, r0
 2341 061c 75E7     		b	.L146
 2342              	.LVL338:
 2343              	.L173:
 2344              	.LBE199:
 2345              	.LBE200:
 2346              	.LBE202:
 2347              	.LBE222:
 2348              	.LBB223:
 2349              	.LBB192:
 2350              	.LBB189:
 2351              	.LBB187:
 2352 061e 8246     		mov	r10, r0
 2353 0620 2CE7     		b	.L142
 2354              	.LVL339:
 2355              	.L168:
 2356              	.LBE187:
 2357              	.LBE189:
 2358              	.LBE192:
 2359              	.LBE223:
 2360              	.LBB224:
 2361              	.LBB171:
 2362              	.LBB168:
 2363              	.LBB166:
 819:..\..\..\lvgl\version_6.1.2\lvgl\src\lv_objx/lv_table.c ****         w += ext->col_w[i];
 2364              		.loc 1 819 0
 2365 0622 9846     		mov	r8, r3
 2366 0624 7CE6     		b	.L132
 2367              	.LVL340:
 2368              	.L167:
 2369              	.LBE166:
 2370              	.LBE168:
 2371              	.LBE171:
 2372              	.LBE224:
 2373              	.LBB225:
 2374              	.LBB161:
 2375              	.LBB159:
ARM GAS  C:\Users\pearlstl\AppData\Local\Temp\ccIJtgHD.s 			page 66


 2376              	.LBB157:
 2377              	.LBB155:
 2378              	.LBB153:
 822:..\..\..\lvgl\version_6.1.2\lvgl\src\lv_objx/lv_table.c ****         h += get_row_height(table, i);
 2379              		.loc 1 822 0
 2380 0626 8246     		mov	r10, r0
 2381 0628 44E6     		b	.L130
 2382              	.LVL341:
 2383              	.L172:
 2384              	.LBE153:
 2385              	.LBE155:
 2386              	.LBE157:
 2387              	.LBE159:
 2388              	.LBE161:
 2389              	.LBE225:
 2390              	.LBB226:
 2391              	.LBB193:
 2392              	.LBB190:
 2393              	.LBB188:
 819:..\..\..\lvgl\version_6.1.2\lvgl\src\lv_objx/lv_table.c ****         w += ext->col_w[i];
 2394              		.loc 1 819 0
 2395 062a 9846     		mov	r8, r3
 2396 062c 10E7     		b	.L140
 2397              	.LVL342:
 2398              	.L171:
 2399              	.LBE188:
 2400              	.LBE190:
 2401              	.LBE193:
 2402              	.LBE226:
 2403              	.LBB227:
 2404              	.LBB181:
 2405              	.LBB179:
 2406              	.LBB178:
 822:..\..\..\lvgl\version_6.1.2\lvgl\src\lv_objx/lv_table.c ****         h += get_row_height(table, i);
 2407              		.loc 1 822 0
 2408 062e 8246     		mov	r10, r0
 2409 0630 D8E6     		b	.L138
 2410              	.LVL343:
 2411              	.L170:
 819:..\..\..\lvgl\version_6.1.2\lvgl\src\lv_objx/lv_table.c ****         w += ext->col_w[i];
 2412              		.loc 1 819 0
 2413 0632 9846     		mov	r8, r3
 2414 0634 C0E6     		b	.L136
 2415              	.LVL344:
 2416              	.L169:
 2417              	.LBE178:
 2418              	.LBE179:
 2419              	.LBE181:
 2420              	.LBE227:
 2421              	.LBB228:
 2422              	.LBB172:
 2423              	.LBB169:
 2424              	.LBB167:
 822:..\..\..\lvgl\version_6.1.2\lvgl\src\lv_objx/lv_table.c ****         h += get_row_height(table, i);
 2425              		.loc 1 822 0
 2426 0636 8246     		mov	r10, r0
 2427 0638 88E6     		b	.L134
ARM GAS  C:\Users\pearlstl\AppData\Local\Temp\ccIJtgHD.s 			page 67


 2428              	.LVL345:
 2429              	.L177:
 2430              	.LBE167:
 2431              	.LBE169:
 2432              	.LBE172:
 2433              	.LBE228:
 2434              	.LBB229:
 2435              	.LBB219:
 2436              	.LBB217:
 2437              	.LBB215:
 2438              	.LBB213:
 2439              	.LBB211:
 2440 063a 8046     		mov	r8, r0
 2441 063c DCE7     		b	.L151
 2442              	.LVL346:
 2443              	.L176:
 819:..\..\..\lvgl\version_6.1.2\lvgl\src\lv_objx/lv_table.c ****         w += ext->col_w[i];
 2444              		.loc 1 819 0
 2445 063e 3446     		mov	r4, r6
 2446              	.LVL347:
 2447 0640 C6E7     		b	.L149
 2448              	.L224:
 2449 0642 00BF     		.align	2
 2450              	.L223:
 2451 0644 00000000 		.word	lv_style_plain_color
 2452              	.LBE211:
 2453              	.LBE213:
 2454              	.LBE215:
 2455              	.LBE217:
 2456              	.LBE219:
 2457              	.LBE229:
 2458              	.LBE232:
 2459              		.cfi_endproc
 2460              	.LFE33:
 2461              		.size	lv_table_create, .-lv_table_create
 2462              		.section	.text.lv_table_set_cell_value,"ax",%progbits
 2463              		.align	2
 2464              		.global	lv_table_set_cell_value
 2465              		.thumb
 2466              		.thumb_func
 2467              		.type	lv_table_set_cell_value, %function
 2468              	lv_table_set_cell_value:
 2469              	.LFB34:
 136:..\..\..\lvgl\version_6.1.2\lvgl\src\lv_objx/lv_table.c ****     LV_ASSERT_OBJ(table, LV_OBJX_NAME);
 2470              		.loc 1 136 0
 2471              		.cfi_startproc
 2472              		@ args = 0, pretend = 0, frame = 0
 2473              		@ frame_needed = 0, uses_anonymous_args = 0
 2474              	.LVL348:
 2475 0000 2DE9F047 		push	{r4, r5, r6, r7, r8, r9, r10, lr}
 2476              		.cfi_def_cfa_offset 32
 2477              		.cfi_offset 4, -32
 2478              		.cfi_offset 5, -28
 2479              		.cfi_offset 6, -24
 2480              		.cfi_offset 7, -20
 2481              		.cfi_offset 8, -16
 2482              		.cfi_offset 9, -12
ARM GAS  C:\Users\pearlstl\AppData\Local\Temp\ccIJtgHD.s 			page 68


 2483              		.cfi_offset 10, -8
 2484              		.cfi_offset 14, -4
 136:..\..\..\lvgl\version_6.1.2\lvgl\src\lv_objx/lv_table.c ****     LV_ASSERT_OBJ(table, LV_OBJX_NAME);
 2485              		.loc 1 136 0
 2486 0004 0C46     		mov	r4, r1
 2487 0006 9846     		mov	r8, r3
 2488 0008 1646     		mov	r6, r2
 2489 000a 0746     		mov	r7, r0
 140:..\..\..\lvgl\version_6.1.2\lvgl\src\lv_objx/lv_table.c ****     if(row >= ext->row_cnt || col >= ext->col_cnt) {
 2490              		.loc 1 140 0
 2491 000c FFF7FEFF 		bl	lv_obj_get_ext_attr
 2492              	.LVL349:
 141:..\..\..\lvgl\version_6.1.2\lvgl\src\lv_objx/lv_table.c ****         LV_LOG_WARN("lv_table_set_cell_value: invalid row or column");
 2493              		.loc 1 141 0
 2494 0010 4388     		ldrh	r3, [r0, #2]
 2495 0012 A342     		cmp	r3, r4
 2496 0014 63D9     		bls	.L225
 141:..\..\..\lvgl\version_6.1.2\lvgl\src\lv_objx/lv_table.c ****         LV_LOG_WARN("lv_table_set_cell_value: invalid row or column");
 2497              		.loc 1 141 0 is_stmt 0 discriminator 1
 2498 0016 0288     		ldrh	r2, [r0]
 2499 0018 B242     		cmp	r2, r6
 2500 001a 0546     		mov	r5, r0
 2501 001c 5FD9     		bls	.L225
 2502              	.LVL350:
 149:..\..\..\lvgl\version_6.1.2\lvgl\src\lv_objx/lv_table.c ****         format.format_byte = ext->cell_data[cell][0];
 2503              		.loc 1 149 0 is_stmt 1
 2504 001e 02FB0464 		mla	r4, r2, r4, r6
 2505              	.LVL351:
 2506 0022 D0F80490 		ldr	r9, [r0, #4]
 2507 0026 59F82460 		ldr	r6, [r9, r4, lsl #2]
 2508 002a 002E     		cmp	r6, #0
 2509 002c 59D0     		beq	.L227
 150:..\..\..\lvgl\version_6.1.2\lvgl\src\lv_objx/lv_table.c ****     }
 2510              		.loc 1 150 0
 2511 002e 96F800A0 		ldrb	r10, [r6]	@ zero_extendqisi2
 2512              	.L228:
 168:..\..\..\lvgl\version_6.1.2\lvgl\src\lv_objx/lv_table.c ****     strcpy(ext->cell_data[cell] + 1, txt);  /*+1 to skip the format byte*/
 2513              		.loc 1 168 0
 2514 0032 4046     		mov	r0, r8
 2515              	.LVL352:
 2516 0034 FFF7FEFF 		bl	strlen
 2517              	.LVL353:
 2518 0038 811C     		adds	r1, r0, #2
 2519 003a 3046     		mov	r0, r6
 2520 003c FFF7FEFF 		bl	lv_mem_realloc
 2521              	.LVL354:
 2522 0040 49F82400 		str	r0, [r9, r4, lsl #2]
 169:..\..\..\lvgl\version_6.1.2\lvgl\src\lv_objx/lv_table.c **** 
 2523              		.loc 1 169 0
 2524 0044 6B68     		ldr	r3, [r5, #4]
 2525 0046 53F82400 		ldr	r0, [r3, r4, lsl #2]
 2526 004a 4146     		mov	r1, r8
 2527 004c 0130     		adds	r0, r0, #1
 2528 004e FFF7FEFF 		bl	strcpy
 2529              	.LVL355:
 171:..\..\..\lvgl\version_6.1.2\lvgl\src\lv_objx/lv_table.c ****     refr_size(table);
 2530              		.loc 1 171 0
ARM GAS  C:\Users\pearlstl\AppData\Local\Temp\ccIJtgHD.s 			page 69


 2531 0052 6B68     		ldr	r3, [r5, #4]
 2532 0054 53F82430 		ldr	r3, [r3, r4, lsl #2]
 2533              	.LBB235:
 2534              	.LBB236:
 816:..\..\..\lvgl\version_6.1.2\lvgl\src\lv_objx/lv_table.c **** 
 2535              		.loc 1 816 0
 2536 0058 3846     		mov	r0, r7
 2537              	.LBE236:
 2538              	.LBE235:
 171:..\..\..\lvgl\version_6.1.2\lvgl\src\lv_objx/lv_table.c ****     refr_size(table);
 2539              		.loc 1 171 0
 2540 005a 83F800A0 		strb	r10, [r3]
 2541              	.LVL356:
 2542              	.LBB240:
 2543              	.LBB237:
 816:..\..\..\lvgl\version_6.1.2\lvgl\src\lv_objx/lv_table.c **** 
 2544              		.loc 1 816 0
 2545 005e FFF7FEFF 		bl	lv_obj_get_ext_attr
 2546              	.LVL357:
 819:..\..\..\lvgl\version_6.1.2\lvgl\src\lv_objx/lv_table.c ****         w += ext->col_w[i];
 2547              		.loc 1 819 0
 2548 0062 0488     		ldrh	r4, [r0]
 816:..\..\..\lvgl\version_6.1.2\lvgl\src\lv_objx/lv_table.c **** 
 2549              		.loc 1 816 0
 2550 0064 8046     		mov	r8, r0
 2551              	.LVL358:
 819:..\..\..\lvgl\version_6.1.2\lvgl\src\lv_objx/lv_table.c ****         w += ext->col_w[i];
 2552              		.loc 1 819 0
 2553 0066 74B1     		cbz	r4, .L229
 2554 0068 601E     		subs	r0, r4, #1
 2555              	.LVL359:
 2556 006a 80B2     		uxth	r0, r0
 2557 006c 0C30     		adds	r0, r0, #12
 2558 006e 08EB4000 		add	r0, r8, r0, lsl #1
 2559 0072 08F11602 		add	r2, r8, #22
 2560 0076 0021     		movs	r1, #0
 2561              	.LVL360:
 2562              	.L230:
 820:..\..\..\lvgl\version_6.1.2\lvgl\src\lv_objx/lv_table.c ****     }
 2563              		.loc 1 820 0
 2564 0078 32F8023F 		ldrh	r3, [r2, #2]!
 2565 007c CC18     		adds	r4, r1, r3
 2566 007e A4B2     		uxth	r4, r4
 819:..\..\..\lvgl\version_6.1.2\lvgl\src\lv_objx/lv_table.c ****         w += ext->col_w[i];
 2567              		.loc 1 819 0
 2568 0080 9042     		cmp	r0, r2
 820:..\..\..\lvgl\version_6.1.2\lvgl\src\lv_objx/lv_table.c ****     }
 2569              		.loc 1 820 0
 2570 0082 21B2     		sxth	r1, r4
 2571              	.LVL361:
 819:..\..\..\lvgl\version_6.1.2\lvgl\src\lv_objx/lv_table.c ****         w += ext->col_w[i];
 2572              		.loc 1 819 0
 2573 0084 F8D1     		bne	.L230
 2574              	.LVL362:
 2575              	.L229:
 822:..\..\..\lvgl\version_6.1.2\lvgl\src\lv_objx/lv_table.c ****         h += get_row_height(table, i);
 2576              		.loc 1 822 0
ARM GAS  C:\Users\pearlstl\AppData\Local\Temp\ccIJtgHD.s 			page 70


 2577 0086 B8F80200 		ldrh	r0, [r8, #2]
 2578 008a B8B3     		cbz	r0, .L234
 2579 008c 0026     		movs	r6, #0
 2580 008e 3546     		mov	r5, r6
 2581              	.LVL363:
 2582              	.L232:
 823:..\..\..\lvgl\version_6.1.2\lvgl\src\lv_objx/lv_table.c ****     }
 2583              		.loc 1 823 0
 2584 0090 2946     		mov	r1, r5
 2585 0092 3846     		mov	r0, r7
 2586 0094 FFF7FEFF 		bl	get_row_height
 2587              	.LVL364:
 822:..\..\..\lvgl\version_6.1.2\lvgl\src\lv_objx/lv_table.c ****         h += get_row_height(table, i);
 2588              		.loc 1 822 0
 2589 0098 0135     		adds	r5, r5, #1
 2590              	.LVL365:
 2591 009a B8F80230 		ldrh	r3, [r8, #2]
 823:..\..\..\lvgl\version_6.1.2\lvgl\src\lv_objx/lv_table.c ****     }
 2592              		.loc 1 823 0
 2593 009e 3044     		add	r0, r0, r6
 822:..\..\..\lvgl\version_6.1.2\lvgl\src\lv_objx/lv_table.c ****         h += get_row_height(table, i);
 2594              		.loc 1 822 0
 2595 00a0 ADB2     		uxth	r5, r5
 823:..\..\..\lvgl\version_6.1.2\lvgl\src\lv_objx/lv_table.c ****     }
 2596              		.loc 1 823 0
 2597 00a2 1FFA80F9 		uxth	r9, r0
 822:..\..\..\lvgl\version_6.1.2\lvgl\src\lv_objx/lv_table.c ****         h += get_row_height(table, i);
 2598              		.loc 1 822 0
 2599 00a6 AB42     		cmp	r3, r5
 823:..\..\..\lvgl\version_6.1.2\lvgl\src\lv_objx/lv_table.c ****     }
 2600              		.loc 1 823 0
 2601 00a8 0FFA89F6 		sxth	r6, r9
 2602              	.LVL366:
 822:..\..\..\lvgl\version_6.1.2\lvgl\src\lv_objx/lv_table.c ****         h += get_row_height(table, i);
 2603              		.loc 1 822 0
 2604 00ac F0D8     		bhi	.L232
 2605              	.LVL367:
 2606              	.L231:
 826:..\..\..\lvgl\version_6.1.2\lvgl\src\lv_objx/lv_table.c **** 
 2607              		.loc 1 826 0
 2608 00ae 3846     		mov	r0, r7
 2609 00b0 FFF7FEFF 		bl	lv_obj_get_style
 2610              	.LVL368:
 2611 00b4 0346     		mov	r3, r0
 2612              	.LVL369:
 831:..\..\..\lvgl\version_6.1.2\lvgl\src\lv_objx/lv_table.c ****     lv_obj_invalidate(table);
 2613              		.loc 1 831 0
 2614 00b6 3846     		mov	r0, r7
 2615              	.LVL370:
 2616 00b8 1D8C     		ldrh	r5, [r3, #32]
 2617 00ba 5A8C     		ldrh	r2, [r3, #34]
 2618 00bc 998C     		ldrh	r1, [r3, #36]
 2619 00be DB8C     		ldrh	r3, [r3, #38]
 2620              	.LVL371:
 2621 00c0 2A44     		add	r2, r2, r5
 2622 00c2 1944     		add	r1, r1, r3
 2623 00c4 0132     		adds	r2, r2, #1
ARM GAS  C:\Users\pearlstl\AppData\Local\Temp\ccIJtgHD.s 			page 71


 2624 00c6 0131     		adds	r1, r1, #1
 2625 00c8 4A44     		add	r2, r2, r9
 2626 00ca 2144     		add	r1, r1, r4
 2627 00cc 12B2     		sxth	r2, r2
 2628 00ce 09B2     		sxth	r1, r1
 2629 00d0 FFF7FEFF 		bl	lv_obj_set_size
 2630              	.LVL372:
 832:..\..\..\lvgl\version_6.1.2\lvgl\src\lv_objx/lv_table.c **** }
 2631              		.loc 1 832 0
 2632 00d4 3846     		mov	r0, r7
 2633              	.LBE237:
 2634              	.LBE240:
 173:..\..\..\lvgl\version_6.1.2\lvgl\src\lv_objx/lv_table.c **** 
 2635              		.loc 1 173 0
 2636 00d6 BDE8F047 		pop	{r4, r5, r6, r7, r8, r9, r10, lr}
 2637              		.cfi_remember_state
 2638              		.cfi_restore 14
 2639              		.cfi_restore 10
 2640              		.cfi_restore 9
 2641              		.cfi_restore 8
 2642              		.cfi_restore 7
 2643              		.cfi_restore 6
 2644              		.cfi_restore 5
 2645              		.cfi_restore 4
 2646              		.cfi_def_cfa_offset 0
 2647              	.LVL373:
 2648              	.LBB241:
 2649              	.LBB238:
 832:..\..\..\lvgl\version_6.1.2\lvgl\src\lv_objx/lv_table.c **** }
 2650              		.loc 1 832 0
 2651 00da FFF7FEBF 		b	lv_obj_invalidate
 2652              	.LVL374:
 2653              	.L225:
 2654              		.cfi_restore_state
 2655 00de BDE8F087 		pop	{r4, r5, r6, r7, r8, r9, r10, pc}
 2656              	.LVL375:
 2657              	.L227:
 2658              	.LBE238:
 2659              	.LBE241:
 160:..\..\..\lvgl\version_6.1.2\lvgl\src\lv_objx/lv_table.c **** #endif
 2660              		.loc 1 160 0
 2661 00e2 4FF0000A 		mov	r10, #0
 2662              	.LVL376:
 2663 00e6 66F3010A 		bfi	r10, r6, #0, #2
 2664              	.LVL377:
 163:..\..\..\lvgl\version_6.1.2\lvgl\src\lv_objx/lv_table.c ****         format.s.type        = 0;
 2665              		.loc 1 163 0
 2666 00ea 66F3820A 		bfi	r10, r6, #2, #1
 164:..\..\..\lvgl\version_6.1.2\lvgl\src\lv_objx/lv_table.c ****         format.s.crop        = 0;
 2667              		.loc 1 164 0
 2668 00ee 66F3C40A 		bfi	r10, r6, #3, #2
 165:..\..\..\lvgl\version_6.1.2\lvgl\src\lv_objx/lv_table.c ****     }
 2669              		.loc 1 165 0
 2670 00f2 66F3451A 		bfi	r10, r6, #5, #1
 2671 00f6 5FFA8AFA 		uxtb	r10, r10
 2672              	.LVL378:
 2673 00fa 9AE7     		b	.L228
ARM GAS  C:\Users\pearlstl\AppData\Local\Temp\ccIJtgHD.s 			page 72


 2674              	.LVL379:
 2675              	.L234:
 2676              	.LBB242:
 2677              	.LBB239:
 822:..\..\..\lvgl\version_6.1.2\lvgl\src\lv_objx/lv_table.c ****         h += get_row_height(table, i);
 2678              		.loc 1 822 0
 2679 00fc 8146     		mov	r9, r0
 2680 00fe D6E7     		b	.L231
 2681              	.LBE239:
 2682              	.LBE242:
 2683              		.cfi_endproc
 2684              	.LFE34:
 2685              		.size	lv_table_set_cell_value, .-lv_table_set_cell_value
 2686              		.section	.text.lv_table_set_row_cnt,"ax",%progbits
 2687              		.align	2
 2688              		.global	lv_table_set_row_cnt
 2689              		.thumb
 2690              		.thumb_func
 2691              		.type	lv_table_set_row_cnt, %function
 2692              	lv_table_set_row_cnt:
 2693              	.LFB35:
 181:..\..\..\lvgl\version_6.1.2\lvgl\src\lv_objx/lv_table.c ****     LV_ASSERT_OBJ(table, LV_OBJX_NAME);
 2694              		.loc 1 181 0
 2695              		.cfi_startproc
 2696              		@ args = 0, pretend = 0, frame = 0
 2697              		@ frame_needed = 0, uses_anonymous_args = 0
 2698              	.LVL380:
 2699 0000 2DE9F843 		push	{r3, r4, r5, r6, r7, r8, r9, lr}
 2700              		.cfi_def_cfa_offset 32
 2701              		.cfi_offset 3, -32
 2702              		.cfi_offset 4, -28
 2703              		.cfi_offset 5, -24
 2704              		.cfi_offset 6, -20
 2705              		.cfi_offset 7, -16
 2706              		.cfi_offset 8, -12
 2707              		.cfi_offset 9, -8
 2708              		.cfi_offset 14, -4
 181:..\..\..\lvgl\version_6.1.2\lvgl\src\lv_objx/lv_table.c ****     LV_ASSERT_OBJ(table, LV_OBJX_NAME);
 2709              		.loc 1 181 0
 2710 0004 0D46     		mov	r5, r1
 2711 0006 0746     		mov	r7, r0
 184:..\..\..\lvgl\version_6.1.2\lvgl\src\lv_objx/lv_table.c ****     uint16_t old_row_cnt = ext->row_cnt;
 2712              		.loc 1 184 0
 2713 0008 FFF7FEFF 		bl	lv_obj_get_ext_attr
 2714              	.LVL381:
 185:..\..\..\lvgl\version_6.1.2\lvgl\src\lv_objx/lv_table.c ****     ext->row_cnt         = row_cnt;
 2715              		.loc 1 185 0
 2716 000c 4688     		ldrh	r6, [r0, #2]
 186:..\..\..\lvgl\version_6.1.2\lvgl\src\lv_objx/lv_table.c **** 
 2717              		.loc 1 186 0
 2718 000e 4580     		strh	r5, [r0, #2]	@ movhi
 184:..\..\..\lvgl\version_6.1.2\lvgl\src\lv_objx/lv_table.c ****     uint16_t old_row_cnt = ext->row_cnt;
 2719              		.loc 1 184 0
 2720 0010 0446     		mov	r4, r0
 2721              	.LVL382:
 188:..\..\..\lvgl\version_6.1.2\lvgl\src\lv_objx/lv_table.c ****         ext->cell_data = lv_mem_realloc(ext->cell_data, ext->row_cnt * ext->col_cnt * sizeof(char *
 2722              		.loc 1 188 0
ARM GAS  C:\Users\pearlstl\AppData\Local\Temp\ccIJtgHD.s 			page 73


 2723 0012 15B1     		cbz	r5, .L239
 188:..\..\..\lvgl\version_6.1.2\lvgl\src\lv_objx/lv_table.c ****         ext->cell_data = lv_mem_realloc(ext->cell_data, ext->row_cnt * ext->col_cnt * sizeof(char *
 2724              		.loc 1 188 0 is_stmt 0 discriminator 1
 2725 0014 0188     		ldrh	r1, [r0]
 2726 0016 0029     		cmp	r1, #0
 2727 0018 46D1     		bne	.L256
 2728              	.L239:
 198:..\..\..\lvgl\version_6.1.2\lvgl\src\lv_objx/lv_table.c ****         ext->cell_data = NULL;
 2729              		.loc 1 198 0 is_stmt 1
 2730 001a 6068     		ldr	r0, [r4, #4]
 2731              	.LVL383:
 2732 001c FFF7FEFF 		bl	lv_mem_free
 2733              	.LVL384:
 199:..\..\..\lvgl\version_6.1.2\lvgl\src\lv_objx/lv_table.c ****     }
 2734              		.loc 1 199 0
 2735 0020 0023     		movs	r3, #0
 2736 0022 6360     		str	r3, [r4, #4]
 2737              	.L240:
 2738              	.LVL385:
 2739              	.LBB246:
 2740              	.LBB247:
 816:..\..\..\lvgl\version_6.1.2\lvgl\src\lv_objx/lv_table.c **** 
 2741              		.loc 1 816 0
 2742 0024 3846     		mov	r0, r7
 2743 0026 FFF7FEFF 		bl	lv_obj_get_ext_attr
 2744              	.LVL386:
 819:..\..\..\lvgl\version_6.1.2\lvgl\src\lv_objx/lv_table.c ****         w += ext->col_w[i];
 2745              		.loc 1 819 0
 2746 002a 0488     		ldrh	r4, [r0]
 2747              	.LVL387:
 816:..\..\..\lvgl\version_6.1.2\lvgl\src\lv_objx/lv_table.c **** 
 2748              		.loc 1 816 0
 2749 002c 8046     		mov	r8, r0
 2750              	.LVL388:
 819:..\..\..\lvgl\version_6.1.2\lvgl\src\lv_objx/lv_table.c ****         w += ext->col_w[i];
 2751              		.loc 1 819 0
 2752 002e 74B1     		cbz	r4, .L241
 2753 0030 601E     		subs	r0, r4, #1
 2754              	.LVL389:
 2755 0032 80B2     		uxth	r0, r0
 2756 0034 0C30     		adds	r0, r0, #12
 2757 0036 08EB4000 		add	r0, r8, r0, lsl #1
 2758 003a 08F11602 		add	r2, r8, #22
 2759 003e 0021     		movs	r1, #0
 2760              	.LVL390:
 2761              	.L242:
 820:..\..\..\lvgl\version_6.1.2\lvgl\src\lv_objx/lv_table.c ****     }
 2762              		.loc 1 820 0
 2763 0040 32F8023F 		ldrh	r3, [r2, #2]!
 2764 0044 CC18     		adds	r4, r1, r3
 2765 0046 A4B2     		uxth	r4, r4
 819:..\..\..\lvgl\version_6.1.2\lvgl\src\lv_objx/lv_table.c ****         w += ext->col_w[i];
 2766              		.loc 1 819 0
 2767 0048 9042     		cmp	r0, r2
 820:..\..\..\lvgl\version_6.1.2\lvgl\src\lv_objx/lv_table.c ****     }
 2768              		.loc 1 820 0
 2769 004a 21B2     		sxth	r1, r4
ARM GAS  C:\Users\pearlstl\AppData\Local\Temp\ccIJtgHD.s 			page 74


 2770              	.LVL391:
 819:..\..\..\lvgl\version_6.1.2\lvgl\src\lv_objx/lv_table.c ****         w += ext->col_w[i];
 2771              		.loc 1 819 0
 2772 004c F8D1     		bne	.L242
 2773              	.LVL392:
 2774              	.L241:
 822:..\..\..\lvgl\version_6.1.2\lvgl\src\lv_objx/lv_table.c ****         h += get_row_height(table, i);
 2775              		.loc 1 822 0
 2776 004e B8F80200 		ldrh	r0, [r8, #2]
 2777 0052 0028     		cmp	r0, #0
 2778 0054 40D0     		beq	.L246
 2779 0056 0026     		movs	r6, #0
 2780              	.LVL393:
 2781 0058 3546     		mov	r5, r6
 2782              	.LVL394:
 2783              	.L244:
 823:..\..\..\lvgl\version_6.1.2\lvgl\src\lv_objx/lv_table.c ****     }
 2784              		.loc 1 823 0
 2785 005a 2946     		mov	r1, r5
 2786 005c 3846     		mov	r0, r7
 2787 005e FFF7FEFF 		bl	get_row_height
 2788              	.LVL395:
 822:..\..\..\lvgl\version_6.1.2\lvgl\src\lv_objx/lv_table.c ****         h += get_row_height(table, i);
 2789              		.loc 1 822 0
 2790 0062 0135     		adds	r5, r5, #1
 2791              	.LVL396:
 2792 0064 B8F80230 		ldrh	r3, [r8, #2]
 823:..\..\..\lvgl\version_6.1.2\lvgl\src\lv_objx/lv_table.c ****     }
 2793              		.loc 1 823 0
 2794 0068 3044     		add	r0, r0, r6
 822:..\..\..\lvgl\version_6.1.2\lvgl\src\lv_objx/lv_table.c ****         h += get_row_height(table, i);
 2795              		.loc 1 822 0
 2796 006a ADB2     		uxth	r5, r5
 823:..\..\..\lvgl\version_6.1.2\lvgl\src\lv_objx/lv_table.c ****     }
 2797              		.loc 1 823 0
 2798 006c 1FFA80F9 		uxth	r9, r0
 822:..\..\..\lvgl\version_6.1.2\lvgl\src\lv_objx/lv_table.c ****         h += get_row_height(table, i);
 2799              		.loc 1 822 0
 2800 0070 AB42     		cmp	r3, r5
 823:..\..\..\lvgl\version_6.1.2\lvgl\src\lv_objx/lv_table.c ****     }
 2801              		.loc 1 823 0
 2802 0072 0FFA89F6 		sxth	r6, r9
 2803              	.LVL397:
 822:..\..\..\lvgl\version_6.1.2\lvgl\src\lv_objx/lv_table.c ****         h += get_row_height(table, i);
 2804              		.loc 1 822 0
 2805 0076 F0D8     		bhi	.L244
 2806              	.LVL398:
 2807              	.L243:
 826:..\..\..\lvgl\version_6.1.2\lvgl\src\lv_objx/lv_table.c **** 
 2808              		.loc 1 826 0
 2809 0078 3846     		mov	r0, r7
 2810 007a FFF7FEFF 		bl	lv_obj_get_style
 2811              	.LVL399:
 2812 007e 0346     		mov	r3, r0
 2813              	.LVL400:
 831:..\..\..\lvgl\version_6.1.2\lvgl\src\lv_objx/lv_table.c ****     lv_obj_invalidate(table);
 2814              		.loc 1 831 0
ARM GAS  C:\Users\pearlstl\AppData\Local\Temp\ccIJtgHD.s 			page 75


 2815 0080 3846     		mov	r0, r7
 2816              	.LVL401:
 2817 0082 1D8C     		ldrh	r5, [r3, #32]
 2818 0084 5A8C     		ldrh	r2, [r3, #34]
 2819 0086 998C     		ldrh	r1, [r3, #36]
 2820 0088 DB8C     		ldrh	r3, [r3, #38]
 2821              	.LVL402:
 2822 008a 2A44     		add	r2, r2, r5
 2823 008c 1944     		add	r1, r1, r3
 2824 008e 0132     		adds	r2, r2, #1
 2825 0090 0131     		adds	r1, r1, #1
 2826 0092 4A44     		add	r2, r2, r9
 2827 0094 2144     		add	r1, r1, r4
 2828 0096 12B2     		sxth	r2, r2
 2829 0098 09B2     		sxth	r1, r1
 2830 009a FFF7FEFF 		bl	lv_obj_set_size
 2831              	.LVL403:
 832:..\..\..\lvgl\version_6.1.2\lvgl\src\lv_objx/lv_table.c **** }
 2832              		.loc 1 832 0
 2833 009e 3846     		mov	r0, r7
 2834              	.LBE247:
 2835              	.LBE246:
 203:..\..\..\lvgl\version_6.1.2\lvgl\src\lv_objx/lv_table.c **** 
 2836              		.loc 1 203 0
 2837 00a0 BDE8F843 		pop	{r3, r4, r5, r6, r7, r8, r9, lr}
 2838              		.cfi_remember_state
 2839              		.cfi_restore 14
 2840              		.cfi_restore 9
 2841              		.cfi_restore 8
 2842              		.cfi_restore 7
 2843              		.cfi_restore 6
 2844              		.cfi_restore 5
 2845              		.cfi_restore 4
 2846              		.cfi_restore 3
 2847              		.cfi_def_cfa_offset 0
 2848              	.LVL404:
 2849              	.LBB250:
 2850              	.LBB248:
 832:..\..\..\lvgl\version_6.1.2\lvgl\src\lv_objx/lv_table.c **** }
 2851              		.loc 1 832 0
 2852 00a4 FFF7FEBF 		b	lv_obj_invalidate
 2853              	.LVL405:
 2854              	.L256:
 2855              		.cfi_restore_state
 2856              	.LBE248:
 2857              	.LBE250:
 189:..\..\..\lvgl\version_6.1.2\lvgl\src\lv_objx/lv_table.c **** 
 2858              		.loc 1 189 0
 2859 00a8 01FB05F1 		mul	r1, r1, r5
 2860 00ac 8900     		lsls	r1, r1, #2
 2861 00ae 4068     		ldr	r0, [r0, #4]
 2862              	.LVL406:
 2863 00b0 FFF7FEFF 		bl	lv_mem_realloc
 2864              	.LVL407:
 192:..\..\..\lvgl\version_6.1.2\lvgl\src\lv_objx/lv_table.c ****             uint16_t old_cell_cnt = old_row_cnt * ext->col_cnt;
 2865              		.loc 1 192 0
 2866 00b4 AE42     		cmp	r6, r5
ARM GAS  C:\Users\pearlstl\AppData\Local\Temp\ccIJtgHD.s 			page 76


 189:..\..\..\lvgl\version_6.1.2\lvgl\src\lv_objx/lv_table.c **** 
 2867              		.loc 1 189 0
 2868 00b6 6060     		str	r0, [r4, #4]
 192:..\..\..\lvgl\version_6.1.2\lvgl\src\lv_objx/lv_table.c ****             uint16_t old_cell_cnt = old_row_cnt * ext->col_cnt;
 2869              		.loc 1 192 0
 2870 00b8 B4D2     		bcs	.L240
 2871              	.LBB251:
 193:..\..\..\lvgl\version_6.1.2\lvgl\src\lv_objx/lv_table.c ****             uint32_t new_cell_cnt = ext->col_cnt * ext->row_cnt;
 2872              		.loc 1 193 0
 2873 00ba 2288     		ldrh	r2, [r4]
 2874              	.LVL408:
 195:..\..\..\lvgl\version_6.1.2\lvgl\src\lv_objx/lv_table.c ****         }
 2875              		.loc 1 195 0
 2876 00bc 6188     		ldrh	r1, [r4, #2]
 2877 00be 16FB02F3 		smulbb	r3, r6, r2
 2878 00c2 9BB2     		uxth	r3, r3
 2879 00c4 02FB01F2 		mul	r2, r2, r1
 2880              	.LVL409:
 2881 00c8 D21A     		subs	r2, r2, r3
 2882 00ca 00EB8300 		add	r0, r0, r3, lsl #2
 2883 00ce 9200     		lsls	r2, r2, #2
 2884 00d0 0021     		movs	r1, #0
 2885 00d2 FFF7FEFF 		bl	memset
 2886              	.LVL410:
 2887 00d6 A5E7     		b	.L240
 2888              	.LVL411:
 2889              	.L246:
 2890              	.LBE251:
 2891              	.LBB252:
 2892              	.LBB249:
 822:..\..\..\lvgl\version_6.1.2\lvgl\src\lv_objx/lv_table.c ****         h += get_row_height(table, i);
 2893              		.loc 1 822 0
 2894 00d8 8146     		mov	r9, r0
 2895 00da CDE7     		b	.L243
 2896              	.LBE249:
 2897              	.LBE252:
 2898              		.cfi_endproc
 2899              	.LFE35:
 2900              		.size	lv_table_set_row_cnt, .-lv_table_set_row_cnt
 2901              		.section	.text.lv_table_set_col_cnt,"ax",%progbits
 2902              		.align	2
 2903              		.global	lv_table_set_col_cnt
 2904              		.thumb
 2905              		.thumb_func
 2906              		.type	lv_table_set_col_cnt, %function
 2907              	lv_table_set_col_cnt:
 2908              	.LFB36:
 211:..\..\..\lvgl\version_6.1.2\lvgl\src\lv_objx/lv_table.c ****     LV_ASSERT_OBJ(table, LV_OBJX_NAME);
 2909              		.loc 1 211 0
 2910              		.cfi_startproc
 2911              		@ args = 0, pretend = 0, frame = 0
 2912              		@ frame_needed = 0, uses_anonymous_args = 0
 2913              	.LVL412:
 214:..\..\..\lvgl\version_6.1.2\lvgl\src\lv_objx/lv_table.c ****         LV_LOG_WARN("lv_table_set_col_cnt: too many columns. Must be < LV_TABLE_COL_MAX.");
 2914              		.loc 1 214 0
 2915 0000 0B29     		cmp	r1, #11
 2916 0002 00D9     		bls	.L277
ARM GAS  C:\Users\pearlstl\AppData\Local\Temp\ccIJtgHD.s 			page 77


 2917 0004 7047     		bx	lr
 2918              	.L277:
 211:..\..\..\lvgl\version_6.1.2\lvgl\src\lv_objx/lv_table.c ****     LV_ASSERT_OBJ(table, LV_OBJX_NAME);
 2919              		.loc 1 211 0
 2920 0006 2DE9F843 		push	{r3, r4, r5, r6, r7, r8, r9, lr}
 2921              		.cfi_def_cfa_offset 32
 2922              		.cfi_offset 3, -32
 2923              		.cfi_offset 4, -28
 2924              		.cfi_offset 5, -24
 2925              		.cfi_offset 6, -20
 2926              		.cfi_offset 7, -16
 2927              		.cfi_offset 8, -12
 2928              		.cfi_offset 9, -8
 2929              		.cfi_offset 14, -4
 2930 000a 0C46     		mov	r4, r1
 2931 000c 0746     		mov	r7, r0
 2932              	.LVL413:
 2933              	.LBB258:
 2934              	.LBB259:
 219:..\..\..\lvgl\version_6.1.2\lvgl\src\lv_objx/lv_table.c ****     uint16_t old_col_cnt = ext->col_cnt;
 2935              		.loc 1 219 0
 2936 000e FFF7FEFF 		bl	lv_obj_get_ext_attr
 2937              	.LVL414:
 223:..\..\..\lvgl\version_6.1.2\lvgl\src\lv_objx/lv_table.c ****         ext->cell_data = lv_mem_realloc(ext->cell_data, ext->row_cnt * ext->col_cnt * sizeof(char *
 2938              		.loc 1 223 0
 2939 0012 4188     		ldrh	r1, [r0, #2]
 220:..\..\..\lvgl\version_6.1.2\lvgl\src\lv_objx/lv_table.c ****     ext->col_cnt         = col_cnt;
 2940              		.loc 1 220 0
 2941 0014 0688     		ldrh	r6, [r0]
 221:..\..\..\lvgl\version_6.1.2\lvgl\src\lv_objx/lv_table.c **** 
 2942              		.loc 1 221 0
 2943 0016 0480     		strh	r4, [r0]	@ movhi
 219:..\..\..\lvgl\version_6.1.2\lvgl\src\lv_objx/lv_table.c ****     uint16_t old_col_cnt = ext->col_cnt;
 2944              		.loc 1 219 0
 2945 0018 0546     		mov	r5, r0
 2946              	.LVL415:
 223:..\..\..\lvgl\version_6.1.2\lvgl\src\lv_objx/lv_table.c ****         ext->cell_data = lv_mem_realloc(ext->cell_data, ext->row_cnt * ext->col_cnt * sizeof(char *
 2947              		.loc 1 223 0
 2948 001a 09B1     		cbz	r1, .L259
 2949 001c 002C     		cmp	r4, #0
 2950 001e 46D1     		bne	.L278
 2951              	.L259:
 233:..\..\..\lvgl\version_6.1.2\lvgl\src\lv_objx/lv_table.c ****         ext->cell_data = NULL;
 2952              		.loc 1 233 0
 2953 0020 6868     		ldr	r0, [r5, #4]
 2954              	.LVL416:
 2955 0022 FFF7FEFF 		bl	lv_mem_free
 2956              	.LVL417:
 234:..\..\..\lvgl\version_6.1.2\lvgl\src\lv_objx/lv_table.c ****     }
 2957              		.loc 1 234 0
 2958 0026 0023     		movs	r3, #0
 2959 0028 6B60     		str	r3, [r5, #4]
 2960              	.L260:
 2961              	.LVL418:
 2962              	.LBB260:
 2963              	.LBB261:
 816:..\..\..\lvgl\version_6.1.2\lvgl\src\lv_objx/lv_table.c **** 
ARM GAS  C:\Users\pearlstl\AppData\Local\Temp\ccIJtgHD.s 			page 78


 2964              		.loc 1 816 0
 2965 002a 3846     		mov	r0, r7
 2966 002c FFF7FEFF 		bl	lv_obj_get_ext_attr
 2967              	.LVL419:
 819:..\..\..\lvgl\version_6.1.2\lvgl\src\lv_objx/lv_table.c ****         w += ext->col_w[i];
 2968              		.loc 1 819 0
 2969 0030 0488     		ldrh	r4, [r0]
 2970              	.LVL420:
 816:..\..\..\lvgl\version_6.1.2\lvgl\src\lv_objx/lv_table.c **** 
 2971              		.loc 1 816 0
 2972 0032 8046     		mov	r8, r0
 2973              	.LVL421:
 819:..\..\..\lvgl\version_6.1.2\lvgl\src\lv_objx/lv_table.c ****         w += ext->col_w[i];
 2974              		.loc 1 819 0
 2975 0034 74B1     		cbz	r4, .L261
 2976 0036 601E     		subs	r0, r4, #1
 2977              	.LVL422:
 2978 0038 80B2     		uxth	r0, r0
 2979 003a 0C30     		adds	r0, r0, #12
 2980 003c 08EB4000 		add	r0, r8, r0, lsl #1
 2981 0040 08F11602 		add	r2, r8, #22
 2982 0044 0021     		movs	r1, #0
 2983              	.LVL423:
 2984              	.L262:
 820:..\..\..\lvgl\version_6.1.2\lvgl\src\lv_objx/lv_table.c ****     }
 2985              		.loc 1 820 0
 2986 0046 32F8023F 		ldrh	r3, [r2, #2]!
 2987 004a CC18     		adds	r4, r1, r3
 2988 004c A4B2     		uxth	r4, r4
 819:..\..\..\lvgl\version_6.1.2\lvgl\src\lv_objx/lv_table.c ****         w += ext->col_w[i];
 2989              		.loc 1 819 0
 2990 004e 9042     		cmp	r0, r2
 820:..\..\..\lvgl\version_6.1.2\lvgl\src\lv_objx/lv_table.c ****     }
 2991              		.loc 1 820 0
 2992 0050 21B2     		sxth	r1, r4
 2993              	.LVL424:
 819:..\..\..\lvgl\version_6.1.2\lvgl\src\lv_objx/lv_table.c ****         w += ext->col_w[i];
 2994              		.loc 1 819 0
 2995 0052 F8D1     		bne	.L262
 2996              	.LVL425:
 2997              	.L261:
 822:..\..\..\lvgl\version_6.1.2\lvgl\src\lv_objx/lv_table.c ****         h += get_row_height(table, i);
 2998              		.loc 1 822 0
 2999 0054 B8F80200 		ldrh	r0, [r8, #2]
 3000 0058 0028     		cmp	r0, #0
 3001 005a 40D0     		beq	.L266
 3002 005c 0026     		movs	r6, #0
 3003              	.LVL426:
 3004 005e 3546     		mov	r5, r6
 3005              	.LVL427:
 3006              	.L264:
 823:..\..\..\lvgl\version_6.1.2\lvgl\src\lv_objx/lv_table.c ****     }
 3007              		.loc 1 823 0
 3008 0060 2946     		mov	r1, r5
 3009 0062 3846     		mov	r0, r7
 3010 0064 FFF7FEFF 		bl	get_row_height
 3011              	.LVL428:
ARM GAS  C:\Users\pearlstl\AppData\Local\Temp\ccIJtgHD.s 			page 79


 822:..\..\..\lvgl\version_6.1.2\lvgl\src\lv_objx/lv_table.c ****         h += get_row_height(table, i);
 3012              		.loc 1 822 0
 3013 0068 0135     		adds	r5, r5, #1
 3014              	.LVL429:
