ARM GAS  C:\Users\pearlstl\AppData\Local\Temp\ccLZH6ci.s 			page 1


   1              		.syntax unified
   2              		.cpu cortex-m4
   3              		.eabi_attribute 27, 1
   4              		.fpu fpv4-sp-d16
   5              		.eabi_attribute 20, 1
   6              		.eabi_attribute 21, 1
   7              		.eabi_attribute 23, 3
   8              		.eabi_attribute 24, 1
   9              		.eabi_attribute 25, 1
  10              		.eabi_attribute 26, 1
  11              		.eabi_attribute 30, 2
  12              		.eabi_attribute 34, 1
  13              		.eabi_attribute 18, 4
  14              		.thumb
  15              		.syntax unified
  16              		.file	"lv_task.c"
  17              		.text
  18              	.Ltext0:
  19              		.cfi_sections	.debug_frame
  20              		.section	.text.lv_task_core_init,"ax",%progbits
  21              		.align	2
  22              		.global	lv_task_core_init
  23              		.thumb
  24              		.thumb_func
  25              		.type	lv_task_core_init, %function
  26              	lv_task_core_init:
  27              	.LFB31:
  28              		.file 1 "..\\..\\..\\lvgl\\version_6.1.2\\lvgl\\src\\lv_misc\\lv_task.c"
   1:..\..\..\lvgl\version_6.1.2\lvgl\src\lv_misc/lv_task.c **** /**
   2:..\..\..\lvgl\version_6.1.2\lvgl\src\lv_misc/lv_task.c ****  * @file lv_task.c
   3:..\..\..\lvgl\version_6.1.2\lvgl\src\lv_misc/lv_task.c ****  * An 'lv_task'  is a void (*fp) (void* param) type function which will be called periodically.
   4:..\..\..\lvgl\version_6.1.2\lvgl\src\lv_misc/lv_task.c ****  * A priority (5 levels + disable) can be assigned to lv_tasks.
   5:..\..\..\lvgl\version_6.1.2\lvgl\src\lv_misc/lv_task.c ****  */
   6:..\..\..\lvgl\version_6.1.2\lvgl\src\lv_misc/lv_task.c **** 
   7:..\..\..\lvgl\version_6.1.2\lvgl\src\lv_misc/lv_task.c **** /*********************
   8:..\..\..\lvgl\version_6.1.2\lvgl\src\lv_misc/lv_task.c ****  *      INCLUDES
   9:..\..\..\lvgl\version_6.1.2\lvgl\src\lv_misc/lv_task.c ****  *********************/
  10:..\..\..\lvgl\version_6.1.2\lvgl\src\lv_misc/lv_task.c **** #include <stddef.h>
  11:..\..\..\lvgl\version_6.1.2\lvgl\src\lv_misc/lv_task.c **** #include "lv_task.h"
  12:..\..\..\lvgl\version_6.1.2\lvgl\src\lv_misc/lv_task.c **** #include "../lv_core/lv_debug.h"
  13:..\..\..\lvgl\version_6.1.2\lvgl\src\lv_misc/lv_task.c **** #include "../lv_hal/lv_hal_tick.h"
  14:..\..\..\lvgl\version_6.1.2\lvgl\src\lv_misc/lv_task.c **** #include "lv_gc.h"
  15:..\..\..\lvgl\version_6.1.2\lvgl\src\lv_misc/lv_task.c **** 
  16:..\..\..\lvgl\version_6.1.2\lvgl\src\lv_misc/lv_task.c **** #if defined(LV_GC_INCLUDE)
  17:..\..\..\lvgl\version_6.1.2\lvgl\src\lv_misc/lv_task.c **** #include LV_GC_INCLUDE
  18:..\..\..\lvgl\version_6.1.2\lvgl\src\lv_misc/lv_task.c **** #endif /* LV_ENABLE_GC */
  19:..\..\..\lvgl\version_6.1.2\lvgl\src\lv_misc/lv_task.c **** 
  20:..\..\..\lvgl\version_6.1.2\lvgl\src\lv_misc/lv_task.c **** /*********************
  21:..\..\..\lvgl\version_6.1.2\lvgl\src\lv_misc/lv_task.c ****  *      DEFINES
  22:..\..\..\lvgl\version_6.1.2\lvgl\src\lv_misc/lv_task.c ****  *********************/
  23:..\..\..\lvgl\version_6.1.2\lvgl\src\lv_misc/lv_task.c **** #define IDLE_MEAS_PERIOD 500 /*[ms]*/
  24:..\..\..\lvgl\version_6.1.2\lvgl\src\lv_misc/lv_task.c **** #define DEF_PRIO LV_TASK_PRIO_MID
  25:..\..\..\lvgl\version_6.1.2\lvgl\src\lv_misc/lv_task.c **** #define DEF_PERIOD 500
  26:..\..\..\lvgl\version_6.1.2\lvgl\src\lv_misc/lv_task.c **** 
  27:..\..\..\lvgl\version_6.1.2\lvgl\src\lv_misc/lv_task.c **** /**********************
  28:..\..\..\lvgl\version_6.1.2\lvgl\src\lv_misc/lv_task.c ****  *      TYPEDEFS
  29:..\..\..\lvgl\version_6.1.2\lvgl\src\lv_misc/lv_task.c ****  **********************/
ARM GAS  C:\Users\pearlstl\AppData\Local\Temp\ccLZH6ci.s 			page 2


  30:..\..\..\lvgl\version_6.1.2\lvgl\src\lv_misc/lv_task.c **** 
  31:..\..\..\lvgl\version_6.1.2\lvgl\src\lv_misc/lv_task.c **** /**********************
  32:..\..\..\lvgl\version_6.1.2\lvgl\src\lv_misc/lv_task.c ****  *  STATIC PROTOTYPES
  33:..\..\..\lvgl\version_6.1.2\lvgl\src\lv_misc/lv_task.c ****  **********************/
  34:..\..\..\lvgl\version_6.1.2\lvgl\src\lv_misc/lv_task.c **** static bool lv_task_exec(lv_task_t * task);
  35:..\..\..\lvgl\version_6.1.2\lvgl\src\lv_misc/lv_task.c **** 
  36:..\..\..\lvgl\version_6.1.2\lvgl\src\lv_misc/lv_task.c **** /**********************
  37:..\..\..\lvgl\version_6.1.2\lvgl\src\lv_misc/lv_task.c ****  *  STATIC VARIABLES
  38:..\..\..\lvgl\version_6.1.2\lvgl\src\lv_misc/lv_task.c ****  **********************/
  39:..\..\..\lvgl\version_6.1.2\lvgl\src\lv_misc/lv_task.c **** static bool lv_task_run  = false;
  40:..\..\..\lvgl\version_6.1.2\lvgl\src\lv_misc/lv_task.c **** static uint8_t idle_last = 0;
  41:..\..\..\lvgl\version_6.1.2\lvgl\src\lv_misc/lv_task.c **** static bool task_deleted;
  42:..\..\..\lvgl\version_6.1.2\lvgl\src\lv_misc/lv_task.c **** static bool task_created;
  43:..\..\..\lvgl\version_6.1.2\lvgl\src\lv_misc/lv_task.c **** 
  44:..\..\..\lvgl\version_6.1.2\lvgl\src\lv_misc/lv_task.c **** /**********************
  45:..\..\..\lvgl\version_6.1.2\lvgl\src\lv_misc/lv_task.c ****  *      MACROS
  46:..\..\..\lvgl\version_6.1.2\lvgl\src\lv_misc/lv_task.c ****  **********************/
  47:..\..\..\lvgl\version_6.1.2\lvgl\src\lv_misc/lv_task.c **** 
  48:..\..\..\lvgl\version_6.1.2\lvgl\src\lv_misc/lv_task.c **** /**********************
  49:..\..\..\lvgl\version_6.1.2\lvgl\src\lv_misc/lv_task.c ****  *   GLOBAL FUNCTIONS
  50:..\..\..\lvgl\version_6.1.2\lvgl\src\lv_misc/lv_task.c ****  **********************/
  51:..\..\..\lvgl\version_6.1.2\lvgl\src\lv_misc/lv_task.c **** 
  52:..\..\..\lvgl\version_6.1.2\lvgl\src\lv_misc/lv_task.c **** /**
  53:..\..\..\lvgl\version_6.1.2\lvgl\src\lv_misc/lv_task.c ****  * Init the lv_task module
  54:..\..\..\lvgl\version_6.1.2\lvgl\src\lv_misc/lv_task.c ****  */
  55:..\..\..\lvgl\version_6.1.2\lvgl\src\lv_misc/lv_task.c **** void lv_task_core_init(void)
  56:..\..\..\lvgl\version_6.1.2\lvgl\src\lv_misc/lv_task.c **** {
  29              		.loc 1 56 0
  30              		.cfi_startproc
  31              		@ args = 0, pretend = 0, frame = 0
  32              		@ frame_needed = 0, uses_anonymous_args = 0
  33 0000 08B5     		push	{r3, lr}
  34              		.cfi_def_cfa_offset 8
  35              		.cfi_offset 3, -8
  36              		.cfi_offset 14, -4
  57:..\..\..\lvgl\version_6.1.2\lvgl\src\lv_misc/lv_task.c ****     lv_ll_init(&LV_GC_ROOT(_lv_task_ll), sizeof(lv_task_t));
  37              		.loc 1 57 0
  38 0002 1421     		movs	r1, #20
  39 0004 0348     		ldr	r0, .L3
  40 0006 FFF7FEFF 		bl	lv_ll_init
  41              	.LVL0:
  42              	.LBB8:
  43              	.LBB9:
  58:..\..\..\lvgl\version_6.1.2\lvgl\src\lv_misc/lv_task.c **** 
  59:..\..\..\lvgl\version_6.1.2\lvgl\src\lv_misc/lv_task.c ****     /*Initially enable the lv_task handling*/
  60:..\..\..\lvgl\version_6.1.2\lvgl\src\lv_misc/lv_task.c ****     lv_task_enable(true);
  61:..\..\..\lvgl\version_6.1.2\lvgl\src\lv_misc/lv_task.c **** }
  62:..\..\..\lvgl\version_6.1.2\lvgl\src\lv_misc/lv_task.c **** 
  63:..\..\..\lvgl\version_6.1.2\lvgl\src\lv_misc/lv_task.c **** /**
  64:..\..\..\lvgl\version_6.1.2\lvgl\src\lv_misc/lv_task.c ****  * Call it  periodically to handle lv_tasks.
  65:..\..\..\lvgl\version_6.1.2\lvgl\src\lv_misc/lv_task.c ****  */
  66:..\..\..\lvgl\version_6.1.2\lvgl\src\lv_misc/lv_task.c **** LV_ATTRIBUTE_TASK_HANDLER void lv_task_handler(void)
  67:..\..\..\lvgl\version_6.1.2\lvgl\src\lv_misc/lv_task.c **** {
  68:..\..\..\lvgl\version_6.1.2\lvgl\src\lv_misc/lv_task.c ****     LV_LOG_TRACE("lv_task_handler started");
  69:..\..\..\lvgl\version_6.1.2\lvgl\src\lv_misc/lv_task.c **** 
  70:..\..\..\lvgl\version_6.1.2\lvgl\src\lv_misc/lv_task.c ****     /*Avoid concurrent running of the task handler*/
  71:..\..\..\lvgl\version_6.1.2\lvgl\src\lv_misc/lv_task.c ****     static bool already_running = false;
ARM GAS  C:\Users\pearlstl\AppData\Local\Temp\ccLZH6ci.s 			page 3


  72:..\..\..\lvgl\version_6.1.2\lvgl\src\lv_misc/lv_task.c ****     if(already_running) return;
  73:..\..\..\lvgl\version_6.1.2\lvgl\src\lv_misc/lv_task.c ****     already_running = true;
  74:..\..\..\lvgl\version_6.1.2\lvgl\src\lv_misc/lv_task.c **** 
  75:..\..\..\lvgl\version_6.1.2\lvgl\src\lv_misc/lv_task.c ****     static uint32_t idle_period_start = 0;
  76:..\..\..\lvgl\version_6.1.2\lvgl\src\lv_misc/lv_task.c ****     static uint32_t handler_start     = 0;
  77:..\..\..\lvgl\version_6.1.2\lvgl\src\lv_misc/lv_task.c ****     static uint32_t busy_time         = 0;
  78:..\..\..\lvgl\version_6.1.2\lvgl\src\lv_misc/lv_task.c **** 
  79:..\..\..\lvgl\version_6.1.2\lvgl\src\lv_misc/lv_task.c ****     if(lv_task_run == false) {
  80:..\..\..\lvgl\version_6.1.2\lvgl\src\lv_misc/lv_task.c ****         already_running = false; /*Release mutex*/
  81:..\..\..\lvgl\version_6.1.2\lvgl\src\lv_misc/lv_task.c ****         return;
  82:..\..\..\lvgl\version_6.1.2\lvgl\src\lv_misc/lv_task.c ****     }
  83:..\..\..\lvgl\version_6.1.2\lvgl\src\lv_misc/lv_task.c **** 
  84:..\..\..\lvgl\version_6.1.2\lvgl\src\lv_misc/lv_task.c ****     handler_start = lv_tick_get();
  85:..\..\..\lvgl\version_6.1.2\lvgl\src\lv_misc/lv_task.c **** 
  86:..\..\..\lvgl\version_6.1.2\lvgl\src\lv_misc/lv_task.c ****     /* Run all task from the highest to the lowest priority
  87:..\..\..\lvgl\version_6.1.2\lvgl\src\lv_misc/lv_task.c ****      * If a lower priority task is executed check task again from the highest priority
  88:..\..\..\lvgl\version_6.1.2\lvgl\src\lv_misc/lv_task.c ****      * but on the priority of executed tasks don't run tasks before the executed*/
  89:..\..\..\lvgl\version_6.1.2\lvgl\src\lv_misc/lv_task.c ****     lv_task_t * task_interrupter = NULL;
  90:..\..\..\lvgl\version_6.1.2\lvgl\src\lv_misc/lv_task.c ****     lv_task_t * next;
  91:..\..\..\lvgl\version_6.1.2\lvgl\src\lv_misc/lv_task.c ****     bool end_flag;
  92:..\..\..\lvgl\version_6.1.2\lvgl\src\lv_misc/lv_task.c ****     do {
  93:..\..\..\lvgl\version_6.1.2\lvgl\src\lv_misc/lv_task.c ****         end_flag                 = true;
  94:..\..\..\lvgl\version_6.1.2\lvgl\src\lv_misc/lv_task.c ****         task_deleted             = false;
  95:..\..\..\lvgl\version_6.1.2\lvgl\src\lv_misc/lv_task.c ****         task_created             = false;
  96:..\..\..\lvgl\version_6.1.2\lvgl\src\lv_misc/lv_task.c ****         LV_GC_ROOT(_lv_task_act) = lv_ll_get_head(&LV_GC_ROOT(_lv_task_ll));
  97:..\..\..\lvgl\version_6.1.2\lvgl\src\lv_misc/lv_task.c ****         while(LV_GC_ROOT(_lv_task_act)) {
  98:..\..\..\lvgl\version_6.1.2\lvgl\src\lv_misc/lv_task.c ****             /* The task might be deleted if it runs only once ('once = 1')
  99:..\..\..\lvgl\version_6.1.2\lvgl\src\lv_misc/lv_task.c ****              * So get next element until the current is surely valid*/
 100:..\..\..\lvgl\version_6.1.2\lvgl\src\lv_misc/lv_task.c ****             next = lv_ll_get_next(&LV_GC_ROOT(_lv_task_ll), LV_GC_ROOT(_lv_task_act));
 101:..\..\..\lvgl\version_6.1.2\lvgl\src\lv_misc/lv_task.c **** 
 102:..\..\..\lvgl\version_6.1.2\lvgl\src\lv_misc/lv_task.c ****             /*We reach priority of the turned off task. There is nothing more to do.*/
 103:..\..\..\lvgl\version_6.1.2\lvgl\src\lv_misc/lv_task.c ****             if(((lv_task_t *)LV_GC_ROOT(_lv_task_act))->prio == LV_TASK_PRIO_OFF) {
 104:..\..\..\lvgl\version_6.1.2\lvgl\src\lv_misc/lv_task.c ****                 break;
 105:..\..\..\lvgl\version_6.1.2\lvgl\src\lv_misc/lv_task.c ****             }
 106:..\..\..\lvgl\version_6.1.2\lvgl\src\lv_misc/lv_task.c **** 
 107:..\..\..\lvgl\version_6.1.2\lvgl\src\lv_misc/lv_task.c ****             /*Here is the interrupter task. Don't execute it again.*/
 108:..\..\..\lvgl\version_6.1.2\lvgl\src\lv_misc/lv_task.c ****             if(LV_GC_ROOT(_lv_task_act) == task_interrupter) {
 109:..\..\..\lvgl\version_6.1.2\lvgl\src\lv_misc/lv_task.c ****                 task_interrupter = NULL; /*From this point only task after the interrupter comes, s
 110:..\..\..\lvgl\version_6.1.2\lvgl\src\lv_misc/lv_task.c ****                                             the interrupter is not interesting anymore*/
 111:..\..\..\lvgl\version_6.1.2\lvgl\src\lv_misc/lv_task.c ****                 LV_GC_ROOT(_lv_task_act) = next;
 112:..\..\..\lvgl\version_6.1.2\lvgl\src\lv_misc/lv_task.c ****                 continue; /*Load the next task*/
 113:..\..\..\lvgl\version_6.1.2\lvgl\src\lv_misc/lv_task.c ****             }
 114:..\..\..\lvgl\version_6.1.2\lvgl\src\lv_misc/lv_task.c **** 
 115:..\..\..\lvgl\version_6.1.2\lvgl\src\lv_misc/lv_task.c ****             /*Just try to run the tasks with highest priority.*/
 116:..\..\..\lvgl\version_6.1.2\lvgl\src\lv_misc/lv_task.c ****             if(((lv_task_t *)LV_GC_ROOT(_lv_task_act))->prio == LV_TASK_PRIO_HIGHEST) {
 117:..\..\..\lvgl\version_6.1.2\lvgl\src\lv_misc/lv_task.c ****                 lv_task_exec(LV_GC_ROOT(_lv_task_act));
 118:..\..\..\lvgl\version_6.1.2\lvgl\src\lv_misc/lv_task.c ****             }
 119:..\..\..\lvgl\version_6.1.2\lvgl\src\lv_misc/lv_task.c ****             /*Tasks with higher priority than the interrupted shall be run in every case*/
 120:..\..\..\lvgl\version_6.1.2\lvgl\src\lv_misc/lv_task.c ****             else if(task_interrupter) {
 121:..\..\..\lvgl\version_6.1.2\lvgl\src\lv_misc/lv_task.c ****                 if(((lv_task_t *)LV_GC_ROOT(_lv_task_act))->prio > task_interrupter->prio) {
 122:..\..\..\lvgl\version_6.1.2\lvgl\src\lv_misc/lv_task.c ****                     if(lv_task_exec(LV_GC_ROOT(_lv_task_act))) {
 123:..\..\..\lvgl\version_6.1.2\lvgl\src\lv_misc/lv_task.c ****                         if(!task_created && !task_deleted) {
 124:..\..\..\lvgl\version_6.1.2\lvgl\src\lv_misc/lv_task.c ****                             /*Check all tasks again from the highest priority */
 125:..\..\..\lvgl\version_6.1.2\lvgl\src\lv_misc/lv_task.c ****                             task_interrupter = LV_GC_ROOT(_lv_task_act);
 126:..\..\..\lvgl\version_6.1.2\lvgl\src\lv_misc/lv_task.c ****                             end_flag = false;
 127:..\..\..\lvgl\version_6.1.2\lvgl\src\lv_misc/lv_task.c ****                             break;
 128:..\..\..\lvgl\version_6.1.2\lvgl\src\lv_misc/lv_task.c ****                         }
ARM GAS  C:\Users\pearlstl\AppData\Local\Temp\ccLZH6ci.s 			page 4


 129:..\..\..\lvgl\version_6.1.2\lvgl\src\lv_misc/lv_task.c ****                     }
 130:..\..\..\lvgl\version_6.1.2\lvgl\src\lv_misc/lv_task.c ****                 }
 131:..\..\..\lvgl\version_6.1.2\lvgl\src\lv_misc/lv_task.c ****             }
 132:..\..\..\lvgl\version_6.1.2\lvgl\src\lv_misc/lv_task.c ****             /* It is no interrupter task or we already reached it earlier.
 133:..\..\..\lvgl\version_6.1.2\lvgl\src\lv_misc/lv_task.c ****              * Just run the remaining tasks*/
 134:..\..\..\lvgl\version_6.1.2\lvgl\src\lv_misc/lv_task.c ****             else {
 135:..\..\..\lvgl\version_6.1.2\lvgl\src\lv_misc/lv_task.c ****                 if(lv_task_exec(LV_GC_ROOT(_lv_task_act))) {
 136:..\..\..\lvgl\version_6.1.2\lvgl\src\lv_misc/lv_task.c ****                     if(!task_created && !task_deleted) {
 137:..\..\..\lvgl\version_6.1.2\lvgl\src\lv_misc/lv_task.c ****                         task_interrupter = LV_GC_ROOT(_lv_task_act); /*Check all tasks again from t
 138:..\..\..\lvgl\version_6.1.2\lvgl\src\lv_misc/lv_task.c ****                         end_flag         = false;
 139:..\..\..\lvgl\version_6.1.2\lvgl\src\lv_misc/lv_task.c ****                         break;
 140:..\..\..\lvgl\version_6.1.2\lvgl\src\lv_misc/lv_task.c ****                     }
 141:..\..\..\lvgl\version_6.1.2\lvgl\src\lv_misc/lv_task.c ****                 }
 142:..\..\..\lvgl\version_6.1.2\lvgl\src\lv_misc/lv_task.c ****             }
 143:..\..\..\lvgl\version_6.1.2\lvgl\src\lv_misc/lv_task.c **** 
 144:..\..\..\lvgl\version_6.1.2\lvgl\src\lv_misc/lv_task.c ****             /*If a task was created or deleted then this or the next item might be corrupted*/
 145:..\..\..\lvgl\version_6.1.2\lvgl\src\lv_misc/lv_task.c ****             if(task_created || task_deleted) {
 146:..\..\..\lvgl\version_6.1.2\lvgl\src\lv_misc/lv_task.c ****                 task_interrupter = NULL;
 147:..\..\..\lvgl\version_6.1.2\lvgl\src\lv_misc/lv_task.c ****                 break;
 148:..\..\..\lvgl\version_6.1.2\lvgl\src\lv_misc/lv_task.c ****             }
 149:..\..\..\lvgl\version_6.1.2\lvgl\src\lv_misc/lv_task.c **** 
 150:..\..\..\lvgl\version_6.1.2\lvgl\src\lv_misc/lv_task.c ****             LV_GC_ROOT(_lv_task_act) = next; /*Load the next task*/
 151:..\..\..\lvgl\version_6.1.2\lvgl\src\lv_misc/lv_task.c ****         }
 152:..\..\..\lvgl\version_6.1.2\lvgl\src\lv_misc/lv_task.c ****     } while(!end_flag);
 153:..\..\..\lvgl\version_6.1.2\lvgl\src\lv_misc/lv_task.c **** 
 154:..\..\..\lvgl\version_6.1.2\lvgl\src\lv_misc/lv_task.c ****     busy_time += lv_tick_elaps(handler_start);
 155:..\..\..\lvgl\version_6.1.2\lvgl\src\lv_misc/lv_task.c ****     uint32_t idle_period_time = lv_tick_elaps(idle_period_start);
 156:..\..\..\lvgl\version_6.1.2\lvgl\src\lv_misc/lv_task.c ****     if(idle_period_time >= IDLE_MEAS_PERIOD) {
 157:..\..\..\lvgl\version_6.1.2\lvgl\src\lv_misc/lv_task.c **** 
 158:..\..\..\lvgl\version_6.1.2\lvgl\src\lv_misc/lv_task.c ****         idle_last         = (uint32_t)((uint32_t)busy_time * 100) / IDLE_MEAS_PERIOD; /*Calculate t
 159:..\..\..\lvgl\version_6.1.2\lvgl\src\lv_misc/lv_task.c ****         idle_last         = idle_last > 100 ? 0 : 100 - idle_last;                    /*But we need
 160:..\..\..\lvgl\version_6.1.2\lvgl\src\lv_misc/lv_task.c ****         busy_time         = 0;
 161:..\..\..\lvgl\version_6.1.2\lvgl\src\lv_misc/lv_task.c ****         idle_period_start = lv_tick_get();
 162:..\..\..\lvgl\version_6.1.2\lvgl\src\lv_misc/lv_task.c ****     }
 163:..\..\..\lvgl\version_6.1.2\lvgl\src\lv_misc/lv_task.c **** 
 164:..\..\..\lvgl\version_6.1.2\lvgl\src\lv_misc/lv_task.c ****     already_running = false; /*Release the mutex*/
 165:..\..\..\lvgl\version_6.1.2\lvgl\src\lv_misc/lv_task.c **** 
 166:..\..\..\lvgl\version_6.1.2\lvgl\src\lv_misc/lv_task.c ****     LV_LOG_TRACE("lv_task_handler ready");
 167:..\..\..\lvgl\version_6.1.2\lvgl\src\lv_misc/lv_task.c **** }
 168:..\..\..\lvgl\version_6.1.2\lvgl\src\lv_misc/lv_task.c **** /**
 169:..\..\..\lvgl\version_6.1.2\lvgl\src\lv_misc/lv_task.c ****  * Create an "empty" task. It needs to initialzed with at least
 170:..\..\..\lvgl\version_6.1.2\lvgl\src\lv_misc/lv_task.c ****  * `lv_task_set_cb` and `lv_task_set_period`
 171:..\..\..\lvgl\version_6.1.2\lvgl\src\lv_misc/lv_task.c ****  * @return pointer to the craeted task
 172:..\..\..\lvgl\version_6.1.2\lvgl\src\lv_misc/lv_task.c ****  */
 173:..\..\..\lvgl\version_6.1.2\lvgl\src\lv_misc/lv_task.c **** lv_task_t * lv_task_create_basic(void)
 174:..\..\..\lvgl\version_6.1.2\lvgl\src\lv_misc/lv_task.c **** {
 175:..\..\..\lvgl\version_6.1.2\lvgl\src\lv_misc/lv_task.c ****     lv_task_t * new_task = NULL;
 176:..\..\..\lvgl\version_6.1.2\lvgl\src\lv_misc/lv_task.c ****     lv_task_t * tmp;
 177:..\..\..\lvgl\version_6.1.2\lvgl\src\lv_misc/lv_task.c **** 
 178:..\..\..\lvgl\version_6.1.2\lvgl\src\lv_misc/lv_task.c ****     /*Create task lists in order of priority from high to low*/
 179:..\..\..\lvgl\version_6.1.2\lvgl\src\lv_misc/lv_task.c ****     tmp = lv_ll_get_head(&LV_GC_ROOT(_lv_task_ll));
 180:..\..\..\lvgl\version_6.1.2\lvgl\src\lv_misc/lv_task.c **** 
 181:..\..\..\lvgl\version_6.1.2\lvgl\src\lv_misc/lv_task.c ****     /*It's the first task*/
 182:..\..\..\lvgl\version_6.1.2\lvgl\src\lv_misc/lv_task.c ****     if(NULL == tmp) {
 183:..\..\..\lvgl\version_6.1.2\lvgl\src\lv_misc/lv_task.c ****         new_task = lv_ll_ins_head(&LV_GC_ROOT(_lv_task_ll));
 184:..\..\..\lvgl\version_6.1.2\lvgl\src\lv_misc/lv_task.c ****         LV_ASSERT_MEM(new_task);
 185:..\..\..\lvgl\version_6.1.2\lvgl\src\lv_misc/lv_task.c ****         if(new_task == NULL) return NULL;
ARM GAS  C:\Users\pearlstl\AppData\Local\Temp\ccLZH6ci.s 			page 5


 186:..\..\..\lvgl\version_6.1.2\lvgl\src\lv_misc/lv_task.c ****     }
 187:..\..\..\lvgl\version_6.1.2\lvgl\src\lv_misc/lv_task.c ****     /*Insert the new task to proper place according to its priority*/
 188:..\..\..\lvgl\version_6.1.2\lvgl\src\lv_misc/lv_task.c ****     else {
 189:..\..\..\lvgl\version_6.1.2\lvgl\src\lv_misc/lv_task.c ****         do {
 190:..\..\..\lvgl\version_6.1.2\lvgl\src\lv_misc/lv_task.c ****             if(tmp->prio <= DEF_PRIO) {
 191:..\..\..\lvgl\version_6.1.2\lvgl\src\lv_misc/lv_task.c ****                 new_task = lv_ll_ins_prev(&LV_GC_ROOT(_lv_task_ll), tmp);
 192:..\..\..\lvgl\version_6.1.2\lvgl\src\lv_misc/lv_task.c ****                 LV_ASSERT_MEM(new_task);
 193:..\..\..\lvgl\version_6.1.2\lvgl\src\lv_misc/lv_task.c ****                 if(new_task == NULL) return NULL;
 194:..\..\..\lvgl\version_6.1.2\lvgl\src\lv_misc/lv_task.c ****                 break;
 195:..\..\..\lvgl\version_6.1.2\lvgl\src\lv_misc/lv_task.c ****             }
 196:..\..\..\lvgl\version_6.1.2\lvgl\src\lv_misc/lv_task.c ****             tmp = lv_ll_get_next(&LV_GC_ROOT(_lv_task_ll), tmp);
 197:..\..\..\lvgl\version_6.1.2\lvgl\src\lv_misc/lv_task.c ****         } while(tmp != NULL);
 198:..\..\..\lvgl\version_6.1.2\lvgl\src\lv_misc/lv_task.c **** 
 199:..\..\..\lvgl\version_6.1.2\lvgl\src\lv_misc/lv_task.c ****         /*Only too high priority tasks were found. Add the task to the end*/
 200:..\..\..\lvgl\version_6.1.2\lvgl\src\lv_misc/lv_task.c ****         if(tmp == NULL) {
 201:..\..\..\lvgl\version_6.1.2\lvgl\src\lv_misc/lv_task.c ****             new_task = lv_ll_ins_tail(&LV_GC_ROOT(_lv_task_ll));
 202:..\..\..\lvgl\version_6.1.2\lvgl\src\lv_misc/lv_task.c ****             LV_ASSERT_MEM(new_task);
 203:..\..\..\lvgl\version_6.1.2\lvgl\src\lv_misc/lv_task.c ****             if(new_task == NULL) return NULL;
 204:..\..\..\lvgl\version_6.1.2\lvgl\src\lv_misc/lv_task.c ****         }
 205:..\..\..\lvgl\version_6.1.2\lvgl\src\lv_misc/lv_task.c ****     }
 206:..\..\..\lvgl\version_6.1.2\lvgl\src\lv_misc/lv_task.c **** 
 207:..\..\..\lvgl\version_6.1.2\lvgl\src\lv_misc/lv_task.c ****     new_task->period  = DEF_PERIOD;
 208:..\..\..\lvgl\version_6.1.2\lvgl\src\lv_misc/lv_task.c ****     new_task->task_cb = NULL;
 209:..\..\..\lvgl\version_6.1.2\lvgl\src\lv_misc/lv_task.c ****     new_task->prio    = DEF_PRIO;
 210:..\..\..\lvgl\version_6.1.2\lvgl\src\lv_misc/lv_task.c **** 
 211:..\..\..\lvgl\version_6.1.2\lvgl\src\lv_misc/lv_task.c ****     new_task->once     = 0;
 212:..\..\..\lvgl\version_6.1.2\lvgl\src\lv_misc/lv_task.c ****     new_task->last_run = lv_tick_get();
 213:..\..\..\lvgl\version_6.1.2\lvgl\src\lv_misc/lv_task.c **** 
 214:..\..\..\lvgl\version_6.1.2\lvgl\src\lv_misc/lv_task.c ****     new_task->user_data = NULL;
 215:..\..\..\lvgl\version_6.1.2\lvgl\src\lv_misc/lv_task.c **** 
 216:..\..\..\lvgl\version_6.1.2\lvgl\src\lv_misc/lv_task.c ****     task_created = true;
 217:..\..\..\lvgl\version_6.1.2\lvgl\src\lv_misc/lv_task.c **** 
 218:..\..\..\lvgl\version_6.1.2\lvgl\src\lv_misc/lv_task.c ****     return new_task;
 219:..\..\..\lvgl\version_6.1.2\lvgl\src\lv_misc/lv_task.c **** }
 220:..\..\..\lvgl\version_6.1.2\lvgl\src\lv_misc/lv_task.c **** 
 221:..\..\..\lvgl\version_6.1.2\lvgl\src\lv_misc/lv_task.c **** /**
 222:..\..\..\lvgl\version_6.1.2\lvgl\src\lv_misc/lv_task.c ****  * Create a new lv_task
 223:..\..\..\lvgl\version_6.1.2\lvgl\src\lv_misc/lv_task.c ****  * @param task_xcb a callback which is the task itself. It will be called periodically.
 224:..\..\..\lvgl\version_6.1.2\lvgl\src\lv_misc/lv_task.c ****  *                 (the 'x' in the argument name indicates that its not a fully generic function be
 225:..\..\..\lvgl\version_6.1.2\lvgl\src\lv_misc/lv_task.c ****  *                  the `func_name(object, callback, ...)` convention)
 226:..\..\..\lvgl\version_6.1.2\lvgl\src\lv_misc/lv_task.c ****  * @param period call period in ms unit
 227:..\..\..\lvgl\version_6.1.2\lvgl\src\lv_misc/lv_task.c ****  * @param prio priority of the task (LV_TASK_PRIO_OFF means the task is stopped)
 228:..\..\..\lvgl\version_6.1.2\lvgl\src\lv_misc/lv_task.c ****  * @param user_data custom parameter
 229:..\..\..\lvgl\version_6.1.2\lvgl\src\lv_misc/lv_task.c ****  * @return pointer to the new task
 230:..\..\..\lvgl\version_6.1.2\lvgl\src\lv_misc/lv_task.c ****  */
 231:..\..\..\lvgl\version_6.1.2\lvgl\src\lv_misc/lv_task.c **** lv_task_t * lv_task_create(lv_task_cb_t task_cb, uint32_t period, lv_task_prio_t prio, void * user_
 232:..\..\..\lvgl\version_6.1.2\lvgl\src\lv_misc/lv_task.c **** {
 233:..\..\..\lvgl\version_6.1.2\lvgl\src\lv_misc/lv_task.c ****     lv_task_t * new_task = lv_task_create_basic();
 234:..\..\..\lvgl\version_6.1.2\lvgl\src\lv_misc/lv_task.c ****     LV_ASSERT_MEM(new_task);
 235:..\..\..\lvgl\version_6.1.2\lvgl\src\lv_misc/lv_task.c ****     if(new_task == NULL) return NULL;
 236:..\..\..\lvgl\version_6.1.2\lvgl\src\lv_misc/lv_task.c **** 
 237:..\..\..\lvgl\version_6.1.2\lvgl\src\lv_misc/lv_task.c ****     lv_task_set_cb(new_task, task_cb);
 238:..\..\..\lvgl\version_6.1.2\lvgl\src\lv_misc/lv_task.c ****     lv_task_set_period(new_task, period);
 239:..\..\..\lvgl\version_6.1.2\lvgl\src\lv_misc/lv_task.c ****     lv_task_set_prio(new_task, prio);
 240:..\..\..\lvgl\version_6.1.2\lvgl\src\lv_misc/lv_task.c ****     new_task->user_data = user_data;
 241:..\..\..\lvgl\version_6.1.2\lvgl\src\lv_misc/lv_task.c **** 
 242:..\..\..\lvgl\version_6.1.2\lvgl\src\lv_misc/lv_task.c ****     return new_task;
ARM GAS  C:\Users\pearlstl\AppData\Local\Temp\ccLZH6ci.s 			page 6


 243:..\..\..\lvgl\version_6.1.2\lvgl\src\lv_misc/lv_task.c **** }
 244:..\..\..\lvgl\version_6.1.2\lvgl\src\lv_misc/lv_task.c **** 
 245:..\..\..\lvgl\version_6.1.2\lvgl\src\lv_misc/lv_task.c **** /**
 246:..\..\..\lvgl\version_6.1.2\lvgl\src\lv_misc/lv_task.c ****  * Set the callback the task (the function to call periodically)
 247:..\..\..\lvgl\version_6.1.2\lvgl\src\lv_misc/lv_task.c ****  * @param task pointer to a task
 248:..\..\..\lvgl\version_6.1.2\lvgl\src\lv_misc/lv_task.c ****  * @param task_cb teh function to call periodically
 249:..\..\..\lvgl\version_6.1.2\lvgl\src\lv_misc/lv_task.c ****  */
 250:..\..\..\lvgl\version_6.1.2\lvgl\src\lv_misc/lv_task.c **** void lv_task_set_cb(lv_task_t * task, lv_task_cb_t task_cb)
 251:..\..\..\lvgl\version_6.1.2\lvgl\src\lv_misc/lv_task.c **** {
 252:..\..\..\lvgl\version_6.1.2\lvgl\src\lv_misc/lv_task.c ****     task->task_cb = task_cb;
 253:..\..\..\lvgl\version_6.1.2\lvgl\src\lv_misc/lv_task.c **** }
 254:..\..\..\lvgl\version_6.1.2\lvgl\src\lv_misc/lv_task.c **** 
 255:..\..\..\lvgl\version_6.1.2\lvgl\src\lv_misc/lv_task.c **** /**
 256:..\..\..\lvgl\version_6.1.2\lvgl\src\lv_misc/lv_task.c ****  * Delete a lv_task
 257:..\..\..\lvgl\version_6.1.2\lvgl\src\lv_misc/lv_task.c ****  * @param task pointer to task created by task
 258:..\..\..\lvgl\version_6.1.2\lvgl\src\lv_misc/lv_task.c ****  */
 259:..\..\..\lvgl\version_6.1.2\lvgl\src\lv_misc/lv_task.c **** void lv_task_del(lv_task_t * task)
 260:..\..\..\lvgl\version_6.1.2\lvgl\src\lv_misc/lv_task.c **** {
 261:..\..\..\lvgl\version_6.1.2\lvgl\src\lv_misc/lv_task.c ****     lv_ll_rem(&LV_GC_ROOT(_lv_task_ll), task);
 262:..\..\..\lvgl\version_6.1.2\lvgl\src\lv_misc/lv_task.c **** 
 263:..\..\..\lvgl\version_6.1.2\lvgl\src\lv_misc/lv_task.c ****     lv_mem_free(task);
 264:..\..\..\lvgl\version_6.1.2\lvgl\src\lv_misc/lv_task.c **** 
 265:..\..\..\lvgl\version_6.1.2\lvgl\src\lv_misc/lv_task.c ****     if(LV_GC_ROOT(_lv_task_act) == task) task_deleted = true; /*The active task was deleted*/
 266:..\..\..\lvgl\version_6.1.2\lvgl\src\lv_misc/lv_task.c **** }
 267:..\..\..\lvgl\version_6.1.2\lvgl\src\lv_misc/lv_task.c **** 
 268:..\..\..\lvgl\version_6.1.2\lvgl\src\lv_misc/lv_task.c **** /**
 269:..\..\..\lvgl\version_6.1.2\lvgl\src\lv_misc/lv_task.c ****  * Set new priority for a lv_task
 270:..\..\..\lvgl\version_6.1.2\lvgl\src\lv_misc/lv_task.c ****  * @param task pointer to a lv_task
 271:..\..\..\lvgl\version_6.1.2\lvgl\src\lv_misc/lv_task.c ****  * @param prio the new priority
 272:..\..\..\lvgl\version_6.1.2\lvgl\src\lv_misc/lv_task.c ****  */
 273:..\..\..\lvgl\version_6.1.2\lvgl\src\lv_misc/lv_task.c **** void lv_task_set_prio(lv_task_t * task, lv_task_prio_t prio)
 274:..\..\..\lvgl\version_6.1.2\lvgl\src\lv_misc/lv_task.c **** {
 275:..\..\..\lvgl\version_6.1.2\lvgl\src\lv_misc/lv_task.c ****     if(task->prio == prio) return;
 276:..\..\..\lvgl\version_6.1.2\lvgl\src\lv_misc/lv_task.c **** 
 277:..\..\..\lvgl\version_6.1.2\lvgl\src\lv_misc/lv_task.c ****     /*Find the tasks with new priority*/
 278:..\..\..\lvgl\version_6.1.2\lvgl\src\lv_misc/lv_task.c ****     lv_task_t * i;
 279:..\..\..\lvgl\version_6.1.2\lvgl\src\lv_misc/lv_task.c ****     LV_LL_READ(LV_GC_ROOT(_lv_task_ll), i)
 280:..\..\..\lvgl\version_6.1.2\lvgl\src\lv_misc/lv_task.c ****     {
 281:..\..\..\lvgl\version_6.1.2\lvgl\src\lv_misc/lv_task.c ****         if(i->prio <= prio) {
 282:..\..\..\lvgl\version_6.1.2\lvgl\src\lv_misc/lv_task.c ****             if(i != task) lv_ll_move_before(&LV_GC_ROOT(_lv_task_ll), task, i);
 283:..\..\..\lvgl\version_6.1.2\lvgl\src\lv_misc/lv_task.c ****             break;
 284:..\..\..\lvgl\version_6.1.2\lvgl\src\lv_misc/lv_task.c ****         }
 285:..\..\..\lvgl\version_6.1.2\lvgl\src\lv_misc/lv_task.c ****     }
 286:..\..\..\lvgl\version_6.1.2\lvgl\src\lv_misc/lv_task.c **** 
 287:..\..\..\lvgl\version_6.1.2\lvgl\src\lv_misc/lv_task.c ****     /*There was no such a low priority so far then add the node to the tail*/
 288:..\..\..\lvgl\version_6.1.2\lvgl\src\lv_misc/lv_task.c ****     if(i == NULL) {
 289:..\..\..\lvgl\version_6.1.2\lvgl\src\lv_misc/lv_task.c ****         lv_ll_move_before(&LV_GC_ROOT(_lv_task_ll), task, NULL);
 290:..\..\..\lvgl\version_6.1.2\lvgl\src\lv_misc/lv_task.c ****     }
 291:..\..\..\lvgl\version_6.1.2\lvgl\src\lv_misc/lv_task.c **** 
 292:..\..\..\lvgl\version_6.1.2\lvgl\src\lv_misc/lv_task.c ****     task->prio = prio;
 293:..\..\..\lvgl\version_6.1.2\lvgl\src\lv_misc/lv_task.c **** }
 294:..\..\..\lvgl\version_6.1.2\lvgl\src\lv_misc/lv_task.c **** 
 295:..\..\..\lvgl\version_6.1.2\lvgl\src\lv_misc/lv_task.c **** /**
 296:..\..\..\lvgl\version_6.1.2\lvgl\src\lv_misc/lv_task.c ****  * Set new period for a lv_task
 297:..\..\..\lvgl\version_6.1.2\lvgl\src\lv_misc/lv_task.c ****  * @param task pointer to a lv_task
 298:..\..\..\lvgl\version_6.1.2\lvgl\src\lv_misc/lv_task.c ****  * @param period the new period
 299:..\..\..\lvgl\version_6.1.2\lvgl\src\lv_misc/lv_task.c ****  */
ARM GAS  C:\Users\pearlstl\AppData\Local\Temp\ccLZH6ci.s 			page 7


 300:..\..\..\lvgl\version_6.1.2\lvgl\src\lv_misc/lv_task.c **** void lv_task_set_period(lv_task_t * task, uint32_t period)
 301:..\..\..\lvgl\version_6.1.2\lvgl\src\lv_misc/lv_task.c **** {
 302:..\..\..\lvgl\version_6.1.2\lvgl\src\lv_misc/lv_task.c ****     task->period = period;
 303:..\..\..\lvgl\version_6.1.2\lvgl\src\lv_misc/lv_task.c **** }
 304:..\..\..\lvgl\version_6.1.2\lvgl\src\lv_misc/lv_task.c **** 
 305:..\..\..\lvgl\version_6.1.2\lvgl\src\lv_misc/lv_task.c **** /**
 306:..\..\..\lvgl\version_6.1.2\lvgl\src\lv_misc/lv_task.c ****  * Make a lv_task ready. It will not wait its period.
 307:..\..\..\lvgl\version_6.1.2\lvgl\src\lv_misc/lv_task.c ****  * @param task pointer to a lv_task.
 308:..\..\..\lvgl\version_6.1.2\lvgl\src\lv_misc/lv_task.c ****  */
 309:..\..\..\lvgl\version_6.1.2\lvgl\src\lv_misc/lv_task.c **** void lv_task_ready(lv_task_t * task)
 310:..\..\..\lvgl\version_6.1.2\lvgl\src\lv_misc/lv_task.c **** {
 311:..\..\..\lvgl\version_6.1.2\lvgl\src\lv_misc/lv_task.c ****     task->last_run = lv_tick_get() - task->period - 1;
 312:..\..\..\lvgl\version_6.1.2\lvgl\src\lv_misc/lv_task.c **** }
 313:..\..\..\lvgl\version_6.1.2\lvgl\src\lv_misc/lv_task.c **** 
 314:..\..\..\lvgl\version_6.1.2\lvgl\src\lv_misc/lv_task.c **** /**
 315:..\..\..\lvgl\version_6.1.2\lvgl\src\lv_misc/lv_task.c ****  * Delete the lv_task after one call
 316:..\..\..\lvgl\version_6.1.2\lvgl\src\lv_misc/lv_task.c ****  * @param task pointer to a lv_task.
 317:..\..\..\lvgl\version_6.1.2\lvgl\src\lv_misc/lv_task.c ****  */
 318:..\..\..\lvgl\version_6.1.2\lvgl\src\lv_misc/lv_task.c **** void lv_task_once(lv_task_t * task)
 319:..\..\..\lvgl\version_6.1.2\lvgl\src\lv_misc/lv_task.c **** {
 320:..\..\..\lvgl\version_6.1.2\lvgl\src\lv_misc/lv_task.c ****     task->once = 1;
 321:..\..\..\lvgl\version_6.1.2\lvgl\src\lv_misc/lv_task.c **** }
 322:..\..\..\lvgl\version_6.1.2\lvgl\src\lv_misc/lv_task.c **** 
 323:..\..\..\lvgl\version_6.1.2\lvgl\src\lv_misc/lv_task.c **** /**
 324:..\..\..\lvgl\version_6.1.2\lvgl\src\lv_misc/lv_task.c ****  * Reset a lv_task.
 325:..\..\..\lvgl\version_6.1.2\lvgl\src\lv_misc/lv_task.c ****  * It will be called the previously set period milliseconds later.
 326:..\..\..\lvgl\version_6.1.2\lvgl\src\lv_misc/lv_task.c ****  * @param task pointer to a lv_task.
 327:..\..\..\lvgl\version_6.1.2\lvgl\src\lv_misc/lv_task.c ****  */
 328:..\..\..\lvgl\version_6.1.2\lvgl\src\lv_misc/lv_task.c **** void lv_task_reset(lv_task_t * task)
 329:..\..\..\lvgl\version_6.1.2\lvgl\src\lv_misc/lv_task.c **** {
 330:..\..\..\lvgl\version_6.1.2\lvgl\src\lv_misc/lv_task.c ****     task->last_run = lv_tick_get();
 331:..\..\..\lvgl\version_6.1.2\lvgl\src\lv_misc/lv_task.c **** }
 332:..\..\..\lvgl\version_6.1.2\lvgl\src\lv_misc/lv_task.c **** 
 333:..\..\..\lvgl\version_6.1.2\lvgl\src\lv_misc/lv_task.c **** /**
 334:..\..\..\lvgl\version_6.1.2\lvgl\src\lv_misc/lv_task.c ****  * Enable or disable the whole lv_task handling
 335:..\..\..\lvgl\version_6.1.2\lvgl\src\lv_misc/lv_task.c ****  * @param en: true: lv_task handling is running, false: lv_task handling is suspended
 336:..\..\..\lvgl\version_6.1.2\lvgl\src\lv_misc/lv_task.c ****  */
 337:..\..\..\lvgl\version_6.1.2\lvgl\src\lv_misc/lv_task.c **** void lv_task_enable(bool en)
 338:..\..\..\lvgl\version_6.1.2\lvgl\src\lv_misc/lv_task.c **** {
 339:..\..\..\lvgl\version_6.1.2\lvgl\src\lv_misc/lv_task.c ****     lv_task_run = en;
  44              		.loc 1 339 0
  45 000a 034B     		ldr	r3, .L3+4
  46 000c 0122     		movs	r2, #1
  47 000e 1A70     		strb	r2, [r3]
  48              	.LVL1:
  49 0010 08BD     		pop	{r3, pc}
  50              	.L4:
  51 0012 00BF     		.align	2
  52              	.L3:
  53 0014 00000000 		.word	_lv_task_ll
  54 0018 00000000 		.word	.LANCHOR0
  55              	.LBE9:
  56              	.LBE8:
  57              		.cfi_endproc
  58              	.LFE31:
  59              		.size	lv_task_core_init, .-lv_task_core_init
  60              		.section	.text.lv_task_handler,"ax",%progbits
ARM GAS  C:\Users\pearlstl\AppData\Local\Temp\ccLZH6ci.s 			page 8


  61              		.align	2
  62              		.global	lv_task_handler
  63              		.thumb
  64              		.thumb_func
  65              		.type	lv_task_handler, %function
  66              	lv_task_handler:
  67              	.LFB32:
  67:..\..\..\lvgl\version_6.1.2\lvgl\src\lv_misc/lv_task.c ****     LV_LOG_TRACE("lv_task_handler started");
  68              		.loc 1 67 0
  69              		.cfi_startproc
  70              		@ args = 0, pretend = 0, frame = 0
  71              		@ frame_needed = 0, uses_anonymous_args = 0
  72 0000 2DE9F84F 		push	{r3, r4, r5, r6, r7, r8, r9, r10, fp, lr}
  73              		.cfi_def_cfa_offset 40
  74              		.cfi_offset 3, -40
  75              		.cfi_offset 4, -36
  76              		.cfi_offset 5, -32
  77              		.cfi_offset 6, -28
  78              		.cfi_offset 7, -24
  79              		.cfi_offset 8, -20
  80              		.cfi_offset 9, -16
  81              		.cfi_offset 10, -12
  82              		.cfi_offset 11, -8
  83              		.cfi_offset 14, -4
  72:..\..\..\lvgl\version_6.1.2\lvgl\src\lv_misc/lv_task.c ****     already_running = true;
  84              		.loc 1 72 0
  85 0004 734F     		ldr	r7, .L74
  86 0006 7D78     		ldrb	r5, [r7, #1]	@ zero_extendqisi2
  87 0008 3DB9     		cbnz	r5, .L5
  79:..\..\..\lvgl\version_6.1.2\lvgl\src\lv_misc/lv_task.c ****         already_running = false; /*Release mutex*/
  88              		.loc 1 79 0
  89 000a 3B78     		ldrb	r3, [r7]	@ zero_extendqisi2
  73:..\..\..\lvgl\version_6.1.2\lvgl\src\lv_misc/lv_task.c **** 
  90              		.loc 1 73 0
  91 000c 0122     		movs	r2, #1
  92 000e 7A70     		strb	r2, [r7, #1]
  79:..\..\..\lvgl\version_6.1.2\lvgl\src\lv_misc/lv_task.c ****         already_running = false; /*Release mutex*/
  93              		.loc 1 79 0
  94 0010 2BB9     		cbnz	r3, .L7
  95              	.L37:
  80:..\..\..\lvgl\version_6.1.2\lvgl\src\lv_misc/lv_task.c ****         return;
  96              		.loc 1 80 0
  97 0012 0023     		movs	r3, #0
  98 0014 7B70     		strb	r3, [r7, #1]
  81:..\..\..\lvgl\version_6.1.2\lvgl\src\lv_misc/lv_task.c ****     }
  99              		.loc 1 81 0
 100 0016 BDE8F88F 		pop	{r3, r4, r5, r6, r7, r8, r9, r10, fp, pc}
 101              	.L5:
 102 001a BDE8F88F 		pop	{r3, r4, r5, r6, r7, r8, r9, r10, fp, pc}
 103              	.L7:
  84:..\..\..\lvgl\version_6.1.2\lvgl\src\lv_misc/lv_task.c **** 
 104              		.loc 1 84 0
 105 001e FFF7FEFF 		bl	lv_tick_get
 106              	.LVL2:
 107 0022 6D4E     		ldr	r6, .L74+4
 108 0024 7860     		str	r0, [r7, #4]
 109              	.LVL3:
ARM GAS  C:\Users\pearlstl\AppData\Local\Temp\ccLZH6ci.s 			page 9


  94:..\..\..\lvgl\version_6.1.2\lvgl\src\lv_misc/lv_task.c ****         task_created             = false;
 110              		.loc 1 94 0
 111 0026 A946     		mov	r9, r5
 103:..\..\..\lvgl\version_6.1.2\lvgl\src\lv_misc/lv_task.c ****                 break;
 112              		.loc 1 103 0
 113 0028 B246     		mov	r10, r6
 145:..\..\..\lvgl\version_6.1.2\lvgl\src\lv_misc/lv_task.c ****                 task_interrupter = NULL;
 114              		.loc 1 145 0
 115 002a B846     		mov	r8, r7
 116              	.LVL4:
 117              	.L42:
  96:..\..\..\lvgl\version_6.1.2\lvgl\src\lv_misc/lv_task.c ****         while(LV_GC_ROOT(_lv_task_act)) {
 118              		.loc 1 96 0
 119 002c 6B48     		ldr	r0, .L74+8
  94:..\..\..\lvgl\version_6.1.2\lvgl\src\lv_misc/lv_task.c ****         task_created             = false;
 120              		.loc 1 94 0
 121 002e 87F80890 		strb	r9, [r7, #8]
  95:..\..\..\lvgl\version_6.1.2\lvgl\src\lv_misc/lv_task.c ****         LV_GC_ROOT(_lv_task_act) = lv_ll_get_head(&LV_GC_ROOT(_lv_task_ll));
 122              		.loc 1 95 0
 123 0032 87F80990 		strb	r9, [r7, #9]
  96:..\..\..\lvgl\version_6.1.2\lvgl\src\lv_misc/lv_task.c ****         while(LV_GC_ROOT(_lv_task_act)) {
 124              		.loc 1 96 0
 125 0036 FFF7FEFF 		bl	lv_ll_get_head
 126              	.LVL5:
 127 003a 0146     		mov	r1, r0
 128 003c 3060     		str	r0, [r6]
 129              	.LVL6:
 130              	.L8:
  97:..\..\..\lvgl\version_6.1.2\lvgl\src\lv_misc/lv_task.c ****             /* The task might be deleted if it runs only once ('once = 1')
 131              		.loc 1 97 0
 132 003e 0029     		cmp	r1, #0
 133 0040 3FD0     		beq	.L43
 100:..\..\..\lvgl\version_6.1.2\lvgl\src\lv_misc/lv_task.c **** 
 134              		.loc 1 100 0
 135 0042 6648     		ldr	r0, .L74+8
 136 0044 FFF7FEFF 		bl	lv_ll_get_next
 137              	.LVL7:
 103:..\..\..\lvgl\version_6.1.2\lvgl\src\lv_misc/lv_task.c ****                 break;
 138              		.loc 1 103 0
 139 0048 D6F800B0 		ldr	fp, [r6]
 140 004c 9BF81030 		ldrb	r3, [fp, #16]	@ zero_extendqisi2
 141 0050 13F00702 		ands	r2, r3, #7
 100:..\..\..\lvgl\version_6.1.2\lvgl\src\lv_misc/lv_task.c **** 
 142              		.loc 1 100 0
 143 0054 0446     		mov	r4, r0
 144              	.LVL8:
 103:..\..\..\lvgl\version_6.1.2\lvgl\src\lv_misc/lv_task.c ****                 break;
 145              		.loc 1 103 0
 146 0056 34D0     		beq	.L43
 108:..\..\..\lvgl\version_6.1.2\lvgl\src\lv_misc/lv_task.c ****                 task_interrupter = NULL; /*From this point only task after the interrupter comes, s
 147              		.loc 1 108 0
 148 0058 5D45     		cmp	r5, fp
 149 005a 58D0     		beq	.L69
 116:..\..\..\lvgl\version_6.1.2\lvgl\src\lv_misc/lv_task.c ****                 lv_task_exec(LV_GC_ROOT(_lv_task_act));
 150              		.loc 1 116 0
 151 005c 052A     		cmp	r2, #5
 152 005e 5BD0     		beq	.L70
ARM GAS  C:\Users\pearlstl\AppData\Local\Temp\ccLZH6ci.s 			page 10


 120:..\..\..\lvgl\version_6.1.2\lvgl\src\lv_misc/lv_task.c ****                 if(((lv_task_t *)LV_GC_ROOT(_lv_task_act))->prio > task_interrupter->prio) {
 153              		.loc 1 120 0
 154 0060 002D     		cmp	r5, #0
 155 0062 7CD0     		beq	.L20
 121:..\..\..\lvgl\version_6.1.2\lvgl\src\lv_misc/lv_task.c ****                     if(lv_task_exec(LV_GC_ROOT(_lv_task_act))) {
 156              		.loc 1 121 0
 157 0064 2A7C     		ldrb	r2, [r5, #16]	@ zero_extendqisi2
 158 0066 03F00703 		and	r3, r3, #7
 159 006a 02F00702 		and	r2, r2, #7
 160 006e 9342     		cmp	r3, r2
 161 0070 07DC     		bgt	.L71
 162              	.LVL9:
 163              	.L13:
 145:..\..\..\lvgl\version_6.1.2\lvgl\src\lv_misc/lv_task.c ****                 task_interrupter = NULL;
 164              		.loc 1 145 0
 165 0072 7B7A     		ldrb	r3, [r7, #9]	@ zero_extendqisi2
 166 0074 2BBB     		cbnz	r3, .L43
 167 0076 98F80830 		ldrb	r3, [r8, #8]	@ zero_extendqisi2
 168 007a 13BB     		cbnz	r3, .L43
 169              	.L44:
 150:..\..\..\lvgl\version_6.1.2\lvgl\src\lv_misc/lv_task.c ****         }
 170              		.loc 1 150 0
 171 007c 3460     		str	r4, [r6]
 172 007e 2146     		mov	r1, r4
 173 0080 DDE7     		b	.L8
 174              	.LVL10:
 175              	.L71:
 176              	.LBB28:
 177              	.LBB29:
 340:..\..\..\lvgl\version_6.1.2\lvgl\src\lv_misc/lv_task.c **** }
 341:..\..\..\lvgl\version_6.1.2\lvgl\src\lv_misc/lv_task.c **** 
 342:..\..\..\lvgl\version_6.1.2\lvgl\src\lv_misc/lv_task.c **** /**
 343:..\..\..\lvgl\version_6.1.2\lvgl\src\lv_misc/lv_task.c ****  * Get idle percentage
 344:..\..\..\lvgl\version_6.1.2\lvgl\src\lv_misc/lv_task.c ****  * @return the lv_task idle in percentage
 345:..\..\..\lvgl\version_6.1.2\lvgl\src\lv_misc/lv_task.c ****  */
 346:..\..\..\lvgl\version_6.1.2\lvgl\src\lv_misc/lv_task.c **** uint8_t lv_task_get_idle(void)
 347:..\..\..\lvgl\version_6.1.2\lvgl\src\lv_misc/lv_task.c **** {
 348:..\..\..\lvgl\version_6.1.2\lvgl\src\lv_misc/lv_task.c ****     return idle_last;
 349:..\..\..\lvgl\version_6.1.2\lvgl\src\lv_misc/lv_task.c **** }
 350:..\..\..\lvgl\version_6.1.2\lvgl\src\lv_misc/lv_task.c **** 
 351:..\..\..\lvgl\version_6.1.2\lvgl\src\lv_misc/lv_task.c **** /**********************
 352:..\..\..\lvgl\version_6.1.2\lvgl\src\lv_misc/lv_task.c ****  *   STATIC FUNCTIONS
 353:..\..\..\lvgl\version_6.1.2\lvgl\src\lv_misc/lv_task.c ****  **********************/
 354:..\..\..\lvgl\version_6.1.2\lvgl\src\lv_misc/lv_task.c **** 
 355:..\..\..\lvgl\version_6.1.2\lvgl\src\lv_misc/lv_task.c **** /**
 356:..\..\..\lvgl\version_6.1.2\lvgl\src\lv_misc/lv_task.c ****  * Execute task if its the priority is appropriate
 357:..\..\..\lvgl\version_6.1.2\lvgl\src\lv_misc/lv_task.c ****  * @param task pointer to lv_task
 358:..\..\..\lvgl\version_6.1.2\lvgl\src\lv_misc/lv_task.c ****  * @return true: execute, false: not executed
 359:..\..\..\lvgl\version_6.1.2\lvgl\src\lv_misc/lv_task.c ****  */
 360:..\..\..\lvgl\version_6.1.2\lvgl\src\lv_misc/lv_task.c **** static bool lv_task_exec(lv_task_t * task)
 361:..\..\..\lvgl\version_6.1.2\lvgl\src\lv_misc/lv_task.c **** {
 362:..\..\..\lvgl\version_6.1.2\lvgl\src\lv_misc/lv_task.c ****     bool exec = false;
 363:..\..\..\lvgl\version_6.1.2\lvgl\src\lv_misc/lv_task.c **** 
 364:..\..\..\lvgl\version_6.1.2\lvgl\src\lv_misc/lv_task.c ****     /*Execute if at least 'period' time elapsed*/
 365:..\..\..\lvgl\version_6.1.2\lvgl\src\lv_misc/lv_task.c ****     uint32_t elp = lv_tick_elaps(task->last_run);
 178              		.loc 1 365 0
 179 0082 DBF80400 		ldr	r0, [fp, #4]
ARM GAS  C:\Users\pearlstl\AppData\Local\Temp\ccLZH6ci.s 			page 11


 180              	.LVL11:
 181 0086 FFF7FEFF 		bl	lv_tick_elaps
 182              	.LVL12:
 366:..\..\..\lvgl\version_6.1.2\lvgl\src\lv_misc/lv_task.c ****     if(elp >= task->period) {
 183              		.loc 1 366 0
 184 008a DBF80030 		ldr	r3, [fp]
 185 008e 9842     		cmp	r0, r3
 186 0090 EFD3     		bcc	.L13
 367:..\..\..\lvgl\version_6.1.2\lvgl\src\lv_misc/lv_task.c ****         task->last_run = lv_tick_get();
 187              		.loc 1 367 0
 188 0092 FFF7FEFF 		bl	lv_tick_get
 189              	.LVL13:
 368:..\..\..\lvgl\version_6.1.2\lvgl\src\lv_misc/lv_task.c ****         task_deleted   = false;
 369:..\..\..\lvgl\version_6.1.2\lvgl\src\lv_misc/lv_task.c ****         task_created   = false;
 370:..\..\..\lvgl\version_6.1.2\lvgl\src\lv_misc/lv_task.c ****         if(task->task_cb) task->task_cb(task);
 190              		.loc 1 370 0
 191 0096 DBF80830 		ldr	r3, [fp, #8]
 367:..\..\..\lvgl\version_6.1.2\lvgl\src\lv_misc/lv_task.c ****         task->last_run = lv_tick_get();
 192              		.loc 1 367 0
 193 009a CBF80400 		str	r0, [fp, #4]
 368:..\..\..\lvgl\version_6.1.2\lvgl\src\lv_misc/lv_task.c ****         task_deleted   = false;
 194              		.loc 1 368 0
 195 009e 87F80890 		strb	r9, [r7, #8]
 369:..\..\..\lvgl\version_6.1.2\lvgl\src\lv_misc/lv_task.c ****         if(task->task_cb) task->task_cb(task);
 196              		.loc 1 369 0
 197 00a2 87F80990 		strb	r9, [r7, #9]
 198              		.loc 1 370 0
 199 00a6 002B     		cmp	r3, #0
 200 00a8 6BD0     		beq	.L33
 201              	.LVL14:
 202              	.L29:
 203              	.LBE29:
 204              	.LBE28:
 205              	.LBB30:
 206              	.LBB31:
 207 00aa 5846     		mov	r0, fp
 208 00ac 9847     		blx	r3
 209              	.LVL15:
 371:..\..\..\lvgl\version_6.1.2\lvgl\src\lv_misc/lv_task.c **** 
 372:..\..\..\lvgl\version_6.1.2\lvgl\src\lv_misc/lv_task.c ****         /*Delete if it was a one shot lv_task*/
 373:..\..\..\lvgl\version_6.1.2\lvgl\src\lv_misc/lv_task.c ****         if(task_deleted == false) { /*The task might be deleted by itself as well*/
 210              		.loc 1 373 0
 211 00ae 98F80830 		ldrb	r3, [r8, #8]	@ zero_extendqisi2
 212 00b2 002B     		cmp	r3, #0
 213 00b4 65D0     		beq	.L33
 214              	.L34:
 215              	.LBE31:
 216              	.LBE30:
 136:..\..\..\lvgl\version_6.1.2\lvgl\src\lv_misc/lv_task.c ****                         task_interrupter = LV_GC_ROOT(_lv_task_act); /*Check all tasks again from t
 217              		.loc 1 136 0
 218 00b6 7B7A     		ldrb	r3, [r7, #9]	@ zero_extendqisi2
 219 00b8 1BB9     		cbnz	r3, .L43
 136:..\..\..\lvgl\version_6.1.2\lvgl\src\lv_misc/lv_task.c ****                         task_interrupter = LV_GC_ROOT(_lv_task_act); /*Check all tasks again from t
 220              		.loc 1 136 0 is_stmt 0 discriminator 1
 221 00ba 98F80830 		ldrb	r3, [r8, #8]	@ zero_extendqisi2
 222 00be 002B     		cmp	r3, #0
 223 00c0 66D0     		beq	.L46
ARM GAS  C:\Users\pearlstl\AppData\Local\Temp\ccLZH6ci.s 			page 12


 224              	.LVL16:
 225              	.L43:
 154:..\..\..\lvgl\version_6.1.2\lvgl\src\lv_misc/lv_task.c ****     uint32_t idle_period_time = lv_tick_elaps(idle_period_start);
 226              		.loc 1 154 0 is_stmt 1
 227 00c2 7868     		ldr	r0, [r7, #4]
 228 00c4 434C     		ldr	r4, .L74
 229 00c6 FFF7FEFF 		bl	lv_tick_elaps
 230              	.LVL17:
 231 00ca FB68     		ldr	r3, [r7, #12]
 232 00cc 0344     		add	r3, r3, r0
 155:..\..\..\lvgl\version_6.1.2\lvgl\src\lv_misc/lv_task.c ****     if(idle_period_time >= IDLE_MEAS_PERIOD) {
 233              		.loc 1 155 0
 234 00ce 7869     		ldr	r0, [r7, #20]
 154:..\..\..\lvgl\version_6.1.2\lvgl\src\lv_misc/lv_task.c ****     uint32_t idle_period_time = lv_tick_elaps(idle_period_start);
 235              		.loc 1 154 0
 236 00d0 FB60     		str	r3, [r7, #12]
 155:..\..\..\lvgl\version_6.1.2\lvgl\src\lv_misc/lv_task.c ****     if(idle_period_time >= IDLE_MEAS_PERIOD) {
 237              		.loc 1 155 0
 238 00d2 FFF7FEFF 		bl	lv_tick_elaps
 239              	.LVL18:
 156:..\..\..\lvgl\version_6.1.2\lvgl\src\lv_misc/lv_task.c **** 
 240              		.loc 1 156 0
 241 00d6 B0F5FA7F 		cmp	r0, #500
 242 00da 9AD3     		bcc	.L37
 158:..\..\..\lvgl\version_6.1.2\lvgl\src\lv_misc/lv_task.c ****         idle_last         = idle_last > 100 ? 0 : 100 - idle_last;                    /*But we need
 243              		.loc 1 158 0
 244 00dc E368     		ldr	r3, [r4, #12]
 245 00de 4049     		ldr	r1, .L74+12
 246 00e0 6422     		movs	r2, #100
 247 00e2 02FB03F3 		mul	r3, r2, r3
 248 00e6 A1FB0323 		umull	r2, r3, r1, r3
 249 00ea C3F34713 		ubfx	r3, r3, #5, #8
 159:..\..\..\lvgl\version_6.1.2\lvgl\src\lv_misc/lv_task.c ****         busy_time         = 0;
 250              		.loc 1 159 0
 251 00ee 642B     		cmp	r3, #100
 252 00f0 9ABF     		itte	ls
 253 00f2 C3F16403 		rsbls	r3, r3, #100
 254 00f6 DBB2     		uxtbls	r3, r3
 255 00f8 0023     		movhi	r3, #0
 160:..\..\..\lvgl\version_6.1.2\lvgl\src\lv_misc/lv_task.c ****         idle_period_start = lv_tick_get();
 256              		.loc 1 160 0
 257 00fa 0022     		movs	r2, #0
 159:..\..\..\lvgl\version_6.1.2\lvgl\src\lv_misc/lv_task.c ****         busy_time         = 0;
 258              		.loc 1 159 0
 259 00fc 3B74     		strb	r3, [r7, #16]
 160:..\..\..\lvgl\version_6.1.2\lvgl\src\lv_misc/lv_task.c ****         idle_period_start = lv_tick_get();
 260              		.loc 1 160 0
 261 00fe FA60     		str	r2, [r7, #12]
 161:..\..\..\lvgl\version_6.1.2\lvgl\src\lv_misc/lv_task.c ****     }
 262              		.loc 1 161 0
 263 0100 FFF7FEFF 		bl	lv_tick_get
 264              	.LVL19:
  80:..\..\..\lvgl\version_6.1.2\lvgl\src\lv_misc/lv_task.c ****         return;
 265              		.loc 1 80 0
 266 0104 0023     		movs	r3, #0
 161:..\..\..\lvgl\version_6.1.2\lvgl\src\lv_misc/lv_task.c ****     }
 267              		.loc 1 161 0
ARM GAS  C:\Users\pearlstl\AppData\Local\Temp\ccLZH6ci.s 			page 13


 268 0106 7861     		str	r0, [r7, #20]
  80:..\..\..\lvgl\version_6.1.2\lvgl\src\lv_misc/lv_task.c ****         return;
 269              		.loc 1 80 0
 270 0108 7B70     		strb	r3, [r7, #1]
  81:..\..\..\lvgl\version_6.1.2\lvgl\src\lv_misc/lv_task.c ****     }
 271              		.loc 1 81 0
 272 010a BDE8F88F 		pop	{r3, r4, r5, r6, r7, r8, r9, r10, fp, pc}
 273              	.LVL20:
 274              	.L69:
 111:..\..\..\lvgl\version_6.1.2\lvgl\src\lv_misc/lv_task.c ****                 continue; /*Load the next task*/
 275              		.loc 1 111 0
 276 010e CAF80000 		str	r0, [r10]
 109:..\..\..\lvgl\version_6.1.2\lvgl\src\lv_misc/lv_task.c ****                                             the interrupter is not interesting anymore*/
 277              		.loc 1 109 0
 278 0112 0025     		movs	r5, #0
 279 0114 2146     		mov	r1, r4
 280 0116 92E7     		b	.L8
 281              	.LVL21:
 282              	.L70:
 283              	.LBB40:
 284              	.LBB41:
 365:..\..\..\lvgl\version_6.1.2\lvgl\src\lv_misc/lv_task.c ****     if(elp >= task->period) {
 285              		.loc 1 365 0
 286 0118 DBF80400 		ldr	r0, [fp, #4]
 287              	.LVL22:
 288 011c FFF7FEFF 		bl	lv_tick_elaps
 289              	.LVL23:
 366:..\..\..\lvgl\version_6.1.2\lvgl\src\lv_misc/lv_task.c ****         task->last_run = lv_tick_get();
 290              		.loc 1 366 0
 291 0120 DBF80030 		ldr	r3, [fp]
 292 0124 9842     		cmp	r0, r3
 293 0126 A4D3     		bcc	.L13
 367:..\..\..\lvgl\version_6.1.2\lvgl\src\lv_misc/lv_task.c ****         task_deleted   = false;
 294              		.loc 1 367 0
 295 0128 FFF7FEFF 		bl	lv_tick_get
 296              	.LVL24:
 370:..\..\..\lvgl\version_6.1.2\lvgl\src\lv_misc/lv_task.c **** 
 297              		.loc 1 370 0
 298 012c DBF80830 		ldr	r3, [fp, #8]
 367:..\..\..\lvgl\version_6.1.2\lvgl\src\lv_misc/lv_task.c ****         task_deleted   = false;
 299              		.loc 1 367 0
 300 0130 CBF80400 		str	r0, [fp, #4]
 368:..\..\..\lvgl\version_6.1.2\lvgl\src\lv_misc/lv_task.c ****         task_created   = false;
 301              		.loc 1 368 0
 302 0134 87F80890 		strb	r9, [r7, #8]
 369:..\..\..\lvgl\version_6.1.2\lvgl\src\lv_misc/lv_task.c ****         if(task->task_cb) task->task_cb(task);
 303              		.loc 1 369 0
 304 0138 87F80990 		strb	r9, [r7, #9]
 370:..\..\..\lvgl\version_6.1.2\lvgl\src\lv_misc/lv_task.c **** 
 305              		.loc 1 370 0
 306 013c 002B     		cmp	r3, #0
 307 013e 36D0     		beq	.L72
 308 0140 5846     		mov	r0, fp
 309 0142 9847     		blx	r3
 310              	.LVL25:
 311              		.loc 1 373 0
 312 0144 98F80830 		ldrb	r3, [r8, #8]	@ zero_extendqisi2
ARM GAS  C:\Users\pearlstl\AppData\Local\Temp\ccLZH6ci.s 			page 14


 313 0148 002B     		cmp	r3, #0
 314 014a BAD1     		bne	.L43
 315              	.LVL26:
 316              	.LBB42:
 317              	.LBB43:
 374:..\..\..\lvgl\version_6.1.2\lvgl\src\lv_misc/lv_task.c ****             if(task->once != 0) {
 318              		.loc 1 374 0
 319 014c 9BF81030 		ldrb	r3, [fp, #16]	@ zero_extendqisi2
 320 0150 1907     		lsls	r1, r3, #28
 321 0152 31D4     		bmi	.L16
 322              	.LBE43:
 323              	.LBE42:
 324              	.LBE41:
 325              	.LBE40:
 145:..\..\..\lvgl\version_6.1.2\lvgl\src\lv_misc/lv_task.c ****                 task_interrupter = NULL;
 326              		.loc 1 145 0
 327 0154 98F80930 		ldrb	r3, [r8, #9]	@ zero_extendqisi2
 328 0158 002B     		cmp	r3, #0
 329 015a 8FD0     		beq	.L44
 330 015c B1E7     		b	.L43
 331              	.LVL27:
 332              	.L20:
 333              	.LBB49:
 334              	.LBB38:
 365:..\..\..\lvgl\version_6.1.2\lvgl\src\lv_misc/lv_task.c ****     if(elp >= task->period) {
 335              		.loc 1 365 0
 336 015e DBF80400 		ldr	r0, [fp, #4]
 337              	.LVL28:
 338 0162 FFF7FEFF 		bl	lv_tick_elaps
 339              	.LVL29:
 366:..\..\..\lvgl\version_6.1.2\lvgl\src\lv_misc/lv_task.c ****         task->last_run = lv_tick_get();
 340              		.loc 1 366 0
 341 0166 DBF80030 		ldr	r3, [fp]
 342 016a 9842     		cmp	r0, r3
 343 016c 81D3     		bcc	.L13
 367:..\..\..\lvgl\version_6.1.2\lvgl\src\lv_misc/lv_task.c ****         task_deleted   = false;
 344              		.loc 1 367 0
 345 016e FFF7FEFF 		bl	lv_tick_get
 346              	.LVL30:
 370:..\..\..\lvgl\version_6.1.2\lvgl\src\lv_misc/lv_task.c **** 
 347              		.loc 1 370 0
 348 0172 DBF80830 		ldr	r3, [fp, #8]
 367:..\..\..\lvgl\version_6.1.2\lvgl\src\lv_misc/lv_task.c ****         task_deleted   = false;
 349              		.loc 1 367 0
 350 0176 CBF80400 		str	r0, [fp, #4]
 368:..\..\..\lvgl\version_6.1.2\lvgl\src\lv_misc/lv_task.c ****         task_created   = false;
 351              		.loc 1 368 0
 352 017a 3D72     		strb	r5, [r7, #8]
 369:..\..\..\lvgl\version_6.1.2\lvgl\src\lv_misc/lv_task.c ****         if(task->task_cb) task->task_cb(task);
 353              		.loc 1 369 0
 354 017c 7D72     		strb	r5, [r7, #9]
 370:..\..\..\lvgl\version_6.1.2\lvgl\src\lv_misc/lv_task.c **** 
 355              		.loc 1 370 0
 356 017e 002B     		cmp	r3, #0
 357 0180 93D1     		bne	.L29
 358              	.LVL31:
 359              	.L33:
ARM GAS  C:\Users\pearlstl\AppData\Local\Temp\ccLZH6ci.s 			page 15


 360              	.LBB32:
 361              	.LBB33:
 362              		.loc 1 374 0
 363 0182 9BF81030 		ldrb	r3, [fp, #16]	@ zero_extendqisi2
 364 0186 1A07     		lsls	r2, r3, #28
 365 0188 04D4     		bmi	.L73
 366              	.LBE33:
 367              	.LBE32:
 368              	.LBE38:
 369              	.LBE49:
 136:..\..\..\lvgl\version_6.1.2\lvgl\src\lv_misc/lv_task.c ****                         task_interrupter = LV_GC_ROOT(_lv_task_act); /*Check all tasks again from t
 370              		.loc 1 136 0
 371 018a 7B7A     		ldrb	r3, [r7, #9]	@ zero_extendqisi2
 372 018c 002B     		cmp	r3, #0
 373 018e 98D1     		bne	.L43
 374              	.LVL32:
 375              	.L46:
 137:..\..\..\lvgl\version_6.1.2\lvgl\src\lv_misc/lv_task.c ****                         end_flag         = false;
 376              		.loc 1 137 0
 377 0190 3568     		ldr	r5, [r6]
 378              	.LVL33:
 139:..\..\..\lvgl\version_6.1.2\lvgl\src\lv_misc/lv_task.c ****                     }
 379              		.loc 1 139 0
 380 0192 4BE7     		b	.L42
 381              	.LVL34:
 382              	.L73:
 383              	.LBB50:
 384              	.LBB39:
 385              	.LBB37:
 386              	.LBB36:
 387              	.LBB34:
 388              	.LBB35:
 261:..\..\..\lvgl\version_6.1.2\lvgl\src\lv_misc/lv_task.c **** 
 389              		.loc 1 261 0
 390 0194 5946     		mov	r1, fp
 391 0196 1148     		ldr	r0, .L74+8
 392 0198 FFF7FEFF 		bl	lv_ll_rem
 393              	.LVL35:
 263:..\..\..\lvgl\version_6.1.2\lvgl\src\lv_misc/lv_task.c **** 
 394              		.loc 1 263 0
 395 019c 5846     		mov	r0, fp
 396 019e FFF7FEFF 		bl	lv_mem_free
 397              	.LVL36:
 265:..\..\..\lvgl\version_6.1.2\lvgl\src\lv_misc/lv_task.c **** }
 398              		.loc 1 265 0
 399 01a2 3368     		ldr	r3, [r6]
 400 01a4 9B45     		cmp	fp, r3
 401 01a6 86D1     		bne	.L34
 402 01a8 0123     		movs	r3, #1
 403 01aa 3B72     		strb	r3, [r7, #8]
 404 01ac 83E7     		b	.L34
 405              	.LVL37:
 406              	.L72:
 407              	.LBE35:
 408              	.LBE34:
 409              	.LBE36:
 410              	.LBE37:
ARM GAS  C:\Users\pearlstl\AppData\Local\Temp\ccLZH6ci.s 			page 16


 411              	.LBE39:
 412              	.LBE50:
 413              	.LBB51:
 414              	.LBB48:
 415              	.LBB47:
 416              	.LBB46:
 417              		.loc 1 374 0
 418 01ae 9BF81030 		ldrb	r3, [fp, #16]	@ zero_extendqisi2
 419 01b2 1B07     		lsls	r3, r3, #28
 420 01b4 7FF562AF 		bpl	.L44
 421              	.L16:
 422              	.LVL38:
 423              	.LBB44:
 424              	.LBB45:
 261:..\..\..\lvgl\version_6.1.2\lvgl\src\lv_misc/lv_task.c **** 
 425              		.loc 1 261 0
 426 01b8 5946     		mov	r1, fp
 427 01ba 0848     		ldr	r0, .L74+8
 428 01bc FFF7FEFF 		bl	lv_ll_rem
 429              	.LVL39:
 263:..\..\..\lvgl\version_6.1.2\lvgl\src\lv_misc/lv_task.c **** 
 430              		.loc 1 263 0
 431 01c0 5846     		mov	r0, fp
 432 01c2 FFF7FEFF 		bl	lv_mem_free
 433              	.LVL40:
 265:..\..\..\lvgl\version_6.1.2\lvgl\src\lv_misc/lv_task.c **** }
 434              		.loc 1 265 0
 435 01c6 3368     		ldr	r3, [r6]
 436 01c8 9B45     		cmp	fp, r3
 437 01ca 7FF452AF 		bne	.L13
 438 01ce 0123     		movs	r3, #1
 439 01d0 3B72     		strb	r3, [r7, #8]
 440 01d2 76E7     		b	.L43
 441              	.L75:
 442              		.align	2
 443              	.L74:
 444 01d4 00000000 		.word	.LANCHOR0
 445 01d8 00000000 		.word	_lv_task_act
 446 01dc 00000000 		.word	_lv_task_ll
 447 01e0 D34D6210 		.word	274877907
 448              	.LBE45:
 449              	.LBE44:
 450              	.LBE46:
 451              	.LBE47:
 452              	.LBE48:
 453              	.LBE51:
 454              		.cfi_endproc
 455              	.LFE32:
 456              		.size	lv_task_handler, .-lv_task_handler
 457              		.section	.text.lv_task_create_basic,"ax",%progbits
 458              		.align	2
 459              		.global	lv_task_create_basic
 460              		.thumb
 461              		.thumb_func
 462              		.type	lv_task_create_basic, %function
 463              	lv_task_create_basic:
 464              	.LFB33:
ARM GAS  C:\Users\pearlstl\AppData\Local\Temp\ccLZH6ci.s 			page 17


 174:..\..\..\lvgl\version_6.1.2\lvgl\src\lv_misc/lv_task.c ****     lv_task_t * new_task = NULL;
 465              		.loc 1 174 0
 466              		.cfi_startproc
 467              		@ args = 0, pretend = 0, frame = 0
 468              		@ frame_needed = 0, uses_anonymous_args = 0
 469              	.LVL41:
 470 0000 38B5     		push	{r3, r4, r5, lr}
 471              		.cfi_def_cfa_offset 16
 472              		.cfi_offset 3, -16
 473              		.cfi_offset 4, -12
 474              		.cfi_offset 5, -8
 475              		.cfi_offset 14, -4
 179:..\..\..\lvgl\version_6.1.2\lvgl\src\lv_misc/lv_task.c **** 
 476              		.loc 1 179 0
 477 0002 1C48     		ldr	r0, .L98
 478 0004 FFF7FEFF 		bl	lv_ll_get_head
 479              	.LVL42:
 480 0008 0346     		mov	r3, r0
 182:..\..\..\lvgl\version_6.1.2\lvgl\src\lv_misc/lv_task.c ****         new_task = lv_ll_ins_head(&LV_GC_ROOT(_lv_task_ll));
 481              		.loc 1 182 0
 482 000a 20B9     		cbnz	r0, .L82
 483 000c 2BE0     		b	.L96
 484              	.LVL43:
 485              	.L80:
 196:..\..\..\lvgl\version_6.1.2\lvgl\src\lv_misc/lv_task.c ****         } while(tmp != NULL);
 486              		.loc 1 196 0
 487 000e FFF7FEFF 		bl	lv_ll_get_next
 488              	.LVL44:
 197:..\..\..\lvgl\version_6.1.2\lvgl\src\lv_misc/lv_task.c **** 
 489              		.loc 1 197 0
 490 0012 0346     		mov	r3, r0
 491 0014 F8B1     		cbz	r0, .L97
 492              	.L82:
 190:..\..\..\lvgl\version_6.1.2\lvgl\src\lv_misc/lv_task.c ****                 new_task = lv_ll_ins_prev(&LV_GC_ROOT(_lv_task_ll), tmp);
 493              		.loc 1 190 0
 494 0016 1A7C     		ldrb	r2, [r3, #16]	@ zero_extendqisi2
 196:..\..\..\lvgl\version_6.1.2\lvgl\src\lv_misc/lv_task.c ****         } while(tmp != NULL);
 495              		.loc 1 196 0
 496 0018 1648     		ldr	r0, .L98
 497              	.LVL45:
 190:..\..\..\lvgl\version_6.1.2\lvgl\src\lv_misc/lv_task.c ****                 new_task = lv_ll_ins_prev(&LV_GC_ROOT(_lv_task_ll), tmp);
 498              		.loc 1 190 0
 499 001a 02F00702 		and	r2, r2, #7
 500 001e 032A     		cmp	r2, #3
 196:..\..\..\lvgl\version_6.1.2\lvgl\src\lv_misc/lv_task.c ****         } while(tmp != NULL);
 501              		.loc 1 196 0
 502 0020 1946     		mov	r1, r3
 190:..\..\..\lvgl\version_6.1.2\lvgl\src\lv_misc/lv_task.c ****                 new_task = lv_ll_ins_prev(&LV_GC_ROOT(_lv_task_ll), tmp);
 503              		.loc 1 190 0
 504 0022 F4DC     		bgt	.L80
 505              	.LVL46:
 191:..\..\..\lvgl\version_6.1.2\lvgl\src\lv_misc/lv_task.c ****                 LV_ASSERT_MEM(new_task);
 506              		.loc 1 191 0
 507 0024 FFF7FEFF 		bl	lv_ll_ins_prev
 508              	.LVL47:
 193:..\..\..\lvgl\version_6.1.2\lvgl\src\lv_misc/lv_task.c ****                 break;
 509              		.loc 1 193 0
ARM GAS  C:\Users\pearlstl\AppData\Local\Temp\ccLZH6ci.s 			page 18


 510 0028 0446     		mov	r4, r0
 511 002a D0B1     		cbz	r0, .L81
 512              	.L78:
 209:..\..\..\lvgl\version_6.1.2\lvgl\src\lv_misc/lv_task.c **** 
 513              		.loc 1 209 0
 514 002c 237C     		ldrb	r3, [r4, #16]	@ zero_extendqisi2
 515 002e 0322     		movs	r2, #3
 208:..\..\..\lvgl\version_6.1.2\lvgl\src\lv_misc/lv_task.c ****     new_task->prio    = DEF_PRIO;
 516              		.loc 1 208 0
 517 0030 0025     		movs	r5, #0
 209:..\..\..\lvgl\version_6.1.2\lvgl\src\lv_misc/lv_task.c **** 
 518              		.loc 1 209 0
 519 0032 62F30203 		bfi	r3, r2, #0, #3
 211:..\..\..\lvgl\version_6.1.2\lvgl\src\lv_misc/lv_task.c ****     new_task->last_run = lv_tick_get();
 520              		.loc 1 211 0
 521 0036 65F3C303 		bfi	r3, r5, #3, #1
 207:..\..\..\lvgl\version_6.1.2\lvgl\src\lv_misc/lv_task.c ****     new_task->task_cb = NULL;
 522              		.loc 1 207 0
 523 003a 4FF4FA72 		mov	r2, #500
 211:..\..\..\lvgl\version_6.1.2\lvgl\src\lv_misc/lv_task.c ****     new_task->last_run = lv_tick_get();
 524              		.loc 1 211 0
 525 003e 2374     		strb	r3, [r4, #16]
 207:..\..\..\lvgl\version_6.1.2\lvgl\src\lv_misc/lv_task.c ****     new_task->task_cb = NULL;
 526              		.loc 1 207 0
 527 0040 2260     		str	r2, [r4]
 208:..\..\..\lvgl\version_6.1.2\lvgl\src\lv_misc/lv_task.c ****     new_task->prio    = DEF_PRIO;
 528              		.loc 1 208 0
 529 0042 A560     		str	r5, [r4, #8]
 212:..\..\..\lvgl\version_6.1.2\lvgl\src\lv_misc/lv_task.c **** 
 530              		.loc 1 212 0
 531 0044 FFF7FEFF 		bl	lv_tick_get
 532              	.LVL48:
 216:..\..\..\lvgl\version_6.1.2\lvgl\src\lv_misc/lv_task.c **** 
 533              		.loc 1 216 0
 534 0048 0B4B     		ldr	r3, .L98+4
 212:..\..\..\lvgl\version_6.1.2\lvgl\src\lv_misc/lv_task.c **** 
 535              		.loc 1 212 0
 536 004a 6060     		str	r0, [r4, #4]
 216:..\..\..\lvgl\version_6.1.2\lvgl\src\lv_misc/lv_task.c **** 
 537              		.loc 1 216 0
 538 004c 0122     		movs	r2, #1
 214:..\..\..\lvgl\version_6.1.2\lvgl\src\lv_misc/lv_task.c **** 
 539              		.loc 1 214 0
 540 004e E560     		str	r5, [r4, #12]
 218:..\..\..\lvgl\version_6.1.2\lvgl\src\lv_misc/lv_task.c **** }
 541              		.loc 1 218 0
 542 0050 2046     		mov	r0, r4
 216:..\..\..\lvgl\version_6.1.2\lvgl\src\lv_misc/lv_task.c **** 
 543              		.loc 1 216 0
 544 0052 5A72     		strb	r2, [r3, #9]
 218:..\..\..\lvgl\version_6.1.2\lvgl\src\lv_misc/lv_task.c **** }
 545              		.loc 1 218 0
 546 0054 38BD     		pop	{r3, r4, r5, pc}
 547              	.LVL49:
 548              	.L97:
 201:..\..\..\lvgl\version_6.1.2\lvgl\src\lv_misc/lv_task.c ****             LV_ASSERT_MEM(new_task);
 549              		.loc 1 201 0
ARM GAS  C:\Users\pearlstl\AppData\Local\Temp\ccLZH6ci.s 			page 19


 550 0056 0748     		ldr	r0, .L98
 551 0058 FFF7FEFF 		bl	lv_ll_ins_tail
 552              	.LVL50:
 203:..\..\..\lvgl\version_6.1.2\lvgl\src\lv_misc/lv_task.c ****         }
 553              		.loc 1 203 0
 554 005c 0446     		mov	r4, r0
 555 005e 0028     		cmp	r0, #0
 556 0060 E4D1     		bne	.L78
 557              	.LVL51:
 558              	.L81:
 185:..\..\..\lvgl\version_6.1.2\lvgl\src\lv_misc/lv_task.c ****     }
 559              		.loc 1 185 0
 560 0062 0020     		movs	r0, #0
 561              	.LVL52:
 562 0064 38BD     		pop	{r3, r4, r5, pc}
 563              	.LVL53:
 564              	.L96:
 183:..\..\..\lvgl\version_6.1.2\lvgl\src\lv_misc/lv_task.c ****         LV_ASSERT_MEM(new_task);
 565              		.loc 1 183 0
 566 0066 0348     		ldr	r0, .L98
 567              	.LVL54:
 568 0068 FFF7FEFF 		bl	lv_ll_ins_head
 569              	.LVL55:
 185:..\..\..\lvgl\version_6.1.2\lvgl\src\lv_misc/lv_task.c ****     }
 570              		.loc 1 185 0
 571 006c 0446     		mov	r4, r0
 572 006e 0028     		cmp	r0, #0
 573 0070 DCD1     		bne	.L78
 574 0072 F6E7     		b	.L81
 575              	.L99:
 576              		.align	2
 577              	.L98:
 578 0074 00000000 		.word	_lv_task_ll
 579 0078 00000000 		.word	.LANCHOR0
 580              		.cfi_endproc
 581              	.LFE33:
 582              		.size	lv_task_create_basic, .-lv_task_create_basic
 583              		.section	.text.lv_task_create,"ax",%progbits
 584              		.align	2
 585              		.global	lv_task_create
 586              		.thumb
 587              		.thumb_func
 588              		.type	lv_task_create, %function
 589              	lv_task_create:
 590              	.LFB34:
 232:..\..\..\lvgl\version_6.1.2\lvgl\src\lv_misc/lv_task.c ****     lv_task_t * new_task = lv_task_create_basic();
 591              		.loc 1 232 0
 592              		.cfi_startproc
 593              		@ args = 0, pretend = 0, frame = 0
 594              		@ frame_needed = 0, uses_anonymous_args = 0
 595              	.LVL56:
 596 0000 2DE9F843 		push	{r3, r4, r5, r6, r7, r8, r9, lr}
 597              		.cfi_def_cfa_offset 32
 598              		.cfi_offset 3, -32
 599              		.cfi_offset 4, -28
 600              		.cfi_offset 5, -24
 601              		.cfi_offset 6, -20
ARM GAS  C:\Users\pearlstl\AppData\Local\Temp\ccLZH6ci.s 			page 20


 602              		.cfi_offset 7, -16
 603              		.cfi_offset 8, -12
 604              		.cfi_offset 9, -8
 605              		.cfi_offset 14, -4
 232:..\..\..\lvgl\version_6.1.2\lvgl\src\lv_misc/lv_task.c ****     lv_task_t * new_task = lv_task_create_basic();
 606              		.loc 1 232 0
 607 0004 0746     		mov	r7, r0
 608              	.LBB60:
 609              	.LBB61:
 179:..\..\..\lvgl\version_6.1.2\lvgl\src\lv_misc/lv_task.c **** 
 610              		.loc 1 179 0
 611 0006 3648     		ldr	r0, .L135
 612              	.LVL57:
 613              	.LBE61:
 614              	.LBE60:
 232:..\..\..\lvgl\version_6.1.2\lvgl\src\lv_misc/lv_task.c ****     lv_task_t * new_task = lv_task_create_basic();
 615              		.loc 1 232 0
 616 0008 1D46     		mov	r5, r3
 617 000a 8846     		mov	r8, r1
 618 000c 1446     		mov	r4, r2
 619              	.LBB69:
 620              	.LBB62:
 179:..\..\..\lvgl\version_6.1.2\lvgl\src\lv_misc/lv_task.c **** 
 621              		.loc 1 179 0
 622 000e FFF7FEFF 		bl	lv_ll_get_head
 623              	.LVL58:
 624 0012 0346     		mov	r3, r0
 182:..\..\..\lvgl\version_6.1.2\lvgl\src\lv_misc/lv_task.c ****         new_task = lv_ll_ins_head(&LV_GC_ROOT(_lv_task_ll));
 625              		.loc 1 182 0
 626 0014 28B9     		cbnz	r0, .L106
 627 0016 5BE0     		b	.L133
 628              	.LVL59:
 629              	.L104:
 196:..\..\..\lvgl\version_6.1.2\lvgl\src\lv_misc/lv_task.c ****         } while(tmp != NULL);
 630              		.loc 1 196 0
 631 0018 FFF7FEFF 		bl	lv_ll_get_next
 632              	.LVL60:
 197:..\..\..\lvgl\version_6.1.2\lvgl\src\lv_misc/lv_task.c **** 
 633              		.loc 1 197 0
 634 001c 0346     		mov	r3, r0
 635 001e 0028     		cmp	r0, #0
 636 0020 47D0     		beq	.L134
 637              	.L106:
 190:..\..\..\lvgl\version_6.1.2\lvgl\src\lv_misc/lv_task.c ****                 new_task = lv_ll_ins_prev(&LV_GC_ROOT(_lv_task_ll), tmp);
 638              		.loc 1 190 0
 639 0022 1A7C     		ldrb	r2, [r3, #16]	@ zero_extendqisi2
 196:..\..\..\lvgl\version_6.1.2\lvgl\src\lv_misc/lv_task.c ****         } while(tmp != NULL);
 640              		.loc 1 196 0
 641 0024 2E48     		ldr	r0, .L135
 642              	.LVL61:
 190:..\..\..\lvgl\version_6.1.2\lvgl\src\lv_misc/lv_task.c ****                 new_task = lv_ll_ins_prev(&LV_GC_ROOT(_lv_task_ll), tmp);
 643              		.loc 1 190 0
 644 0026 02F00702 		and	r2, r2, #7
 645 002a 032A     		cmp	r2, #3
 196:..\..\..\lvgl\version_6.1.2\lvgl\src\lv_misc/lv_task.c ****         } while(tmp != NULL);
 646              		.loc 1 196 0
 647 002c 1946     		mov	r1, r3
ARM GAS  C:\Users\pearlstl\AppData\Local\Temp\ccLZH6ci.s 			page 21


 190:..\..\..\lvgl\version_6.1.2\lvgl\src\lv_misc/lv_task.c ****                 new_task = lv_ll_ins_prev(&LV_GC_ROOT(_lv_task_ll), tmp);
 648              		.loc 1 190 0
 649 002e F3DC     		bgt	.L104
 650              	.LVL62:
 191:..\..\..\lvgl\version_6.1.2\lvgl\src\lv_misc/lv_task.c ****                 LV_ASSERT_MEM(new_task);
 651              		.loc 1 191 0
 652 0030 FFF7FEFF 		bl	lv_ll_ins_prev
 653              	.LVL63:
 193:..\..\..\lvgl\version_6.1.2\lvgl\src\lv_misc/lv_task.c ****                 break;
 654              		.loc 1 193 0
 655 0034 0646     		mov	r6, r0
 656 0036 0028     		cmp	r0, #0
 657 0038 41D0     		beq	.L105
 658              	.L102:
 209:..\..\..\lvgl\version_6.1.2\lvgl\src\lv_misc/lv_task.c **** 
 659              		.loc 1 209 0
 660 003a 337C     		ldrb	r3, [r6, #16]	@ zero_extendqisi2
 661 003c 0322     		movs	r2, #3
 208:..\..\..\lvgl\version_6.1.2\lvgl\src\lv_misc/lv_task.c ****     new_task->prio    = DEF_PRIO;
 662              		.loc 1 208 0
 663 003e 4FF00009 		mov	r9, #0
 209:..\..\..\lvgl\version_6.1.2\lvgl\src\lv_misc/lv_task.c **** 
 664              		.loc 1 209 0
 665 0042 62F30203 		bfi	r3, r2, #0, #3
 211:..\..\..\lvgl\version_6.1.2\lvgl\src\lv_misc/lv_task.c ****     new_task->last_run = lv_tick_get();
 666              		.loc 1 211 0
 667 0046 69F3C303 		bfi	r3, r9, #3, #1
 207:..\..\..\lvgl\version_6.1.2\lvgl\src\lv_misc/lv_task.c ****     new_task->task_cb = NULL;
 668              		.loc 1 207 0
 669 004a 4FF4FA72 		mov	r2, #500
 211:..\..\..\lvgl\version_6.1.2\lvgl\src\lv_misc/lv_task.c ****     new_task->last_run = lv_tick_get();
 670              		.loc 1 211 0
 671 004e 3374     		strb	r3, [r6, #16]
 207:..\..\..\lvgl\version_6.1.2\lvgl\src\lv_misc/lv_task.c ****     new_task->task_cb = NULL;
 672              		.loc 1 207 0
 673 0050 3260     		str	r2, [r6]
 208:..\..\..\lvgl\version_6.1.2\lvgl\src\lv_misc/lv_task.c ****     new_task->prio    = DEF_PRIO;
 674              		.loc 1 208 0
 675 0052 C6F80890 		str	r9, [r6, #8]
 212:..\..\..\lvgl\version_6.1.2\lvgl\src\lv_misc/lv_task.c **** 
 676              		.loc 1 212 0
 677 0056 FFF7FEFF 		bl	lv_tick_get
 678              	.LVL64:
 679              	.LBE62:
 680              	.LBE69:
 681              	.LBB70:
 682              	.LBB71:
 275:..\..\..\lvgl\version_6.1.2\lvgl\src\lv_misc/lv_task.c **** 
 683              		.loc 1 275 0
 684 005a 337C     		ldrb	r3, [r6, #16]	@ zero_extendqisi2
 685              	.LBE71:
 686              	.LBE70:
 687              	.LBB76:
 688              	.LBB63:
 216:..\..\..\lvgl\version_6.1.2\lvgl\src\lv_misc/lv_task.c **** 
 689              		.loc 1 216 0
 690 005c 214A     		ldr	r2, .L135+4
ARM GAS  C:\Users\pearlstl\AppData\Local\Temp\ccLZH6ci.s 			page 22


 214:..\..\..\lvgl\version_6.1.2\lvgl\src\lv_misc/lv_task.c **** 
 691              		.loc 1 214 0
 692 005e C6F80C90 		str	r9, [r6, #12]
 693              	.LBE63:
 694              	.LBE76:
 695              	.LBB77:
 696              	.LBB72:
 275:..\..\..\lvgl\version_6.1.2\lvgl\src\lv_misc/lv_task.c **** 
 697              		.loc 1 275 0
 698 0062 03F00703 		and	r3, r3, #7
 699              	.LBE72:
 700              	.LBE77:
 701              	.LBB78:
 702              	.LBB64:
 216:..\..\..\lvgl\version_6.1.2\lvgl\src\lv_misc/lv_task.c **** 
 703              		.loc 1 216 0
 704 0066 0121     		movs	r1, #1
 705              	.LBE64:
 706              	.LBE78:
 707              	.LBB79:
 708              	.LBB73:
 275:..\..\..\lvgl\version_6.1.2\lvgl\src\lv_misc/lv_task.c **** 
 709              		.loc 1 275 0
 710 0068 A342     		cmp	r3, r4
 711              	.LBE73:
 712              	.LBE79:
 713              	.LBB80:
 714              	.LBB65:
 212:..\..\..\lvgl\version_6.1.2\lvgl\src\lv_misc/lv_task.c **** 
 715              		.loc 1 212 0
 716 006a 7060     		str	r0, [r6, #4]
 717              	.LBE65:
 718              	.LBE80:
 719              	.LBB81:
 720              	.LBB82:
 252:..\..\..\lvgl\version_6.1.2\lvgl\src\lv_misc/lv_task.c **** }
 721              		.loc 1 252 0
 722 006c B760     		str	r7, [r6, #8]
 723              	.LBE82:
 724              	.LBE81:
 725              	.LBB83:
 726              	.LBB84:
 302:..\..\..\lvgl\version_6.1.2\lvgl\src\lv_misc/lv_task.c **** }
 727              		.loc 1 302 0
 728 006e C6F80080 		str	r8, [r6]
 729              	.LBE84:
 730              	.LBE83:
 731              	.LBB85:
 732              	.LBB66:
 216:..\..\..\lvgl\version_6.1.2\lvgl\src\lv_misc/lv_task.c **** 
 733              		.loc 1 216 0
 734 0072 5172     		strb	r1, [r2, #9]
 735              	.LVL65:
 736              	.LBE66:
 737              	.LBE85:
 738              	.LBB86:
 739              	.LBB74:
ARM GAS  C:\Users\pearlstl\AppData\Local\Temp\ccLZH6ci.s 			page 23


 275:..\..\..\lvgl\version_6.1.2\lvgl\src\lv_misc/lv_task.c **** 
 740              		.loc 1 275 0
 741 0074 19D0     		beq	.L108
 279:..\..\..\lvgl\version_6.1.2\lvgl\src\lv_misc/lv_task.c ****     {
 742              		.loc 1 279 0
 743 0076 1A48     		ldr	r0, .L135
 744 0078 FFF7FEFF 		bl	lv_ll_get_head
 745              	.LVL66:
 746 007c 28B9     		cbnz	r0, .L114
 747 007e 21E0     		b	.L109
 748              	.L112:
 749 0080 0146     		mov	r1, r0
 750 0082 1748     		ldr	r0, .L135
 751              	.LVL67:
 752 0084 FFF7FEFF 		bl	lv_ll_get_next
 753              	.LVL68:
 754 0088 E0B1     		cbz	r0, .L109
 755              	.L114:
 281:..\..\..\lvgl\version_6.1.2\lvgl\src\lv_misc/lv_task.c ****             if(i != task) lv_ll_move_before(&LV_GC_ROOT(_lv_task_ll), task, i);
 756              		.loc 1 281 0
 757 008a 037C     		ldrb	r3, [r0, #16]	@ zero_extendqisi2
 758 008c 03F00703 		and	r3, r3, #7
 759 0090 9C42     		cmp	r4, r3
 760 0092 F5DB     		blt	.L112
 282:..\..\..\lvgl\version_6.1.2\lvgl\src\lv_misc/lv_task.c ****             break;
 761              		.loc 1 282 0
 762 0094 8642     		cmp	r6, r0
 763 0096 04D0     		beq	.L115
 764 0098 0246     		mov	r2, r0
 765 009a 3146     		mov	r1, r6
 766 009c 1048     		ldr	r0, .L135
 767              	.LVL69:
 768 009e FFF7FEFF 		bl	lv_ll_move_before
 769              	.LVL70:
 770              	.L115:
 292:..\..\..\lvgl\version_6.1.2\lvgl\src\lv_misc/lv_task.c **** }
 771              		.loc 1 292 0
 772 00a2 337C     		ldrb	r3, [r6, #16]	@ zero_extendqisi2
 773 00a4 64F30203 		bfi	r3, r4, #0, #3
 774 00a8 3374     		strb	r3, [r6, #16]
 775              	.L108:
 776              	.LVL71:
 777              	.LBE74:
 778              	.LBE86:
 240:..\..\..\lvgl\version_6.1.2\lvgl\src\lv_misc/lv_task.c **** 
 779              		.loc 1 240 0
 780 00aa F560     		str	r5, [r6, #12]
 242:..\..\..\lvgl\version_6.1.2\lvgl\src\lv_misc/lv_task.c **** }
 781              		.loc 1 242 0
 782 00ac 3046     		mov	r0, r6
 783 00ae BDE8F883 		pop	{r3, r4, r5, r6, r7, r8, r9, pc}
 784              	.LVL72:
 785              	.L134:
 786              	.LBB87:
 787              	.LBB67:
 201:..\..\..\lvgl\version_6.1.2\lvgl\src\lv_misc/lv_task.c ****             LV_ASSERT_MEM(new_task);
 788              		.loc 1 201 0
ARM GAS  C:\Users\pearlstl\AppData\Local\Temp\ccLZH6ci.s 			page 24


 789 00b2 0B48     		ldr	r0, .L135
 790 00b4 FFF7FEFF 		bl	lv_ll_ins_tail
 791              	.LVL73:
 203:..\..\..\lvgl\version_6.1.2\lvgl\src\lv_misc/lv_task.c ****         }
 792              		.loc 1 203 0
 793 00b8 0646     		mov	r6, r0
 794 00ba 0028     		cmp	r0, #0
 795 00bc BDD1     		bne	.L102
 796              	.LVL74:
 797              	.L105:
 798              	.LBE67:
 799              	.LBE87:
 235:..\..\..\lvgl\version_6.1.2\lvgl\src\lv_misc/lv_task.c **** 
 800              		.loc 1 235 0
 801 00be 0020     		movs	r0, #0
 802              	.LVL75:
 803 00c0 BDE8F883 		pop	{r3, r4, r5, r6, r7, r8, r9, pc}
 804              	.LVL76:
 805              	.L109:
 806              	.LBB88:
 807              	.LBB75:
 289:..\..\..\lvgl\version_6.1.2\lvgl\src\lv_misc/lv_task.c ****     }
 808              		.loc 1 289 0
 809 00c4 0022     		movs	r2, #0
 810 00c6 3146     		mov	r1, r6
 811 00c8 0548     		ldr	r0, .L135
 812              	.LVL77:
 813 00ca FFF7FEFF 		bl	lv_ll_move_before
 814              	.LVL78:
 815 00ce E8E7     		b	.L115
 816              	.LVL79:
 817              	.L133:
 818              	.LBE75:
 819              	.LBE88:
 820              	.LBB89:
 821              	.LBB68:
 183:..\..\..\lvgl\version_6.1.2\lvgl\src\lv_misc/lv_task.c ****         LV_ASSERT_MEM(new_task);
 822              		.loc 1 183 0
 823 00d0 0348     		ldr	r0, .L135
 824              	.LVL80:
 825 00d2 FFF7FEFF 		bl	lv_ll_ins_head
 826              	.LVL81:
 185:..\..\..\lvgl\version_6.1.2\lvgl\src\lv_misc/lv_task.c ****     }
 827              		.loc 1 185 0
 828 00d6 0646     		mov	r6, r0
 829 00d8 0028     		cmp	r0, #0
 830 00da AED1     		bne	.L102
 831 00dc EFE7     		b	.L105
 832              	.L136:
 833 00de 00BF     		.align	2
 834              	.L135:
 835 00e0 00000000 		.word	_lv_task_ll
 836 00e4 00000000 		.word	.LANCHOR0
 837              	.LBE68:
 838              	.LBE89:
 839              		.cfi_endproc
 840              	.LFE34:
ARM GAS  C:\Users\pearlstl\AppData\Local\Temp\ccLZH6ci.s 			page 25


 841              		.size	lv_task_create, .-lv_task_create
 842              		.section	.text.lv_task_set_cb,"ax",%progbits
 843              		.align	2
 844              		.global	lv_task_set_cb
 845              		.thumb
 846              		.thumb_func
 847              		.type	lv_task_set_cb, %function
 848              	lv_task_set_cb:
 849              	.LFB35:
 251:..\..\..\lvgl\version_6.1.2\lvgl\src\lv_misc/lv_task.c ****     task->task_cb = task_cb;
 850              		.loc 1 251 0
 851              		.cfi_startproc
 852              		@ args = 0, pretend = 0, frame = 0
 853              		@ frame_needed = 0, uses_anonymous_args = 0
 854              		@ link register save eliminated.
 855              	.LVL82:
 252:..\..\..\lvgl\version_6.1.2\lvgl\src\lv_misc/lv_task.c **** }
 856              		.loc 1 252 0
 857 0000 8160     		str	r1, [r0, #8]
 858 0002 7047     		bx	lr
 859              		.cfi_endproc
 860              	.LFE35:
 861              		.size	lv_task_set_cb, .-lv_task_set_cb
 862              		.section	.text.lv_task_del,"ax",%progbits
 863              		.align	2
 864              		.global	lv_task_del
 865              		.thumb
 866              		.thumb_func
 867              		.type	lv_task_del, %function
 868              	lv_task_del:
 869              	.LFB36:
 260:..\..\..\lvgl\version_6.1.2\lvgl\src\lv_misc/lv_task.c ****     lv_ll_rem(&LV_GC_ROOT(_lv_task_ll), task);
 870              		.loc 1 260 0
 871              		.cfi_startproc
 872              		@ args = 0, pretend = 0, frame = 0
 873              		@ frame_needed = 0, uses_anonymous_args = 0
 874              	.LVL83:
 875 0000 10B5     		push	{r4, lr}
 876              		.cfi_def_cfa_offset 8
 877              		.cfi_offset 4, -8
 878              		.cfi_offset 14, -4
 261:..\..\..\lvgl\version_6.1.2\lvgl\src\lv_misc/lv_task.c **** 
 879              		.loc 1 261 0
 880 0002 0146     		mov	r1, r0
 260:..\..\..\lvgl\version_6.1.2\lvgl\src\lv_misc/lv_task.c ****     lv_ll_rem(&LV_GC_ROOT(_lv_task_ll), task);
 881              		.loc 1 260 0
 882 0004 0446     		mov	r4, r0
 261:..\..\..\lvgl\version_6.1.2\lvgl\src\lv_misc/lv_task.c **** 
 883              		.loc 1 261 0
 884 0006 0748     		ldr	r0, .L142
 885              	.LVL84:
 886 0008 FFF7FEFF 		bl	lv_ll_rem
 887              	.LVL85:
 263:..\..\..\lvgl\version_6.1.2\lvgl\src\lv_misc/lv_task.c **** 
 888              		.loc 1 263 0
 889 000c 2046     		mov	r0, r4
 890 000e FFF7FEFF 		bl	lv_mem_free
ARM GAS  C:\Users\pearlstl\AppData\Local\Temp\ccLZH6ci.s 			page 26


 891              	.LVL86:
 265:..\..\..\lvgl\version_6.1.2\lvgl\src\lv_misc/lv_task.c **** }
 892              		.loc 1 265 0
 893 0012 054B     		ldr	r3, .L142+4
 894 0014 1B68     		ldr	r3, [r3]
 895 0016 9C42     		cmp	r4, r3
 896 0018 00D0     		beq	.L141
 897 001a 10BD     		pop	{r4, pc}
 898              	.LVL87:
 899              	.L141:
 265:..\..\..\lvgl\version_6.1.2\lvgl\src\lv_misc/lv_task.c **** }
 900              		.loc 1 265 0 is_stmt 0 discriminator 1
 901 001c 034B     		ldr	r3, .L142+8
 902 001e 0122     		movs	r2, #1
 903 0020 1A72     		strb	r2, [r3, #8]
 904 0022 10BD     		pop	{r4, pc}
 905              	.LVL88:
 906              	.L143:
 907              		.align	2
 908              	.L142:
 909 0024 00000000 		.word	_lv_task_ll
 910 0028 00000000 		.word	_lv_task_act
 911 002c 00000000 		.word	.LANCHOR0
 912              		.cfi_endproc
 913              	.LFE36:
 914              		.size	lv_task_del, .-lv_task_del
 915              		.section	.text.lv_task_set_prio,"ax",%progbits
 916              		.align	2
 917              		.global	lv_task_set_prio
 918              		.thumb
 919              		.thumb_func
 920              		.type	lv_task_set_prio, %function
 921              	lv_task_set_prio:
 922              	.LFB37:
 274:..\..\..\lvgl\version_6.1.2\lvgl\src\lv_misc/lv_task.c ****     if(task->prio == prio) return;
 923              		.loc 1 274 0 is_stmt 1
 924              		.cfi_startproc
 925              		@ args = 0, pretend = 0, frame = 0
 926              		@ frame_needed = 0, uses_anonymous_args = 0
 927              	.LVL89:
 928 0000 38B5     		push	{r3, r4, r5, lr}
 929              		.cfi_def_cfa_offset 16
 930              		.cfi_offset 3, -16
 931              		.cfi_offset 4, -12
 932              		.cfi_offset 5, -8
 933              		.cfi_offset 14, -4
 275:..\..\..\lvgl\version_6.1.2\lvgl\src\lv_misc/lv_task.c **** 
 934              		.loc 1 275 0
 935 0002 037C     		ldrb	r3, [r0, #16]	@ zero_extendqisi2
 936 0004 03F00703 		and	r3, r3, #7
 937 0008 8B42     		cmp	r3, r1
 938 000a 1CD0     		beq	.L144
 939 000c 0546     		mov	r5, r0
 279:..\..\..\lvgl\version_6.1.2\lvgl\src\lv_misc/lv_task.c ****     {
 940              		.loc 1 279 0
 941 000e 1348     		ldr	r0, .L159
 942              	.LVL90:
ARM GAS  C:\Users\pearlstl\AppData\Local\Temp\ccLZH6ci.s 			page 27


 943 0010 0C46     		mov	r4, r1
 944 0012 FFF7FEFF 		bl	lv_ll_get_head
 945              	.LVL91:
 946 0016 28B9     		cbnz	r0, .L151
 947 0018 16E0     		b	.L146
 948              	.L149:
 279:..\..\..\lvgl\version_6.1.2\lvgl\src\lv_misc/lv_task.c ****     {
 949              		.loc 1 279 0 is_stmt 0 discriminator 2
 950 001a 0146     		mov	r1, r0
 951 001c 0F48     		ldr	r0, .L159
 952              	.LVL92:
 953 001e FFF7FEFF 		bl	lv_ll_get_next
 954              	.LVL93:
 955 0022 88B1     		cbz	r0, .L146
 956              	.L151:
 281:..\..\..\lvgl\version_6.1.2\lvgl\src\lv_misc/lv_task.c ****             if(i != task) lv_ll_move_before(&LV_GC_ROOT(_lv_task_ll), task, i);
 957              		.loc 1 281 0 is_stmt 1
 958 0024 037C     		ldrb	r3, [r0, #16]	@ zero_extendqisi2
 959 0026 03F00703 		and	r3, r3, #7
 960 002a 9C42     		cmp	r4, r3
 961 002c F5DB     		blt	.L149
 282:..\..\..\lvgl\version_6.1.2\lvgl\src\lv_misc/lv_task.c ****             break;
 962              		.loc 1 282 0
 963 002e 8542     		cmp	r5, r0
 964 0030 04D0     		beq	.L152
 282:..\..\..\lvgl\version_6.1.2\lvgl\src\lv_misc/lv_task.c ****             break;
 965              		.loc 1 282 0 is_stmt 0 discriminator 1
 966 0032 0246     		mov	r2, r0
 967 0034 2946     		mov	r1, r5
 968 0036 0948     		ldr	r0, .L159
 969              	.LVL94:
 970 0038 FFF7FEFF 		bl	lv_ll_move_before
 971              	.LVL95:
 972              	.L152:
 292:..\..\..\lvgl\version_6.1.2\lvgl\src\lv_misc/lv_task.c **** }
 973              		.loc 1 292 0 is_stmt 1
 974 003c 2B7C     		ldrb	r3, [r5, #16]	@ zero_extendqisi2
 975 003e 64F30203 		bfi	r3, r4, #0, #3
 976 0042 2B74     		strb	r3, [r5, #16]
 977 0044 38BD     		pop	{r3, r4, r5, pc}
 978              	.LVL96:
 979              	.L144:
 980 0046 38BD     		pop	{r3, r4, r5, pc}
 981              	.LVL97:
 982              	.L146:
 289:..\..\..\lvgl\version_6.1.2\lvgl\src\lv_misc/lv_task.c ****     }
 983              		.loc 1 289 0
 984 0048 0022     		movs	r2, #0
 985 004a 2946     		mov	r1, r5
 986 004c 0348     		ldr	r0, .L159
 987              	.LVL98:
 988 004e FFF7FEFF 		bl	lv_ll_move_before
 989              	.LVL99:
 292:..\..\..\lvgl\version_6.1.2\lvgl\src\lv_misc/lv_task.c **** }
 990              		.loc 1 292 0
 991 0052 2B7C     		ldrb	r3, [r5, #16]	@ zero_extendqisi2
 992 0054 64F30203 		bfi	r3, r4, #0, #3
ARM GAS  C:\Users\pearlstl\AppData\Local\Temp\ccLZH6ci.s 			page 28


 993 0058 2B74     		strb	r3, [r5, #16]
 994 005a 38BD     		pop	{r3, r4, r5, pc}
 995              	.LVL100:
 996              	.L160:
 997              		.align	2
 998              	.L159:
 999 005c 00000000 		.word	_lv_task_ll
 1000              		.cfi_endproc
 1001              	.LFE37:
 1002              		.size	lv_task_set_prio, .-lv_task_set_prio
 1003              		.section	.text.lv_task_set_period,"ax",%progbits
 1004              		.align	2
 1005              		.global	lv_task_set_period
 1006              		.thumb
 1007              		.thumb_func
 1008              		.type	lv_task_set_period, %function
 1009              	lv_task_set_period:
 1010              	.LFB38:
 301:..\..\..\lvgl\version_6.1.2\lvgl\src\lv_misc/lv_task.c ****     task->period = period;
 1011              		.loc 1 301 0
 1012              		.cfi_startproc
 1013              		@ args = 0, pretend = 0, frame = 0
 1014              		@ frame_needed = 0, uses_anonymous_args = 0
 1015              		@ link register save eliminated.
 1016              	.LVL101:
 302:..\..\..\lvgl\version_6.1.2\lvgl\src\lv_misc/lv_task.c **** }
 1017              		.loc 1 302 0
 1018 0000 0160     		str	r1, [r0]
 1019 0002 7047     		bx	lr
 1020              		.cfi_endproc
 1021              	.LFE38:
 1022              		.size	lv_task_set_period, .-lv_task_set_period
 1023              		.section	.text.lv_task_ready,"ax",%progbits
 1024              		.align	2
 1025              		.global	lv_task_ready
 1026              		.thumb
 1027              		.thumb_func
 1028              		.type	lv_task_ready, %function
 1029              	lv_task_ready:
 1030              	.LFB39:
 310:..\..\..\lvgl\version_6.1.2\lvgl\src\lv_misc/lv_task.c ****     task->last_run = lv_tick_get() - task->period - 1;
 1031              		.loc 1 310 0
 1032              		.cfi_startproc
 1033              		@ args = 0, pretend = 0, frame = 0
 1034              		@ frame_needed = 0, uses_anonymous_args = 0
 1035              	.LVL102:
 1036 0000 10B5     		push	{r4, lr}
 1037              		.cfi_def_cfa_offset 8
 1038              		.cfi_offset 4, -8
 1039              		.cfi_offset 14, -4
 310:..\..\..\lvgl\version_6.1.2\lvgl\src\lv_misc/lv_task.c ****     task->last_run = lv_tick_get() - task->period - 1;
 1040              		.loc 1 310 0
 1041 0002 0446     		mov	r4, r0
 311:..\..\..\lvgl\version_6.1.2\lvgl\src\lv_misc/lv_task.c **** }
 1042              		.loc 1 311 0
 1043 0004 FFF7FEFF 		bl	lv_tick_get
 1044              	.LVL103:
ARM GAS  C:\Users\pearlstl\AppData\Local\Temp\ccLZH6ci.s 			page 29


 1045 0008 2368     		ldr	r3, [r4]
 1046 000a DB43     		mvns	r3, r3
 1047 000c 1844     		add	r0, r0, r3
 1048 000e 6060     		str	r0, [r4, #4]
 1049 0010 10BD     		pop	{r4, pc}
 1050              		.cfi_endproc
 1051              	.LFE39:
 1052              		.size	lv_task_ready, .-lv_task_ready
 1053 0012 00BF     		.section	.text.lv_task_once,"ax",%progbits
 1054              		.align	2
 1055              		.global	lv_task_once
 1056              		.thumb
 1057              		.thumb_func
 1058              		.type	lv_task_once, %function
 1059              	lv_task_once:
 1060              	.LFB40:
 319:..\..\..\lvgl\version_6.1.2\lvgl\src\lv_misc/lv_task.c ****     task->once = 1;
 1061              		.loc 1 319 0
 1062              		.cfi_startproc
 1063              		@ args = 0, pretend = 0, frame = 0
 1064              		@ frame_needed = 0, uses_anonymous_args = 0
 1065              		@ link register save eliminated.
 1066              	.LVL104:
 320:..\..\..\lvgl\version_6.1.2\lvgl\src\lv_misc/lv_task.c **** }
 1067              		.loc 1 320 0
 1068 0000 037C     		ldrb	r3, [r0, #16]	@ zero_extendqisi2
 1069 0002 43F00803 		orr	r3, r3, #8
 1070 0006 0374     		strb	r3, [r0, #16]
 1071 0008 7047     		bx	lr
 1072              		.cfi_endproc
 1073              	.LFE40:
 1074              		.size	lv_task_once, .-lv_task_once
 1075 000a 00BF     		.section	.text.lv_task_reset,"ax",%progbits
 1076              		.align	2
 1077              		.global	lv_task_reset
 1078              		.thumb
 1079              		.thumb_func
 1080              		.type	lv_task_reset, %function
 1081              	lv_task_reset:
 1082              	.LFB41:
 329:..\..\..\lvgl\version_6.1.2\lvgl\src\lv_misc/lv_task.c ****     task->last_run = lv_tick_get();
 1083              		.loc 1 329 0
 1084              		.cfi_startproc
 1085              		@ args = 0, pretend = 0, frame = 0
 1086              		@ frame_needed = 0, uses_anonymous_args = 0
 1087              	.LVL105:
 1088 0000 10B5     		push	{r4, lr}
 1089              		.cfi_def_cfa_offset 8
 1090              		.cfi_offset 4, -8
 1091              		.cfi_offset 14, -4
 329:..\..\..\lvgl\version_6.1.2\lvgl\src\lv_misc/lv_task.c ****     task->last_run = lv_tick_get();
 1092              		.loc 1 329 0
 1093 0002 0446     		mov	r4, r0
 330:..\..\..\lvgl\version_6.1.2\lvgl\src\lv_misc/lv_task.c **** }
 1094              		.loc 1 330 0
 1095 0004 FFF7FEFF 		bl	lv_tick_get
 1096              	.LVL106:
ARM GAS  C:\Users\pearlstl\AppData\Local\Temp\ccLZH6ci.s 			page 30


 1097 0008 6060     		str	r0, [r4, #4]
 1098 000a 10BD     		pop	{r4, pc}
 1099              		.cfi_endproc
 1100              	.LFE41:
 1101              		.size	lv_task_reset, .-lv_task_reset
 1102              		.section	.text.lv_task_enable,"ax",%progbits
 1103              		.align	2
 1104              		.global	lv_task_enable
 1105              		.thumb
 1106              		.thumb_func
 1107              		.type	lv_task_enable, %function
 1108              	lv_task_enable:
 1109              	.LFB42:
 338:..\..\..\lvgl\version_6.1.2\lvgl\src\lv_misc/lv_task.c ****     lv_task_run = en;
 1110              		.loc 1 338 0
 1111              		.cfi_startproc
 1112              		@ args = 0, pretend = 0, frame = 0
 1113              		@ frame_needed = 0, uses_anonymous_args = 0
 1114              		@ link register save eliminated.
 1115              	.LVL107:
 339:..\..\..\lvgl\version_6.1.2\lvgl\src\lv_misc/lv_task.c **** }
 1116              		.loc 1 339 0
 1117 0000 014B     		ldr	r3, .L168
 1118 0002 1870     		strb	r0, [r3]
 1119 0004 7047     		bx	lr
 1120              	.L169:
 1121 0006 00BF     		.align	2
 1122              	.L168:
 1123 0008 00000000 		.word	.LANCHOR0
 1124              		.cfi_endproc
 1125              	.LFE42:
 1126              		.size	lv_task_enable, .-lv_task_enable
 1127              		.section	.text.lv_task_get_idle,"ax",%progbits
 1128              		.align	2
 1129              		.global	lv_task_get_idle
 1130              		.thumb
 1131              		.thumb_func
 1132              		.type	lv_task_get_idle, %function
 1133              	lv_task_get_idle:
 1134              	.LFB43:
 347:..\..\..\lvgl\version_6.1.2\lvgl\src\lv_misc/lv_task.c ****     return idle_last;
 1135              		.loc 1 347 0
 1136              		.cfi_startproc
 1137              		@ args = 0, pretend = 0, frame = 0
 1138              		@ frame_needed = 0, uses_anonymous_args = 0
 1139              		@ link register save eliminated.
 348:..\..\..\lvgl\version_6.1.2\lvgl\src\lv_misc/lv_task.c **** }
 1140              		.loc 1 348 0
 1141 0000 014B     		ldr	r3, .L171
 349:..\..\..\lvgl\version_6.1.2\lvgl\src\lv_misc/lv_task.c **** 
 1142              		.loc 1 349 0
 1143 0002 187C     		ldrb	r0, [r3, #16]	@ zero_extendqisi2
 1144 0004 7047     		bx	lr
 1145              	.L172:
 1146 0006 00BF     		.align	2
 1147              	.L171:
 1148 0008 00000000 		.word	.LANCHOR0
ARM GAS  C:\Users\pearlstl\AppData\Local\Temp\ccLZH6ci.s 			page 31


 1149              		.cfi_endproc
 1150              	.LFE43:
 1151              		.size	lv_task_get_idle, .-lv_task_get_idle
 1152              		.bss
 1153              		.align	2
 1154              		.set	.LANCHOR0,. + 0
 1155              		.type	lv_task_run, %object
 1156              		.size	lv_task_run, 1
 1157              	lv_task_run:
 1158 0000 00       		.space	1
 1159              		.type	already_running.5921, %object
 1160              		.size	already_running.5921, 1
 1161              	already_running.5921:
 1162 0001 00       		.space	1
 1163 0002 0000     		.space	2
 1164              		.type	handler_start.5923, %object
 1165              		.size	handler_start.5923, 4
 1166              	handler_start.5923:
 1167 0004 00000000 		.space	4
 1168              		.type	task_deleted, %object
 1169              		.size	task_deleted, 1
 1170              	task_deleted:
 1171 0008 00       		.space	1
 1172              		.type	task_created, %object
 1173              		.size	task_created, 1
 1174              	task_created:
 1175 0009 00       		.space	1
 1176 000a 0000     		.space	2
 1177              		.type	busy_time.5924, %object
 1178              		.size	busy_time.5924, 4
 1179              	busy_time.5924:
 1180 000c 00000000 		.space	4
 1181              		.type	idle_last, %object
 1182              		.size	idle_last, 1
 1183              	idle_last:
 1184 0010 00       		.space	1
 1185 0011 000000   		.space	3
 1186              		.type	idle_period_start.5922, %object
 1187              		.size	idle_period_start.5922, 4
 1188              	idle_period_start.5922:
 1189 0014 00000000 		.space	4
 1190              		.text
 1191              	.Letext0:
 1192              		.file 2 "c:\\program files (x86)\\cypress\\psoc creator\\4.2\\psoc creator\\import\\gnu\\arm\\5.4.
 1193              		.file 3 "c:\\program files (x86)\\cypress\\psoc creator\\4.2\\psoc creator\\import\\gnu\\arm\\5.4.
 1194              		.file 4 "..\\..\\..\\lvgl\\version_6.1.2\\lvgl\\src\\lv_misc\\lv_ll.h"
 1195              		.file 5 "..\\..\\..\\lvgl\\version_6.1.2\\lvgl\\src\\lv_misc\\lv_task.h"
 1196              		.file 6 "..\\..\\..\\lvgl\\version_6.1.2\\lvgl\\src\\lv_misc\\lv_gc.h"
 1197              		.file 7 "..\\..\\..\\lvgl\\version_6.1.2\\lvgl\\src\\lv_misc\\../lv_core/../lv_hal/lv_hal_tick.h"
 1198              		.file 8 "..\\..\\..\\lvgl\\version_6.1.2\\lvgl\\src\\lv_misc\\lv_mem.h"