ARM GAS  C:\Users\pearlstl\AppData\Local\Temp\cc5dErme.s 			page 1


   1              		.syntax unified
   2              		.cpu cortex-m4
   3              		.eabi_attribute 27, 1
   4              		.fpu fpv4-sp-d16
   5              		.eabi_attribute 20, 1
   6              		.eabi_attribute 21, 1
   7              		.eabi_attribute 23, 3
   8              		.eabi_attribute 24, 1
   9              		.eabi_attribute 25, 1
  10              		.eabi_attribute 26, 1
  11              		.eabi_attribute 30, 2
  12              		.eabi_attribute 34, 1
  13              		.eabi_attribute 18, 4
  14              		.thumb
  15              		.syntax unified
  16              		.file	"lv_theme_material.c"
  17              		.text
  18              	.Ltext0:
  19              		.cfi_sections	.debug_frame
  20              		.section	.text.lv_theme_material_init,"ax",%progbits
  21              		.align	2
  22              		.global	lv_theme_material_init
  23              		.thumb
  24              		.thumb_func
  25              		.type	lv_theme_material_init, %function
  26              	lv_theme_material_init:
  27              	.LFB61:
  28              		.file 1 "..\\..\\..\\lvgl\\version_6.1.2\\lvgl\\src\\lv_themes\\lv_theme_material.c"
   1:..\..\..\lvgl\version_6.1.2\lvgl\src\lv_themes/lv_theme_material.c **** /**
   2:..\..\..\lvgl\version_6.1.2\lvgl\src\lv_themes/lv_theme_material.c ****  * @file lv_theme_material.c
   3:..\..\..\lvgl\version_6.1.2\lvgl\src\lv_themes/lv_theme_material.c ****  *
   4:..\..\..\lvgl\version_6.1.2\lvgl\src\lv_themes/lv_theme_material.c ****  */
   5:..\..\..\lvgl\version_6.1.2\lvgl\src\lv_themes/lv_theme_material.c **** 
   6:..\..\..\lvgl\version_6.1.2\lvgl\src\lv_themes/lv_theme_material.c **** /*********************
   7:..\..\..\lvgl\version_6.1.2\lvgl\src\lv_themes/lv_theme_material.c ****  *      INCLUDES
   8:..\..\..\lvgl\version_6.1.2\lvgl\src\lv_themes/lv_theme_material.c ****  *********************/
   9:..\..\..\lvgl\version_6.1.2\lvgl\src\lv_themes/lv_theme_material.c **** #include "lv_theme.h"
  10:..\..\..\lvgl\version_6.1.2\lvgl\src\lv_themes/lv_theme_material.c **** 
  11:..\..\..\lvgl\version_6.1.2\lvgl\src\lv_themes/lv_theme_material.c **** #if LV_USE_THEME_MATERIAL
  12:..\..\..\lvgl\version_6.1.2\lvgl\src\lv_themes/lv_theme_material.c **** 
  13:..\..\..\lvgl\version_6.1.2\lvgl\src\lv_themes/lv_theme_material.c **** /*********************
  14:..\..\..\lvgl\version_6.1.2\lvgl\src\lv_themes/lv_theme_material.c ****  *      DEFINES
  15:..\..\..\lvgl\version_6.1.2\lvgl\src\lv_themes/lv_theme_material.c ****  *********************/
  16:..\..\..\lvgl\version_6.1.2\lvgl\src\lv_themes/lv_theme_material.c **** #define DEF_RADIUS 4
  17:..\..\..\lvgl\version_6.1.2\lvgl\src\lv_themes/lv_theme_material.c **** #define DEF_SHADOW_COLOR lv_color_hex3(0xaaa)
  18:..\..\..\lvgl\version_6.1.2\lvgl\src\lv_themes/lv_theme_material.c **** 
  19:..\..\..\lvgl\version_6.1.2\lvgl\src\lv_themes/lv_theme_material.c **** /**********************
  20:..\..\..\lvgl\version_6.1.2\lvgl\src\lv_themes/lv_theme_material.c ****  *      TYPEDEFS
  21:..\..\..\lvgl\version_6.1.2\lvgl\src\lv_themes/lv_theme_material.c ****  **********************/
  22:..\..\..\lvgl\version_6.1.2\lvgl\src\lv_themes/lv_theme_material.c **** 
  23:..\..\..\lvgl\version_6.1.2\lvgl\src\lv_themes/lv_theme_material.c **** /**********************
  24:..\..\..\lvgl\version_6.1.2\lvgl\src\lv_themes/lv_theme_material.c ****  *  STATIC PROTOTYPES
  25:..\..\..\lvgl\version_6.1.2\lvgl\src\lv_themes/lv_theme_material.c ****  **********************/
  26:..\..\..\lvgl\version_6.1.2\lvgl\src\lv_themes/lv_theme_material.c **** 
  27:..\..\..\lvgl\version_6.1.2\lvgl\src\lv_themes/lv_theme_material.c **** /**********************
  28:..\..\..\lvgl\version_6.1.2\lvgl\src\lv_themes/lv_theme_material.c ****  *  STATIC VARIABLES
  29:..\..\..\lvgl\version_6.1.2\lvgl\src\lv_themes/lv_theme_material.c ****  **********************/
ARM GAS  C:\Users\pearlstl\AppData\Local\Temp\cc5dErme.s 			page 2


  30:..\..\..\lvgl\version_6.1.2\lvgl\src\lv_themes/lv_theme_material.c **** static lv_theme_t theme;
  31:..\..\..\lvgl\version_6.1.2\lvgl\src\lv_themes/lv_theme_material.c **** static lv_style_t def;
  32:..\..\..\lvgl\version_6.1.2\lvgl\src\lv_themes/lv_theme_material.c **** 
  33:..\..\..\lvgl\version_6.1.2\lvgl\src\lv_themes/lv_theme_material.c **** /*Static style definitions*/
  34:..\..\..\lvgl\version_6.1.2\lvgl\src\lv_themes/lv_theme_material.c **** static lv_style_t sb;
  35:..\..\..\lvgl\version_6.1.2\lvgl\src\lv_themes/lv_theme_material.c **** 
  36:..\..\..\lvgl\version_6.1.2\lvgl\src\lv_themes/lv_theme_material.c **** /*Saved input parameters*/
  37:..\..\..\lvgl\version_6.1.2\lvgl\src\lv_themes/lv_theme_material.c **** static uint16_t _hue;
  38:..\..\..\lvgl\version_6.1.2\lvgl\src\lv_themes/lv_theme_material.c **** static lv_font_t * _font;
  39:..\..\..\lvgl\version_6.1.2\lvgl\src\lv_themes/lv_theme_material.c **** 
  40:..\..\..\lvgl\version_6.1.2\lvgl\src\lv_themes/lv_theme_material.c **** /**********************
  41:..\..\..\lvgl\version_6.1.2\lvgl\src\lv_themes/lv_theme_material.c ****  *      MACROS
  42:..\..\..\lvgl\version_6.1.2\lvgl\src\lv_themes/lv_theme_material.c ****  **********************/
  43:..\..\..\lvgl\version_6.1.2\lvgl\src\lv_themes/lv_theme_material.c **** 
  44:..\..\..\lvgl\version_6.1.2\lvgl\src\lv_themes/lv_theme_material.c **** /**********************
  45:..\..\..\lvgl\version_6.1.2\lvgl\src\lv_themes/lv_theme_material.c ****  *   STATIC FUNCTIONS
  46:..\..\..\lvgl\version_6.1.2\lvgl\src\lv_themes/lv_theme_material.c ****  **********************/
  47:..\..\..\lvgl\version_6.1.2\lvgl\src\lv_themes/lv_theme_material.c **** 
  48:..\..\..\lvgl\version_6.1.2\lvgl\src\lv_themes/lv_theme_material.c **** static void basic_init(void)
  49:..\..\..\lvgl\version_6.1.2\lvgl\src\lv_themes/lv_theme_material.c **** {
  50:..\..\..\lvgl\version_6.1.2\lvgl\src\lv_themes/lv_theme_material.c ****     static lv_style_t bg, panel, scr;
  51:..\..\..\lvgl\version_6.1.2\lvgl\src\lv_themes/lv_theme_material.c **** 
  52:..\..\..\lvgl\version_6.1.2\lvgl\src\lv_themes/lv_theme_material.c ****     lv_style_copy(&def, &lv_style_plain); /*Initialize the default style*/
  53:..\..\..\lvgl\version_6.1.2\lvgl\src\lv_themes/lv_theme_material.c ****     def.text.font   = _font;
  54:..\..\..\lvgl\version_6.1.2\lvgl\src\lv_themes/lv_theme_material.c ****     def.body.radius = DEF_RADIUS;
  55:..\..\..\lvgl\version_6.1.2\lvgl\src\lv_themes/lv_theme_material.c **** 
  56:..\..\..\lvgl\version_6.1.2\lvgl\src\lv_themes/lv_theme_material.c ****     lv_style_copy(&bg, &def);
  57:..\..\..\lvgl\version_6.1.2\lvgl\src\lv_themes/lv_theme_material.c ****     bg.body.main_color = lv_color_hex(0xf0f0f0);
  58:..\..\..\lvgl\version_6.1.2\lvgl\src\lv_themes/lv_theme_material.c ****     bg.body.grad_color = bg.body.main_color;
  59:..\..\..\lvgl\version_6.1.2\lvgl\src\lv_themes/lv_theme_material.c ****     bg.body.radius     = 0;
  60:..\..\..\lvgl\version_6.1.2\lvgl\src\lv_themes/lv_theme_material.c **** 
  61:..\..\..\lvgl\version_6.1.2\lvgl\src\lv_themes/lv_theme_material.c ****     lv_style_copy(&scr, &bg);
  62:..\..\..\lvgl\version_6.1.2\lvgl\src\lv_themes/lv_theme_material.c ****     scr.body.padding.bottom = 0;
  63:..\..\..\lvgl\version_6.1.2\lvgl\src\lv_themes/lv_theme_material.c ****     scr.body.padding.top    = 0;
  64:..\..\..\lvgl\version_6.1.2\lvgl\src\lv_themes/lv_theme_material.c ****     scr.body.padding.left   = 0;
  65:..\..\..\lvgl\version_6.1.2\lvgl\src\lv_themes/lv_theme_material.c ****     scr.body.padding.right  = 0;
  66:..\..\..\lvgl\version_6.1.2\lvgl\src\lv_themes/lv_theme_material.c **** 
  67:..\..\..\lvgl\version_6.1.2\lvgl\src\lv_themes/lv_theme_material.c ****     lv_style_copy(&panel, &def);
  68:..\..\..\lvgl\version_6.1.2\lvgl\src\lv_themes/lv_theme_material.c ****     panel.body.radius         = DEF_RADIUS;
  69:..\..\..\lvgl\version_6.1.2\lvgl\src\lv_themes/lv_theme_material.c ****     panel.body.main_color     = LV_COLOR_WHITE;
  70:..\..\..\lvgl\version_6.1.2\lvgl\src\lv_themes/lv_theme_material.c ****     panel.body.grad_color     = LV_COLOR_WHITE;
  71:..\..\..\lvgl\version_6.1.2\lvgl\src\lv_themes/lv_theme_material.c ****     panel.body.border.width   = 1;
  72:..\..\..\lvgl\version_6.1.2\lvgl\src\lv_themes/lv_theme_material.c ****     panel.body.border.color   = lv_color_hex3(0xbbb);
  73:..\..\..\lvgl\version_6.1.2\lvgl\src\lv_themes/lv_theme_material.c ****     panel.body.border.opa     = LV_OPA_COVER;
  74:..\..\..\lvgl\version_6.1.2\lvgl\src\lv_themes/lv_theme_material.c ****     panel.body.shadow.color   = DEF_SHADOW_COLOR;
  75:..\..\..\lvgl\version_6.1.2\lvgl\src\lv_themes/lv_theme_material.c ****     panel.body.shadow.type    = LV_SHADOW_BOTTOM;
  76:..\..\..\lvgl\version_6.1.2\lvgl\src\lv_themes/lv_theme_material.c ****     panel.body.shadow.width   = 4;
  77:..\..\..\lvgl\version_6.1.2\lvgl\src\lv_themes/lv_theme_material.c ****     panel.body.padding.left   = LV_DPI / 8;
  78:..\..\..\lvgl\version_6.1.2\lvgl\src\lv_themes/lv_theme_material.c ****     panel.body.padding.right  = LV_DPI / 8;
  79:..\..\..\lvgl\version_6.1.2\lvgl\src\lv_themes/lv_theme_material.c ****     panel.body.padding.top    = LV_DPI / 8;
  80:..\..\..\lvgl\version_6.1.2\lvgl\src\lv_themes/lv_theme_material.c ****     panel.body.padding.bottom = LV_DPI / 8;
  81:..\..\..\lvgl\version_6.1.2\lvgl\src\lv_themes/lv_theme_material.c ****     panel.body.padding.inner  = LV_DPI / 12;
  82:..\..\..\lvgl\version_6.1.2\lvgl\src\lv_themes/lv_theme_material.c ****     panel.text.color          = lv_color_hex3(0x333);
  83:..\..\..\lvgl\version_6.1.2\lvgl\src\lv_themes/lv_theme_material.c ****     panel.image.color         = lv_color_hex3(0x333);
  84:..\..\..\lvgl\version_6.1.2\lvgl\src\lv_themes/lv_theme_material.c **** 
  85:..\..\..\lvgl\version_6.1.2\lvgl\src\lv_themes/lv_theme_material.c ****     lv_style_copy(&sb, &def);
  86:..\..\..\lvgl\version_6.1.2\lvgl\src\lv_themes/lv_theme_material.c ****     sb.body.main_color     = LV_COLOR_BLACK;
ARM GAS  C:\Users\pearlstl\AppData\Local\Temp\cc5dErme.s 			page 3


  87:..\..\..\lvgl\version_6.1.2\lvgl\src\lv_themes/lv_theme_material.c ****     sb.body.grad_color     = LV_COLOR_BLACK;
  88:..\..\..\lvgl\version_6.1.2\lvgl\src\lv_themes/lv_theme_material.c ****     sb.body.opa            = LV_OPA_40;
  89:..\..\..\lvgl\version_6.1.2\lvgl\src\lv_themes/lv_theme_material.c ****     sb.body.padding.right  = LV_DPI / 25;
  90:..\..\..\lvgl\version_6.1.2\lvgl\src\lv_themes/lv_theme_material.c ****     sb.body.padding.bottom = LV_DPI / 25;
  91:..\..\..\lvgl\version_6.1.2\lvgl\src\lv_themes/lv_theme_material.c **** 
  92:..\..\..\lvgl\version_6.1.2\lvgl\src\lv_themes/lv_theme_material.c ****     theme.style.bg    = &bg;
  93:..\..\..\lvgl\version_6.1.2\lvgl\src\lv_themes/lv_theme_material.c ****     theme.style.scr   = &scr;
  94:..\..\..\lvgl\version_6.1.2\lvgl\src\lv_themes/lv_theme_material.c ****     theme.style.panel = &panel;
  95:..\..\..\lvgl\version_6.1.2\lvgl\src\lv_themes/lv_theme_material.c **** }
  96:..\..\..\lvgl\version_6.1.2\lvgl\src\lv_themes/lv_theme_material.c **** 
  97:..\..\..\lvgl\version_6.1.2\lvgl\src\lv_themes/lv_theme_material.c **** static void cont_init(void)
  98:..\..\..\lvgl\version_6.1.2\lvgl\src\lv_themes/lv_theme_material.c **** {
  99:..\..\..\lvgl\version_6.1.2\lvgl\src\lv_themes/lv_theme_material.c **** #if LV_USE_CONT != 0
 100:..\..\..\lvgl\version_6.1.2\lvgl\src\lv_themes/lv_theme_material.c **** 
 101:..\..\..\lvgl\version_6.1.2\lvgl\src\lv_themes/lv_theme_material.c ****     theme.style.cont = theme.style.panel;
 102:..\..\..\lvgl\version_6.1.2\lvgl\src\lv_themes/lv_theme_material.c **** #endif
 103:..\..\..\lvgl\version_6.1.2\lvgl\src\lv_themes/lv_theme_material.c **** }
 104:..\..\..\lvgl\version_6.1.2\lvgl\src\lv_themes/lv_theme_material.c **** 
 105:..\..\..\lvgl\version_6.1.2\lvgl\src\lv_themes/lv_theme_material.c **** static void btn_init(void)
 106:..\..\..\lvgl\version_6.1.2\lvgl\src\lv_themes/lv_theme_material.c **** {
 107:..\..\..\lvgl\version_6.1.2\lvgl\src\lv_themes/lv_theme_material.c **** #if LV_USE_BTN != 0
 108:..\..\..\lvgl\version_6.1.2\lvgl\src\lv_themes/lv_theme_material.c ****     static lv_style_t rel, pr, tgl_rel, tgl_pr, ina;
 109:..\..\..\lvgl\version_6.1.2\lvgl\src\lv_themes/lv_theme_material.c **** 
 110:..\..\..\lvgl\version_6.1.2\lvgl\src\lv_themes/lv_theme_material.c ****     lv_style_copy(&rel, &def);
 111:..\..\..\lvgl\version_6.1.2\lvgl\src\lv_themes/lv_theme_material.c ****     rel.body.main_color     = lv_color_hsv_to_rgb(_hue, 90, 70);
 112:..\..\..\lvgl\version_6.1.2\lvgl\src\lv_themes/lv_theme_material.c ****     rel.body.grad_color     = rel.body.main_color;
 113:..\..\..\lvgl\version_6.1.2\lvgl\src\lv_themes/lv_theme_material.c ****     rel.body.radius         = DEF_RADIUS;
 114:..\..\..\lvgl\version_6.1.2\lvgl\src\lv_themes/lv_theme_material.c ****     rel.body.padding.left   = LV_DPI / 6;
 115:..\..\..\lvgl\version_6.1.2\lvgl\src\lv_themes/lv_theme_material.c ****     rel.body.padding.right  = LV_DPI / 6;
 116:..\..\..\lvgl\version_6.1.2\lvgl\src\lv_themes/lv_theme_material.c ****     rel.body.padding.top    = LV_DPI / 8;
 117:..\..\..\lvgl\version_6.1.2\lvgl\src\lv_themes/lv_theme_material.c ****     rel.body.padding.bottom = LV_DPI / 8;
 118:..\..\..\lvgl\version_6.1.2\lvgl\src\lv_themes/lv_theme_material.c ****     rel.body.padding.inner  = LV_DPI / 10;
 119:..\..\..\lvgl\version_6.1.2\lvgl\src\lv_themes/lv_theme_material.c ****     rel.body.shadow.color   = DEF_SHADOW_COLOR;
 120:..\..\..\lvgl\version_6.1.2\lvgl\src\lv_themes/lv_theme_material.c ****     rel.body.shadow.type    = LV_SHADOW_BOTTOM;
 121:..\..\..\lvgl\version_6.1.2\lvgl\src\lv_themes/lv_theme_material.c ****     rel.body.shadow.width   = 6;
 122:..\..\..\lvgl\version_6.1.2\lvgl\src\lv_themes/lv_theme_material.c ****     rel.text.color          = lv_color_hsv_to_rgb(_hue, 5, 95);
 123:..\..\..\lvgl\version_6.1.2\lvgl\src\lv_themes/lv_theme_material.c ****     rel.image.color         = lv_color_hsv_to_rgb(_hue, 5, 95);
 124:..\..\..\lvgl\version_6.1.2\lvgl\src\lv_themes/lv_theme_material.c **** 
 125:..\..\..\lvgl\version_6.1.2\lvgl\src\lv_themes/lv_theme_material.c ****     lv_style_copy(&pr, &rel);
 126:..\..\..\lvgl\version_6.1.2\lvgl\src\lv_themes/lv_theme_material.c ****     pr.body.main_color   = lv_color_hsv_to_rgb(_hue, 90, 60);
 127:..\..\..\lvgl\version_6.1.2\lvgl\src\lv_themes/lv_theme_material.c ****     pr.body.grad_color   = pr.body.main_color;
 128:..\..\..\lvgl\version_6.1.2\lvgl\src\lv_themes/lv_theme_material.c ****     pr.body.shadow.width = 4;
 129:..\..\..\lvgl\version_6.1.2\lvgl\src\lv_themes/lv_theme_material.c **** 
 130:..\..\..\lvgl\version_6.1.2\lvgl\src\lv_themes/lv_theme_material.c ****     lv_style_copy(&tgl_rel, &rel);
 131:..\..\..\lvgl\version_6.1.2\lvgl\src\lv_themes/lv_theme_material.c ****     tgl_rel.body.main_color   = lv_color_hsv_to_rgb(_hue, 95, 50);
 132:..\..\..\lvgl\version_6.1.2\lvgl\src\lv_themes/lv_theme_material.c ****     tgl_rel.body.grad_color   = tgl_rel.body.main_color;
 133:..\..\..\lvgl\version_6.1.2\lvgl\src\lv_themes/lv_theme_material.c ****     tgl_rel.body.shadow.width = 4;
 134:..\..\..\lvgl\version_6.1.2\lvgl\src\lv_themes/lv_theme_material.c **** 
 135:..\..\..\lvgl\version_6.1.2\lvgl\src\lv_themes/lv_theme_material.c ****     lv_style_copy(&tgl_pr, &tgl_rel);
 136:..\..\..\lvgl\version_6.1.2\lvgl\src\lv_themes/lv_theme_material.c ****     tgl_pr.body.main_color   = lv_color_hsv_to_rgb(_hue, 95, 40);
 137:..\..\..\lvgl\version_6.1.2\lvgl\src\lv_themes/lv_theme_material.c ****     tgl_pr.body.grad_color   = tgl_pr.body.main_color;
 138:..\..\..\lvgl\version_6.1.2\lvgl\src\lv_themes/lv_theme_material.c ****     tgl_pr.body.shadow.width = 2;
 139:..\..\..\lvgl\version_6.1.2\lvgl\src\lv_themes/lv_theme_material.c **** 
 140:..\..\..\lvgl\version_6.1.2\lvgl\src\lv_themes/lv_theme_material.c ****     lv_style_copy(&ina, &rel);
 141:..\..\..\lvgl\version_6.1.2\lvgl\src\lv_themes/lv_theme_material.c ****     ina.body.main_color   = lv_color_hex3(0xccc);
 142:..\..\..\lvgl\version_6.1.2\lvgl\src\lv_themes/lv_theme_material.c ****     ina.body.grad_color   = ina.body.main_color;
 143:..\..\..\lvgl\version_6.1.2\lvgl\src\lv_themes/lv_theme_material.c ****     ina.body.shadow.width = 0;
ARM GAS  C:\Users\pearlstl\AppData\Local\Temp\cc5dErme.s 			page 4


 144:..\..\..\lvgl\version_6.1.2\lvgl\src\lv_themes/lv_theme_material.c ****     ina.text.color        = lv_color_hsv_to_rgb(_hue, 95, 5);
 145:..\..\..\lvgl\version_6.1.2\lvgl\src\lv_themes/lv_theme_material.c ****     ina.image.color       = lv_color_hsv_to_rgb(_hue, 95, 5);
 146:..\..\..\lvgl\version_6.1.2\lvgl\src\lv_themes/lv_theme_material.c **** 
 147:..\..\..\lvgl\version_6.1.2\lvgl\src\lv_themes/lv_theme_material.c ****     theme.style.btn.rel     = &rel;
 148:..\..\..\lvgl\version_6.1.2\lvgl\src\lv_themes/lv_theme_material.c ****     theme.style.btn.pr      = &pr;
 149:..\..\..\lvgl\version_6.1.2\lvgl\src\lv_themes/lv_theme_material.c ****     theme.style.btn.tgl_rel = &tgl_rel;
 150:..\..\..\lvgl\version_6.1.2\lvgl\src\lv_themes/lv_theme_material.c ****     theme.style.btn.tgl_pr  = &tgl_pr;
 151:..\..\..\lvgl\version_6.1.2\lvgl\src\lv_themes/lv_theme_material.c ****     theme.style.btn.ina     = &ina;
 152:..\..\..\lvgl\version_6.1.2\lvgl\src\lv_themes/lv_theme_material.c **** #endif
 153:..\..\..\lvgl\version_6.1.2\lvgl\src\lv_themes/lv_theme_material.c **** }
 154:..\..\..\lvgl\version_6.1.2\lvgl\src\lv_themes/lv_theme_material.c **** 
 155:..\..\..\lvgl\version_6.1.2\lvgl\src\lv_themes/lv_theme_material.c **** static void label_init(void)
 156:..\..\..\lvgl\version_6.1.2\lvgl\src\lv_themes/lv_theme_material.c **** {
 157:..\..\..\lvgl\version_6.1.2\lvgl\src\lv_themes/lv_theme_material.c **** #if LV_USE_LABEL != 0
 158:..\..\..\lvgl\version_6.1.2\lvgl\src\lv_themes/lv_theme_material.c ****     static lv_style_t prim, sec, hint;
 159:..\..\..\lvgl\version_6.1.2\lvgl\src\lv_themes/lv_theme_material.c **** 
 160:..\..\..\lvgl\version_6.1.2\lvgl\src\lv_themes/lv_theme_material.c ****     lv_style_copy(&prim, &def);
 161:..\..\..\lvgl\version_6.1.2\lvgl\src\lv_themes/lv_theme_material.c ****     prim.text.font  = _font;
 162:..\..\..\lvgl\version_6.1.2\lvgl\src\lv_themes/lv_theme_material.c ****     prim.text.color = lv_color_hsv_to_rgb(_hue, 80, 10);
 163:..\..\..\lvgl\version_6.1.2\lvgl\src\lv_themes/lv_theme_material.c **** 
 164:..\..\..\lvgl\version_6.1.2\lvgl\src\lv_themes/lv_theme_material.c ****     lv_style_copy(&sec, &prim);
 165:..\..\..\lvgl\version_6.1.2\lvgl\src\lv_themes/lv_theme_material.c ****     sec.text.color = lv_color_hsv_to_rgb(_hue, 80, 75);
 166:..\..\..\lvgl\version_6.1.2\lvgl\src\lv_themes/lv_theme_material.c **** 
 167:..\..\..\lvgl\version_6.1.2\lvgl\src\lv_themes/lv_theme_material.c ****     lv_style_copy(&hint, &prim);
 168:..\..\..\lvgl\version_6.1.2\lvgl\src\lv_themes/lv_theme_material.c ****     hint.text.color = lv_color_hsv_to_rgb(_hue, 40, 90);
 169:..\..\..\lvgl\version_6.1.2\lvgl\src\lv_themes/lv_theme_material.c **** 
 170:..\..\..\lvgl\version_6.1.2\lvgl\src\lv_themes/lv_theme_material.c ****     theme.style.label.prim = &prim;
 171:..\..\..\lvgl\version_6.1.2\lvgl\src\lv_themes/lv_theme_material.c ****     theme.style.label.sec  = &sec;
 172:..\..\..\lvgl\version_6.1.2\lvgl\src\lv_themes/lv_theme_material.c ****     theme.style.label.hint = &hint;
 173:..\..\..\lvgl\version_6.1.2\lvgl\src\lv_themes/lv_theme_material.c **** #endif
 174:..\..\..\lvgl\version_6.1.2\lvgl\src\lv_themes/lv_theme_material.c **** }
 175:..\..\..\lvgl\version_6.1.2\lvgl\src\lv_themes/lv_theme_material.c **** 
 176:..\..\..\lvgl\version_6.1.2\lvgl\src\lv_themes/lv_theme_material.c **** static void img_init(void)
 177:..\..\..\lvgl\version_6.1.2\lvgl\src\lv_themes/lv_theme_material.c **** {
 178:..\..\..\lvgl\version_6.1.2\lvgl\src\lv_themes/lv_theme_material.c **** #if LV_USE_IMG != 0
 179:..\..\..\lvgl\version_6.1.2\lvgl\src\lv_themes/lv_theme_material.c ****     static lv_style_t img_light, img_dark;
 180:..\..\..\lvgl\version_6.1.2\lvgl\src\lv_themes/lv_theme_material.c ****     lv_style_copy(&img_light, &def);
 181:..\..\..\lvgl\version_6.1.2\lvgl\src\lv_themes/lv_theme_material.c ****     img_light.image.color   = lv_color_hsv_to_rgb(_hue, 15, 85);
 182:..\..\..\lvgl\version_6.1.2\lvgl\src\lv_themes/lv_theme_material.c ****     img_light.image.intense = LV_OPA_80;
 183:..\..\..\lvgl\version_6.1.2\lvgl\src\lv_themes/lv_theme_material.c **** 
 184:..\..\..\lvgl\version_6.1.2\lvgl\src\lv_themes/lv_theme_material.c ****     lv_style_copy(&img_dark, &def);
 185:..\..\..\lvgl\version_6.1.2\lvgl\src\lv_themes/lv_theme_material.c ****     img_light.image.color   = lv_color_hsv_to_rgb(_hue, 85, 65);
 186:..\..\..\lvgl\version_6.1.2\lvgl\src\lv_themes/lv_theme_material.c ****     img_light.image.intense = LV_OPA_80;
 187:..\..\..\lvgl\version_6.1.2\lvgl\src\lv_themes/lv_theme_material.c **** 
 188:..\..\..\lvgl\version_6.1.2\lvgl\src\lv_themes/lv_theme_material.c ****     theme.style.img.light = &def;
 189:..\..\..\lvgl\version_6.1.2\lvgl\src\lv_themes/lv_theme_material.c ****     theme.style.img.dark  = &def;
 190:..\..\..\lvgl\version_6.1.2\lvgl\src\lv_themes/lv_theme_material.c **** #endif
 191:..\..\..\lvgl\version_6.1.2\lvgl\src\lv_themes/lv_theme_material.c **** }
 192:..\..\..\lvgl\version_6.1.2\lvgl\src\lv_themes/lv_theme_material.c **** 
 193:..\..\..\lvgl\version_6.1.2\lvgl\src\lv_themes/lv_theme_material.c **** static void line_init(void)
 194:..\..\..\lvgl\version_6.1.2\lvgl\src\lv_themes/lv_theme_material.c **** {
 195:..\..\..\lvgl\version_6.1.2\lvgl\src\lv_themes/lv_theme_material.c **** #if LV_USE_LINE != 0
 196:..\..\..\lvgl\version_6.1.2\lvgl\src\lv_themes/lv_theme_material.c **** 
 197:..\..\..\lvgl\version_6.1.2\lvgl\src\lv_themes/lv_theme_material.c ****     theme.style.line.decor = &def;
 198:..\..\..\lvgl\version_6.1.2\lvgl\src\lv_themes/lv_theme_material.c **** #endif
 199:..\..\..\lvgl\version_6.1.2\lvgl\src\lv_themes/lv_theme_material.c **** }
 200:..\..\..\lvgl\version_6.1.2\lvgl\src\lv_themes/lv_theme_material.c **** 
ARM GAS  C:\Users\pearlstl\AppData\Local\Temp\cc5dErme.s 			page 5


 201:..\..\..\lvgl\version_6.1.2\lvgl\src\lv_themes/lv_theme_material.c **** static void led_init(void)
 202:..\..\..\lvgl\version_6.1.2\lvgl\src\lv_themes/lv_theme_material.c **** {
 203:..\..\..\lvgl\version_6.1.2\lvgl\src\lv_themes/lv_theme_material.c **** #if LV_USE_LED != 0
 204:..\..\..\lvgl\version_6.1.2\lvgl\src\lv_themes/lv_theme_material.c ****     static lv_style_t led;
 205:..\..\..\lvgl\version_6.1.2\lvgl\src\lv_themes/lv_theme_material.c ****     lv_style_copy(&led, &def);
 206:..\..\..\lvgl\version_6.1.2\lvgl\src\lv_themes/lv_theme_material.c ****     led.body.shadow.width = LV_DPI / 10;
 207:..\..\..\lvgl\version_6.1.2\lvgl\src\lv_themes/lv_theme_material.c ****     led.body.radius       = LV_RADIUS_CIRCLE;
 208:..\..\..\lvgl\version_6.1.2\lvgl\src\lv_themes/lv_theme_material.c ****     led.body.border.width = LV_DPI / 30;
 209:..\..\..\lvgl\version_6.1.2\lvgl\src\lv_themes/lv_theme_material.c ****     led.body.border.opa   = LV_OPA_30;
 210:..\..\..\lvgl\version_6.1.2\lvgl\src\lv_themes/lv_theme_material.c ****     led.body.main_color   = lv_color_hsv_to_rgb(_hue, 100, 100);
 211:..\..\..\lvgl\version_6.1.2\lvgl\src\lv_themes/lv_theme_material.c ****     led.body.grad_color   = lv_color_hsv_to_rgb(_hue, 100, 100);
 212:..\..\..\lvgl\version_6.1.2\lvgl\src\lv_themes/lv_theme_material.c ****     led.body.border.color = lv_color_hsv_to_rgb(_hue, 60, 60);
 213:..\..\..\lvgl\version_6.1.2\lvgl\src\lv_themes/lv_theme_material.c ****     led.body.shadow.color = lv_color_hsv_to_rgb(_hue, 100, 100);
 214:..\..\..\lvgl\version_6.1.2\lvgl\src\lv_themes/lv_theme_material.c **** 
 215:..\..\..\lvgl\version_6.1.2\lvgl\src\lv_themes/lv_theme_material.c ****     theme.style.led = &led;
 216:..\..\..\lvgl\version_6.1.2\lvgl\src\lv_themes/lv_theme_material.c **** #endif
 217:..\..\..\lvgl\version_6.1.2\lvgl\src\lv_themes/lv_theme_material.c **** }
 218:..\..\..\lvgl\version_6.1.2\lvgl\src\lv_themes/lv_theme_material.c **** 
 219:..\..\..\lvgl\version_6.1.2\lvgl\src\lv_themes/lv_theme_material.c **** static void bar_init(void)
 220:..\..\..\lvgl\version_6.1.2\lvgl\src\lv_themes/lv_theme_material.c **** {
 221:..\..\..\lvgl\version_6.1.2\lvgl\src\lv_themes/lv_theme_material.c **** #if LV_USE_BAR
 222:..\..\..\lvgl\version_6.1.2\lvgl\src\lv_themes/lv_theme_material.c ****     static lv_style_t bar_bg, bar_indic;
 223:..\..\..\lvgl\version_6.1.2\lvgl\src\lv_themes/lv_theme_material.c **** 
 224:..\..\..\lvgl\version_6.1.2\lvgl\src\lv_themes/lv_theme_material.c ****     lv_style_copy(&bar_bg, &def);
 225:..\..\..\lvgl\version_6.1.2\lvgl\src\lv_themes/lv_theme_material.c ****     bar_bg.body.main_color     = lv_color_hsv_to_rgb(_hue, 15, 95);
 226:..\..\..\lvgl\version_6.1.2\lvgl\src\lv_themes/lv_theme_material.c ****     bar_bg.body.grad_color     = bar_bg.body.main_color;
 227:..\..\..\lvgl\version_6.1.2\lvgl\src\lv_themes/lv_theme_material.c ****     bar_bg.body.radius         = 3;
 228:..\..\..\lvgl\version_6.1.2\lvgl\src\lv_themes/lv_theme_material.c ****     bar_bg.body.border.width   = 0;
 229:..\..\..\lvgl\version_6.1.2\lvgl\src\lv_themes/lv_theme_material.c ****     bar_bg.body.padding.left   = LV_DPI / 16;
 230:..\..\..\lvgl\version_6.1.2\lvgl\src\lv_themes/lv_theme_material.c ****     bar_bg.body.padding.right  = LV_DPI / 16;
 231:..\..\..\lvgl\version_6.1.2\lvgl\src\lv_themes/lv_theme_material.c ****     bar_bg.body.padding.top    = LV_DPI / 16;
 232:..\..\..\lvgl\version_6.1.2\lvgl\src\lv_themes/lv_theme_material.c ****     bar_bg.body.padding.bottom = LV_DPI / 16;
 233:..\..\..\lvgl\version_6.1.2\lvgl\src\lv_themes/lv_theme_material.c **** 
 234:..\..\..\lvgl\version_6.1.2\lvgl\src\lv_themes/lv_theme_material.c ****     lv_style_copy(&bar_indic, &bar_bg);
 235:..\..\..\lvgl\version_6.1.2\lvgl\src\lv_themes/lv_theme_material.c ****     bar_indic.body.main_color     = lv_color_hsv_to_rgb(_hue, 85, 70);
 236:..\..\..\lvgl\version_6.1.2\lvgl\src\lv_themes/lv_theme_material.c ****     bar_indic.body.grad_color     = bar_indic.body.main_color;
 237:..\..\..\lvgl\version_6.1.2\lvgl\src\lv_themes/lv_theme_material.c ****     bar_indic.body.padding.left   = 0;
 238:..\..\..\lvgl\version_6.1.2\lvgl\src\lv_themes/lv_theme_material.c ****     bar_indic.body.padding.right  = 0;
 239:..\..\..\lvgl\version_6.1.2\lvgl\src\lv_themes/lv_theme_material.c ****     bar_indic.body.padding.top    = 0;
 240:..\..\..\lvgl\version_6.1.2\lvgl\src\lv_themes/lv_theme_material.c ****     bar_indic.body.padding.bottom = 0;
 241:..\..\..\lvgl\version_6.1.2\lvgl\src\lv_themes/lv_theme_material.c **** 
 242:..\..\..\lvgl\version_6.1.2\lvgl\src\lv_themes/lv_theme_material.c ****     theme.style.bar.bg    = &bar_bg;
 243:..\..\..\lvgl\version_6.1.2\lvgl\src\lv_themes/lv_theme_material.c ****     theme.style.bar.indic = &bar_indic;
 244:..\..\..\lvgl\version_6.1.2\lvgl\src\lv_themes/lv_theme_material.c **** #endif
 245:..\..\..\lvgl\version_6.1.2\lvgl\src\lv_themes/lv_theme_material.c **** }
 246:..\..\..\lvgl\version_6.1.2\lvgl\src\lv_themes/lv_theme_material.c **** 
 247:..\..\..\lvgl\version_6.1.2\lvgl\src\lv_themes/lv_theme_material.c **** static void slider_init(void)
 248:..\..\..\lvgl\version_6.1.2\lvgl\src\lv_themes/lv_theme_material.c **** {
 249:..\..\..\lvgl\version_6.1.2\lvgl\src\lv_themes/lv_theme_material.c **** #if LV_USE_SLIDER != 0
 250:..\..\..\lvgl\version_6.1.2\lvgl\src\lv_themes/lv_theme_material.c ****     static lv_style_t knob;
 251:..\..\..\lvgl\version_6.1.2\lvgl\src\lv_themes/lv_theme_material.c **** 
 252:..\..\..\lvgl\version_6.1.2\lvgl\src\lv_themes/lv_theme_material.c ****     lv_style_copy(&knob, &def);
 253:..\..\..\lvgl\version_6.1.2\lvgl\src\lv_themes/lv_theme_material.c ****     knob.body.radius       = LV_RADIUS_CIRCLE;
 254:..\..\..\lvgl\version_6.1.2\lvgl\src\lv_themes/lv_theme_material.c ****     knob.body.border.width = 0;
 255:..\..\..\lvgl\version_6.1.2\lvgl\src\lv_themes/lv_theme_material.c ****     knob.body.main_color   = theme.style.bar.indic->body.main_color;
 256:..\..\..\lvgl\version_6.1.2\lvgl\src\lv_themes/lv_theme_material.c ****     knob.body.grad_color   = knob.body.main_color;
 257:..\..\..\lvgl\version_6.1.2\lvgl\src\lv_themes/lv_theme_material.c **** 
ARM GAS  C:\Users\pearlstl\AppData\Local\Temp\cc5dErme.s 			page 6


 258:..\..\..\lvgl\version_6.1.2\lvgl\src\lv_themes/lv_theme_material.c ****     theme.style.slider.bg    = theme.style.bar.bg;
 259:..\..\..\lvgl\version_6.1.2\lvgl\src\lv_themes/lv_theme_material.c ****     theme.style.slider.indic = theme.style.bar.indic;
 260:..\..\..\lvgl\version_6.1.2\lvgl\src\lv_themes/lv_theme_material.c ****     theme.style.slider.knob  = &knob;
 261:..\..\..\lvgl\version_6.1.2\lvgl\src\lv_themes/lv_theme_material.c **** #endif
 262:..\..\..\lvgl\version_6.1.2\lvgl\src\lv_themes/lv_theme_material.c **** }
 263:..\..\..\lvgl\version_6.1.2\lvgl\src\lv_themes/lv_theme_material.c **** 
 264:..\..\..\lvgl\version_6.1.2\lvgl\src\lv_themes/lv_theme_material.c **** static void sw_init(void)
 265:..\..\..\lvgl\version_6.1.2\lvgl\src\lv_themes/lv_theme_material.c **** {
 266:..\..\..\lvgl\version_6.1.2\lvgl\src\lv_themes/lv_theme_material.c **** #if LV_USE_SW != 0
 267:..\..\..\lvgl\version_6.1.2\lvgl\src\lv_themes/lv_theme_material.c ****     static lv_style_t sw_bg, sw_indic, sw_knob_off, sw_knob_on;
 268:..\..\..\lvgl\version_6.1.2\lvgl\src\lv_themes/lv_theme_material.c ****     lv_style_copy(&sw_bg, theme.style.slider.bg);
 269:..\..\..\lvgl\version_6.1.2\lvgl\src\lv_themes/lv_theme_material.c ****     sw_bg.body.radius = LV_RADIUS_CIRCLE;
 270:..\..\..\lvgl\version_6.1.2\lvgl\src\lv_themes/lv_theme_material.c **** 
 271:..\..\..\lvgl\version_6.1.2\lvgl\src\lv_themes/lv_theme_material.c ****     lv_style_copy(&sw_indic, theme.style.slider.bg);
 272:..\..\..\lvgl\version_6.1.2\lvgl\src\lv_themes/lv_theme_material.c ****     sw_indic.body.radius = LV_RADIUS_CIRCLE;
 273:..\..\..\lvgl\version_6.1.2\lvgl\src\lv_themes/lv_theme_material.c **** 
 274:..\..\..\lvgl\version_6.1.2\lvgl\src\lv_themes/lv_theme_material.c ****     lv_style_copy(&sw_knob_on, theme.style.slider.knob);
 275:..\..\..\lvgl\version_6.1.2\lvgl\src\lv_themes/lv_theme_material.c ****     sw_knob_on.body.shadow.width = 3;
 276:..\..\..\lvgl\version_6.1.2\lvgl\src\lv_themes/lv_theme_material.c ****     sw_knob_on.body.shadow.type  = LV_SHADOW_BOTTOM;
 277:..\..\..\lvgl\version_6.1.2\lvgl\src\lv_themes/lv_theme_material.c ****     sw_knob_on.body.shadow.color = DEF_SHADOW_COLOR;
 278:..\..\..\lvgl\version_6.1.2\lvgl\src\lv_themes/lv_theme_material.c **** 
 279:..\..\..\lvgl\version_6.1.2\lvgl\src\lv_themes/lv_theme_material.c ****     lv_style_copy(&sw_knob_off, &sw_knob_on);
 280:..\..\..\lvgl\version_6.1.2\lvgl\src\lv_themes/lv_theme_material.c ****     sw_knob_off.body.main_color   = lv_color_hex(0xfafafa);
 281:..\..\..\lvgl\version_6.1.2\lvgl\src\lv_themes/lv_theme_material.c ****     sw_knob_off.body.grad_color   = sw_knob_off.body.main_color;
 282:..\..\..\lvgl\version_6.1.2\lvgl\src\lv_themes/lv_theme_material.c ****     sw_knob_off.body.border.width = 1;
 283:..\..\..\lvgl\version_6.1.2\lvgl\src\lv_themes/lv_theme_material.c ****     sw_knob_off.body.border.color = lv_color_hex3(0x999);
 284:..\..\..\lvgl\version_6.1.2\lvgl\src\lv_themes/lv_theme_material.c ****     sw_knob_off.body.border.opa   = LV_OPA_COVER;
 285:..\..\..\lvgl\version_6.1.2\lvgl\src\lv_themes/lv_theme_material.c **** 
 286:..\..\..\lvgl\version_6.1.2\lvgl\src\lv_themes/lv_theme_material.c ****     theme.style.sw.bg       = &sw_bg;
 287:..\..\..\lvgl\version_6.1.2\lvgl\src\lv_themes/lv_theme_material.c ****     theme.style.sw.indic    = &sw_indic;
 288:..\..\..\lvgl\version_6.1.2\lvgl\src\lv_themes/lv_theme_material.c ****     theme.style.sw.knob_off = &sw_knob_off;
 289:..\..\..\lvgl\version_6.1.2\lvgl\src\lv_themes/lv_theme_material.c ****     theme.style.sw.knob_on  = &sw_knob_on;
 290:..\..\..\lvgl\version_6.1.2\lvgl\src\lv_themes/lv_theme_material.c **** #endif
 291:..\..\..\lvgl\version_6.1.2\lvgl\src\lv_themes/lv_theme_material.c **** }
 292:..\..\..\lvgl\version_6.1.2\lvgl\src\lv_themes/lv_theme_material.c **** 
 293:..\..\..\lvgl\version_6.1.2\lvgl\src\lv_themes/lv_theme_material.c **** static void lmeter_init(void)
 294:..\..\..\lvgl\version_6.1.2\lvgl\src\lv_themes/lv_theme_material.c **** {
 295:..\..\..\lvgl\version_6.1.2\lvgl\src\lv_themes/lv_theme_material.c **** #if LV_USE_LMETER != 0
 296:..\..\..\lvgl\version_6.1.2\lvgl\src\lv_themes/lv_theme_material.c ****     static lv_style_t lmeter;
 297:..\..\..\lvgl\version_6.1.2\lvgl\src\lv_themes/lv_theme_material.c ****     lv_style_copy(&lmeter, &def);
 298:..\..\..\lvgl\version_6.1.2\lvgl\src\lv_themes/lv_theme_material.c ****     lmeter.body.main_color   = lv_color_hsv_to_rgb(_hue, 75, 90);
 299:..\..\..\lvgl\version_6.1.2\lvgl\src\lv_themes/lv_theme_material.c ****     lmeter.body.grad_color   = lmeter.body.main_color;
 300:..\..\..\lvgl\version_6.1.2\lvgl\src\lv_themes/lv_theme_material.c ****     lmeter.body.padding.left = LV_DPI / 10; /*Scale line length*/
 301:..\..\..\lvgl\version_6.1.2\lvgl\src\lv_themes/lv_theme_material.c ****     lmeter.line.color        = lv_color_hex3(0x999);
 302:..\..\..\lvgl\version_6.1.2\lvgl\src\lv_themes/lv_theme_material.c ****     lmeter.line.width        = 2;
 303:..\..\..\lvgl\version_6.1.2\lvgl\src\lv_themes/lv_theme_material.c **** 
 304:..\..\..\lvgl\version_6.1.2\lvgl\src\lv_themes/lv_theme_material.c ****     theme.style.lmeter = &lmeter;
 305:..\..\..\lvgl\version_6.1.2\lvgl\src\lv_themes/lv_theme_material.c **** #endif
 306:..\..\..\lvgl\version_6.1.2\lvgl\src\lv_themes/lv_theme_material.c **** }
 307:..\..\..\lvgl\version_6.1.2\lvgl\src\lv_themes/lv_theme_material.c **** 
 308:..\..\..\lvgl\version_6.1.2\lvgl\src\lv_themes/lv_theme_material.c **** static void gauge_init(void)
 309:..\..\..\lvgl\version_6.1.2\lvgl\src\lv_themes/lv_theme_material.c **** {
 310:..\..\..\lvgl\version_6.1.2\lvgl\src\lv_themes/lv_theme_material.c **** #if LV_USE_GAUGE != 0
 311:..\..\..\lvgl\version_6.1.2\lvgl\src\lv_themes/lv_theme_material.c **** 
 312:..\..\..\lvgl\version_6.1.2\lvgl\src\lv_themes/lv_theme_material.c ****     static lv_style_t gauge;
 313:..\..\..\lvgl\version_6.1.2\lvgl\src\lv_themes/lv_theme_material.c ****     lv_style_copy(&gauge, &def);
 314:..\..\..\lvgl\version_6.1.2\lvgl\src\lv_themes/lv_theme_material.c ****     gauge.body.main_color    = lv_color_hsv_to_rgb(_hue, 10, 60);
ARM GAS  C:\Users\pearlstl\AppData\Local\Temp\cc5dErme.s 			page 7


 315:..\..\..\lvgl\version_6.1.2\lvgl\src\lv_themes/lv_theme_material.c ****     gauge.body.grad_color    = gauge.body.main_color;
 316:..\..\..\lvgl\version_6.1.2\lvgl\src\lv_themes/lv_theme_material.c ****     gauge.body.padding.left  = LV_DPI / 16; /*Scale line length*/
 317:..\..\..\lvgl\version_6.1.2\lvgl\src\lv_themes/lv_theme_material.c ****     gauge.body.padding.inner = LV_DPI / 8;
 318:..\..\..\lvgl\version_6.1.2\lvgl\src\lv_themes/lv_theme_material.c ****     gauge.body.border.color  = lv_color_hex3(0x999);
 319:..\..\..\lvgl\version_6.1.2\lvgl\src\lv_themes/lv_theme_material.c ****     gauge.text.color         = lv_color_hex3(0x333);
 320:..\..\..\lvgl\version_6.1.2\lvgl\src\lv_themes/lv_theme_material.c ****     gauge.line.width         = 3;
 321:..\..\..\lvgl\version_6.1.2\lvgl\src\lv_themes/lv_theme_material.c ****     gauge.line.color         = lv_color_hsv_to_rgb(_hue, 95, 70);
 322:..\..\..\lvgl\version_6.1.2\lvgl\src\lv_themes/lv_theme_material.c **** 
 323:..\..\..\lvgl\version_6.1.2\lvgl\src\lv_themes/lv_theme_material.c ****     theme.style.gauge = &gauge;
 324:..\..\..\lvgl\version_6.1.2\lvgl\src\lv_themes/lv_theme_material.c **** #endif
 325:..\..\..\lvgl\version_6.1.2\lvgl\src\lv_themes/lv_theme_material.c **** }
 326:..\..\..\lvgl\version_6.1.2\lvgl\src\lv_themes/lv_theme_material.c **** 
 327:..\..\..\lvgl\version_6.1.2\lvgl\src\lv_themes/lv_theme_material.c **** static void arc_init(void)
 328:..\..\..\lvgl\version_6.1.2\lvgl\src\lv_themes/lv_theme_material.c **** {
 329:..\..\..\lvgl\version_6.1.2\lvgl\src\lv_themes/lv_theme_material.c **** #if LV_USE_ARC != 0
 330:..\..\..\lvgl\version_6.1.2\lvgl\src\lv_themes/lv_theme_material.c **** 
 331:..\..\..\lvgl\version_6.1.2\lvgl\src\lv_themes/lv_theme_material.c ****     static lv_style_t arc;
 332:..\..\..\lvgl\version_6.1.2\lvgl\src\lv_themes/lv_theme_material.c ****     lv_style_copy(&arc, &def);
 333:..\..\..\lvgl\version_6.1.2\lvgl\src\lv_themes/lv_theme_material.c ****     arc.line.width = 10;
 334:..\..\..\lvgl\version_6.1.2\lvgl\src\lv_themes/lv_theme_material.c ****     arc.line.color = lv_color_hsv_to_rgb(_hue, 90, 90);
 335:..\..\..\lvgl\version_6.1.2\lvgl\src\lv_themes/lv_theme_material.c **** 
 336:..\..\..\lvgl\version_6.1.2\lvgl\src\lv_themes/lv_theme_material.c ****     /*For prelaoder*/
 337:..\..\..\lvgl\version_6.1.2\lvgl\src\lv_themes/lv_theme_material.c ****     arc.body.border.width   = 10;
 338:..\..\..\lvgl\version_6.1.2\lvgl\src\lv_themes/lv_theme_material.c ****     arc.body.border.color   = lv_color_hsv_to_rgb(_hue, 30, 90);
 339:..\..\..\lvgl\version_6.1.2\lvgl\src\lv_themes/lv_theme_material.c ****     arc.body.padding.left   = 0;
 340:..\..\..\lvgl\version_6.1.2\lvgl\src\lv_themes/lv_theme_material.c ****     arc.body.padding.right  = 0;
 341:..\..\..\lvgl\version_6.1.2\lvgl\src\lv_themes/lv_theme_material.c ****     arc.body.padding.top    = 0;
 342:..\..\..\lvgl\version_6.1.2\lvgl\src\lv_themes/lv_theme_material.c ****     arc.body.padding.bottom = 0;
 343:..\..\..\lvgl\version_6.1.2\lvgl\src\lv_themes/lv_theme_material.c **** 
 344:..\..\..\lvgl\version_6.1.2\lvgl\src\lv_themes/lv_theme_material.c ****     theme.style.arc = &arc;
 345:..\..\..\lvgl\version_6.1.2\lvgl\src\lv_themes/lv_theme_material.c **** #endif
 346:..\..\..\lvgl\version_6.1.2\lvgl\src\lv_themes/lv_theme_material.c **** }
 347:..\..\..\lvgl\version_6.1.2\lvgl\src\lv_themes/lv_theme_material.c **** 
 348:..\..\..\lvgl\version_6.1.2\lvgl\src\lv_themes/lv_theme_material.c **** static void preload_init(void)
 349:..\..\..\lvgl\version_6.1.2\lvgl\src\lv_themes/lv_theme_material.c **** {
 350:..\..\..\lvgl\version_6.1.2\lvgl\src\lv_themes/lv_theme_material.c **** #if LV_USE_PRELOAD != 0
 351:..\..\..\lvgl\version_6.1.2\lvgl\src\lv_themes/lv_theme_material.c **** 
 352:..\..\..\lvgl\version_6.1.2\lvgl\src\lv_themes/lv_theme_material.c ****     theme.style.preload = theme.style.arc;
 353:..\..\..\lvgl\version_6.1.2\lvgl\src\lv_themes/lv_theme_material.c **** #endif
 354:..\..\..\lvgl\version_6.1.2\lvgl\src\lv_themes/lv_theme_material.c **** }
 355:..\..\..\lvgl\version_6.1.2\lvgl\src\lv_themes/lv_theme_material.c **** 
 356:..\..\..\lvgl\version_6.1.2\lvgl\src\lv_themes/lv_theme_material.c **** static void chart_init(void)
 357:..\..\..\lvgl\version_6.1.2\lvgl\src\lv_themes/lv_theme_material.c **** {
 358:..\..\..\lvgl\version_6.1.2\lvgl\src\lv_themes/lv_theme_material.c **** #if LV_USE_CHART
 359:..\..\..\lvgl\version_6.1.2\lvgl\src\lv_themes/lv_theme_material.c ****     theme.style.chart = theme.style.panel;
 360:..\..\..\lvgl\version_6.1.2\lvgl\src\lv_themes/lv_theme_material.c **** #endif
 361:..\..\..\lvgl\version_6.1.2\lvgl\src\lv_themes/lv_theme_material.c **** }
 362:..\..\..\lvgl\version_6.1.2\lvgl\src\lv_themes/lv_theme_material.c **** 
 363:..\..\..\lvgl\version_6.1.2\lvgl\src\lv_themes/lv_theme_material.c **** static void calendar_init(void)
 364:..\..\..\lvgl\version_6.1.2\lvgl\src\lv_themes/lv_theme_material.c **** {
 365:..\..\..\lvgl\version_6.1.2\lvgl\src\lv_themes/lv_theme_material.c **** #if LV_USE_CALENDAR
 366:..\..\..\lvgl\version_6.1.2\lvgl\src\lv_themes/lv_theme_material.c ****     static lv_style_t ina_days;
 367:..\..\..\lvgl\version_6.1.2\lvgl\src\lv_themes/lv_theme_material.c ****     lv_style_copy(&ina_days, &def);
 368:..\..\..\lvgl\version_6.1.2\lvgl\src\lv_themes/lv_theme_material.c ****     ina_days.text.color = lv_color_hsv_to_rgb(_hue, 0, 70);
 369:..\..\..\lvgl\version_6.1.2\lvgl\src\lv_themes/lv_theme_material.c **** 
 370:..\..\..\lvgl\version_6.1.2\lvgl\src\lv_themes/lv_theme_material.c ****     static lv_style_t high_days;
 371:..\..\..\lvgl\version_6.1.2\lvgl\src\lv_themes/lv_theme_material.c ****     lv_style_copy(&high_days, &def);
ARM GAS  C:\Users\pearlstl\AppData\Local\Temp\cc5dErme.s 			page 8


 372:..\..\..\lvgl\version_6.1.2\lvgl\src\lv_themes/lv_theme_material.c ****     high_days.text.color = lv_color_hsv_to_rgb(_hue, 80, 90);
 373:..\..\..\lvgl\version_6.1.2\lvgl\src\lv_themes/lv_theme_material.c **** 
 374:..\..\..\lvgl\version_6.1.2\lvgl\src\lv_themes/lv_theme_material.c ****     static lv_style_t week_box;
 375:..\..\..\lvgl\version_6.1.2\lvgl\src\lv_themes/lv_theme_material.c ****     lv_style_copy(&week_box, &def);
 376:..\..\..\lvgl\version_6.1.2\lvgl\src\lv_themes/lv_theme_material.c ****     week_box.body.main_color     = lv_color_hsv_to_rgb(_hue, 40, 100);
 377:..\..\..\lvgl\version_6.1.2\lvgl\src\lv_themes/lv_theme_material.c ****     week_box.body.grad_color     = lv_color_hsv_to_rgb(_hue, 40, 100);
 378:..\..\..\lvgl\version_6.1.2\lvgl\src\lv_themes/lv_theme_material.c ****     week_box.body.padding.top    = LV_DPI / 20;
 379:..\..\..\lvgl\version_6.1.2\lvgl\src\lv_themes/lv_theme_material.c ****     week_box.body.padding.bottom = LV_DPI / 20;
 380:..\..\..\lvgl\version_6.1.2\lvgl\src\lv_themes/lv_theme_material.c ****     week_box.body.padding.left   = theme.style.panel->body.padding.left;
 381:..\..\..\lvgl\version_6.1.2\lvgl\src\lv_themes/lv_theme_material.c ****     week_box.body.padding.right  = theme.style.panel->body.padding.right;
 382:..\..\..\lvgl\version_6.1.2\lvgl\src\lv_themes/lv_theme_material.c ****     week_box.body.border.color   = theme.style.panel->body.border.color;
 383:..\..\..\lvgl\version_6.1.2\lvgl\src\lv_themes/lv_theme_material.c ****     week_box.body.border.width   = theme.style.panel->body.border.width;
 384:..\..\..\lvgl\version_6.1.2\lvgl\src\lv_themes/lv_theme_material.c ****     week_box.body.border.part    = LV_BORDER_LEFT | LV_BORDER_RIGHT;
 385:..\..\..\lvgl\version_6.1.2\lvgl\src\lv_themes/lv_theme_material.c ****     week_box.body.radius         = 0;
 386:..\..\..\lvgl\version_6.1.2\lvgl\src\lv_themes/lv_theme_material.c **** 
 387:..\..\..\lvgl\version_6.1.2\lvgl\src\lv_themes/lv_theme_material.c ****     static lv_style_t today_box;
 388:..\..\..\lvgl\version_6.1.2\lvgl\src\lv_themes/lv_theme_material.c ****     lv_style_copy(&today_box, &def);
 389:..\..\..\lvgl\version_6.1.2\lvgl\src\lv_themes/lv_theme_material.c ****     today_box.body.main_color     = LV_COLOR_WHITE;
 390:..\..\..\lvgl\version_6.1.2\lvgl\src\lv_themes/lv_theme_material.c ****     today_box.body.grad_color     = LV_COLOR_WHITE;
 391:..\..\..\lvgl\version_6.1.2\lvgl\src\lv_themes/lv_theme_material.c ****     today_box.body.padding.top    = LV_DPI / 20;
 392:..\..\..\lvgl\version_6.1.2\lvgl\src\lv_themes/lv_theme_material.c ****     today_box.body.padding.bottom = LV_DPI / 20;
 393:..\..\..\lvgl\version_6.1.2\lvgl\src\lv_themes/lv_theme_material.c ****     today_box.body.radius         = 0;
 394:..\..\..\lvgl\version_6.1.2\lvgl\src\lv_themes/lv_theme_material.c **** 
 395:..\..\..\lvgl\version_6.1.2\lvgl\src\lv_themes/lv_theme_material.c ****     theme.style.calendar.bg               = theme.style.panel;
 396:..\..\..\lvgl\version_6.1.2\lvgl\src\lv_themes/lv_theme_material.c ****     theme.style.calendar.header           = &lv_style_transp;
 397:..\..\..\lvgl\version_6.1.2\lvgl\src\lv_themes/lv_theme_material.c ****     theme.style.calendar.inactive_days    = &ina_days;
 398:..\..\..\lvgl\version_6.1.2\lvgl\src\lv_themes/lv_theme_material.c ****     theme.style.calendar.highlighted_days = &high_days;
 399:..\..\..\lvgl\version_6.1.2\lvgl\src\lv_themes/lv_theme_material.c ****     theme.style.calendar.week_box         = &week_box;
 400:..\..\..\lvgl\version_6.1.2\lvgl\src\lv_themes/lv_theme_material.c ****     theme.style.calendar.today_box        = &today_box;
 401:..\..\..\lvgl\version_6.1.2\lvgl\src\lv_themes/lv_theme_material.c **** #endif
 402:..\..\..\lvgl\version_6.1.2\lvgl\src\lv_themes/lv_theme_material.c **** }
 403:..\..\..\lvgl\version_6.1.2\lvgl\src\lv_themes/lv_theme_material.c **** 
 404:..\..\..\lvgl\version_6.1.2\lvgl\src\lv_themes/lv_theme_material.c **** static void cb_init(void)
 405:..\..\..\lvgl\version_6.1.2\lvgl\src\lv_themes/lv_theme_material.c **** {
 406:..\..\..\lvgl\version_6.1.2\lvgl\src\lv_themes/lv_theme_material.c **** #if LV_USE_CB != 0
 407:..\..\..\lvgl\version_6.1.2\lvgl\src\lv_themes/lv_theme_material.c ****     static lv_style_t rel, pr, tgl_rel, tgl_pr, ina;
 408:..\..\..\lvgl\version_6.1.2\lvgl\src\lv_themes/lv_theme_material.c ****     lv_style_copy(&rel, theme.style.panel);
 409:..\..\..\lvgl\version_6.1.2\lvgl\src\lv_themes/lv_theme_material.c ****     rel.body.shadow.type  = LV_SHADOW_BOTTOM;
 410:..\..\..\lvgl\version_6.1.2\lvgl\src\lv_themes/lv_theme_material.c ****     rel.body.shadow.width = 3;
 411:..\..\..\lvgl\version_6.1.2\lvgl\src\lv_themes/lv_theme_material.c **** 
 412:..\..\..\lvgl\version_6.1.2\lvgl\src\lv_themes/lv_theme_material.c ****     lv_style_copy(&pr, &rel);
 413:..\..\..\lvgl\version_6.1.2\lvgl\src\lv_themes/lv_theme_material.c ****     pr.body.main_color   = lv_color_hex3(0xccc);
 414:..\..\..\lvgl\version_6.1.2\lvgl\src\lv_themes/lv_theme_material.c ****     pr.body.grad_color   = pr.body.main_color;
 415:..\..\..\lvgl\version_6.1.2\lvgl\src\lv_themes/lv_theme_material.c ****     pr.body.shadow.width = 0;
 416:..\..\..\lvgl\version_6.1.2\lvgl\src\lv_themes/lv_theme_material.c **** 
 417:..\..\..\lvgl\version_6.1.2\lvgl\src\lv_themes/lv_theme_material.c ****     lv_style_copy(&tgl_rel, &rel);
 418:..\..\..\lvgl\version_6.1.2\lvgl\src\lv_themes/lv_theme_material.c ****     tgl_rel.body.main_color   = lv_color_hsv_to_rgb(_hue, 75, 85);
 419:..\..\..\lvgl\version_6.1.2\lvgl\src\lv_themes/lv_theme_material.c ****     tgl_rel.body.grad_color   = tgl_rel.body.main_color;
 420:..\..\..\lvgl\version_6.1.2\lvgl\src\lv_themes/lv_theme_material.c ****     tgl_rel.body.shadow.type  = LV_SHADOW_FULL;
 421:..\..\..\lvgl\version_6.1.2\lvgl\src\lv_themes/lv_theme_material.c ****     tgl_rel.body.shadow.width = 0;
 422:..\..\..\lvgl\version_6.1.2\lvgl\src\lv_themes/lv_theme_material.c **** 
 423:..\..\..\lvgl\version_6.1.2\lvgl\src\lv_themes/lv_theme_material.c ****     lv_style_copy(&tgl_pr, &tgl_rel);
 424:..\..\..\lvgl\version_6.1.2\lvgl\src\lv_themes/lv_theme_material.c ****     tgl_pr.body.main_color   = lv_color_hsv_to_rgb(_hue, 75, 65);
 425:..\..\..\lvgl\version_6.1.2\lvgl\src\lv_themes/lv_theme_material.c ****     tgl_pr.body.grad_color   = tgl_pr.body.main_color;
 426:..\..\..\lvgl\version_6.1.2\lvgl\src\lv_themes/lv_theme_material.c ****     tgl_pr.body.shadow.width = 0;
 427:..\..\..\lvgl\version_6.1.2\lvgl\src\lv_themes/lv_theme_material.c **** 
 428:..\..\..\lvgl\version_6.1.2\lvgl\src\lv_themes/lv_theme_material.c ****     lv_style_copy(&ina, theme.style.btn.ina);
ARM GAS  C:\Users\pearlstl\AppData\Local\Temp\cc5dErme.s 			page 9


 429:..\..\..\lvgl\version_6.1.2\lvgl\src\lv_themes/lv_theme_material.c **** 
 430:..\..\..\lvgl\version_6.1.2\lvgl\src\lv_themes/lv_theme_material.c ****     theme.style.cb.bg          = &lv_style_transp;
 431:..\..\..\lvgl\version_6.1.2\lvgl\src\lv_themes/lv_theme_material.c ****     theme.style.cb.box.rel     = &rel;
 432:..\..\..\lvgl\version_6.1.2\lvgl\src\lv_themes/lv_theme_material.c ****     theme.style.cb.box.pr      = &pr;
 433:..\..\..\lvgl\version_6.1.2\lvgl\src\lv_themes/lv_theme_material.c ****     theme.style.cb.box.tgl_rel = &tgl_rel;
 434:..\..\..\lvgl\version_6.1.2\lvgl\src\lv_themes/lv_theme_material.c ****     theme.style.cb.box.tgl_pr  = &tgl_pr;
 435:..\..\..\lvgl\version_6.1.2\lvgl\src\lv_themes/lv_theme_material.c ****     theme.style.cb.box.ina     = &ina;
 436:..\..\..\lvgl\version_6.1.2\lvgl\src\lv_themes/lv_theme_material.c **** #endif
 437:..\..\..\lvgl\version_6.1.2\lvgl\src\lv_themes/lv_theme_material.c **** }
 438:..\..\..\lvgl\version_6.1.2\lvgl\src\lv_themes/lv_theme_material.c **** 
 439:..\..\..\lvgl\version_6.1.2\lvgl\src\lv_themes/lv_theme_material.c **** static void btnm_init(void)
 440:..\..\..\lvgl\version_6.1.2\lvgl\src\lv_themes/lv_theme_material.c **** {
 441:..\..\..\lvgl\version_6.1.2\lvgl\src\lv_themes/lv_theme_material.c **** #if LV_USE_BTNM
 442:..\..\..\lvgl\version_6.1.2\lvgl\src\lv_themes/lv_theme_material.c ****     static lv_style_t bg, rel, pr, tgl_rel, tgl_pr, ina;
 443:..\..\..\lvgl\version_6.1.2\lvgl\src\lv_themes/lv_theme_material.c **** 
 444:..\..\..\lvgl\version_6.1.2\lvgl\src\lv_themes/lv_theme_material.c ****     lv_style_copy(&bg, theme.style.panel);
 445:..\..\..\lvgl\version_6.1.2\lvgl\src\lv_themes/lv_theme_material.c ****     bg.body.padding.left   = 0;
 446:..\..\..\lvgl\version_6.1.2\lvgl\src\lv_themes/lv_theme_material.c ****     bg.body.padding.right  = 0;
 447:..\..\..\lvgl\version_6.1.2\lvgl\src\lv_themes/lv_theme_material.c ****     bg.body.padding.top    = 0;
 448:..\..\..\lvgl\version_6.1.2\lvgl\src\lv_themes/lv_theme_material.c ****     bg.body.padding.bottom = 0;
 449:..\..\..\lvgl\version_6.1.2\lvgl\src\lv_themes/lv_theme_material.c ****     bg.body.padding.inner  = 0;
 450:..\..\..\lvgl\version_6.1.2\lvgl\src\lv_themes/lv_theme_material.c ****     bg.text.color          = lv_color_hex3(0x555);
 451:..\..\..\lvgl\version_6.1.2\lvgl\src\lv_themes/lv_theme_material.c **** 
 452:..\..\..\lvgl\version_6.1.2\lvgl\src\lv_themes/lv_theme_material.c ****     lv_style_copy(&rel, theme.style.panel);
 453:..\..\..\lvgl\version_6.1.2\lvgl\src\lv_themes/lv_theme_material.c ****     rel.body.border.part  = LV_BORDER_FULL | LV_BORDER_INTERNAL;
 454:..\..\..\lvgl\version_6.1.2\lvgl\src\lv_themes/lv_theme_material.c ****     rel.body.border.width = 1;
 455:..\..\..\lvgl\version_6.1.2\lvgl\src\lv_themes/lv_theme_material.c ****     rel.body.border.color = lv_color_hex3(0xbbb);
 456:..\..\..\lvgl\version_6.1.2\lvgl\src\lv_themes/lv_theme_material.c ****     rel.body.opa          = LV_OPA_TRANSP;
 457:..\..\..\lvgl\version_6.1.2\lvgl\src\lv_themes/lv_theme_material.c ****     rel.body.shadow.width = 0;
 458:..\..\..\lvgl\version_6.1.2\lvgl\src\lv_themes/lv_theme_material.c **** 
 459:..\..\..\lvgl\version_6.1.2\lvgl\src\lv_themes/lv_theme_material.c ****     lv_style_copy(&pr, &rel);
 460:..\..\..\lvgl\version_6.1.2\lvgl\src\lv_themes/lv_theme_material.c ****     pr.glass             = 0;
 461:..\..\..\lvgl\version_6.1.2\lvgl\src\lv_themes/lv_theme_material.c ****     pr.body.main_color   = lv_color_hex3(0xddd);
 462:..\..\..\lvgl\version_6.1.2\lvgl\src\lv_themes/lv_theme_material.c ****     pr.body.grad_color   = pr.body.main_color;
 463:..\..\..\lvgl\version_6.1.2\lvgl\src\lv_themes/lv_theme_material.c ****     pr.body.border.width = 0;
 464:..\..\..\lvgl\version_6.1.2\lvgl\src\lv_themes/lv_theme_material.c ****     pr.body.opa          = LV_OPA_COVER;
 465:..\..\..\lvgl\version_6.1.2\lvgl\src\lv_themes/lv_theme_material.c **** 
 466:..\..\..\lvgl\version_6.1.2\lvgl\src\lv_themes/lv_theme_material.c ****     lv_style_copy(&tgl_rel, &pr);
 467:..\..\..\lvgl\version_6.1.2\lvgl\src\lv_themes/lv_theme_material.c ****     tgl_rel.body.main_color = lv_color_hsv_to_rgb(_hue, 90, 70);
 468:..\..\..\lvgl\version_6.1.2\lvgl\src\lv_themes/lv_theme_material.c ****     tgl_rel.body.grad_color = tgl_rel.body.main_color;
 469:..\..\..\lvgl\version_6.1.2\lvgl\src\lv_themes/lv_theme_material.c ****     tgl_rel.text.color      = lv_color_hsv_to_rgb(_hue, 5, 95);
 470:..\..\..\lvgl\version_6.1.2\lvgl\src\lv_themes/lv_theme_material.c **** 
 471:..\..\..\lvgl\version_6.1.2\lvgl\src\lv_themes/lv_theme_material.c ****     lv_style_copy(&tgl_pr, &tgl_rel);
 472:..\..\..\lvgl\version_6.1.2\lvgl\src\lv_themes/lv_theme_material.c ****     tgl_pr.body.main_color   = lv_color_hsv_to_rgb(_hue, 95, 65);
 473:..\..\..\lvgl\version_6.1.2\lvgl\src\lv_themes/lv_theme_material.c ****     tgl_pr.body.grad_color   = tgl_pr.body.main_color;
 474:..\..\..\lvgl\version_6.1.2\lvgl\src\lv_themes/lv_theme_material.c ****     tgl_pr.body.border.width = 0;
 475:..\..\..\lvgl\version_6.1.2\lvgl\src\lv_themes/lv_theme_material.c **** 
 476:..\..\..\lvgl\version_6.1.2\lvgl\src\lv_themes/lv_theme_material.c ****     lv_style_copy(&ina, &pr);
 477:..\..\..\lvgl\version_6.1.2\lvgl\src\lv_themes/lv_theme_material.c ****     ina.body.main_color = lv_color_hex3(0xccc);
 478:..\..\..\lvgl\version_6.1.2\lvgl\src\lv_themes/lv_theme_material.c ****     ina.body.grad_color = ina.body.main_color;
 479:..\..\..\lvgl\version_6.1.2\lvgl\src\lv_themes/lv_theme_material.c **** 
 480:..\..\..\lvgl\version_6.1.2\lvgl\src\lv_themes/lv_theme_material.c ****     theme.style.btnm.bg          = &bg;
 481:..\..\..\lvgl\version_6.1.2\lvgl\src\lv_themes/lv_theme_material.c ****     theme.style.btnm.btn.rel     = &rel;
 482:..\..\..\lvgl\version_6.1.2\lvgl\src\lv_themes/lv_theme_material.c ****     theme.style.btnm.btn.pr      = &pr;
 483:..\..\..\lvgl\version_6.1.2\lvgl\src\lv_themes/lv_theme_material.c ****     theme.style.btnm.btn.tgl_rel = &tgl_rel;
 484:..\..\..\lvgl\version_6.1.2\lvgl\src\lv_themes/lv_theme_material.c ****     theme.style.btnm.btn.tgl_pr  = &tgl_pr;
 485:..\..\..\lvgl\version_6.1.2\lvgl\src\lv_themes/lv_theme_material.c ****     theme.style.btnm.btn.ina     = &def;
ARM GAS  C:\Users\pearlstl\AppData\Local\Temp\cc5dErme.s 			page 10


 486:..\..\..\lvgl\version_6.1.2\lvgl\src\lv_themes/lv_theme_material.c **** #endif
 487:..\..\..\lvgl\version_6.1.2\lvgl\src\lv_themes/lv_theme_material.c **** }
 488:..\..\..\lvgl\version_6.1.2\lvgl\src\lv_themes/lv_theme_material.c **** 
 489:..\..\..\lvgl\version_6.1.2\lvgl\src\lv_themes/lv_theme_material.c **** static void kb_init(void)
 490:..\..\..\lvgl\version_6.1.2\lvgl\src\lv_themes/lv_theme_material.c **** {
 491:..\..\..\lvgl\version_6.1.2\lvgl\src\lv_themes/lv_theme_material.c **** #if LV_USE_KB
 492:..\..\..\lvgl\version_6.1.2\lvgl\src\lv_themes/lv_theme_material.c **** 
 493:..\..\..\lvgl\version_6.1.2\lvgl\src\lv_themes/lv_theme_material.c ****     static lv_style_t rel;
 494:..\..\..\lvgl\version_6.1.2\lvgl\src\lv_themes/lv_theme_material.c ****     lv_style_copy(&rel, &lv_style_transp);
 495:..\..\..\lvgl\version_6.1.2\lvgl\src\lv_themes/lv_theme_material.c ****     rel.text.font = _font;
 496:..\..\..\lvgl\version_6.1.2\lvgl\src\lv_themes/lv_theme_material.c **** 
 497:..\..\..\lvgl\version_6.1.2\lvgl\src\lv_themes/lv_theme_material.c ****     theme.style.kb.bg          = theme.style.btnm.bg;
 498:..\..\..\lvgl\version_6.1.2\lvgl\src\lv_themes/lv_theme_material.c ****     theme.style.kb.btn.rel     = &rel;
 499:..\..\..\lvgl\version_6.1.2\lvgl\src\lv_themes/lv_theme_material.c ****     theme.style.kb.btn.pr      = theme.style.btnm.btn.pr;
 500:..\..\..\lvgl\version_6.1.2\lvgl\src\lv_themes/lv_theme_material.c ****     theme.style.kb.btn.tgl_rel = theme.style.btnm.btn.tgl_rel;
 501:..\..\..\lvgl\version_6.1.2\lvgl\src\lv_themes/lv_theme_material.c ****     theme.style.kb.btn.tgl_pr  = theme.style.btnm.btn.tgl_pr;
 502:..\..\..\lvgl\version_6.1.2\lvgl\src\lv_themes/lv_theme_material.c ****     theme.style.kb.btn.ina     = theme.style.btnm.btn.ina;
 503:..\..\..\lvgl\version_6.1.2\lvgl\src\lv_themes/lv_theme_material.c **** #endif
 504:..\..\..\lvgl\version_6.1.2\lvgl\src\lv_themes/lv_theme_material.c **** }
 505:..\..\..\lvgl\version_6.1.2\lvgl\src\lv_themes/lv_theme_material.c **** 
 506:..\..\..\lvgl\version_6.1.2\lvgl\src\lv_themes/lv_theme_material.c **** static void mbox_init(void)
 507:..\..\..\lvgl\version_6.1.2\lvgl\src\lv_themes/lv_theme_material.c **** {
 508:..\..\..\lvgl\version_6.1.2\lvgl\src\lv_themes/lv_theme_material.c **** #if LV_USE_MBOX
 509:..\..\..\lvgl\version_6.1.2\lvgl\src\lv_themes/lv_theme_material.c ****     static lv_style_t pr, rel;
 510:..\..\..\lvgl\version_6.1.2\lvgl\src\lv_themes/lv_theme_material.c **** 
 511:..\..\..\lvgl\version_6.1.2\lvgl\src\lv_themes/lv_theme_material.c ****     lv_style_copy(&rel, &lv_style_transp);
 512:..\..\..\lvgl\version_6.1.2\lvgl\src\lv_themes/lv_theme_material.c ****     rel.glass      = 0;
 513:..\..\..\lvgl\version_6.1.2\lvgl\src\lv_themes/lv_theme_material.c ****     rel.text.font  = _font;
 514:..\..\..\lvgl\version_6.1.2\lvgl\src\lv_themes/lv_theme_material.c ****     rel.text.color = lv_color_hsv_to_rgb(_hue, 85, 75);
 515:..\..\..\lvgl\version_6.1.2\lvgl\src\lv_themes/lv_theme_material.c **** 
 516:..\..\..\lvgl\version_6.1.2\lvgl\src\lv_themes/lv_theme_material.c ****     lv_style_copy(&pr, theme.style.btnm.btn.pr);
 517:..\..\..\lvgl\version_6.1.2\lvgl\src\lv_themes/lv_theme_material.c ****     pr.text.color = lv_color_hsv_to_rgb(_hue, 85, 60);
 518:..\..\..\lvgl\version_6.1.2\lvgl\src\lv_themes/lv_theme_material.c **** 
 519:..\..\..\lvgl\version_6.1.2\lvgl\src\lv_themes/lv_theme_material.c ****     theme.style.mbox.bg      = theme.style.panel;
 520:..\..\..\lvgl\version_6.1.2\lvgl\src\lv_themes/lv_theme_material.c ****     theme.style.mbox.btn.bg  = &lv_style_transp;
 521:..\..\..\lvgl\version_6.1.2\lvgl\src\lv_themes/lv_theme_material.c ****     theme.style.mbox.btn.rel = &rel;
 522:..\..\..\lvgl\version_6.1.2\lvgl\src\lv_themes/lv_theme_material.c ****     theme.style.mbox.btn.pr  = &pr;
 523:..\..\..\lvgl\version_6.1.2\lvgl\src\lv_themes/lv_theme_material.c **** #endif
 524:..\..\..\lvgl\version_6.1.2\lvgl\src\lv_themes/lv_theme_material.c **** }
 525:..\..\..\lvgl\version_6.1.2\lvgl\src\lv_themes/lv_theme_material.c **** 
 526:..\..\..\lvgl\version_6.1.2\lvgl\src\lv_themes/lv_theme_material.c **** static void page_init(void)
 527:..\..\..\lvgl\version_6.1.2\lvgl\src\lv_themes/lv_theme_material.c **** {
 528:..\..\..\lvgl\version_6.1.2\lvgl\src\lv_themes/lv_theme_material.c **** #if LV_USE_PAGE
 529:..\..\..\lvgl\version_6.1.2\lvgl\src\lv_themes/lv_theme_material.c **** 
 530:..\..\..\lvgl\version_6.1.2\lvgl\src\lv_themes/lv_theme_material.c ****     theme.style.page.bg   = theme.style.panel;
 531:..\..\..\lvgl\version_6.1.2\lvgl\src\lv_themes/lv_theme_material.c ****     theme.style.page.scrl = &lv_style_transp;
 532:..\..\..\lvgl\version_6.1.2\lvgl\src\lv_themes/lv_theme_material.c ****     theme.style.page.sb   = &sb;
 533:..\..\..\lvgl\version_6.1.2\lvgl\src\lv_themes/lv_theme_material.c **** #endif
 534:..\..\..\lvgl\version_6.1.2\lvgl\src\lv_themes/lv_theme_material.c **** }
 535:..\..\..\lvgl\version_6.1.2\lvgl\src\lv_themes/lv_theme_material.c **** 
 536:..\..\..\lvgl\version_6.1.2\lvgl\src\lv_themes/lv_theme_material.c **** static void ta_init(void)
 537:..\..\..\lvgl\version_6.1.2\lvgl\src\lv_themes/lv_theme_material.c **** {
 538:..\..\..\lvgl\version_6.1.2\lvgl\src\lv_themes/lv_theme_material.c **** #if LV_USE_TA
 539:..\..\..\lvgl\version_6.1.2\lvgl\src\lv_themes/lv_theme_material.c ****     static lv_style_t oneline;
 540:..\..\..\lvgl\version_6.1.2\lvgl\src\lv_themes/lv_theme_material.c **** 
 541:..\..\..\lvgl\version_6.1.2\lvgl\src\lv_themes/lv_theme_material.c ****     lv_style_copy(&oneline, &def);
 542:..\..\..\lvgl\version_6.1.2\lvgl\src\lv_themes/lv_theme_material.c ****     oneline.body.opa          = LV_OPA_TRANSP;
ARM GAS  C:\Users\pearlstl\AppData\Local\Temp\cc5dErme.s 			page 11


 543:..\..\..\lvgl\version_6.1.2\lvgl\src\lv_themes/lv_theme_material.c ****     oneline.body.radius       = 0;
 544:..\..\..\lvgl\version_6.1.2\lvgl\src\lv_themes/lv_theme_material.c ****     oneline.body.border.part  = LV_BORDER_BOTTOM;
 545:..\..\..\lvgl\version_6.1.2\lvgl\src\lv_themes/lv_theme_material.c ****     oneline.body.border.width = 3;
 546:..\..\..\lvgl\version_6.1.2\lvgl\src\lv_themes/lv_theme_material.c ****     oneline.body.border.color = lv_color_hex3(0x333);
 547:..\..\..\lvgl\version_6.1.2\lvgl\src\lv_themes/lv_theme_material.c ****     oneline.body.border.opa   = LV_OPA_COVER;
 548:..\..\..\lvgl\version_6.1.2\lvgl\src\lv_themes/lv_theme_material.c ****     oneline.text.color        = lv_color_hex3(0x333);
 549:..\..\..\lvgl\version_6.1.2\lvgl\src\lv_themes/lv_theme_material.c **** 
 550:..\..\..\lvgl\version_6.1.2\lvgl\src\lv_themes/lv_theme_material.c ****     theme.style.ta.area    = theme.style.panel;
 551:..\..\..\lvgl\version_6.1.2\lvgl\src\lv_themes/lv_theme_material.c ****     theme.style.ta.oneline = &oneline;
 552:..\..\..\lvgl\version_6.1.2\lvgl\src\lv_themes/lv_theme_material.c ****     theme.style.ta.cursor  = NULL; /*Let library to calculate the cursor's style*/
 553:..\..\..\lvgl\version_6.1.2\lvgl\src\lv_themes/lv_theme_material.c ****     theme.style.ta.sb      = &sb;
 554:..\..\..\lvgl\version_6.1.2\lvgl\src\lv_themes/lv_theme_material.c **** #endif
 555:..\..\..\lvgl\version_6.1.2\lvgl\src\lv_themes/lv_theme_material.c **** }
 556:..\..\..\lvgl\version_6.1.2\lvgl\src\lv_themes/lv_theme_material.c **** 
 557:..\..\..\lvgl\version_6.1.2\lvgl\src\lv_themes/lv_theme_material.c **** static void spinbox_init(void)
 558:..\..\..\lvgl\version_6.1.2\lvgl\src\lv_themes/lv_theme_material.c **** {
 559:..\..\..\lvgl\version_6.1.2\lvgl\src\lv_themes/lv_theme_material.c **** #if LV_USE_SPINBOX
 560:..\..\..\lvgl\version_6.1.2\lvgl\src\lv_themes/lv_theme_material.c ****     theme.style.spinbox.bg     = theme.style.panel;
 561:..\..\..\lvgl\version_6.1.2\lvgl\src\lv_themes/lv_theme_material.c ****     theme.style.spinbox.cursor = theme.style.ta.cursor;
 562:..\..\..\lvgl\version_6.1.2\lvgl\src\lv_themes/lv_theme_material.c ****     theme.style.spinbox.sb     = theme.style.ta.sb;
 563:..\..\..\lvgl\version_6.1.2\lvgl\src\lv_themes/lv_theme_material.c **** #endif
 564:..\..\..\lvgl\version_6.1.2\lvgl\src\lv_themes/lv_theme_material.c **** }
 565:..\..\..\lvgl\version_6.1.2\lvgl\src\lv_themes/lv_theme_material.c **** 
 566:..\..\..\lvgl\version_6.1.2\lvgl\src\lv_themes/lv_theme_material.c **** static void list_init(void)
 567:..\..\..\lvgl\version_6.1.2\lvgl\src\lv_themes/lv_theme_material.c **** {
 568:..\..\..\lvgl\version_6.1.2\lvgl\src\lv_themes/lv_theme_material.c **** #if LV_USE_LIST != 0
 569:..\..\..\lvgl\version_6.1.2\lvgl\src\lv_themes/lv_theme_material.c **** 
 570:..\..\..\lvgl\version_6.1.2\lvgl\src\lv_themes/lv_theme_material.c ****     static lv_style_t list_bg, rel, pr, tgl_rel, tgl_pr, ina;
 571:..\..\..\lvgl\version_6.1.2\lvgl\src\lv_themes/lv_theme_material.c **** 
 572:..\..\..\lvgl\version_6.1.2\lvgl\src\lv_themes/lv_theme_material.c ****     lv_style_copy(&list_bg, theme.style.panel);
 573:..\..\..\lvgl\version_6.1.2\lvgl\src\lv_themes/lv_theme_material.c ****     list_bg.body.padding.left   = 0;
 574:..\..\..\lvgl\version_6.1.2\lvgl\src\lv_themes/lv_theme_material.c ****     list_bg.body.padding.right  = 0;
 575:..\..\..\lvgl\version_6.1.2\lvgl\src\lv_themes/lv_theme_material.c ****     list_bg.body.padding.top    = 0;
 576:..\..\..\lvgl\version_6.1.2\lvgl\src\lv_themes/lv_theme_material.c ****     list_bg.body.padding.bottom = 0;
 577:..\..\..\lvgl\version_6.1.2\lvgl\src\lv_themes/lv_theme_material.c ****     list_bg.body.padding.inner  = 0;
 578:..\..\..\lvgl\version_6.1.2\lvgl\src\lv_themes/lv_theme_material.c **** 
 579:..\..\..\lvgl\version_6.1.2\lvgl\src\lv_themes/lv_theme_material.c ****     lv_style_copy(&rel, &lv_style_transp);
 580:..\..\..\lvgl\version_6.1.2\lvgl\src\lv_themes/lv_theme_material.c ****     rel.body.padding.left   = LV_DPI / 8;
 581:..\..\..\lvgl\version_6.1.2\lvgl\src\lv_themes/lv_theme_material.c ****     rel.body.padding.right  = LV_DPI / 8;
 582:..\..\..\lvgl\version_6.1.2\lvgl\src\lv_themes/lv_theme_material.c ****     rel.body.padding.top    = LV_DPI / 6;
 583:..\..\..\lvgl\version_6.1.2\lvgl\src\lv_themes/lv_theme_material.c ****     rel.body.padding.bottom = LV_DPI / 6;
 584:..\..\..\lvgl\version_6.1.2\lvgl\src\lv_themes/lv_theme_material.c ****     rel.body.radius         = 10;
 585:..\..\..\lvgl\version_6.1.2\lvgl\src\lv_themes/lv_theme_material.c ****     rel.body.border.color   = lv_color_hex3(0xbbb);
 586:..\..\..\lvgl\version_6.1.2\lvgl\src\lv_themes/lv_theme_material.c ****     rel.body.border.width   = 1;
 587:..\..\..\lvgl\version_6.1.2\lvgl\src\lv_themes/lv_theme_material.c ****     rel.body.border.part    = LV_BORDER_BOTTOM;
 588:..\..\..\lvgl\version_6.1.2\lvgl\src\lv_themes/lv_theme_material.c **** 
 589:..\..\..\lvgl\version_6.1.2\lvgl\src\lv_themes/lv_theme_material.c ****     lv_style_copy(&pr, &rel);
 590:..\..\..\lvgl\version_6.1.2\lvgl\src\lv_themes/lv_theme_material.c ****     pr.glass             = 0;
 591:..\..\..\lvgl\version_6.1.2\lvgl\src\lv_themes/lv_theme_material.c ****     pr.body.main_color   = lv_color_hex3(0xddd);
 592:..\..\..\lvgl\version_6.1.2\lvgl\src\lv_themes/lv_theme_material.c ****     pr.body.grad_color   = pr.body.main_color;
 593:..\..\..\lvgl\version_6.1.2\lvgl\src\lv_themes/lv_theme_material.c ****     pr.body.border.width = 0;
 594:..\..\..\lvgl\version_6.1.2\lvgl\src\lv_themes/lv_theme_material.c ****     pr.body.opa          = LV_OPA_COVER;
 595:..\..\..\lvgl\version_6.1.2\lvgl\src\lv_themes/lv_theme_material.c ****     pr.body.radius       = DEF_RADIUS;
 596:..\..\..\lvgl\version_6.1.2\lvgl\src\lv_themes/lv_theme_material.c ****     pr.text.font         = _font;
 597:..\..\..\lvgl\version_6.1.2\lvgl\src\lv_themes/lv_theme_material.c **** 
 598:..\..\..\lvgl\version_6.1.2\lvgl\src\lv_themes/lv_theme_material.c ****     lv_style_copy(&tgl_rel, &pr);
 599:..\..\..\lvgl\version_6.1.2\lvgl\src\lv_themes/lv_theme_material.c ****     tgl_rel.body.main_color = lv_color_hsv_to_rgb(_hue, 90, 70);
ARM GAS  C:\Users\pearlstl\AppData\Local\Temp\cc5dErme.s 			page 12


 600:..\..\..\lvgl\version_6.1.2\lvgl\src\lv_themes/lv_theme_material.c ****     tgl_rel.body.grad_color = tgl_rel.body.main_color;
 601:..\..\..\lvgl\version_6.1.2\lvgl\src\lv_themes/lv_theme_material.c ****     tgl_rel.text.color      = lv_color_hsv_to_rgb(_hue, 5, 95);
 602:..\..\..\lvgl\version_6.1.2\lvgl\src\lv_themes/lv_theme_material.c **** 
 603:..\..\..\lvgl\version_6.1.2\lvgl\src\lv_themes/lv_theme_material.c ****     lv_style_copy(&tgl_pr, &tgl_rel);
 604:..\..\..\lvgl\version_6.1.2\lvgl\src\lv_themes/lv_theme_material.c ****     tgl_pr.body.main_color   = lv_color_hsv_to_rgb(_hue, 90, 60);
 605:..\..\..\lvgl\version_6.1.2\lvgl\src\lv_themes/lv_theme_material.c ****     tgl_pr.body.grad_color   = tgl_pr.body.main_color;
 606:..\..\..\lvgl\version_6.1.2\lvgl\src\lv_themes/lv_theme_material.c ****     tgl_pr.body.border.width = 0;
 607:..\..\..\lvgl\version_6.1.2\lvgl\src\lv_themes/lv_theme_material.c **** 
 608:..\..\..\lvgl\version_6.1.2\lvgl\src\lv_themes/lv_theme_material.c ****     lv_style_copy(&ina, &pr);
 609:..\..\..\lvgl\version_6.1.2\lvgl\src\lv_themes/lv_theme_material.c ****     ina.body.main_color = lv_color_hex3(0xccc);
 610:..\..\..\lvgl\version_6.1.2\lvgl\src\lv_themes/lv_theme_material.c ****     ina.body.grad_color = ina.body.main_color;
 611:..\..\..\lvgl\version_6.1.2\lvgl\src\lv_themes/lv_theme_material.c **** 
 612:..\..\..\lvgl\version_6.1.2\lvgl\src\lv_themes/lv_theme_material.c ****     theme.style.list.sb          = &sb;
 613:..\..\..\lvgl\version_6.1.2\lvgl\src\lv_themes/lv_theme_material.c ****     theme.style.list.bg          = &list_bg;
 614:..\..\..\lvgl\version_6.1.2\lvgl\src\lv_themes/lv_theme_material.c ****     theme.style.list.scrl        = &lv_style_transp_tight;
 615:..\..\..\lvgl\version_6.1.2\lvgl\src\lv_themes/lv_theme_material.c ****     theme.style.list.btn.rel     = &rel;
 616:..\..\..\lvgl\version_6.1.2\lvgl\src\lv_themes/lv_theme_material.c ****     theme.style.list.btn.pr      = &pr;
 617:..\..\..\lvgl\version_6.1.2\lvgl\src\lv_themes/lv_theme_material.c ****     theme.style.list.btn.tgl_rel = &tgl_rel;
 618:..\..\..\lvgl\version_6.1.2\lvgl\src\lv_themes/lv_theme_material.c ****     theme.style.list.btn.tgl_pr  = &tgl_pr;
 619:..\..\..\lvgl\version_6.1.2\lvgl\src\lv_themes/lv_theme_material.c ****     theme.style.list.btn.ina     = &ina;
 620:..\..\..\lvgl\version_6.1.2\lvgl\src\lv_themes/lv_theme_material.c **** #endif
 621:..\..\..\lvgl\version_6.1.2\lvgl\src\lv_themes/lv_theme_material.c **** }
 622:..\..\..\lvgl\version_6.1.2\lvgl\src\lv_themes/lv_theme_material.c **** 
 623:..\..\..\lvgl\version_6.1.2\lvgl\src\lv_themes/lv_theme_material.c **** static void ddlist_init(void)
 624:..\..\..\lvgl\version_6.1.2\lvgl\src\lv_themes/lv_theme_material.c **** {
 625:..\..\..\lvgl\version_6.1.2\lvgl\src\lv_themes/lv_theme_material.c **** #if LV_USE_DDLIST != 0
 626:..\..\..\lvgl\version_6.1.2\lvgl\src\lv_themes/lv_theme_material.c ****     static lv_style_t bg, sel;
 627:..\..\..\lvgl\version_6.1.2\lvgl\src\lv_themes/lv_theme_material.c ****     lv_style_copy(&bg, theme.style.panel);
 628:..\..\..\lvgl\version_6.1.2\lvgl\src\lv_themes/lv_theme_material.c ****     bg.body.padding.left   = LV_DPI / 6;
 629:..\..\..\lvgl\version_6.1.2\lvgl\src\lv_themes/lv_theme_material.c ****     bg.body.padding.right  = LV_DPI / 6;
 630:..\..\..\lvgl\version_6.1.2\lvgl\src\lv_themes/lv_theme_material.c ****     bg.body.padding.top    = LV_DPI / 6;
 631:..\..\..\lvgl\version_6.1.2\lvgl\src\lv_themes/lv_theme_material.c ****     bg.body.padding.bottom = LV_DPI / 6;
 632:..\..\..\lvgl\version_6.1.2\lvgl\src\lv_themes/lv_theme_material.c ****     bg.text.line_space     = LV_DPI / 8;
 633:..\..\..\lvgl\version_6.1.2\lvgl\src\lv_themes/lv_theme_material.c **** 
 634:..\..\..\lvgl\version_6.1.2\lvgl\src\lv_themes/lv_theme_material.c ****     lv_style_copy(&sel, &bg);
 635:..\..\..\lvgl\version_6.1.2\lvgl\src\lv_themes/lv_theme_material.c ****     sel.body.main_color   = lv_color_hsv_to_rgb(_hue, 90, 70);
 636:..\..\..\lvgl\version_6.1.2\lvgl\src\lv_themes/lv_theme_material.c ****     sel.body.grad_color   = sel.body.main_color;
 637:..\..\..\lvgl\version_6.1.2\lvgl\src\lv_themes/lv_theme_material.c ****     sel.body.border.width = 0;
 638:..\..\..\lvgl\version_6.1.2\lvgl\src\lv_themes/lv_theme_material.c ****     sel.body.shadow.width = 0;
 639:..\..\..\lvgl\version_6.1.2\lvgl\src\lv_themes/lv_theme_material.c ****     sel.text.color        = lv_color_hsv_to_rgb(_hue, 5, 95);
 640:..\..\..\lvgl\version_6.1.2\lvgl\src\lv_themes/lv_theme_material.c **** 
 641:..\..\..\lvgl\version_6.1.2\lvgl\src\lv_themes/lv_theme_material.c ****     theme.style.ddlist.bg  = &bg;
 642:..\..\..\lvgl\version_6.1.2\lvgl\src\lv_themes/lv_theme_material.c ****     theme.style.ddlist.sel = &sel;
 643:..\..\..\lvgl\version_6.1.2\lvgl\src\lv_themes/lv_theme_material.c ****     theme.style.ddlist.sb  = &sb;
 644:..\..\..\lvgl\version_6.1.2\lvgl\src\lv_themes/lv_theme_material.c **** #endif
 645:..\..\..\lvgl\version_6.1.2\lvgl\src\lv_themes/lv_theme_material.c **** }
 646:..\..\..\lvgl\version_6.1.2\lvgl\src\lv_themes/lv_theme_material.c **** 
 647:..\..\..\lvgl\version_6.1.2\lvgl\src\lv_themes/lv_theme_material.c **** static void roller_init(void)
 648:..\..\..\lvgl\version_6.1.2\lvgl\src\lv_themes/lv_theme_material.c **** {
 649:..\..\..\lvgl\version_6.1.2\lvgl\src\lv_themes/lv_theme_material.c **** #if LV_USE_ROLLER != 0
 650:..\..\..\lvgl\version_6.1.2\lvgl\src\lv_themes/lv_theme_material.c ****     static lv_style_t roller_bg, roller_sel;
 651:..\..\..\lvgl\version_6.1.2\lvgl\src\lv_themes/lv_theme_material.c **** 
 652:..\..\..\lvgl\version_6.1.2\lvgl\src\lv_themes/lv_theme_material.c ****     lv_style_copy(&roller_bg, &lv_style_transp);
 653:..\..\..\lvgl\version_6.1.2\lvgl\src\lv_themes/lv_theme_material.c ****     roller_bg.body.padding.left   = LV_DPI / 6;
 654:..\..\..\lvgl\version_6.1.2\lvgl\src\lv_themes/lv_theme_material.c ****     roller_bg.body.padding.right  = LV_DPI / 6;
 655:..\..\..\lvgl\version_6.1.2\lvgl\src\lv_themes/lv_theme_material.c ****     roller_bg.body.padding.top    = LV_DPI / 6;
 656:..\..\..\lvgl\version_6.1.2\lvgl\src\lv_themes/lv_theme_material.c ****     roller_bg.body.padding.bottom = LV_DPI / 6;
ARM GAS  C:\Users\pearlstl\AppData\Local\Temp\cc5dErme.s 			page 13


 657:..\..\..\lvgl\version_6.1.2\lvgl\src\lv_themes/lv_theme_material.c ****     roller_bg.text.line_space     = LV_DPI / 8;
 658:..\..\..\lvgl\version_6.1.2\lvgl\src\lv_themes/lv_theme_material.c ****     roller_bg.text.font           = _font;
 659:..\..\..\lvgl\version_6.1.2\lvgl\src\lv_themes/lv_theme_material.c ****     roller_bg.glass               = 0;
 660:..\..\..\lvgl\version_6.1.2\lvgl\src\lv_themes/lv_theme_material.c **** 
 661:..\..\..\lvgl\version_6.1.2\lvgl\src\lv_themes/lv_theme_material.c ****     lv_style_copy(&roller_sel, &roller_bg);
 662:..\..\..\lvgl\version_6.1.2\lvgl\src\lv_themes/lv_theme_material.c ****     roller_sel.text.color = lv_color_hsv_to_rgb(_hue, 90, 70);
 663:..\..\..\lvgl\version_6.1.2\lvgl\src\lv_themes/lv_theme_material.c **** 
 664:..\..\..\lvgl\version_6.1.2\lvgl\src\lv_themes/lv_theme_material.c ****     theme.style.roller.bg  = &roller_bg;
 665:..\..\..\lvgl\version_6.1.2\lvgl\src\lv_themes/lv_theme_material.c ****     theme.style.roller.sel = &roller_sel;
 666:..\..\..\lvgl\version_6.1.2\lvgl\src\lv_themes/lv_theme_material.c **** #endif
 667:..\..\..\lvgl\version_6.1.2\lvgl\src\lv_themes/lv_theme_material.c **** }
 668:..\..\..\lvgl\version_6.1.2\lvgl\src\lv_themes/lv_theme_material.c **** 
 669:..\..\..\lvgl\version_6.1.2\lvgl\src\lv_themes/lv_theme_material.c **** static void tabview_init(void)
 670:..\..\..\lvgl\version_6.1.2\lvgl\src\lv_themes/lv_theme_material.c **** {
 671:..\..\..\lvgl\version_6.1.2\lvgl\src\lv_themes/lv_theme_material.c **** #if LV_USE_TABVIEW != 0
 672:..\..\..\lvgl\version_6.1.2\lvgl\src\lv_themes/lv_theme_material.c ****     static lv_style_t indic, btn_bg, rel, pr, tgl_rel, tgl_pr;
 673:..\..\..\lvgl\version_6.1.2\lvgl\src\lv_themes/lv_theme_material.c **** 
 674:..\..\..\lvgl\version_6.1.2\lvgl\src\lv_themes/lv_theme_material.c ****     lv_style_copy(&indic, &def);
 675:..\..\..\lvgl\version_6.1.2\lvgl\src\lv_themes/lv_theme_material.c ****     indic.body.main_color    = lv_color_hsv_to_rgb(_hue, 90, 70);
 676:..\..\..\lvgl\version_6.1.2\lvgl\src\lv_themes/lv_theme_material.c ****     indic.body.grad_color    = indic.body.main_color;
 677:..\..\..\lvgl\version_6.1.2\lvgl\src\lv_themes/lv_theme_material.c ****     indic.body.radius        = 0;
 678:..\..\..\lvgl\version_6.1.2\lvgl\src\lv_themes/lv_theme_material.c ****     indic.body.border.width  = 0;
 679:..\..\..\lvgl\version_6.1.2\lvgl\src\lv_themes/lv_theme_material.c ****     indic.body.padding.inner = LV_DPI / 20;
 680:..\..\..\lvgl\version_6.1.2\lvgl\src\lv_themes/lv_theme_material.c **** 
 681:..\..\..\lvgl\version_6.1.2\lvgl\src\lv_themes/lv_theme_material.c ****     lv_style_copy(&btn_bg, &def);
 682:..\..\..\lvgl\version_6.1.2\lvgl\src\lv_themes/lv_theme_material.c ****     btn_bg.body.main_color     = lv_color_hex3(0xccc);
 683:..\..\..\lvgl\version_6.1.2\lvgl\src\lv_themes/lv_theme_material.c ****     btn_bg.body.grad_color     = btn_bg.body.main_color;
 684:..\..\..\lvgl\version_6.1.2\lvgl\src\lv_themes/lv_theme_material.c ****     btn_bg.body.radius         = 0;
 685:..\..\..\lvgl\version_6.1.2\lvgl\src\lv_themes/lv_theme_material.c ****     btn_bg.body.border.width   = 1;
 686:..\..\..\lvgl\version_6.1.2\lvgl\src\lv_themes/lv_theme_material.c ****     btn_bg.body.border.color   = lv_color_hex3(0x888);
 687:..\..\..\lvgl\version_6.1.2\lvgl\src\lv_themes/lv_theme_material.c ****     btn_bg.body.border.part    = LV_BORDER_BOTTOM;
 688:..\..\..\lvgl\version_6.1.2\lvgl\src\lv_themes/lv_theme_material.c ****     btn_bg.body.border.opa     = LV_OPA_COVER;
 689:..\..\..\lvgl\version_6.1.2\lvgl\src\lv_themes/lv_theme_material.c ****     btn_bg.body.shadow.width   = 5;
 690:..\..\..\lvgl\version_6.1.2\lvgl\src\lv_themes/lv_theme_material.c ****     btn_bg.body.shadow.color   = DEF_SHADOW_COLOR;
 691:..\..\..\lvgl\version_6.1.2\lvgl\src\lv_themes/lv_theme_material.c ****     btn_bg.body.shadow.type    = LV_SHADOW_BOTTOM;
 692:..\..\..\lvgl\version_6.1.2\lvgl\src\lv_themes/lv_theme_material.c ****     btn_bg.body.padding.inner  = 0;
 693:..\..\..\lvgl\version_6.1.2\lvgl\src\lv_themes/lv_theme_material.c ****     btn_bg.body.padding.left   = 0;
 694:..\..\..\lvgl\version_6.1.2\lvgl\src\lv_themes/lv_theme_material.c ****     btn_bg.body.padding.right  = 0;
 695:..\..\..\lvgl\version_6.1.2\lvgl\src\lv_themes/lv_theme_material.c ****     btn_bg.body.padding.top    = 0;
 696:..\..\..\lvgl\version_6.1.2\lvgl\src\lv_themes/lv_theme_material.c ****     btn_bg.body.padding.bottom = 0;
 697:..\..\..\lvgl\version_6.1.2\lvgl\src\lv_themes/lv_theme_material.c ****     btn_bg.text.color          = lv_color_hex3(0x333);
 698:..\..\..\lvgl\version_6.1.2\lvgl\src\lv_themes/lv_theme_material.c **** 
 699:..\..\..\lvgl\version_6.1.2\lvgl\src\lv_themes/lv_theme_material.c ****     lv_style_copy(&rel, &lv_style_transp);
 700:..\..\..\lvgl\version_6.1.2\lvgl\src\lv_themes/lv_theme_material.c ****     rel.body.padding.top    = LV_DPI / 8;
 701:..\..\..\lvgl\version_6.1.2\lvgl\src\lv_themes/lv_theme_material.c ****     rel.body.padding.bottom = LV_DPI / 8;
 702:..\..\..\lvgl\version_6.1.2\lvgl\src\lv_themes/lv_theme_material.c ****     rel.text.font           = _font;
 703:..\..\..\lvgl\version_6.1.2\lvgl\src\lv_themes/lv_theme_material.c **** 
 704:..\..\..\lvgl\version_6.1.2\lvgl\src\lv_themes/lv_theme_material.c ****     lv_style_copy(&pr, &def);
 705:..\..\..\lvgl\version_6.1.2\lvgl\src\lv_themes/lv_theme_material.c ****     pr.body.main_color   = lv_color_hex3(0xbbb);
 706:..\..\..\lvgl\version_6.1.2\lvgl\src\lv_themes/lv_theme_material.c ****     pr.body.grad_color   = pr.body.main_color;
 707:..\..\..\lvgl\version_6.1.2\lvgl\src\lv_themes/lv_theme_material.c ****     pr.body.border.width = 0;
 708:..\..\..\lvgl\version_6.1.2\lvgl\src\lv_themes/lv_theme_material.c ****     pr.body.opa          = LV_OPA_COVER;
 709:..\..\..\lvgl\version_6.1.2\lvgl\src\lv_themes/lv_theme_material.c ****     pr.body.radius       = 0;
 710:..\..\..\lvgl\version_6.1.2\lvgl\src\lv_themes/lv_theme_material.c ****     pr.body.border.width = 1;
 711:..\..\..\lvgl\version_6.1.2\lvgl\src\lv_themes/lv_theme_material.c ****     pr.body.border.color = lv_color_hex3(0x888);
 712:..\..\..\lvgl\version_6.1.2\lvgl\src\lv_themes/lv_theme_material.c ****     pr.body.border.part  = LV_BORDER_BOTTOM;
 713:..\..\..\lvgl\version_6.1.2\lvgl\src\lv_themes/lv_theme_material.c ****     pr.body.border.opa   = LV_OPA_COVER;
ARM GAS  C:\Users\pearlstl\AppData\Local\Temp\cc5dErme.s 			page 14


 714:..\..\..\lvgl\version_6.1.2\lvgl\src\lv_themes/lv_theme_material.c ****     pr.text.color        = lv_color_hex3(0x111);
 715:..\..\..\lvgl\version_6.1.2\lvgl\src\lv_themes/lv_theme_material.c **** 
 716:..\..\..\lvgl\version_6.1.2\lvgl\src\lv_themes/lv_theme_material.c ****     lv_style_copy(&tgl_rel, &lv_style_transp);
 717:..\..\..\lvgl\version_6.1.2\lvgl\src\lv_themes/lv_theme_material.c ****     tgl_rel.glass      = 0;
 718:..\..\..\lvgl\version_6.1.2\lvgl\src\lv_themes/lv_theme_material.c ****     tgl_rel.text.font  = _font;
 719:..\..\..\lvgl\version_6.1.2\lvgl\src\lv_themes/lv_theme_material.c ****     tgl_rel.text.color = lv_color_hsv_to_rgb(_hue, 90, 70);
 720:..\..\..\lvgl\version_6.1.2\lvgl\src\lv_themes/lv_theme_material.c **** 
 721:..\..\..\lvgl\version_6.1.2\lvgl\src\lv_themes/lv_theme_material.c ****     lv_style_copy(&tgl_pr, &def);
 722:..\..\..\lvgl\version_6.1.2\lvgl\src\lv_themes/lv_theme_material.c ****     tgl_pr.body.main_color   = lv_color_hsv_to_rgb(_hue, 15, 85);
 723:..\..\..\lvgl\version_6.1.2\lvgl\src\lv_themes/lv_theme_material.c ****     tgl_pr.body.grad_color   = tgl_pr.body.main_color;
 724:..\..\..\lvgl\version_6.1.2\lvgl\src\lv_themes/lv_theme_material.c ****     tgl_pr.body.border.width = 0;
 725:..\..\..\lvgl\version_6.1.2\lvgl\src\lv_themes/lv_theme_material.c ****     tgl_pr.body.opa          = LV_OPA_COVER;
 726:..\..\..\lvgl\version_6.1.2\lvgl\src\lv_themes/lv_theme_material.c ****     tgl_pr.body.radius       = 0;
 727:..\..\..\lvgl\version_6.1.2\lvgl\src\lv_themes/lv_theme_material.c ****     tgl_pr.text.color        = lv_color_hsv_to_rgb(_hue, 90, 60);
 728:..\..\..\lvgl\version_6.1.2\lvgl\src\lv_themes/lv_theme_material.c **** 
 729:..\..\..\lvgl\version_6.1.2\lvgl\src\lv_themes/lv_theme_material.c ****     theme.style.tabview.bg          = theme.style.bg;
 730:..\..\..\lvgl\version_6.1.2\lvgl\src\lv_themes/lv_theme_material.c ****     theme.style.tabview.indic       = &indic;
 731:..\..\..\lvgl\version_6.1.2\lvgl\src\lv_themes/lv_theme_material.c ****     theme.style.tabview.btn.bg      = &btn_bg;
 732:..\..\..\lvgl\version_6.1.2\lvgl\src\lv_themes/lv_theme_material.c ****     theme.style.tabview.btn.rel     = &rel;
 733:..\..\..\lvgl\version_6.1.2\lvgl\src\lv_themes/lv_theme_material.c ****     theme.style.tabview.btn.pr      = &pr;
 734:..\..\..\lvgl\version_6.1.2\lvgl\src\lv_themes/lv_theme_material.c ****     theme.style.tabview.btn.tgl_rel = &tgl_rel;
 735:..\..\..\lvgl\version_6.1.2\lvgl\src\lv_themes/lv_theme_material.c ****     theme.style.tabview.btn.tgl_pr  = &tgl_pr;
 736:..\..\..\lvgl\version_6.1.2\lvgl\src\lv_themes/lv_theme_material.c **** #endif
 737:..\..\..\lvgl\version_6.1.2\lvgl\src\lv_themes/lv_theme_material.c **** }
 738:..\..\..\lvgl\version_6.1.2\lvgl\src\lv_themes/lv_theme_material.c **** 
 739:..\..\..\lvgl\version_6.1.2\lvgl\src\lv_themes/lv_theme_material.c **** static void tileview_init(void)
 740:..\..\..\lvgl\version_6.1.2\lvgl\src\lv_themes/lv_theme_material.c **** {
 741:..\..\..\lvgl\version_6.1.2\lvgl\src\lv_themes/lv_theme_material.c **** #if LV_USE_TILEVIEW != 0
 742:..\..\..\lvgl\version_6.1.2\lvgl\src\lv_themes/lv_theme_material.c ****     theme.style.tileview.bg   = &lv_style_transp_tight;
 743:..\..\..\lvgl\version_6.1.2\lvgl\src\lv_themes/lv_theme_material.c ****     theme.style.tileview.scrl = &lv_style_transp_tight;
 744:..\..\..\lvgl\version_6.1.2\lvgl\src\lv_themes/lv_theme_material.c ****     theme.style.tileview.sb   = theme.style.page.sb;
 745:..\..\..\lvgl\version_6.1.2\lvgl\src\lv_themes/lv_theme_material.c **** #endif
 746:..\..\..\lvgl\version_6.1.2\lvgl\src\lv_themes/lv_theme_material.c **** }
 747:..\..\..\lvgl\version_6.1.2\lvgl\src\lv_themes/lv_theme_material.c **** 
 748:..\..\..\lvgl\version_6.1.2\lvgl\src\lv_themes/lv_theme_material.c **** static void table_init(void)
 749:..\..\..\lvgl\version_6.1.2\lvgl\src\lv_themes/lv_theme_material.c **** {
 750:..\..\..\lvgl\version_6.1.2\lvgl\src\lv_themes/lv_theme_material.c **** #if LV_USE_TABLE != 0
 751:..\..\..\lvgl\version_6.1.2\lvgl\src\lv_themes/lv_theme_material.c ****     static lv_style_t cell;
 752:..\..\..\lvgl\version_6.1.2\lvgl\src\lv_themes/lv_theme_material.c ****     lv_style_copy(&cell, theme.style.panel);
 753:..\..\..\lvgl\version_6.1.2\lvgl\src\lv_themes/lv_theme_material.c ****     cell.body.radius         = 0;
 754:..\..\..\lvgl\version_6.1.2\lvgl\src\lv_themes/lv_theme_material.c ****     cell.body.border.width   = 1;
 755:..\..\..\lvgl\version_6.1.2\lvgl\src\lv_themes/lv_theme_material.c ****     cell.body.padding.left   = LV_DPI / 12;
 756:..\..\..\lvgl\version_6.1.2\lvgl\src\lv_themes/lv_theme_material.c ****     cell.body.padding.right  = LV_DPI / 12;
 757:..\..\..\lvgl\version_6.1.2\lvgl\src\lv_themes/lv_theme_material.c ****     cell.body.padding.top    = LV_DPI / 12;
 758:..\..\..\lvgl\version_6.1.2\lvgl\src\lv_themes/lv_theme_material.c ****     cell.body.padding.bottom = LV_DPI / 12;
 759:..\..\..\lvgl\version_6.1.2\lvgl\src\lv_themes/lv_theme_material.c **** 
 760:..\..\..\lvgl\version_6.1.2\lvgl\src\lv_themes/lv_theme_material.c ****     theme.style.table.bg   = &lv_style_transp_tight;
 761:..\..\..\lvgl\version_6.1.2\lvgl\src\lv_themes/lv_theme_material.c ****     theme.style.table.cell = &cell;
 762:..\..\..\lvgl\version_6.1.2\lvgl\src\lv_themes/lv_theme_material.c **** #endif
 763:..\..\..\lvgl\version_6.1.2\lvgl\src\lv_themes/lv_theme_material.c **** }
 764:..\..\..\lvgl\version_6.1.2\lvgl\src\lv_themes/lv_theme_material.c **** 
 765:..\..\..\lvgl\version_6.1.2\lvgl\src\lv_themes/lv_theme_material.c **** static void win_init(void)
 766:..\..\..\lvgl\version_6.1.2\lvgl\src\lv_themes/lv_theme_material.c **** {
 767:..\..\..\lvgl\version_6.1.2\lvgl\src\lv_themes/lv_theme_material.c **** #if LV_USE_WIN != 0
 768:..\..\..\lvgl\version_6.1.2\lvgl\src\lv_themes/lv_theme_material.c ****     static lv_style_t header, pr;
 769:..\..\..\lvgl\version_6.1.2\lvgl\src\lv_themes/lv_theme_material.c **** 
 770:..\..\..\lvgl\version_6.1.2\lvgl\src\lv_themes/lv_theme_material.c ****     lv_style_copy(&header, &def);
ARM GAS  C:\Users\pearlstl\AppData\Local\Temp\cc5dErme.s 			page 15


 771:..\..\..\lvgl\version_6.1.2\lvgl\src\lv_themes/lv_theme_material.c ****     header.body.main_color     = lv_color_hex3(0xccc);
 772:..\..\..\lvgl\version_6.1.2\lvgl\src\lv_themes/lv_theme_material.c ****     header.body.grad_color     = header.body.main_color;
 773:..\..\..\lvgl\version_6.1.2\lvgl\src\lv_themes/lv_theme_material.c ****     header.body.radius         = 0;
 774:..\..\..\lvgl\version_6.1.2\lvgl\src\lv_themes/lv_theme_material.c ****     header.body.border.width   = 1;
 775:..\..\..\lvgl\version_6.1.2\lvgl\src\lv_themes/lv_theme_material.c ****     header.body.border.color   = lv_color_hex3(0xbbb);
 776:..\..\..\lvgl\version_6.1.2\lvgl\src\lv_themes/lv_theme_material.c ****     header.body.border.part    = LV_BORDER_BOTTOM;
 777:..\..\..\lvgl\version_6.1.2\lvgl\src\lv_themes/lv_theme_material.c ****     header.body.border.opa     = LV_OPA_COVER;
 778:..\..\..\lvgl\version_6.1.2\lvgl\src\lv_themes/lv_theme_material.c ****     header.body.padding.inner  = 0;
 779:..\..\..\lvgl\version_6.1.2\lvgl\src\lv_themes/lv_theme_material.c ****     header.body.padding.left   = 0;
 780:..\..\..\lvgl\version_6.1.2\lvgl\src\lv_themes/lv_theme_material.c ****     header.body.padding.right  = 0;
 781:..\..\..\lvgl\version_6.1.2\lvgl\src\lv_themes/lv_theme_material.c ****     header.body.padding.top    = 0;
 782:..\..\..\lvgl\version_6.1.2\lvgl\src\lv_themes/lv_theme_material.c ****     header.body.padding.bottom = 0;
 783:..\..\..\lvgl\version_6.1.2\lvgl\src\lv_themes/lv_theme_material.c ****     header.text.color          = lv_color_hex3(0x333);
 784:..\..\..\lvgl\version_6.1.2\lvgl\src\lv_themes/lv_theme_material.c ****     header.image.color         = lv_color_hex3(0x333);
 785:..\..\..\lvgl\version_6.1.2\lvgl\src\lv_themes/lv_theme_material.c **** 
 786:..\..\..\lvgl\version_6.1.2\lvgl\src\lv_themes/lv_theme_material.c ****     lv_style_copy(&pr, &def);
 787:..\..\..\lvgl\version_6.1.2\lvgl\src\lv_themes/lv_theme_material.c ****     pr.body.main_color   = lv_color_hex3(0xbbb);
 788:..\..\..\lvgl\version_6.1.2\lvgl\src\lv_themes/lv_theme_material.c ****     pr.body.grad_color   = pr.body.main_color;
 789:..\..\..\lvgl\version_6.1.2\lvgl\src\lv_themes/lv_theme_material.c ****     pr.body.border.width = 0;
 790:..\..\..\lvgl\version_6.1.2\lvgl\src\lv_themes/lv_theme_material.c ****     pr.body.opa          = LV_OPA_COVER;
 791:..\..\..\lvgl\version_6.1.2\lvgl\src\lv_themes/lv_theme_material.c ****     pr.body.radius       = 0;
 792:..\..\..\lvgl\version_6.1.2\lvgl\src\lv_themes/lv_theme_material.c ****     pr.text.color        = lv_color_hex3(0x111);
 793:..\..\..\lvgl\version_6.1.2\lvgl\src\lv_themes/lv_theme_material.c ****     pr.image.color       = lv_color_hex3(0x111);
 794:..\..\..\lvgl\version_6.1.2\lvgl\src\lv_themes/lv_theme_material.c **** 
 795:..\..\..\lvgl\version_6.1.2\lvgl\src\lv_themes/lv_theme_material.c ****     theme.style.win.bg      = theme.style.panel;
 796:..\..\..\lvgl\version_6.1.2\lvgl\src\lv_themes/lv_theme_material.c ****     theme.style.win.sb      = &sb;
 797:..\..\..\lvgl\version_6.1.2\lvgl\src\lv_themes/lv_theme_material.c ****     theme.style.win.header  = &header;
 798:..\..\..\lvgl\version_6.1.2\lvgl\src\lv_themes/lv_theme_material.c ****     theme.style.win.content = &lv_style_transp;
 799:..\..\..\lvgl\version_6.1.2\lvgl\src\lv_themes/lv_theme_material.c ****     theme.style.win.btn.rel = &lv_style_transp;
 800:..\..\..\lvgl\version_6.1.2\lvgl\src\lv_themes/lv_theme_material.c ****     theme.style.win.btn.pr  = &pr;
 801:..\..\..\lvgl\version_6.1.2\lvgl\src\lv_themes/lv_theme_material.c **** #endif
 802:..\..\..\lvgl\version_6.1.2\lvgl\src\lv_themes/lv_theme_material.c **** }
 803:..\..\..\lvgl\version_6.1.2\lvgl\src\lv_themes/lv_theme_material.c **** 
 804:..\..\..\lvgl\version_6.1.2\lvgl\src\lv_themes/lv_theme_material.c **** #if LV_USE_GROUP
 805:..\..\..\lvgl\version_6.1.2\lvgl\src\lv_themes/lv_theme_material.c **** 
 806:..\..\..\lvgl\version_6.1.2\lvgl\src\lv_themes/lv_theme_material.c **** static void style_mod(lv_group_t * group, lv_style_t * style)
 807:..\..\..\lvgl\version_6.1.2\lvgl\src\lv_themes/lv_theme_material.c **** {
 808:..\..\..\lvgl\version_6.1.2\lvgl\src\lv_themes/lv_theme_material.c ****     (void)group; /*Unused*/
 809:..\..\..\lvgl\version_6.1.2\lvgl\src\lv_themes/lv_theme_material.c **** #if LV_COLOR_DEPTH != 1
 810:..\..\..\lvgl\version_6.1.2\lvgl\src\lv_themes/lv_theme_material.c ****     uint16_t hue2 = (_hue + 60) % 360;
 811:..\..\..\lvgl\version_6.1.2\lvgl\src\lv_themes/lv_theme_material.c **** 
 812:..\..\..\lvgl\version_6.1.2\lvgl\src\lv_themes/lv_theme_material.c ****     /*Make the style to be a little bit orange*/
 813:..\..\..\lvgl\version_6.1.2\lvgl\src\lv_themes/lv_theme_material.c ****     style->body.border.opa   = LV_OPA_COVER;
 814:..\..\..\lvgl\version_6.1.2\lvgl\src\lv_themes/lv_theme_material.c ****     style->body.border.color = lv_color_hsv_to_rgb(hue2, 90, 70);
 815:..\..\..\lvgl\version_6.1.2\lvgl\src\lv_themes/lv_theme_material.c **** 
 816:..\..\..\lvgl\version_6.1.2\lvgl\src\lv_themes/lv_theme_material.c ****     /*If not empty or has border then emphasis the border*/
 817:..\..\..\lvgl\version_6.1.2\lvgl\src\lv_themes/lv_theme_material.c ****     if(style->body.opa != LV_OPA_TRANSP || style->body.border.width != 0) style->body.border.width 
 818:..\..\..\lvgl\version_6.1.2\lvgl\src\lv_themes/lv_theme_material.c **** 
 819:..\..\..\lvgl\version_6.1.2\lvgl\src\lv_themes/lv_theme_material.c ****     style->body.main_color   = lv_color_mix(style->body.main_color, lv_color_hsv_to_rgb(hue2, 90, 7
 820:..\..\..\lvgl\version_6.1.2\lvgl\src\lv_themes/lv_theme_material.c ****     style->body.grad_color   = lv_color_mix(style->body.grad_color, lv_color_hsv_to_rgb(hue2, 90, 7
 821:..\..\..\lvgl\version_6.1.2\lvgl\src\lv_themes/lv_theme_material.c ****     style->body.shadow.color = lv_color_mix(style->body.shadow.color, lv_color_hsv_to_rgb(hue2, 90,
 822:..\..\..\lvgl\version_6.1.2\lvgl\src\lv_themes/lv_theme_material.c **** 
 823:..\..\..\lvgl\version_6.1.2\lvgl\src\lv_themes/lv_theme_material.c ****     style->text.color = lv_color_mix(style->text.color, lv_color_hsv_to_rgb(hue2, 90, 70), LV_OPA_7
 824:..\..\..\lvgl\version_6.1.2\lvgl\src\lv_themes/lv_theme_material.c **** #else
 825:..\..\..\lvgl\version_6.1.2\lvgl\src\lv_themes/lv_theme_material.c ****     style->body.border.opa   = LV_OPA_COVER;
 826:..\..\..\lvgl\version_6.1.2\lvgl\src\lv_themes/lv_theme_material.c ****     style->body.border.color = LV_COLOR_BLACK;
 827:..\..\..\lvgl\version_6.1.2\lvgl\src\lv_themes/lv_theme_material.c ****     style->body.border.width = 2;
ARM GAS  C:\Users\pearlstl\AppData\Local\Temp\cc5dErme.s 			page 16


 828:..\..\..\lvgl\version_6.1.2\lvgl\src\lv_themes/lv_theme_material.c **** #endif
 829:..\..\..\lvgl\version_6.1.2\lvgl\src\lv_themes/lv_theme_material.c **** }
 830:..\..\..\lvgl\version_6.1.2\lvgl\src\lv_themes/lv_theme_material.c **** 
 831:..\..\..\lvgl\version_6.1.2\lvgl\src\lv_themes/lv_theme_material.c **** static void style_mod_edit(lv_group_t * group, lv_style_t * style)
 832:..\..\..\lvgl\version_6.1.2\lvgl\src\lv_themes/lv_theme_material.c **** {
 833:..\..\..\lvgl\version_6.1.2\lvgl\src\lv_themes/lv_theme_material.c ****     (void)group; /*Unused*/
 834:..\..\..\lvgl\version_6.1.2\lvgl\src\lv_themes/lv_theme_material.c **** #if LV_COLOR_DEPTH != 1
 835:..\..\..\lvgl\version_6.1.2\lvgl\src\lv_themes/lv_theme_material.c ****     uint16_t hue2 = (_hue + 300) % 360;
 836:..\..\..\lvgl\version_6.1.2\lvgl\src\lv_themes/lv_theme_material.c **** 
 837:..\..\..\lvgl\version_6.1.2\lvgl\src\lv_themes/lv_theme_material.c ****     /*Make the style to be a little bit orange*/
 838:..\..\..\lvgl\version_6.1.2\lvgl\src\lv_themes/lv_theme_material.c ****     style->body.border.opa   = LV_OPA_COVER;
 839:..\..\..\lvgl\version_6.1.2\lvgl\src\lv_themes/lv_theme_material.c ****     style->body.border.color = LV_COLOR_GREEN;
 840:..\..\..\lvgl\version_6.1.2\lvgl\src\lv_themes/lv_theme_material.c **** 
 841:..\..\..\lvgl\version_6.1.2\lvgl\src\lv_themes/lv_theme_material.c ****     /*If not empty or has border then emphasis the border*/
 842:..\..\..\lvgl\version_6.1.2\lvgl\src\lv_themes/lv_theme_material.c ****     if(style->body.opa != LV_OPA_TRANSP || style->body.border.width != 0) style->body.border.width 
 843:..\..\..\lvgl\version_6.1.2\lvgl\src\lv_themes/lv_theme_material.c **** 
 844:..\..\..\lvgl\version_6.1.2\lvgl\src\lv_themes/lv_theme_material.c **** 
 845:..\..\..\lvgl\version_6.1.2\lvgl\src\lv_themes/lv_theme_material.c ****     style->body.main_color   = lv_color_mix(style->body.main_color, lv_color_hsv_to_rgb(hue2, 90, 7
 846:..\..\..\lvgl\version_6.1.2\lvgl\src\lv_themes/lv_theme_material.c ****     style->body.grad_color   = lv_color_mix(style->body.grad_color, lv_color_hsv_to_rgb(hue2, 90, 7
 847:..\..\..\lvgl\version_6.1.2\lvgl\src\lv_themes/lv_theme_material.c ****     style->body.shadow.color = lv_color_mix(style->body.shadow.color, lv_color_hsv_to_rgb(hue2, 90,
 848:..\..\..\lvgl\version_6.1.2\lvgl\src\lv_themes/lv_theme_material.c **** 
 849:..\..\..\lvgl\version_6.1.2\lvgl\src\lv_themes/lv_theme_material.c ****     style->text.color = lv_color_mix(style->text.color, lv_color_hsv_to_rgb(hue2, 90, 70), LV_OPA_7
 850:..\..\..\lvgl\version_6.1.2\lvgl\src\lv_themes/lv_theme_material.c **** #else
 851:..\..\..\lvgl\version_6.1.2\lvgl\src\lv_themes/lv_theme_material.c ****     style->body.border.opa   = LV_OPA_COVER;
 852:..\..\..\lvgl\version_6.1.2\lvgl\src\lv_themes/lv_theme_material.c ****     style->body.border.color = LV_COLOR_BLACK;
 853:..\..\..\lvgl\version_6.1.2\lvgl\src\lv_themes/lv_theme_material.c ****     style->body.border.width = 3;
 854:..\..\..\lvgl\version_6.1.2\lvgl\src\lv_themes/lv_theme_material.c **** #endif
 855:..\..\..\lvgl\version_6.1.2\lvgl\src\lv_themes/lv_theme_material.c **** }
 856:..\..\..\lvgl\version_6.1.2\lvgl\src\lv_themes/lv_theme_material.c **** 
 857:..\..\..\lvgl\version_6.1.2\lvgl\src\lv_themes/lv_theme_material.c **** #endif /*LV_USE_GROUP*/
 858:..\..\..\lvgl\version_6.1.2\lvgl\src\lv_themes/lv_theme_material.c **** 
 859:..\..\..\lvgl\version_6.1.2\lvgl\src\lv_themes/lv_theme_material.c **** /**********************
 860:..\..\..\lvgl\version_6.1.2\lvgl\src\lv_themes/lv_theme_material.c ****  *   GLOBAL FUNCTIONS
 861:..\..\..\lvgl\version_6.1.2\lvgl\src\lv_themes/lv_theme_material.c ****  **********************/
 862:..\..\..\lvgl\version_6.1.2\lvgl\src\lv_themes/lv_theme_material.c **** 
 863:..\..\..\lvgl\version_6.1.2\lvgl\src\lv_themes/lv_theme_material.c **** /**
 864:..\..\..\lvgl\version_6.1.2\lvgl\src\lv_themes/lv_theme_material.c ****  * Initialize the material theme
 865:..\..\..\lvgl\version_6.1.2\lvgl\src\lv_themes/lv_theme_material.c ****  * @param hue [0..360] hue value from HSV color space to define the theme's base color
 866:..\..\..\lvgl\version_6.1.2\lvgl\src\lv_themes/lv_theme_material.c ****  * @param font pointer to a font (NULL to use the default)
 867:..\..\..\lvgl\version_6.1.2\lvgl\src\lv_themes/lv_theme_material.c ****  * @return pointer to the initialized theme
 868:..\..\..\lvgl\version_6.1.2\lvgl\src\lv_themes/lv_theme_material.c ****  */
 869:..\..\..\lvgl\version_6.1.2\lvgl\src\lv_themes/lv_theme_material.c **** lv_theme_t * lv_theme_material_init(uint16_t hue, lv_font_t * font)
 870:..\..\..\lvgl\version_6.1.2\lvgl\src\lv_themes/lv_theme_material.c **** {
  29              		.loc 1 870 0
  30              		.cfi_startproc
  31              		@ args = 0, pretend = 0, frame = 8
  32              		@ frame_needed = 0, uses_anonymous_args = 0
  33              	.LVL0:
  34 0000 2DE9F04F 		push	{r4, r5, r6, r7, r8, r9, r10, fp, lr}
  35              		.cfi_def_cfa_offset 36
  36              		.cfi_offset 4, -36
  37              		.cfi_offset 5, -32
  38              		.cfi_offset 6, -28
  39              		.cfi_offset 7, -24
  40              		.cfi_offset 8, -20
  41              		.cfi_offset 9, -16
  42              		.cfi_offset 10, -12
ARM GAS  C:\Users\pearlstl\AppData\Local\Temp\cc5dErme.s 			page 17


  43              		.cfi_offset 11, -8
  44              		.cfi_offset 14, -4
 871:..\..\..\lvgl\version_6.1.2\lvgl\src\lv_themes/lv_theme_material.c ****     if(font == NULL) font = LV_FONT_DEFAULT;
  45              		.loc 1 871 0
  46 0004 F14B     		ldr	r3, .L7
 872:..\..\..\lvgl\version_6.1.2\lvgl\src\lv_themes/lv_theme_material.c **** 
 873:..\..\..\lvgl\version_6.1.2\lvgl\src\lv_themes/lv_theme_material.c ****     _hue  = hue;
  47              		.loc 1 873 0
  48 0006 F24A     		ldr	r2, .L7+4
 871:..\..\..\lvgl\version_6.1.2\lvgl\src\lv_themes/lv_theme_material.c ****     if(font == NULL) font = LV_FONT_DEFAULT;
  49              		.loc 1 871 0
  50 0008 0029     		cmp	r1, #0
  51 000a 08BF     		it	eq
  52 000c 1946     		moveq	r1, r3
  53              	.LVL1:
 874:..\..\..\lvgl\version_6.1.2\lvgl\src\lv_themes/lv_theme_material.c ****     _font = font;
  54              		.loc 1 874 0
  55 000e C2F8AC11 		str	r1, [r2, #428]
  56              	.LVL2:
 875:..\..\..\lvgl\version_6.1.2\lvgl\src\lv_themes/lv_theme_material.c **** 
 876:..\..\..\lvgl\version_6.1.2\lvgl\src\lv_themes/lv_theme_material.c ****     /*For backward compatibility initialize all theme elements with a default style */
 877:..\..\..\lvgl\version_6.1.2\lvgl\src\lv_themes/lv_theme_material.c ****     uint16_t i;
 878:..\..\..\lvgl\version_6.1.2\lvgl\src\lv_themes/lv_theme_material.c ****     lv_style_t ** style_p = (lv_style_t **)&theme.style;
  57              		.loc 1 878 0
  58 0012 1346     		mov	r3, r2
 873:..\..\..\lvgl\version_6.1.2\lvgl\src\lv_themes/lv_theme_material.c ****     _font = font;
  59              		.loc 1 873 0
  60 0014 A2F8A801 		strh	r0, [r2, #424]	@ movhi
  61 0018 02F5D877 		add	r7, r2, #432
 870:..\..\..\lvgl\version_6.1.2\lvgl\src\lv_themes/lv_theme_material.c ****     if(font == NULL) font = LV_FONT_DEFAULT;
  62              		.loc 1 870 0
  63 001c 83B0     		sub	sp, sp, #12
  64              		.cfi_def_cfa_offset 48
  65 001e 02F5D472 		add	r2, r2, #424
  66              	.LVL3:
  67              	.L3:
 879:..\..\..\lvgl\version_6.1.2\lvgl\src\lv_themes/lv_theme_material.c ****     for(i = 0; i < LV_THEME_STYLE_COUNT; i++) {
 880:..\..\..\lvgl\version_6.1.2\lvgl\src\lv_themes/lv_theme_material.c ****         *style_p = &def;
  68              		.loc 1 880 0 discriminator 3
  69 0022 43F8047B 		str	r7, [r3], #4
  70              	.LVL4:
  71 0026 EA4C     		ldr	r4, .L7+4
 879:..\..\..\lvgl\version_6.1.2\lvgl\src\lv_themes/lv_theme_material.c ****     for(i = 0; i < LV_THEME_STYLE_COUNT; i++) {
  72              		.loc 1 879 0 discriminator 3
  73 0028 9342     		cmp	r3, r2
  74              		.loc 1 880 0 discriminator 3
  75 002a 04F5D876 		add	r6, r4, #432
 879:..\..\..\lvgl\version_6.1.2\lvgl\src\lv_themes/lv_theme_material.c ****     for(i = 0; i < LV_THEME_STYLE_COUNT; i++) {
  76              		.loc 1 879 0 discriminator 3
  77 002e F8D1     		bne	.L3
  78              	.LBB154:
  79              	.LBB155:
  52:..\..\..\lvgl\version_6.1.2\lvgl\src\lv_themes/lv_theme_material.c ****     def.text.font   = _font;
  80              		.loc 1 52 0
  81 0030 3046     		mov	r0, r6
  82              	.LVL5:
  83 0032 E849     		ldr	r1, .L7+8
ARM GAS  C:\Users\pearlstl\AppData\Local\Temp\cc5dErme.s 			page 18


  84              	.LVL6:
  85              	.LBE155:
  86              	.LBE154:
  87              	.LBB160:
  88              	.LBB161:
 579:..\..\..\lvgl\version_6.1.2\lvgl\src\lv_themes/lv_theme_material.c ****     rel.body.padding.left   = LV_DPI / 8;
  89              		.loc 1 579 0
  90 0034 E84D     		ldr	r5, .L7+12
  91              	.LBE161:
  92              	.LBE160:
  93              	.LBB169:
  94              	.LBB156:
  52:..\..\..\lvgl\version_6.1.2\lvgl\src\lv_themes/lv_theme_material.c ****     def.text.font   = _font;
  95              		.loc 1 52 0
  96 0036 FFF7FEFF 		bl	lv_style_copy
  97              	.LVL7:
  56:..\..\..\lvgl\version_6.1.2\lvgl\src\lv_themes/lv_theme_material.c ****     bg.body.main_color = lv_color_hex(0xf0f0f0);
  98              		.loc 1 56 0
  99 003a 04F50079 		add	r9, r4, #512
  53:..\..\..\lvgl\version_6.1.2\lvgl\src\lv_themes/lv_theme_material.c ****     def.body.radius = DEF_RADIUS;
 100              		.loc 1 53 0
 101 003e D4F8AC31 		ldr	r3, [r4, #428]
 102 0042 C4F8E431 		str	r3, [r4, #484]
  56:..\..\..\lvgl\version_6.1.2\lvgl\src\lv_themes/lv_theme_material.c ****     bg.body.main_color = lv_color_hex(0xf0f0f0);
 103              		.loc 1 56 0
 104 0046 4846     		mov	r0, r9
 105 0048 3146     		mov	r1, r6
  54:..\..\..\lvgl\version_6.1.2\lvgl\src\lv_themes/lv_theme_material.c **** 
 106              		.loc 1 54 0
 107 004a 4FF00403 		mov	r3, #4	@ movhi
  57:..\..\..\lvgl\version_6.1.2\lvgl\src\lv_themes/lv_theme_material.c ****     bg.body.grad_color = bg.body.main_color;
 108              		.loc 1 57 0
 109 004e 4FF0FF0B 		mov	fp, #255
  54:..\..\..\lvgl\version_6.1.2\lvgl\src\lv_themes/lv_theme_material.c **** 
 110              		.loc 1 54 0
 111 0052 A4F8BC31 		strh	r3, [r4, #444]	@ movhi
  56:..\..\..\lvgl\version_6.1.2\lvgl\src\lv_themes/lv_theme_material.c ****     bg.body.main_color = lv_color_hex(0xf0f0f0);
 112              		.loc 1 56 0
 113 0056 FFF7FEFF 		bl	lv_style_copy
 114              	.LVL8:
  57:..\..\..\lvgl\version_6.1.2\lvgl\src\lv_themes/lv_theme_material.c ****     bg.body.grad_color = bg.body.main_color;
 115              		.loc 1 57 0
 116 005a F023     		movs	r3, #240
 117 005c 84F80432 		strb	r3, [r4, #516]
 118 0060 84F80532 		strb	r3, [r4, #517]
 119 0064 84F80632 		strb	r3, [r4, #518]
 120 0068 84F807B2 		strb	fp, [r4, #519]
  61:..\..\..\lvgl\version_6.1.2\lvgl\src\lv_themes/lv_theme_material.c ****     scr.body.padding.bottom = 0;
 121              		.loc 1 61 0
 122 006c 04F51473 		add	r3, r4, #592
  59:..\..\..\lvgl\version_6.1.2\lvgl\src\lv_themes/lv_theme_material.c **** 
 123              		.loc 1 59 0
 124 0070 4FF00008 		mov	r8, #0
  58:..\..\..\lvgl\version_6.1.2\lvgl\src\lv_themes/lv_theme_material.c ****     bg.body.radius     = 0;
 125              		.loc 1 58 0
 126 0074 D4F80422 		ldr	r2, [r4, #516]
 127 0078 C4F80822 		str	r2, [r4, #520]
ARM GAS  C:\Users\pearlstl\AppData\Local\Temp\cc5dErme.s 			page 19


  61:..\..\..\lvgl\version_6.1.2\lvgl\src\lv_themes/lv_theme_material.c ****     scr.body.padding.bottom = 0;
 128              		.loc 1 61 0
 129 007c 1846     		mov	r0, r3
 130 007e 4946     		mov	r1, r9
 131 0080 0093     		str	r3, [sp]
  59:..\..\..\lvgl\version_6.1.2\lvgl\src\lv_themes/lv_theme_material.c **** 
 132              		.loc 1 59 0
 133 0082 A4F80C82 		strh	r8, [r4, #524]	@ movhi
  61:..\..\..\lvgl\version_6.1.2\lvgl\src\lv_themes/lv_theme_material.c ****     scr.body.padding.bottom = 0;
 134              		.loc 1 61 0
 135 0086 FFF7FEFF 		bl	lv_style_copy
 136              	.LVL9:
  67:..\..\..\lvgl\version_6.1.2\lvgl\src\lv_themes/lv_theme_material.c ****     panel.body.radius         = DEF_RADIUS;
 137              		.loc 1 67 0
 138 008a 04F52870 		add	r0, r4, #672
 139 008e 3146     		mov	r1, r6
  62:..\..\..\lvgl\version_6.1.2\lvgl\src\lv_themes/lv_theme_material.c ****     scr.body.padding.top    = 0;
 140              		.loc 1 62 0
 141 0090 A4F87282 		strh	r8, [r4, #626]	@ movhi
  63:..\..\..\lvgl\version_6.1.2\lvgl\src\lv_themes/lv_theme_material.c ****     scr.body.padding.left   = 0;
 142              		.loc 1 63 0
 143 0094 A4F87082 		strh	r8, [r4, #624]	@ movhi
  64:..\..\..\lvgl\version_6.1.2\lvgl\src\lv_themes/lv_theme_material.c ****     scr.body.padding.right  = 0;
 144              		.loc 1 64 0
 145 0098 A4F87482 		strh	r8, [r4, #628]	@ movhi
  65:..\..\..\lvgl\version_6.1.2\lvgl\src\lv_themes/lv_theme_material.c **** 
 146              		.loc 1 65 0
 147 009c A4F87682 		strh	r8, [r4, #630]	@ movhi
  67:..\..\..\lvgl\version_6.1.2\lvgl\src\lv_themes/lv_theme_material.c ****     panel.body.radius         = DEF_RADIUS;
 148              		.loc 1 67 0
 149 00a0 FFF7FEFF 		bl	lv_style_copy
 150              	.LVL10:
  68:..\..\..\lvgl\version_6.1.2\lvgl\src\lv_themes/lv_theme_material.c ****     panel.body.main_color     = LV_COLOR_WHITE;
 151              		.loc 1 68 0
 152 00a4 4FF00403 		mov	r3, #4	@ movhi
 153 00a8 A4F8AC32 		strh	r3, [r4, #684]	@ movhi
  76:..\..\..\lvgl\version_6.1.2\lvgl\src\lv_themes/lv_theme_material.c ****     panel.body.padding.left   = LV_DPI / 8;
 154              		.loc 1 76 0
 155 00ac A4F8BC32 		strh	r3, [r4, #700]	@ movhi
  71:..\..\..\lvgl\version_6.1.2\lvgl\src\lv_themes/lv_theme_material.c ****     panel.body.border.color   = lv_color_hex3(0xbbb);
 156              		.loc 1 71 0
 157 00b0 4FF00103 		mov	r3, #1	@ movhi
 158 00b4 A4F8B432 		strh	r3, [r4, #692]	@ movhi
  72:..\..\..\lvgl\version_6.1.2\lvgl\src\lv_themes/lv_theme_material.c ****     panel.body.border.opa     = LV_OPA_COVER;
 159              		.loc 1 72 0
 160 00b8 6FF04403 		mvn	r3, #68
 161 00bc 84F8B032 		strb	r3, [r4, #688]
 162 00c0 84F8B132 		strb	r3, [r4, #689]
 163 00c4 84F8B232 		strb	r3, [r4, #690]
  74:..\..\..\lvgl\version_6.1.2\lvgl\src\lv_themes/lv_theme_material.c ****     panel.body.shadow.type    = LV_SHADOW_BOTTOM;
 164              		.loc 1 74 0
 165 00c8 6FF05503 		mvn	r3, #85
 166 00cc 84F8B832 		strb	r3, [r4, #696]
 167 00d0 84F8B932 		strb	r3, [r4, #697]
 168 00d4 84F8BA32 		strb	r3, [r4, #698]
  77:..\..\..\lvgl\version_6.1.2\lvgl\src\lv_themes/lv_theme_material.c ****     panel.body.padding.right  = LV_DPI / 8;
 169              		.loc 1 77 0
ARM GAS  C:\Users\pearlstl\AppData\Local\Temp\cc5dErme.s 			page 20


 170 00d8 4FF01203 		mov	r3, #18	@ movhi
 171 00dc A4F8C432 		strh	r3, [r4, #708]	@ movhi
  78:..\..\..\lvgl\version_6.1.2\lvgl\src\lv_themes/lv_theme_material.c ****     panel.body.padding.top    = LV_DPI / 8;
 172              		.loc 1 78 0
 173 00e0 A4F8C632 		strh	r3, [r4, #710]	@ movhi
  79:..\..\..\lvgl\version_6.1.2\lvgl\src\lv_themes/lv_theme_material.c ****     panel.body.padding.bottom = LV_DPI / 8;
 174              		.loc 1 79 0
 175 00e4 A4F8C032 		strh	r3, [r4, #704]	@ movhi
  80:..\..\..\lvgl\version_6.1.2\lvgl\src\lv_themes/lv_theme_material.c ****     panel.body.padding.inner  = LV_DPI / 12;
 176              		.loc 1 80 0
 177 00e8 A4F8C232 		strh	r3, [r4, #706]	@ movhi
  81:..\..\..\lvgl\version_6.1.2\lvgl\src\lv_themes/lv_theme_material.c ****     panel.text.color          = lv_color_hex3(0x333);
 178              		.loc 1 81 0
 179 00ec 4FF00C03 		mov	r3, #12	@ movhi
  85:..\..\..\lvgl\version_6.1.2\lvgl\src\lv_themes/lv_theme_material.c ****     sb.body.main_color     = LV_COLOR_BLACK;
 180              		.loc 1 85 0
 181 00f0 04F53C70 		add	r0, r4, #752
 182 00f4 3146     		mov	r1, r6
  81:..\..\..\lvgl\version_6.1.2\lvgl\src\lv_themes/lv_theme_material.c ****     panel.text.color          = lv_color_hex3(0x333);
 183              		.loc 1 81 0
 184 00f6 A4F8C832 		strh	r3, [r4, #712]	@ movhi
  82:..\..\..\lvgl\version_6.1.2\lvgl\src\lv_themes/lv_theme_material.c ****     panel.image.color         = lv_color_hex3(0x333);
 185              		.loc 1 82 0
 186 00fa 4FF03303 		mov	r3, #51
 187 00fe 84F8CC32 		strb	r3, [r4, #716]
 188 0102 84F8CD32 		strb	r3, [r4, #717]
 189 0106 84F8CE32 		strb	r3, [r4, #718]
  83:..\..\..\lvgl\version_6.1.2\lvgl\src\lv_themes/lv_theme_material.c **** 
 190              		.loc 1 83 0
 191 010a 84F8E032 		strb	r3, [r4, #736]
 192 010e 84F8E132 		strb	r3, [r4, #737]
  69:..\..\..\lvgl\version_6.1.2\lvgl\src\lv_themes/lv_theme_material.c ****     panel.body.grad_color     = LV_COLOR_WHITE;
 193              		.loc 1 69 0
 194 0112 84F8A4B2 		strb	fp, [r4, #676]
 195 0116 84F8A5B2 		strb	fp, [r4, #677]
 196 011a 84F8A6B2 		strb	fp, [r4, #678]
 197 011e 84F8A7B2 		strb	fp, [r4, #679]
  70:..\..\..\lvgl\version_6.1.2\lvgl\src\lv_themes/lv_theme_material.c ****     panel.body.border.width   = 1;
 198              		.loc 1 70 0
 199 0122 84F8A8B2 		strb	fp, [r4, #680]
 200 0126 84F8A9B2 		strb	fp, [r4, #681]
 201 012a 84F8AAB2 		strb	fp, [r4, #682]
 202 012e 84F8ABB2 		strb	fp, [r4, #683]
  72:..\..\..\lvgl\version_6.1.2\lvgl\src\lv_themes/lv_theme_material.c ****     panel.body.border.opa     = LV_OPA_COVER;
 203              		.loc 1 72 0
 204 0132 84F8B3B2 		strb	fp, [r4, #691]
  73:..\..\..\lvgl\version_6.1.2\lvgl\src\lv_themes/lv_theme_material.c ****     panel.body.shadow.color   = DEF_SHADOW_COLOR;
 205              		.loc 1 73 0
 206 0136 84F8B7B2 		strb	fp, [r4, #695]
  74:..\..\..\lvgl\version_6.1.2\lvgl\src\lv_themes/lv_theme_material.c ****     panel.body.shadow.type    = LV_SHADOW_BOTTOM;
 207              		.loc 1 74 0
 208 013a 84F8BBB2 		strb	fp, [r4, #699]
  75:..\..\..\lvgl\version_6.1.2\lvgl\src\lv_themes/lv_theme_material.c ****     panel.body.shadow.width   = 4;
 209              		.loc 1 75 0
 210 013e 84F8BE82 		strb	r8, [r4, #702]
  82:..\..\..\lvgl\version_6.1.2\lvgl\src\lv_themes/lv_theme_material.c ****     panel.image.color         = lv_color_hex3(0x333);
 211              		.loc 1 82 0
ARM GAS  C:\Users\pearlstl\AppData\Local\Temp\cc5dErme.s 			page 21


 212 0142 84F8CFB2 		strb	fp, [r4, #719]
  83:..\..\..\lvgl\version_6.1.2\lvgl\src\lv_themes/lv_theme_material.c **** 
 213              		.loc 1 83 0
 214 0146 84F8E232 		strb	r3, [r4, #738]
 215 014a 84F8E3B2 		strb	fp, [r4, #739]
  85:..\..\..\lvgl\version_6.1.2\lvgl\src\lv_themes/lv_theme_material.c ****     sb.body.main_color     = LV_COLOR_BLACK;
 216              		.loc 1 85 0
 217 014e FFF7FEFF 		bl	lv_style_copy
 218              	.LVL11:
 219              	.LBE156:
 220              	.LBE169:
 221              	.LBB170:
 222              	.LBB171:
 110:..\..\..\lvgl\version_6.1.2\lvgl\src\lv_themes/lv_theme_material.c ****     rel.body.main_color     = lv_color_hsv_to_rgb(_hue, 90, 70);
 223              		.loc 1 110 0
 224 0152 04F55070 		add	r0, r4, #832
 225              	.LBE171:
 226              	.LBE170:
 227              	.LBB176:
 228              	.LBB157:
  93:..\..\..\lvgl\version_6.1.2\lvgl\src\lv_themes/lv_theme_material.c ****     theme.style.panel = &panel;
 229              		.loc 1 93 0
 230 0156 009B     		ldr	r3, [sp]
 231 0158 2360     		str	r3, [r4]
  89:..\..\..\lvgl\version_6.1.2\lvgl\src\lv_themes/lv_theme_material.c ****     sb.body.padding.bottom = LV_DPI / 25;
 232              		.loc 1 89 0
 233 015a 4FF0060A 		mov	r10, #6
  94:..\..\..\lvgl\version_6.1.2\lvgl\src\lv_themes/lv_theme_material.c **** }
 234              		.loc 1 94 0
 235 015e A0F1A003 		sub	r3, r0, #160
  88:..\..\..\lvgl\version_6.1.2\lvgl\src\lv_themes/lv_theme_material.c ****     sb.body.padding.right  = LV_DPI / 25;
 236              		.loc 1 88 0
 237 0162 6622     		movs	r2, #102
 238              	.LBE157:
 239              	.LBE176:
 240              	.LBB177:
 241              	.LBB172:
 110:..\..\..\lvgl\version_6.1.2\lvgl\src\lv_themes/lv_theme_material.c ****     rel.body.main_color     = lv_color_hsv_to_rgb(_hue, 90, 70);
 242              		.loc 1 110 0
 243 0164 3146     		mov	r1, r6
 244              	.LBE172:
 245              	.LBE177:
 246              	.LBB178:
 247              	.LBB158:
  94:..\..\..\lvgl\version_6.1.2\lvgl\src\lv_themes/lv_theme_material.c **** }
 248              		.loc 1 94 0
 249 0166 A360     		str	r3, [r4, #8]
 250              	.LBE158:
 251              	.LBE178:
 252              	.LBB179:
 253              	.LBB180:
 101:..\..\..\lvgl\version_6.1.2\lvgl\src\lv_themes/lv_theme_material.c **** #endif
 254              		.loc 1 101 0
 255 0168 E360     		str	r3, [r4, #12]
 256              	.LBE180:
 257              	.LBE179:
 258              	.LBB181:
ARM GAS  C:\Users\pearlstl\AppData\Local\Temp\cc5dErme.s 			page 22


 259              	.LBB159:
  92:..\..\..\lvgl\version_6.1.2\lvgl\src\lv_themes/lv_theme_material.c ****     theme.style.scr   = &scr;
 260              		.loc 1 92 0
 261 016a C4F80490 		str	r9, [r4, #4]
  88:..\..\..\lvgl\version_6.1.2\lvgl\src\lv_themes/lv_theme_material.c ****     sb.body.padding.right  = LV_DPI / 25;
 262              		.loc 1 88 0
 263 016e 84F8FE22 		strb	r2, [r4, #766]
  89:..\..\..\lvgl\version_6.1.2\lvgl\src\lv_themes/lv_theme_material.c ****     sb.body.padding.bottom = LV_DPI / 25;
 264              		.loc 1 89 0
 265 0172 A4F816A3 		strh	r10, [r4, #790]	@ movhi
  90:..\..\..\lvgl\version_6.1.2\lvgl\src\lv_themes/lv_theme_material.c **** 
 266              		.loc 1 90 0
 267 0176 A4F812A3 		strh	r10, [r4, #786]	@ movhi
  86:..\..\..\lvgl\version_6.1.2\lvgl\src\lv_themes/lv_theme_material.c ****     sb.body.grad_color     = LV_COLOR_BLACK;
 268              		.loc 1 86 0
 269 017a 84F8F482 		strb	r8, [r4, #756]
 270 017e 84F8F582 		strb	r8, [r4, #757]
 271 0182 84F8F682 		strb	r8, [r4, #758]
 272 0186 84F8F7B2 		strb	fp, [r4, #759]
  87:..\..\..\lvgl\version_6.1.2\lvgl\src\lv_themes/lv_theme_material.c ****     sb.body.opa            = LV_OPA_40;
 273              		.loc 1 87 0
 274 018a 84F8F882 		strb	r8, [r4, #760]
 275 018e 84F8F982 		strb	r8, [r4, #761]
 276 0192 84F8FA82 		strb	r8, [r4, #762]
 277 0196 84F8FBB2 		strb	fp, [r4, #763]
 278              	.LBE159:
 279              	.LBE181:
 280              	.LBB182:
 281              	.LBB173:
 110:..\..\..\lvgl\version_6.1.2\lvgl\src\lv_themes/lv_theme_material.c ****     rel.body.main_color     = lv_color_hsv_to_rgb(_hue, 90, 70);
 282              		.loc 1 110 0
 283 019a FFF7FEFF 		bl	lv_style_copy
 284              	.LVL12:
 111:..\..\..\lvgl\version_6.1.2\lvgl\src\lv_themes/lv_theme_material.c ****     rel.body.grad_color     = rel.body.main_color;
 285              		.loc 1 111 0
 286 019e 4622     		movs	r2, #70
 287 01a0 5A21     		movs	r1, #90
 288 01a2 B4F8A801 		ldrh	r0, [r4, #424]
 289 01a6 FFF7FEFF 		bl	lv_color_hsv_to_rgb
 290              	.LVL13:
 113:..\..\..\lvgl\version_6.1.2\lvgl\src\lv_themes/lv_theme_material.c ****     rel.body.padding.left   = LV_DPI / 6;
 291              		.loc 1 113 0
 292 01aa 4FF00403 		mov	r3, #4	@ movhi
 293 01ae A4F84C33 		strh	r3, [r4, #844]	@ movhi
 116:..\..\..\lvgl\version_6.1.2\lvgl\src\lv_themes/lv_theme_material.c ****     rel.body.padding.bottom = LV_DPI / 8;
 294              		.loc 1 116 0
 295 01b2 4FF01203 		mov	r3, #18	@ movhi
 296 01b6 A4F86033 		strh	r3, [r4, #864]	@ movhi
 117:..\..\..\lvgl\version_6.1.2\lvgl\src\lv_themes/lv_theme_material.c ****     rel.body.padding.inner  = LV_DPI / 10;
 297              		.loc 1 117 0
 298 01ba A4F86233 		strh	r3, [r4, #866]	@ movhi
 119:..\..\..\lvgl\version_6.1.2\lvgl\src\lv_themes/lv_theme_material.c ****     rel.body.shadow.type    = LV_SHADOW_BOTTOM;
 299              		.loc 1 119 0
 300 01be 6FF05503 		mvn	r3, #85
 301 01c2 84F85833 		strb	r3, [r4, #856]
 302 01c6 84F85933 		strb	r3, [r4, #857]
 303 01ca 84F85A33 		strb	r3, [r4, #858]
ARM GAS  C:\Users\pearlstl\AppData\Local\Temp\cc5dErme.s 			page 23


 114:..\..\..\lvgl\version_6.1.2\lvgl\src\lv_themes/lv_theme_material.c ****     rel.body.padding.right  = LV_DPI / 6;
 304              		.loc 1 114 0
 305 01ce 4FF01903 		mov	r3, #25	@ movhi
 111:..\..\..\lvgl\version_6.1.2\lvgl\src\lv_themes/lv_theme_material.c ****     rel.body.grad_color     = rel.body.main_color;
 306              		.loc 1 111 0
 307 01d2 C4F84403 		str	r0, [r4, #836]
 112:..\..\..\lvgl\version_6.1.2\lvgl\src\lv_themes/lv_theme_material.c ****     rel.body.radius         = DEF_RADIUS;
 308              		.loc 1 112 0
 309 01d6 C4F84803 		str	r0, [r4, #840]
 114:..\..\..\lvgl\version_6.1.2\lvgl\src\lv_themes/lv_theme_material.c ****     rel.body.padding.right  = LV_DPI / 6;
 310              		.loc 1 114 0
 311 01da A4F86433 		strh	r3, [r4, #868]	@ movhi
 115:..\..\..\lvgl\version_6.1.2\lvgl\src\lv_themes/lv_theme_material.c ****     rel.body.padding.top    = LV_DPI / 8;
 312              		.loc 1 115 0
 313 01de A4F86633 		strh	r3, [r4, #870]	@ movhi
 122:..\..\..\lvgl\version_6.1.2\lvgl\src\lv_themes/lv_theme_material.c ****     rel.image.color         = lv_color_hsv_to_rgb(_hue, 5, 95);
 314              		.loc 1 122 0
 315 01e2 5F22     		movs	r2, #95
 118:..\..\..\lvgl\version_6.1.2\lvgl\src\lv_themes/lv_theme_material.c ****     rel.body.shadow.color   = DEF_SHADOW_COLOR;
 316              		.loc 1 118 0
 317 01e4 4FF00F03 		mov	r3, #15	@ movhi
 122:..\..\..\lvgl\version_6.1.2\lvgl\src\lv_themes/lv_theme_material.c ****     rel.image.color         = lv_color_hsv_to_rgb(_hue, 5, 95);
 318              		.loc 1 122 0
 319 01e8 0521     		movs	r1, #5
 320 01ea B4F8A801 		ldrh	r0, [r4, #424]
 118:..\..\..\lvgl\version_6.1.2\lvgl\src\lv_themes/lv_theme_material.c ****     rel.body.shadow.color   = DEF_SHADOW_COLOR;
 321              		.loc 1 118 0
 322 01ee A4F86833 		strh	r3, [r4, #872]	@ movhi
 121:..\..\..\lvgl\version_6.1.2\lvgl\src\lv_themes/lv_theme_material.c ****     rel.text.color          = lv_color_hsv_to_rgb(_hue, 5, 95);
 323              		.loc 1 121 0
 324 01f2 A4F85CA3 		strh	r10, [r4, #860]	@ movhi
 119:..\..\..\lvgl\version_6.1.2\lvgl\src\lv_themes/lv_theme_material.c ****     rel.body.shadow.type    = LV_SHADOW_BOTTOM;
 325              		.loc 1 119 0
 326 01f6 84F85BB3 		strb	fp, [r4, #859]
 120:..\..\..\lvgl\version_6.1.2\lvgl\src\lv_themes/lv_theme_material.c ****     rel.body.shadow.width   = 6;
 327              		.loc 1 120 0
 328 01fa 84F85E83 		strb	r8, [r4, #862]
 122:..\..\..\lvgl\version_6.1.2\lvgl\src\lv_themes/lv_theme_material.c ****     rel.image.color         = lv_color_hsv_to_rgb(_hue, 5, 95);
 329              		.loc 1 122 0
 330 01fe FFF7FEFF 		bl	lv_color_hsv_to_rgb
 331              	.LVL14:
 123:..\..\..\lvgl\version_6.1.2\lvgl\src\lv_themes/lv_theme_material.c **** 
 332              		.loc 1 123 0
 333 0202 5F22     		movs	r2, #95
 122:..\..\..\lvgl\version_6.1.2\lvgl\src\lv_themes/lv_theme_material.c ****     rel.image.color         = lv_color_hsv_to_rgb(_hue, 5, 95);
 334              		.loc 1 122 0
 335 0204 C4F86C03 		str	r0, [r4, #876]
 123:..\..\..\lvgl\version_6.1.2\lvgl\src\lv_themes/lv_theme_material.c **** 
 336              		.loc 1 123 0
 337 0208 0521     		movs	r1, #5
 338 020a B4F8A801 		ldrh	r0, [r4, #424]
 339 020e FFF7FEFF 		bl	lv_color_hsv_to_rgb
 340              	.LVL15:
 125:..\..\..\lvgl\version_6.1.2\lvgl\src\lv_themes/lv_theme_material.c ****     pr.body.main_color   = lv_color_hsv_to_rgb(_hue, 90, 60);
 341              		.loc 1 125 0
 342 0212 04F55071 		add	r1, r4, #832
 123:..\..\..\lvgl\version_6.1.2\lvgl\src\lv_themes/lv_theme_material.c **** 
ARM GAS  C:\Users\pearlstl\AppData\Local\Temp\cc5dErme.s 			page 24


 343              		.loc 1 123 0
 344 0216 C4F88003 		str	r0, [r4, #896]
 125:..\..\..\lvgl\version_6.1.2\lvgl\src\lv_themes/lv_theme_material.c ****     pr.body.main_color   = lv_color_hsv_to_rgb(_hue, 90, 60);
 345              		.loc 1 125 0
 346 021a 01F15000 		add	r0, r1, #80
 347 021e FFF7FEFF 		bl	lv_style_copy
 348              	.LVL16:
 126:..\..\..\lvgl\version_6.1.2\lvgl\src\lv_themes/lv_theme_material.c ****     pr.body.grad_color   = pr.body.main_color;
 349              		.loc 1 126 0
 350 0222 3C22     		movs	r2, #60
 351 0224 5A21     		movs	r1, #90
 352 0226 B4F8A801 		ldrh	r0, [r4, #424]
 353 022a FFF7FEFF 		bl	lv_color_hsv_to_rgb
 354              	.LVL17:
 130:..\..\..\lvgl\version_6.1.2\lvgl\src\lv_themes/lv_theme_material.c ****     tgl_rel.body.main_color   = lv_color_hsv_to_rgb(_hue, 95, 50);
 355              		.loc 1 130 0
 356 022e 04F5787A 		add	r10, r4, #992
 128:..\..\..\lvgl\version_6.1.2\lvgl\src\lv_themes/lv_theme_material.c **** 
 357              		.loc 1 128 0
 358 0232 4FF00403 		mov	r3, #4	@ movhi
 126:..\..\..\lvgl\version_6.1.2\lvgl\src\lv_themes/lv_theme_material.c ****     pr.body.grad_color   = pr.body.main_color;
 359              		.loc 1 126 0
 360 0236 C4F89403 		str	r0, [r4, #916]
 127:..\..\..\lvgl\version_6.1.2\lvgl\src\lv_themes/lv_theme_material.c ****     pr.body.shadow.width = 4;
 361              		.loc 1 127 0
 362 023a C4F89803 		str	r0, [r4, #920]
 130:..\..\..\lvgl\version_6.1.2\lvgl\src\lv_themes/lv_theme_material.c ****     tgl_rel.body.main_color   = lv_color_hsv_to_rgb(_hue, 95, 50);
 363              		.loc 1 130 0
 364 023e 04F55071 		add	r1, r4, #832
 365 0242 5046     		mov	r0, r10
 128:..\..\..\lvgl\version_6.1.2\lvgl\src\lv_themes/lv_theme_material.c **** 
 366              		.loc 1 128 0
 367 0244 A4F8AC33 		strh	r3, [r4, #940]	@ movhi
 130:..\..\..\lvgl\version_6.1.2\lvgl\src\lv_themes/lv_theme_material.c ****     tgl_rel.body.main_color   = lv_color_hsv_to_rgb(_hue, 95, 50);
 368              		.loc 1 130 0
 369 0248 FFF7FEFF 		bl	lv_style_copy
 370              	.LVL18:
 131:..\..\..\lvgl\version_6.1.2\lvgl\src\lv_themes/lv_theme_material.c ****     tgl_rel.body.grad_color   = tgl_rel.body.main_color;
 371              		.loc 1 131 0
 372 024c 3222     		movs	r2, #50
 373 024e 5F21     		movs	r1, #95
 374 0250 B4F8A801 		ldrh	r0, [r4, #424]
 375 0254 FFF7FEFF 		bl	lv_color_hsv_to_rgb
 376              	.LVL19:
 135:..\..\..\lvgl\version_6.1.2\lvgl\src\lv_themes/lv_theme_material.c ****     tgl_pr.body.main_color   = lv_color_hsv_to_rgb(_hue, 95, 40);
 377              		.loc 1 135 0
 378 0258 04F58663 		add	r3, r4, #1072
 131:..\..\..\lvgl\version_6.1.2\lvgl\src\lv_themes/lv_theme_material.c ****     tgl_rel.body.grad_color   = tgl_rel.body.main_color;
 379              		.loc 1 131 0
 380 025c C4F8E403 		str	r0, [r4, #996]
 132:..\..\..\lvgl\version_6.1.2\lvgl\src\lv_themes/lv_theme_material.c ****     tgl_rel.body.shadow.width = 4;
 381              		.loc 1 132 0
 382 0260 C4F8E803 		str	r0, [r4, #1000]
 135:..\..\..\lvgl\version_6.1.2\lvgl\src\lv_themes/lv_theme_material.c ****     tgl_pr.body.main_color   = lv_color_hsv_to_rgb(_hue, 95, 40);
 383              		.loc 1 135 0
 384 0264 5146     		mov	r1, r10
 385 0266 1846     		mov	r0, r3
ARM GAS  C:\Users\pearlstl\AppData\Local\Temp\cc5dErme.s 			page 25


 386 0268 0093     		str	r3, [sp]
 133:..\..\..\lvgl\version_6.1.2\lvgl\src\lv_themes/lv_theme_material.c **** 
 387              		.loc 1 133 0
 388 026a 4FF00403 		mov	r3, #4	@ movhi
 389 026e A4F8FC33 		strh	r3, [r4, #1020]	@ movhi
 135:..\..\..\lvgl\version_6.1.2\lvgl\src\lv_themes/lv_theme_material.c ****     tgl_pr.body.main_color   = lv_color_hsv_to_rgb(_hue, 95, 40);
 390              		.loc 1 135 0
 391 0272 FFF7FEFF 		bl	lv_style_copy
 392              	.LVL20:
 136:..\..\..\lvgl\version_6.1.2\lvgl\src\lv_themes/lv_theme_material.c ****     tgl_pr.body.grad_color   = tgl_pr.body.main_color;
 393              		.loc 1 136 0
 394 0276 2822     		movs	r2, #40
 395 0278 5F21     		movs	r1, #95
 396 027a B4F8A801 		ldrh	r0, [r4, #424]
 397 027e FFF7FEFF 		bl	lv_color_hsv_to_rgb
 398              	.LVL21:
 140:..\..\..\lvgl\version_6.1.2\lvgl\src\lv_themes/lv_theme_material.c ****     ina.body.main_color   = lv_color_hex3(0xccc);
 399              		.loc 1 140 0
 400 0282 04F55071 		add	r1, r4, #832
 136:..\..\..\lvgl\version_6.1.2\lvgl\src\lv_themes/lv_theme_material.c ****     tgl_pr.body.grad_color   = tgl_pr.body.main_color;
 401              		.loc 1 136 0
 402 0286 C4F83404 		str	r0, [r4, #1076]
 137:..\..\..\lvgl\version_6.1.2\lvgl\src\lv_themes/lv_theme_material.c ****     tgl_pr.body.shadow.width = 2;
 403              		.loc 1 137 0
 404 028a C4F83804 		str	r0, [r4, #1080]
 138:..\..\..\lvgl\version_6.1.2\lvgl\src\lv_themes/lv_theme_material.c **** 
 405              		.loc 1 138 0
 406 028e 4FF00203 		mov	r3, #2	@ movhi
 140:..\..\..\lvgl\version_6.1.2\lvgl\src\lv_themes/lv_theme_material.c ****     ina.body.main_color   = lv_color_hex3(0xccc);
 407              		.loc 1 140 0
 408 0292 01F5A070 		add	r0, r1, #320
 138:..\..\..\lvgl\version_6.1.2\lvgl\src\lv_themes/lv_theme_material.c **** 
 409              		.loc 1 138 0
 410 0296 A4F84C34 		strh	r3, [r4, #1100]	@ movhi
 140:..\..\..\lvgl\version_6.1.2\lvgl\src\lv_themes/lv_theme_material.c ****     ina.body.main_color   = lv_color_hex3(0xccc);
 411              		.loc 1 140 0
 412 029a FFF7FEFF 		bl	lv_style_copy
 413              	.LVL22:
 141:..\..\..\lvgl\version_6.1.2\lvgl\src\lv_themes/lv_theme_material.c ****     ina.body.grad_color   = ina.body.main_color;
 414              		.loc 1 141 0
 415 029e 6FF03303 		mvn	r3, #51
 416 02a2 84F887B4 		strb	fp, [r4, #1159]
 417 02a6 84F88434 		strb	r3, [r4, #1156]
 418 02aa 84F88534 		strb	r3, [r4, #1157]
 419 02ae 84F88634 		strb	r3, [r4, #1158]
 142:..\..\..\lvgl\version_6.1.2\lvgl\src\lv_themes/lv_theme_material.c ****     ina.body.shadow.width = 0;
 420              		.loc 1 142 0
 421 02b2 D4F88434 		ldr	r3, [r4, #1156]
 144:..\..\..\lvgl\version_6.1.2\lvgl\src\lv_themes/lv_theme_material.c ****     ina.image.color       = lv_color_hsv_to_rgb(_hue, 95, 5);
 422              		.loc 1 144 0
 423 02b6 B4F8A801 		ldrh	r0, [r4, #424]
 142:..\..\..\lvgl\version_6.1.2\lvgl\src\lv_themes/lv_theme_material.c ****     ina.body.shadow.width = 0;
 424              		.loc 1 142 0
 425 02ba C4F88834 		str	r3, [r4, #1160]
 144:..\..\..\lvgl\version_6.1.2\lvgl\src\lv_themes/lv_theme_material.c ****     ina.image.color       = lv_color_hsv_to_rgb(_hue, 95, 5);
 426              		.loc 1 144 0
 427 02be 0522     		movs	r2, #5
ARM GAS  C:\Users\pearlstl\AppData\Local\Temp\cc5dErme.s 			page 26


 428 02c0 5F21     		movs	r1, #95
 143:..\..\..\lvgl\version_6.1.2\lvgl\src\lv_themes/lv_theme_material.c ****     ina.text.color        = lv_color_hsv_to_rgb(_hue, 95, 5);
 429              		.loc 1 143 0
 430 02c2 A4F89C84 		strh	r8, [r4, #1180]	@ movhi
 144:..\..\..\lvgl\version_6.1.2\lvgl\src\lv_themes/lv_theme_material.c ****     ina.image.color       = lv_color_hsv_to_rgb(_hue, 95, 5);
 431              		.loc 1 144 0
 432 02c6 FFF7FEFF 		bl	lv_color_hsv_to_rgb
 433              	.LVL23:
 434              	.LBE173:
 435              	.LBE182:
 436              	.LBB183:
 437              	.LBB184:
 160:..\..\..\lvgl\version_6.1.2\lvgl\src\lv_themes/lv_theme_material.c ****     prim.text.font  = _font;
 438              		.loc 1 160 0
 439 02ca 04F59A69 		add	r9, r4, #1232
 440              	.LBE184:
 441              	.LBE183:
 442              	.LBB188:
 443              	.LBB174:
 145:..\..\..\lvgl\version_6.1.2\lvgl\src\lv_themes/lv_theme_material.c **** 
 444              		.loc 1 145 0
 445 02ce 0522     		movs	r2, #5
 144:..\..\..\lvgl\version_6.1.2\lvgl\src\lv_themes/lv_theme_material.c ****     ina.image.color       = lv_color_hsv_to_rgb(_hue, 95, 5);
 446              		.loc 1 144 0
 447 02d0 C4F8AC04 		str	r0, [r4, #1196]
 145:..\..\..\lvgl\version_6.1.2\lvgl\src\lv_themes/lv_theme_material.c **** 
 448              		.loc 1 145 0
 449 02d4 5F21     		movs	r1, #95
 450 02d6 B4F8A801 		ldrh	r0, [r4, #424]
 451 02da FFF7FEFF 		bl	lv_color_hsv_to_rgb
 452              	.LVL24:
 148:..\..\..\lvgl\version_6.1.2\lvgl\src\lv_themes/lv_theme_material.c ****     theme.style.btn.tgl_rel = &tgl_rel;
 453              		.loc 1 148 0
 454 02de A9F5A073 		sub	r3, r9, #320
 455 02e2 6361     		str	r3, [r4, #20]
 147:..\..\..\lvgl\version_6.1.2\lvgl\src\lv_themes/lv_theme_material.c ****     theme.style.btn.pr      = &pr;
 456              		.loc 1 147 0
 457 02e4 A9F5C873 		sub	r3, r9, #400
 458 02e8 2361     		str	r3, [r4, #16]
 150:..\..\..\lvgl\version_6.1.2\lvgl\src\lv_themes/lv_theme_material.c ****     theme.style.btn.ina     = &ina;
 459              		.loc 1 150 0
 460 02ea 009B     		ldr	r3, [sp]
 145:..\..\..\lvgl\version_6.1.2\lvgl\src\lv_themes/lv_theme_material.c **** 
 461              		.loc 1 145 0
 462 02ec C4F8C004 		str	r0, [r4, #1216]
 463              	.LBE174:
 464              	.LBE188:
 465              	.LBB189:
 466              	.LBB185:
 160:..\..\..\lvgl\version_6.1.2\lvgl\src\lv_themes/lv_theme_material.c ****     prim.text.font  = _font;
 467              		.loc 1 160 0
 468 02f0 3146     		mov	r1, r6
 469 02f2 4846     		mov	r0, r9
 470              	.LBE185:
 471              	.LBE189:
 472              	.LBB190:
 473              	.LBB175:
ARM GAS  C:\Users\pearlstl\AppData\Local\Temp\cc5dErme.s 			page 27


 150:..\..\..\lvgl\version_6.1.2\lvgl\src\lv_themes/lv_theme_material.c ****     theme.style.btn.ina     = &ina;
 474              		.loc 1 150 0
 475 02f4 E361     		str	r3, [r4, #28]
 151:..\..\..\lvgl\version_6.1.2\lvgl\src\lv_themes/lv_theme_material.c **** #endif
 476              		.loc 1 151 0
 477 02f6 A9F15003 		sub	r3, r9, #80
 149:..\..\..\lvgl\version_6.1.2\lvgl\src\lv_themes/lv_theme_material.c ****     theme.style.btn.tgl_pr  = &tgl_pr;
 478              		.loc 1 149 0
 479 02fa C4F818A0 		str	r10, [r4, #24]
 151:..\..\..\lvgl\version_6.1.2\lvgl\src\lv_themes/lv_theme_material.c **** #endif
 480              		.loc 1 151 0
 481 02fe 2362     		str	r3, [r4, #32]
 482              	.LBE175:
 483              	.LBE190:
 484              	.LBB191:
 485              	.LBB186:
 160:..\..\..\lvgl\version_6.1.2\lvgl\src\lv_themes/lv_theme_material.c ****     prim.text.font  = _font;
 486              		.loc 1 160 0
 487 0300 FFF7FEFF 		bl	lv_style_copy
 488              	.LVL25:
 161:..\..\..\lvgl\version_6.1.2\lvgl\src\lv_themes/lv_theme_material.c ****     prim.text.color = lv_color_hsv_to_rgb(_hue, 80, 10);
 489              		.loc 1 161 0
 490 0304 D4F8AC31 		ldr	r3, [r4, #428]
 162:..\..\..\lvgl\version_6.1.2\lvgl\src\lv_themes/lv_theme_material.c **** 
 491              		.loc 1 162 0
 492 0308 B4F8A801 		ldrh	r0, [r4, #424]
 161:..\..\..\lvgl\version_6.1.2\lvgl\src\lv_themes/lv_theme_material.c ****     prim.text.color = lv_color_hsv_to_rgb(_hue, 80, 10);
 493              		.loc 1 161 0
 494 030c C4F80435 		str	r3, [r4, #1284]
 162:..\..\..\lvgl\version_6.1.2\lvgl\src\lv_themes/lv_theme_material.c **** 
 495              		.loc 1 162 0
 496 0310 0A22     		movs	r2, #10
 497 0312 5021     		movs	r1, #80
 498 0314 FFF7FEFF 		bl	lv_color_hsv_to_rgb
 499              	.LVL26:
 164:..\..\..\lvgl\version_6.1.2\lvgl\src\lv_themes/lv_theme_material.c ****     sec.text.color = lv_color_hsv_to_rgb(_hue, 80, 75);
 500              		.loc 1 164 0
 501 0318 04F5A463 		add	r3, r4, #1312
 162:..\..\..\lvgl\version_6.1.2\lvgl\src\lv_themes/lv_theme_material.c **** 
 502              		.loc 1 162 0
 503 031c C4F8FC04 		str	r0, [r4, #1276]
 164:..\..\..\lvgl\version_6.1.2\lvgl\src\lv_themes/lv_theme_material.c ****     sec.text.color = lv_color_hsv_to_rgb(_hue, 80, 75);
 504              		.loc 1 164 0
 505 0320 4946     		mov	r1, r9
 506 0322 1846     		mov	r0, r3
 507 0324 0093     		str	r3, [sp]
 508 0326 FFF7FEFF 		bl	lv_style_copy
 509              	.LVL27:
 165:..\..\..\lvgl\version_6.1.2\lvgl\src\lv_themes/lv_theme_material.c **** 
 510              		.loc 1 165 0
 511 032a 4B22     		movs	r2, #75
 512 032c 5021     		movs	r1, #80
 513 032e B4F8A801 		ldrh	r0, [r4, #424]
 514 0332 FFF7FEFF 		bl	lv_color_hsv_to_rgb
 515              	.LVL28:
 167:..\..\..\lvgl\version_6.1.2\lvgl\src\lv_themes/lv_theme_material.c ****     hint.text.color = lv_color_hsv_to_rgb(_hue, 40, 90);
 516              		.loc 1 167 0
ARM GAS  C:\Users\pearlstl\AppData\Local\Temp\cc5dErme.s 			page 28


 517 0336 04F5AE6A 		add	r10, r4, #1392
 165:..\..\..\lvgl\version_6.1.2\lvgl\src\lv_themes/lv_theme_material.c **** 
 518              		.loc 1 165 0
 519 033a C4F84C05 		str	r0, [r4, #1356]
 167:..\..\..\lvgl\version_6.1.2\lvgl\src\lv_themes/lv_theme_material.c ****     hint.text.color = lv_color_hsv_to_rgb(_hue, 40, 90);
 520              		.loc 1 167 0
 521 033e 4946     		mov	r1, r9
 522 0340 5046     		mov	r0, r10
 523 0342 FFF7FEFF 		bl	lv_style_copy
 524              	.LVL29:
 168:..\..\..\lvgl\version_6.1.2\lvgl\src\lv_themes/lv_theme_material.c **** 
 525              		.loc 1 168 0
 526 0346 5A22     		movs	r2, #90
 527 0348 2821     		movs	r1, #40
 528 034a B4F8A801 		ldrh	r0, [r4, #424]
 529 034e FFF7FEFF 		bl	lv_color_hsv_to_rgb
 530              	.LVL30:
 171:..\..\..\lvgl\version_6.1.2\lvgl\src\lv_themes/lv_theme_material.c ****     theme.style.label.hint = &hint;
 531              		.loc 1 171 0
 532 0352 009B     		ldr	r3, [sp]
 168:..\..\..\lvgl\version_6.1.2\lvgl\src\lv_themes/lv_theme_material.c **** 
 533              		.loc 1 168 0
 534 0354 C4F89C05 		str	r0, [r4, #1436]
 535              	.LBE186:
 536              	.LBE191:
 537              	.LBB192:
 538              	.LBB193:
 180:..\..\..\lvgl\version_6.1.2\lvgl\src\lv_themes/lv_theme_material.c ****     img_light.image.color   = lv_color_hsv_to_rgb(_hue, 15, 85);
 539              		.loc 1 180 0
 540 0358 3146     		mov	r1, r6
 541 035a 04F5B860 		add	r0, r4, #1472
 542              	.LBE193:
 543              	.LBE192:
 544              	.LBB197:
 545              	.LBB187:
 171:..\..\..\lvgl\version_6.1.2\lvgl\src\lv_themes/lv_theme_material.c ****     theme.style.label.hint = &hint;
 546              		.loc 1 171 0
 547 035e E363     		str	r3, [r4, #60]
 170:..\..\..\lvgl\version_6.1.2\lvgl\src\lv_themes/lv_theme_material.c ****     theme.style.label.sec  = &sec;
 548              		.loc 1 170 0
 549 0360 C4F83890 		str	r9, [r4, #56]
 172:..\..\..\lvgl\version_6.1.2\lvgl\src\lv_themes/lv_theme_material.c **** #endif
 550              		.loc 1 172 0
 551 0364 C4F840A0 		str	r10, [r4, #64]
 552              	.LBE187:
 553              	.LBE197:
 554              	.LBB198:
 555              	.LBB194:
 180:..\..\..\lvgl\version_6.1.2\lvgl\src\lv_themes/lv_theme_material.c ****     img_light.image.color   = lv_color_hsv_to_rgb(_hue, 15, 85);
 556              		.loc 1 180 0
 557 0368 FFF7FEFF 		bl	lv_style_copy
 558              	.LVL31:
 181:..\..\..\lvgl\version_6.1.2\lvgl\src\lv_themes/lv_theme_material.c ****     img_light.image.intense = LV_OPA_80;
 559              		.loc 1 181 0
 560 036c 5522     		movs	r2, #85
 561 036e 0F21     		movs	r1, #15
 562 0370 B4F8A801 		ldrh	r0, [r4, #424]
ARM GAS  C:\Users\pearlstl\AppData\Local\Temp\cc5dErme.s 			page 29


 563 0374 FFF7FEFF 		bl	lv_color_hsv_to_rgb
 564              	.LVL32:
 182:..\..\..\lvgl\version_6.1.2\lvgl\src\lv_themes/lv_theme_material.c **** 
 565              		.loc 1 182 0
 566 0378 6FF03303 		mvn	r3, #51
 184:..\..\..\lvgl\version_6.1.2\lvgl\src\lv_themes/lv_theme_material.c ****     img_light.image.color   = lv_color_hsv_to_rgb(_hue, 85, 65);
 567              		.loc 1 184 0
 568 037c 3146     		mov	r1, r6
 181:..\..\..\lvgl\version_6.1.2\lvgl\src\lv_themes/lv_theme_material.c ****     img_light.image.intense = LV_OPA_80;
 569              		.loc 1 181 0
 570 037e C4F80006 		str	r0, [r4, #1536]
 184:..\..\..\lvgl\version_6.1.2\lvgl\src\lv_themes/lv_theme_material.c ****     img_light.image.color   = lv_color_hsv_to_rgb(_hue, 85, 65);
 571              		.loc 1 184 0
 572 0382 04F5C260 		add	r0, r4, #1552
 182:..\..\..\lvgl\version_6.1.2\lvgl\src\lv_themes/lv_theme_material.c **** 
 573              		.loc 1 182 0
 574 0386 84F80436 		strb	r3, [r4, #1540]
 184:..\..\..\lvgl\version_6.1.2\lvgl\src\lv_themes/lv_theme_material.c ****     img_light.image.color   = lv_color_hsv_to_rgb(_hue, 85, 65);
 575              		.loc 1 184 0
 576 038a FFF7FEFF 		bl	lv_style_copy
 577              	.LVL33:
 185:..\..\..\lvgl\version_6.1.2\lvgl\src\lv_themes/lv_theme_material.c ****     img_light.image.intense = LV_OPA_80;
 578              		.loc 1 185 0
 579 038e 4122     		movs	r2, #65
 580 0390 5521     		movs	r1, #85
 581 0392 B4F8A801 		ldrh	r0, [r4, #424]
 582 0396 FFF7FEFF 		bl	lv_color_hsv_to_rgb
 583              	.LVL34:
 584              	.LBE194:
 585              	.LBE198:
 586              	.LBB199:
 587              	.LBB200:
 205:..\..\..\lvgl\version_6.1.2\lvgl\src\lv_themes/lv_theme_material.c ****     led.body.shadow.width = LV_DPI / 10;
 588              		.loc 1 205 0
 589 039a 04F5CC6A 		add	r10, r4, #1632
 590              	.LBE200:
 591              	.LBE199:
 592              	.LBB205:
 593              	.LBB195:
 185:..\..\..\lvgl\version_6.1.2\lvgl\src\lv_themes/lv_theme_material.c ****     img_light.image.intense = LV_OPA_80;
 594              		.loc 1 185 0
 595 039e C4F80006 		str	r0, [r4, #1536]
 596              	.LBE195:
 597              	.LBE205:
 598              	.LBB206:
 599              	.LBB201:
 205:..\..\..\lvgl\version_6.1.2\lvgl\src\lv_themes/lv_theme_material.c ****     led.body.shadow.width = LV_DPI / 10;
 600              		.loc 1 205 0
 601 03a2 3146     		mov	r1, r6
 602 03a4 5046     		mov	r0, r10
 603              	.LBE201:
 604              	.LBE206:
 605              	.LBB207:
 606              	.LBB196:
 186:..\..\..\lvgl\version_6.1.2\lvgl\src\lv_themes/lv_theme_material.c **** 
 607              		.loc 1 186 0
 608 03a6 6FF03303 		mvn	r3, #51
ARM GAS  C:\Users\pearlstl\AppData\Local\Temp\cc5dErme.s 			page 30


 609 03aa 84F80436 		strb	r3, [r4, #1540]
 188:..\..\..\lvgl\version_6.1.2\lvgl\src\lv_themes/lv_theme_material.c ****     theme.style.img.dark  = &def;
 610              		.loc 1 188 0
 611 03ae 6664     		str	r6, [r4, #68]
 189:..\..\..\lvgl\version_6.1.2\lvgl\src\lv_themes/lv_theme_material.c **** #endif
 612              		.loc 1 189 0
 613 03b0 A664     		str	r6, [r4, #72]
 614              	.LBE196:
 615              	.LBE207:
 616              	.LBB208:
 617              	.LBB209:
 197:..\..\..\lvgl\version_6.1.2\lvgl\src\lv_themes/lv_theme_material.c **** #endif
 618              		.loc 1 197 0
 619 03b2 E664     		str	r6, [r4, #76]
 620              	.LBE209:
 621              	.LBE208:
 622              	.LBB210:
 623              	.LBB202:
 205:..\..\..\lvgl\version_6.1.2\lvgl\src\lv_themes/lv_theme_material.c ****     led.body.shadow.width = LV_DPI / 10;
 624              		.loc 1 205 0
 625 03b4 FFF7FEFF 		bl	lv_style_copy
 626              	.LVL35:
 206:..\..\..\lvgl\version_6.1.2\lvgl\src\lv_themes/lv_theme_material.c ****     led.body.radius       = LV_RADIUS_CIRCLE;
 627              		.loc 1 206 0
 628 03b8 4FF00F0E 		mov	lr, #15	@ movhi
 210:..\..\..\lvgl\version_6.1.2\lvgl\src\lv_themes/lv_theme_material.c ****     led.body.grad_color   = lv_color_hsv_to_rgb(_hue, 100, 100);
 629              		.loc 1 210 0
 630 03bc 6422     		movs	r2, #100
 206:..\..\..\lvgl\version_6.1.2\lvgl\src\lv_themes/lv_theme_material.c ****     led.body.radius       = LV_RADIUS_CIRCLE;
 631              		.loc 1 206 0
 632 03be A4F87CE6 		strh	lr, [r4, #1660]	@ movhi
 207:..\..\..\lvgl\version_6.1.2\lvgl\src\lv_themes/lv_theme_material.c ****     led.body.border.width = LV_DPI / 30;
 633              		.loc 1 207 0
 634 03c2 47F6184E 		movw	lr, 31768	@ movhi
 209:..\..\..\lvgl\version_6.1.2\lvgl\src\lv_themes/lv_theme_material.c ****     led.body.main_color   = lv_color_hsv_to_rgb(_hue, 100, 100);
 635              		.loc 1 209 0
 636 03c6 4C23     		movs	r3, #76
 637 03c8 08E0     		b	.L8
 638              	.L9:
 639 03ca 00BF     		.align	2
 640              	.L7:
 641 03cc 00000000 		.word	lv_font_roboto_16
 642 03d0 00000000 		.word	.LANCHOR0
 643 03d4 00000000 		.word	lv_style_plain
 644 03d8 F8100000 		.word	.LANCHOR1
 645              	.L8:
 210:..\..\..\lvgl\version_6.1.2\lvgl\src\lv_themes/lv_theme_material.c ****     led.body.grad_color   = lv_color_hsv_to_rgb(_hue, 100, 100);
 646              		.loc 1 210 0
 647 03dc 1146     		mov	r1, r2
 207:..\..\..\lvgl\version_6.1.2\lvgl\src\lv_themes/lv_theme_material.c ****     led.body.border.width = LV_DPI / 30;
 648              		.loc 1 207 0
 649 03de A4F86CE6 		strh	lr, [r4, #1644]	@ movhi
 210:..\..\..\lvgl\version_6.1.2\lvgl\src\lv_themes/lv_theme_material.c ****     led.body.grad_color   = lv_color_hsv_to_rgb(_hue, 100, 100);
 650              		.loc 1 210 0
 651 03e2 B4F8A801 		ldrh	r0, [r4, #424]
 209:..\..\..\lvgl\version_6.1.2\lvgl\src\lv_themes/lv_theme_material.c ****     led.body.main_color   = lv_color_hsv_to_rgb(_hue, 100, 100);
 652              		.loc 1 209 0
ARM GAS  C:\Users\pearlstl\AppData\Local\Temp\cc5dErme.s 			page 31


 653 03e6 84F87736 		strb	r3, [r4, #1655]
 208:..\..\..\lvgl\version_6.1.2\lvgl\src\lv_themes/lv_theme_material.c ****     led.body.border.opa   = LV_OPA_30;
 654              		.loc 1 208 0
 655 03ea 4FF0050E 		mov	lr, #5	@ movhi
 656 03ee A4F874E6 		strh	lr, [r4, #1652]	@ movhi
 210:..\..\..\lvgl\version_6.1.2\lvgl\src\lv_themes/lv_theme_material.c ****     led.body.grad_color   = lv_color_hsv_to_rgb(_hue, 100, 100);
 657              		.loc 1 210 0
 658 03f2 FFF7FEFF 		bl	lv_color_hsv_to_rgb
 659              	.LVL36:
 211:..\..\..\lvgl\version_6.1.2\lvgl\src\lv_themes/lv_theme_material.c ****     led.body.border.color = lv_color_hsv_to_rgb(_hue, 60, 60);
 660              		.loc 1 211 0
 661 03f6 6422     		movs	r2, #100
 210:..\..\..\lvgl\version_6.1.2\lvgl\src\lv_themes/lv_theme_material.c ****     led.body.grad_color   = lv_color_hsv_to_rgb(_hue, 100, 100);
 662              		.loc 1 210 0
 663 03f8 C4F86406 		str	r0, [r4, #1636]
 211:..\..\..\lvgl\version_6.1.2\lvgl\src\lv_themes/lv_theme_material.c ****     led.body.border.color = lv_color_hsv_to_rgb(_hue, 60, 60);
 664              		.loc 1 211 0
 665 03fc 1146     		mov	r1, r2
 666 03fe B4F8A801 		ldrh	r0, [r4, #424]
 667 0402 FFF7FEFF 		bl	lv_color_hsv_to_rgb
 668              	.LVL37:
 212:..\..\..\lvgl\version_6.1.2\lvgl\src\lv_themes/lv_theme_material.c ****     led.body.shadow.color = lv_color_hsv_to_rgb(_hue, 100, 100);
 669              		.loc 1 212 0
 670 0406 3C22     		movs	r2, #60
 211:..\..\..\lvgl\version_6.1.2\lvgl\src\lv_themes/lv_theme_material.c ****     led.body.border.color = lv_color_hsv_to_rgb(_hue, 60, 60);
 671              		.loc 1 211 0
 672 0408 C4F86806 		str	r0, [r4, #1640]
 212:..\..\..\lvgl\version_6.1.2\lvgl\src\lv_themes/lv_theme_material.c ****     led.body.shadow.color = lv_color_hsv_to_rgb(_hue, 100, 100);
 673              		.loc 1 212 0
 674 040c 1146     		mov	r1, r2
 675 040e B4F8A801 		ldrh	r0, [r4, #424]
 676 0412 FFF7FEFF 		bl	lv_color_hsv_to_rgb
 677              	.LVL38:
 213:..\..\..\lvgl\version_6.1.2\lvgl\src\lv_themes/lv_theme_material.c **** 
 678              		.loc 1 213 0
 679 0416 6422     		movs	r2, #100
 680 0418 1146     		mov	r1, r2
 212:..\..\..\lvgl\version_6.1.2\lvgl\src\lv_themes/lv_theme_material.c ****     led.body.shadow.color = lv_color_hsv_to_rgb(_hue, 100, 100);
 681              		.loc 1 212 0
 682 041a C4F87006 		str	r0, [r4, #1648]
 213:..\..\..\lvgl\version_6.1.2\lvgl\src\lv_themes/lv_theme_material.c **** 
 683              		.loc 1 213 0
 684 041e B4F8A801 		ldrh	r0, [r4, #424]
 685 0422 FFF7FEFF 		bl	lv_color_hsv_to_rgb
 686              	.LVL39:
 687              	.LBE202:
 688              	.LBE210:
 689              	.LBB211:
 690              	.LBB212:
 224:..\..\..\lvgl\version_6.1.2\lvgl\src\lv_themes/lv_theme_material.c ****     bar_bg.body.main_color     = lv_color_hsv_to_rgb(_hue, 15, 95);
 691              		.loc 1 224 0
 692 0426 04F5D669 		add	r9, r4, #1712
 693              	.LBE212:
 694              	.LBE211:
 695              	.LBB217:
 696              	.LBB203:
 213:..\..\..\lvgl\version_6.1.2\lvgl\src\lv_themes/lv_theme_material.c **** 
ARM GAS  C:\Users\pearlstl\AppData\Local\Temp\cc5dErme.s 			page 32


 697              		.loc 1 213 0
 698 042a C4F87806 		str	r0, [r4, #1656]
 699              	.LBE203:
 700              	.LBE217:
 701              	.LBB218:
 702              	.LBB213:
 224:..\..\..\lvgl\version_6.1.2\lvgl\src\lv_themes/lv_theme_material.c ****     bar_bg.body.main_color     = lv_color_hsv_to_rgb(_hue, 15, 95);
 703              		.loc 1 224 0
 704 042e 3146     		mov	r1, r6
 705 0430 4846     		mov	r0, r9
 706              	.LBE213:
 707              	.LBE218:
 708              	.LBB219:
 709              	.LBB204:
 215:..\..\..\lvgl\version_6.1.2\lvgl\src\lv_themes/lv_theme_material.c **** #endif
 710              		.loc 1 215 0
 711 0432 C4F850A0 		str	r10, [r4, #80]
 712              	.LBE204:
 713              	.LBE219:
 714              	.LBB220:
 715              	.LBB214:
 224:..\..\..\lvgl\version_6.1.2\lvgl\src\lv_themes/lv_theme_material.c ****     bar_bg.body.main_color     = lv_color_hsv_to_rgb(_hue, 15, 95);
 716              		.loc 1 224 0
 717 0436 FFF7FEFF 		bl	lv_style_copy
 718              	.LVL40:
 225:..\..\..\lvgl\version_6.1.2\lvgl\src\lv_themes/lv_theme_material.c ****     bar_bg.body.grad_color     = bar_bg.body.main_color;
 719              		.loc 1 225 0
 720 043a 5F22     		movs	r2, #95
 721 043c 0F21     		movs	r1, #15
 722 043e B4F8A801 		ldrh	r0, [r4, #424]
 723 0442 FFF7FEFF 		bl	lv_color_hsv_to_rgb
 724              	.LVL41:
 234:..\..\..\lvgl\version_6.1.2\lvgl\src\lv_themes/lv_theme_material.c ****     bar_indic.body.main_color     = lv_color_hsv_to_rgb(_hue, 85, 70);
 725              		.loc 1 234 0
 726 0446 04F5E063 		add	r3, r4, #1792
 225:..\..\..\lvgl\version_6.1.2\lvgl\src\lv_themes/lv_theme_material.c ****     bar_bg.body.grad_color     = bar_bg.body.main_color;
 727              		.loc 1 225 0
 728 044a C4F8B406 		str	r0, [r4, #1716]
 226:..\..\..\lvgl\version_6.1.2\lvgl\src\lv_themes/lv_theme_material.c ****     bar_bg.body.radius         = 3;
 729              		.loc 1 226 0
 730 044e C4F8B806 		str	r0, [r4, #1720]
 234:..\..\..\lvgl\version_6.1.2\lvgl\src\lv_themes/lv_theme_material.c ****     bar_indic.body.main_color     = lv_color_hsv_to_rgb(_hue, 85, 70);
 731              		.loc 1 234 0
 732 0452 0093     		str	r3, [sp]
 733 0454 1846     		mov	r0, r3
 227:..\..\..\lvgl\version_6.1.2\lvgl\src\lv_themes/lv_theme_material.c ****     bar_bg.body.border.width   = 0;
 734              		.loc 1 227 0
 735 0456 4FF00303 		mov	r3, #3	@ movhi
 234:..\..\..\lvgl\version_6.1.2\lvgl\src\lv_themes/lv_theme_material.c ****     bar_indic.body.main_color     = lv_color_hsv_to_rgb(_hue, 85, 70);
 736              		.loc 1 234 0
 737 045a 4946     		mov	r1, r9
 227:..\..\..\lvgl\version_6.1.2\lvgl\src\lv_themes/lv_theme_material.c ****     bar_bg.body.border.width   = 0;
 738              		.loc 1 227 0
 739 045c A4F8BC36 		strh	r3, [r4, #1724]	@ movhi
 229:..\..\..\lvgl\version_6.1.2\lvgl\src\lv_themes/lv_theme_material.c ****     bar_bg.body.padding.right  = LV_DPI / 16;
 740              		.loc 1 229 0
 741 0460 4FF00903 		mov	r3, #9	@ movhi
ARM GAS  C:\Users\pearlstl\AppData\Local\Temp\cc5dErme.s 			page 33


 742 0464 A4F8D436 		strh	r3, [r4, #1748]	@ movhi
 230:..\..\..\lvgl\version_6.1.2\lvgl\src\lv_themes/lv_theme_material.c ****     bar_bg.body.padding.top    = LV_DPI / 16;
 743              		.loc 1 230 0
 744 0468 A4F8D636 		strh	r3, [r4, #1750]	@ movhi
 231:..\..\..\lvgl\version_6.1.2\lvgl\src\lv_themes/lv_theme_material.c ****     bar_bg.body.padding.bottom = LV_DPI / 16;
 745              		.loc 1 231 0
 746 046c A4F8D036 		strh	r3, [r4, #1744]	@ movhi
 232:..\..\..\lvgl\version_6.1.2\lvgl\src\lv_themes/lv_theme_material.c **** 
 747              		.loc 1 232 0
 748 0470 A4F8D236 		strh	r3, [r4, #1746]	@ movhi
 228:..\..\..\lvgl\version_6.1.2\lvgl\src\lv_themes/lv_theme_material.c ****     bar_bg.body.padding.left   = LV_DPI / 16;
 749              		.loc 1 228 0
 750 0474 A4F8C486 		strh	r8, [r4, #1732]	@ movhi
 234:..\..\..\lvgl\version_6.1.2\lvgl\src\lv_themes/lv_theme_material.c ****     bar_indic.body.main_color     = lv_color_hsv_to_rgb(_hue, 85, 70);
 751              		.loc 1 234 0
 752 0478 FFF7FEFF 		bl	lv_style_copy
 753              	.LVL42:
 235:..\..\..\lvgl\version_6.1.2\lvgl\src\lv_themes/lv_theme_material.c ****     bar_indic.body.grad_color     = bar_indic.body.main_color;
 754              		.loc 1 235 0
 755 047c 4622     		movs	r2, #70
 756 047e 5521     		movs	r1, #85
 757 0480 B4F8A801 		ldrh	r0, [r4, #424]
 758 0484 FFF7FEFF 		bl	lv_color_hsv_to_rgb
 759              	.LVL43:
 760              	.LBE214:
 761              	.LBE220:
 762              	.LBB221:
 763              	.LBB222:
 252:..\..\..\lvgl\version_6.1.2\lvgl\src\lv_themes/lv_theme_material.c ****     knob.body.radius       = LV_RADIUS_CIRCLE;
 764              		.loc 1 252 0
 765 0488 04F5EA6A 		add	r10, r4, #1872
 766              	.LBE222:
 767              	.LBE221:
 768              	.LBB228:
 769              	.LBB215:
 243:..\..\..\lvgl\version_6.1.2\lvgl\src\lv_themes/lv_theme_material.c **** #endif
 770              		.loc 1 243 0
 771 048c 009B     		ldr	r3, [sp]
 235:..\..\..\lvgl\version_6.1.2\lvgl\src\lv_themes/lv_theme_material.c ****     bar_indic.body.grad_color     = bar_indic.body.main_color;
 772              		.loc 1 235 0
 773 048e C4F80407 		str	r0, [r4, #1796]
 236:..\..\..\lvgl\version_6.1.2\lvgl\src\lv_themes/lv_theme_material.c ****     bar_indic.body.padding.left   = 0;
 774              		.loc 1 236 0
 775 0492 C4F80807 		str	r0, [r4, #1800]
 776              	.LBE215:
 777              	.LBE228:
 778              	.LBB229:
 779              	.LBB223:
 252:..\..\..\lvgl\version_6.1.2\lvgl\src\lv_themes/lv_theme_material.c ****     knob.body.radius       = LV_RADIUS_CIRCLE;
 780              		.loc 1 252 0
 781 0496 3146     		mov	r1, r6
 782 0498 5046     		mov	r0, r10
 783              	.LBE223:
 784              	.LBE229:
 785              	.LBB230:
 786              	.LBB216:
 242:..\..\..\lvgl\version_6.1.2\lvgl\src\lv_themes/lv_theme_material.c ****     theme.style.bar.indic = &bar_indic;
ARM GAS  C:\Users\pearlstl\AppData\Local\Temp\cc5dErme.s 			page 34


 787              		.loc 1 242 0
 788 049a C4F85490 		str	r9, [r4, #84]
 243:..\..\..\lvgl\version_6.1.2\lvgl\src\lv_themes/lv_theme_material.c **** #endif
 789              		.loc 1 243 0
 790 049e A365     		str	r3, [r4, #88]
 237:..\..\..\lvgl\version_6.1.2\lvgl\src\lv_themes/lv_theme_material.c ****     bar_indic.body.padding.right  = 0;
 791              		.loc 1 237 0
 792 04a0 A4F82487 		strh	r8, [r4, #1828]	@ movhi
 238:..\..\..\lvgl\version_6.1.2\lvgl\src\lv_themes/lv_theme_material.c ****     bar_indic.body.padding.top    = 0;
 793              		.loc 1 238 0
 794 04a4 A4F82687 		strh	r8, [r4, #1830]	@ movhi
 239:..\..\..\lvgl\version_6.1.2\lvgl\src\lv_themes/lv_theme_material.c ****     bar_indic.body.padding.bottom = 0;
 795              		.loc 1 239 0
 796 04a8 A4F82087 		strh	r8, [r4, #1824]	@ movhi
 240:..\..\..\lvgl\version_6.1.2\lvgl\src\lv_themes/lv_theme_material.c **** 
 797              		.loc 1 240 0
 798 04ac A4F82287 		strh	r8, [r4, #1826]	@ movhi
 799              	.LBE216:
 800              	.LBE230:
 801              	.LBB231:
 802              	.LBB224:
 252:..\..\..\lvgl\version_6.1.2\lvgl\src\lv_themes/lv_theme_material.c ****     knob.body.radius       = LV_RADIUS_CIRCLE;
 803              		.loc 1 252 0
 804 04b0 FFF7FEFF 		bl	lv_style_copy
 805              	.LVL44:
 255:..\..\..\lvgl\version_6.1.2\lvgl\src\lv_themes/lv_theme_material.c ****     knob.body.grad_color   = knob.body.main_color;
 806              		.loc 1 255 0
 807 04b4 A26D     		ldr	r2, [r4, #88]
 258:..\..\..\lvgl\version_6.1.2\lvgl\src\lv_themes/lv_theme_material.c ****     theme.style.slider.indic = theme.style.bar.indic;
 808              		.loc 1 258 0
 809 04b6 636D     		ldr	r3, [r4, #84]
 255:..\..\..\lvgl\version_6.1.2\lvgl\src\lv_themes/lv_theme_material.c ****     knob.body.grad_color   = knob.body.main_color;
 810              		.loc 1 255 0
 811 04b8 D2F804E0 		ldr	lr, [r2, #4]
 812 04bc C4F854E7 		str	lr, [r4, #1876]
 813              	.LBE224:
 814              	.LBE231:
 815              	.LBB232:
 816              	.LBB233:
 268:..\..\..\lvgl\version_6.1.2\lvgl\src\lv_themes/lv_theme_material.c ****     sw_bg.body.radius = LV_RADIUS_CIRCLE;
 817              		.loc 1 268 0
 818 04c0 04F5F469 		add	r9, r4, #1952
 819              	.LBE233:
 820              	.LBE232:
 821              	.LBB239:
 822              	.LBB225:
 253:..\..\..\lvgl\version_6.1.2\lvgl\src\lv_themes/lv_theme_material.c ****     knob.body.border.width = 0;
 823              		.loc 1 253 0
 824 04c4 47F61841 		movw	r1, 31768	@ movhi
 825 04c8 A4F85C17 		strh	r1, [r4, #1884]	@ movhi
 826              	.LBE225:
 827              	.LBE239:
 828              	.LBB240:
 829              	.LBB234:
 268:..\..\..\lvgl\version_6.1.2\lvgl\src\lv_themes/lv_theme_material.c ****     sw_bg.body.radius = LV_RADIUS_CIRCLE;
 830              		.loc 1 268 0
 831 04cc 4846     		mov	r0, r9
ARM GAS  C:\Users\pearlstl\AppData\Local\Temp\cc5dErme.s 			page 35


 832 04ce 1946     		mov	r1, r3
 833              	.LBE234:
 834              	.LBE240:
 835              	.LBB241:
 836              	.LBB226:
 256:..\..\..\lvgl\version_6.1.2\lvgl\src\lv_themes/lv_theme_material.c **** 
 837              		.loc 1 256 0
 838 04d0 C4F858E7 		str	lr, [r4, #1880]
 259:..\..\..\lvgl\version_6.1.2\lvgl\src\lv_themes/lv_theme_material.c ****     theme.style.slider.knob  = &knob;
 839              		.loc 1 259 0
 840 04d4 2266     		str	r2, [r4, #96]
 260:..\..\..\lvgl\version_6.1.2\lvgl\src\lv_themes/lv_theme_material.c **** #endif
 841              		.loc 1 260 0
 842 04d6 C4F864A0 		str	r10, [r4, #100]
 258:..\..\..\lvgl\version_6.1.2\lvgl\src\lv_themes/lv_theme_material.c ****     theme.style.slider.indic = theme.style.bar.indic;
 843              		.loc 1 258 0
 844 04da E365     		str	r3, [r4, #92]
 845              	.LBE226:
 846              	.LBE241:
 847              	.LBB242:
 848              	.LBB235:
 274:..\..\..\lvgl\version_6.1.2\lvgl\src\lv_themes/lv_theme_material.c ****     sw_knob_on.body.shadow.width = 3;
 849              		.loc 1 274 0
 850 04dc 04F5046A 		add	r10, r4, #2112
 851              	.LBE235:
 852              	.LBE242:
 853              	.LBB243:
 854              	.LBB227:
 254:..\..\..\lvgl\version_6.1.2\lvgl\src\lv_themes/lv_theme_material.c ****     knob.body.main_color   = theme.style.bar.indic->body.main_color;
 855              		.loc 1 254 0
 856 04e0 A4F86487 		strh	r8, [r4, #1892]	@ movhi
 857              	.LBE227:
 858              	.LBE243:
 859              	.LBB244:
 860              	.LBB236:
 268:..\..\..\lvgl\version_6.1.2\lvgl\src\lv_themes/lv_theme_material.c ****     sw_bg.body.radius = LV_RADIUS_CIRCLE;
 861              		.loc 1 268 0
 862 04e4 FFF7FEFF 		bl	lv_style_copy
 863              	.LVL45:
 271:..\..\..\lvgl\version_6.1.2\lvgl\src\lv_themes/lv_theme_material.c ****     sw_indic.body.radius = LV_RADIUS_CIRCLE;
 864              		.loc 1 271 0
 865 04e8 04F5FE60 		add	r0, r4, #2032
 866 04ec E16D     		ldr	r1, [r4, #92]
 269:..\..\..\lvgl\version_6.1.2\lvgl\src\lv_themes/lv_theme_material.c **** 
 867              		.loc 1 269 0
 868 04ee 47F61843 		movw	r3, 31768	@ movhi
 869 04f2 A4F8AC37 		strh	r3, [r4, #1964]	@ movhi
 271:..\..\..\lvgl\version_6.1.2\lvgl\src\lv_themes/lv_theme_material.c ****     sw_indic.body.radius = LV_RADIUS_CIRCLE;
 870              		.loc 1 271 0
 871 04f6 FFF7FEFF 		bl	lv_style_copy
 872              	.LVL46:
 274:..\..\..\lvgl\version_6.1.2\lvgl\src\lv_themes/lv_theme_material.c ****     sw_knob_on.body.shadow.width = 3;
 873              		.loc 1 274 0
 874 04fa 5046     		mov	r0, r10
 875 04fc 616E     		ldr	r1, [r4, #100]
 272:..\..\..\lvgl\version_6.1.2\lvgl\src\lv_themes/lv_theme_material.c **** 
 876              		.loc 1 272 0
ARM GAS  C:\Users\pearlstl\AppData\Local\Temp\cc5dErme.s 			page 36


 877 04fe 47F61843 		movw	r3, 31768	@ movhi
 878 0502 A4F8FC37 		strh	r3, [r4, #2044]	@ movhi
 274:..\..\..\lvgl\version_6.1.2\lvgl\src\lv_themes/lv_theme_material.c ****     sw_knob_on.body.shadow.width = 3;
 879              		.loc 1 274 0
 880 0506 FFF7FEFF 		bl	lv_style_copy
 881              	.LVL47:
 275:..\..\..\lvgl\version_6.1.2\lvgl\src\lv_themes/lv_theme_material.c ****     sw_knob_on.body.shadow.type  = LV_SHADOW_BOTTOM;
 882              		.loc 1 275 0
 883 050a 4FF00303 		mov	r3, #3	@ movhi
 279:..\..\..\lvgl\version_6.1.2\lvgl\src\lv_themes/lv_theme_material.c ****     sw_knob_off.body.main_color   = lv_color_hex(0xfafafa);
 884              		.loc 1 279 0
 885 050e 5146     		mov	r1, r10
 886 0510 0AF15000 		add	r0, r10, #80
 275:..\..\..\lvgl\version_6.1.2\lvgl\src\lv_themes/lv_theme_material.c ****     sw_knob_on.body.shadow.type  = LV_SHADOW_BOTTOM;
 887              		.loc 1 275 0
 888 0514 A4F85C38 		strh	r3, [r4, #2140]	@ movhi
 277:..\..\..\lvgl\version_6.1.2\lvgl\src\lv_themes/lv_theme_material.c **** 
 889              		.loc 1 277 0
 890 0518 6FF05503 		mvn	r3, #85
 891 051c 84F85838 		strb	r3, [r4, #2136]
 892 0520 84F85938 		strb	r3, [r4, #2137]
 893 0524 84F85A38 		strb	r3, [r4, #2138]
 276:..\..\..\lvgl\version_6.1.2\lvgl\src\lv_themes/lv_theme_material.c ****     sw_knob_on.body.shadow.color = DEF_SHADOW_COLOR;
 894              		.loc 1 276 0
 895 0528 84F85E88 		strb	r8, [r4, #2142]
 277:..\..\..\lvgl\version_6.1.2\lvgl\src\lv_themes/lv_theme_material.c **** 
 896              		.loc 1 277 0
 897 052c 84F85BB8 		strb	fp, [r4, #2139]
 279:..\..\..\lvgl\version_6.1.2\lvgl\src\lv_themes/lv_theme_material.c ****     sw_knob_off.body.main_color   = lv_color_hex(0xfafafa);
 898              		.loc 1 279 0
 899 0530 FFF7FEFF 		bl	lv_style_copy
 900              	.LVL48:
 280:..\..\..\lvgl\version_6.1.2\lvgl\src\lv_themes/lv_theme_material.c ****     sw_knob_off.body.grad_color   = sw_knob_off.body.main_color;
 901              		.loc 1 280 0
 902 0534 FA23     		movs	r3, #250
 903 0536 84F89438 		strb	r3, [r4, #2196]
 904 053a 84F89538 		strb	r3, [r4, #2197]
 905 053e 84F89638 		strb	r3, [r4, #2198]
 906              	.LBE236:
 907              	.LBE244:
 908              	.LBB245:
 909              	.LBB246:
 297:..\..\..\lvgl\version_6.1.2\lvgl\src\lv_themes/lv_theme_material.c ****     lmeter.body.main_color   = lv_color_hsv_to_rgb(_hue, 75, 90);
 910              		.loc 1 297 0
 911 0542 04F50E63 		add	r3, r4, #2272
 912 0546 1846     		mov	r0, r3
 913 0548 0093     		str	r3, [sp]
 914              	.LBE246:
 915              	.LBE245:
 916              	.LBB251:
 917              	.LBB237:
 282:..\..\..\lvgl\version_6.1.2\lvgl\src\lv_themes/lv_theme_material.c ****     sw_knob_off.body.border.color = lv_color_hex3(0x999);
 918              		.loc 1 282 0
 919 054a 4FF00103 		mov	r3, #1	@ movhi
 280:..\..\..\lvgl\version_6.1.2\lvgl\src\lv_themes/lv_theme_material.c ****     sw_knob_off.body.grad_color   = sw_knob_off.body.main_color;
 920              		.loc 1 280 0
 921 054e 84F897B8 		strb	fp, [r4, #2199]
ARM GAS  C:\Users\pearlstl\AppData\Local\Temp\cc5dErme.s 			page 37


 282:..\..\..\lvgl\version_6.1.2\lvgl\src\lv_themes/lv_theme_material.c ****     sw_knob_off.body.border.color = lv_color_hex3(0x999);
 922              		.loc 1 282 0
 923 0552 A4F8A438 		strh	r3, [r4, #2212]	@ movhi
 287:..\..\..\lvgl\version_6.1.2\lvgl\src\lv_themes/lv_theme_material.c ****     theme.style.sw.knob_off = &sw_knob_off;
 924              		.loc 1 287 0
 925 0556 A0F1F003 		sub	r3, r0, #240
 281:..\..\..\lvgl\version_6.1.2\lvgl\src\lv_themes/lv_theme_material.c ****     sw_knob_off.body.border.width = 1;
 926              		.loc 1 281 0
 927 055a D4F89428 		ldr	r2, [r4, #2196]
 286:..\..\..\lvgl\version_6.1.2\lvgl\src\lv_themes/lv_theme_material.c ****     theme.style.sw.indic    = &sw_indic;
 928              		.loc 1 286 0
 929 055e C4F87890 		str	r9, [r4, #120]
 930              	.LBE237:
 931              	.LBE251:
 932              	.LBB252:
 933              	.LBB247:
 297:..\..\..\lvgl\version_6.1.2\lvgl\src\lv_themes/lv_theme_material.c ****     lmeter.body.main_color   = lv_color_hsv_to_rgb(_hue, 75, 90);
 934              		.loc 1 297 0
 935 0562 3146     		mov	r1, r6
 936              	.LBE247:
 937              	.LBE252:
 938              	.LBB253:
 939              	.LBB238:
 283:..\..\..\lvgl\version_6.1.2\lvgl\src\lv_themes/lv_theme_material.c ****     sw_knob_off.body.border.opa   = LV_OPA_COVER;
 940              		.loc 1 283 0
 941 0564 4FF09909 		mov	r9, #153
 287:..\..\..\lvgl\version_6.1.2\lvgl\src\lv_themes/lv_theme_material.c ****     theme.style.sw.knob_off = &sw_knob_off;
 942              		.loc 1 287 0
 943 0568 E367     		str	r3, [r4, #124]
 288:..\..\..\lvgl\version_6.1.2\lvgl\src\lv_themes/lv_theme_material.c ****     theme.style.sw.knob_on  = &sw_knob_on;
 944              		.loc 1 288 0
 945 056a A0F15003 		sub	r3, r0, #80
 946 056e C4F88030 		str	r3, [r4, #128]
 289:..\..\..\lvgl\version_6.1.2\lvgl\src\lv_themes/lv_theme_material.c **** #endif
 947              		.loc 1 289 0
 948 0572 C4F884A0 		str	r10, [r4, #132]
 281:..\..\..\lvgl\version_6.1.2\lvgl\src\lv_themes/lv_theme_material.c ****     sw_knob_off.body.border.width = 1;
 949              		.loc 1 281 0
 950 0576 C4F89828 		str	r2, [r4, #2200]
 283:..\..\..\lvgl\version_6.1.2\lvgl\src\lv_themes/lv_theme_material.c ****     sw_knob_off.body.border.opa   = LV_OPA_COVER;
 951              		.loc 1 283 0
 952 057a 84F8A098 		strb	r9, [r4, #2208]
 953 057e 84F8A198 		strb	r9, [r4, #2209]
 954 0582 84F8A298 		strb	r9, [r4, #2210]
 955 0586 84F8A3B8 		strb	fp, [r4, #2211]
 284:..\..\..\lvgl\version_6.1.2\lvgl\src\lv_themes/lv_theme_material.c **** 
 956              		.loc 1 284 0
 957 058a 84F8A7B8 		strb	fp, [r4, #2215]
 958              	.LBE238:
 959              	.LBE253:
 960              	.LBB254:
 961              	.LBB248:
 297:..\..\..\lvgl\version_6.1.2\lvgl\src\lv_themes/lv_theme_material.c ****     lmeter.body.main_color   = lv_color_hsv_to_rgb(_hue, 75, 90);
 962              		.loc 1 297 0
 963 058e FFF7FEFF 		bl	lv_style_copy
 964              	.LVL49:
 298:..\..\..\lvgl\version_6.1.2\lvgl\src\lv_themes/lv_theme_material.c ****     lmeter.body.grad_color   = lmeter.body.main_color;
ARM GAS  C:\Users\pearlstl\AppData\Local\Temp\cc5dErme.s 			page 38


 965              		.loc 1 298 0
 966 0592 5A22     		movs	r2, #90
 967 0594 4B21     		movs	r1, #75
 968 0596 B4F8A801 		ldrh	r0, [r4, #424]
 969 059a FFF7FEFF 		bl	lv_color_hsv_to_rgb
 970              	.LVL50:
 302:..\..\..\lvgl\version_6.1.2\lvgl\src\lv_themes/lv_theme_material.c **** 
 971              		.loc 1 302 0
 972 059e 4FF00203 		mov	r3, #2	@ movhi
 973              	.LBE248:
 974              	.LBE254:
 975              	.LBB255:
 976              	.LBB256:
 313:..\..\..\lvgl\version_6.1.2\lvgl\src\lv_themes/lv_theme_material.c ****     gauge.body.main_color    = lv_color_hsv_to_rgb(_hue, 10, 60);
 977              		.loc 1 313 0
 978 05a2 04F5136A 		add	r10, r4, #2352
 979              	.LBE256:
 980              	.LBE255:
 981              	.LBB261:
 982              	.LBB249:
 302:..\..\..\lvgl\version_6.1.2\lvgl\src\lv_themes/lv_theme_material.c **** 
 983              		.loc 1 302 0
 984 05a6 A4F82C39 		strh	r3, [r4, #2348]	@ movhi
 300:..\..\..\lvgl\version_6.1.2\lvgl\src\lv_themes/lv_theme_material.c ****     lmeter.line.color        = lv_color_hex3(0x999);
 985              		.loc 1 300 0
 986 05aa 4FF00F03 		mov	r3, #15	@ movhi
 298:..\..\..\lvgl\version_6.1.2\lvgl\src\lv_themes/lv_theme_material.c ****     lmeter.body.grad_color   = lmeter.body.main_color;
 987              		.loc 1 298 0
 988 05ae C4F8E408 		str	r0, [r4, #2276]
 299:..\..\..\lvgl\version_6.1.2\lvgl\src\lv_themes/lv_theme_material.c ****     lmeter.body.padding.left = LV_DPI / 10; /*Scale line length*/
 989              		.loc 1 299 0
 990 05b2 C4F8E808 		str	r0, [r4, #2280]
 991              	.LBE249:
 992              	.LBE261:
 993              	.LBB262:
 994              	.LBB257:
 313:..\..\..\lvgl\version_6.1.2\lvgl\src\lv_themes/lv_theme_material.c ****     gauge.body.main_color    = lv_color_hsv_to_rgb(_hue, 10, 60);
 995              		.loc 1 313 0
 996 05b6 3146     		mov	r1, r6
 997 05b8 5046     		mov	r0, r10
 998              	.LBE257:
 999              	.LBE262:
 1000              	.LBB263:
 1001              	.LBB250:
 300:..\..\..\lvgl\version_6.1.2\lvgl\src\lv_themes/lv_theme_material.c ****     lmeter.line.color        = lv_color_hex3(0x999);
 1002              		.loc 1 300 0
 1003 05ba A4F80439 		strh	r3, [r4, #2308]	@ movhi
 304:..\..\..\lvgl\version_6.1.2\lvgl\src\lv_themes/lv_theme_material.c **** #endif
 1004              		.loc 1 304 0
 1005 05be 009B     		ldr	r3, [sp]
 1006 05c0 A366     		str	r3, [r4, #104]
 301:..\..\..\lvgl\version_6.1.2\lvgl\src\lv_themes/lv_theme_material.c ****     lmeter.line.width        = 2;
 1007              		.loc 1 301 0
 1008 05c2 84F82899 		strb	r9, [r4, #2344]
 1009 05c6 84F82999 		strb	r9, [r4, #2345]
 1010 05ca 84F82A99 		strb	r9, [r4, #2346]
 1011 05ce 84F82BB9 		strb	fp, [r4, #2347]
ARM GAS  C:\Users\pearlstl\AppData\Local\Temp\cc5dErme.s 			page 39


 1012              	.LBE250:
 1013              	.LBE263:
 1014              	.LBB264:
 1015              	.LBB258:
 313:..\..\..\lvgl\version_6.1.2\lvgl\src\lv_themes/lv_theme_material.c ****     gauge.body.main_color    = lv_color_hsv_to_rgb(_hue, 10, 60);
 1016              		.loc 1 313 0
 1017 05d2 FFF7FEFF 		bl	lv_style_copy
 1018              	.LVL51:
 314:..\..\..\lvgl\version_6.1.2\lvgl\src\lv_themes/lv_theme_material.c ****     gauge.body.grad_color    = gauge.body.main_color;
 1019              		.loc 1 314 0
 1020 05d6 3C22     		movs	r2, #60
 1021 05d8 0A21     		movs	r1, #10
 1022 05da B4F8A801 		ldrh	r0, [r4, #424]
 1023 05de FFF7FEFF 		bl	lv_color_hsv_to_rgb
 1024              	.LVL52:
 316:..\..\..\lvgl\version_6.1.2\lvgl\src\lv_themes/lv_theme_material.c ****     gauge.body.padding.inner = LV_DPI / 8;
 1025              		.loc 1 316 0
 1026 05e2 4FF00903 		mov	r3, #9	@ movhi
 1027 05e6 A4F85439 		strh	r3, [r4, #2388]	@ movhi
 317:..\..\..\lvgl\version_6.1.2\lvgl\src\lv_themes/lv_theme_material.c ****     gauge.body.border.color  = lv_color_hex3(0x999);
 1028              		.loc 1 317 0
 1029 05ea 4FF01203 		mov	r3, #18	@ movhi
 1030 05ee A4F85839 		strh	r3, [r4, #2392]	@ movhi
 319:..\..\..\lvgl\version_6.1.2\lvgl\src\lv_themes/lv_theme_material.c ****     gauge.line.width         = 3;
 1031              		.loc 1 319 0
 1032 05f2 4FF03303 		mov	r3, #51
 314:..\..\..\lvgl\version_6.1.2\lvgl\src\lv_themes/lv_theme_material.c ****     gauge.body.grad_color    = gauge.body.main_color;
 1033              		.loc 1 314 0
 1034 05f6 C4F83409 		str	r0, [r4, #2356]
 315:..\..\..\lvgl\version_6.1.2\lvgl\src\lv_themes/lv_theme_material.c ****     gauge.body.padding.left  = LV_DPI / 16; /*Scale line length*/
 1035              		.loc 1 315 0
 1036 05fa C4F83809 		str	r0, [r4, #2360]
 319:..\..\..\lvgl\version_6.1.2\lvgl\src\lv_themes/lv_theme_material.c ****     gauge.line.width         = 3;
 1037              		.loc 1 319 0
 1038 05fe 84F85C39 		strb	r3, [r4, #2396]
 1039 0602 84F85D39 		strb	r3, [r4, #2397]
 1040 0606 84F85E39 		strb	r3, [r4, #2398]
 321:..\..\..\lvgl\version_6.1.2\lvgl\src\lv_themes/lv_theme_material.c **** 
 1041              		.loc 1 321 0
 1042 060a 4622     		movs	r2, #70
 320:..\..\..\lvgl\version_6.1.2\lvgl\src\lv_themes/lv_theme_material.c ****     gauge.line.color         = lv_color_hsv_to_rgb(_hue, 95, 70);
 1043              		.loc 1 320 0
 1044 060c 4FF00303 		mov	r3, #3	@ movhi
 321:..\..\..\lvgl\version_6.1.2\lvgl\src\lv_themes/lv_theme_material.c **** 
 1045              		.loc 1 321 0
 1046 0610 5F21     		movs	r1, #95
 1047 0612 B4F8A801 		ldrh	r0, [r4, #424]
 318:..\..\..\lvgl\version_6.1.2\lvgl\src\lv_themes/lv_theme_material.c ****     gauge.text.color         = lv_color_hex3(0x333);
 1048              		.loc 1 318 0
 1049 0616 84F84099 		strb	r9, [r4, #2368]
 1050 061a 84F84199 		strb	r9, [r4, #2369]
 1051 061e 84F84299 		strb	r9, [r4, #2370]
 320:..\..\..\lvgl\version_6.1.2\lvgl\src\lv_themes/lv_theme_material.c ****     gauge.line.color         = lv_color_hsv_to_rgb(_hue, 95, 70);
 1052              		.loc 1 320 0
 1053 0622 A4F87C39 		strh	r3, [r4, #2428]	@ movhi
 318:..\..\..\lvgl\version_6.1.2\lvgl\src\lv_themes/lv_theme_material.c ****     gauge.text.color         = lv_color_hex3(0x333);
 1054              		.loc 1 318 0
ARM GAS  C:\Users\pearlstl\AppData\Local\Temp\cc5dErme.s 			page 40


 1055 0626 84F843B9 		strb	fp, [r4, #2371]
 319:..\..\..\lvgl\version_6.1.2\lvgl\src\lv_themes/lv_theme_material.c ****     gauge.line.width         = 3;
 1056              		.loc 1 319 0
 1057 062a 84F85FB9 		strb	fp, [r4, #2399]
 321:..\..\..\lvgl\version_6.1.2\lvgl\src\lv_themes/lv_theme_material.c **** 
 1058              		.loc 1 321 0
 1059 062e FFF7FEFF 		bl	lv_color_hsv_to_rgb
 1060              	.LVL53:
 1061              	.LBE258:
 1062              	.LBE264:
 1063              	.LBB265:
 1064              	.LBB266:
 332:..\..\..\lvgl\version_6.1.2\lvgl\src\lv_themes/lv_theme_material.c ****     arc.line.width = 10;
 1065              		.loc 1 332 0
 1066 0632 04F51863 		add	r3, r4, #2432
 1067              	.LBE266:
 1068              	.LBE265:
 1069              	.LBB273:
 1070              	.LBB274:
 359:..\..\..\lvgl\version_6.1.2\lvgl\src\lv_themes/lv_theme_material.c **** #endif
 1071              		.loc 1 359 0
 1072 0636 A268     		ldr	r2, [r4, #8]
 1073              	.LBE274:
 1074              	.LBE273:
 1075              	.LBB276:
 1076              	.LBB259:
 321:..\..\..\lvgl\version_6.1.2\lvgl\src\lv_themes/lv_theme_material.c **** 
 1077              		.loc 1 321 0
 1078 0638 C4F87809 		str	r0, [r4, #2424]
 1079              	.LBE259:
 1080              	.LBE276:
 1081              	.LBB277:
 1082              	.LBB267:
 332:..\..\..\lvgl\version_6.1.2\lvgl\src\lv_themes/lv_theme_material.c ****     arc.line.width = 10;
 1083              		.loc 1 332 0
 1084 063c 3146     		mov	r1, r6
 1085 063e 1846     		mov	r0, r3
 1086              	.LBE267:
 1087              	.LBE277:
 1088              	.LBB278:
 1089              	.LBB260:
 323:..\..\..\lvgl\version_6.1.2\lvgl\src\lv_themes/lv_theme_material.c **** #endif
 1090              		.loc 1 323 0
 1091 0640 C4F86CA0 		str	r10, [r4, #108]
 1092              	.LBE260:
 1093              	.LBE278:
 1094              	.LBB279:
 1095              	.LBB268:
 332:..\..\..\lvgl\version_6.1.2\lvgl\src\lv_themes/lv_theme_material.c ****     arc.line.width = 10;
 1096              		.loc 1 332 0
 1097 0644 0093     		str	r3, [sp]
 1098              	.LBE268:
 1099              	.LBE279:
 1100              	.LBB280:
 1101              	.LBB275:
 359:..\..\..\lvgl\version_6.1.2\lvgl\src\lv_themes/lv_theme_material.c **** #endif
 1102              		.loc 1 359 0
ARM GAS  C:\Users\pearlstl\AppData\Local\Temp\cc5dErme.s 			page 41


 1103 0646 C4F88820 		str	r2, [r4, #136]
 1104              	.LBE275:
 1105              	.LBE280:
 1106              	.LBB281:
 1107              	.LBB269:
 332:..\..\..\lvgl\version_6.1.2\lvgl\src\lv_themes/lv_theme_material.c ****     arc.line.width = 10;
 1108              		.loc 1 332 0
 1109 064a FFF7FEFF 		bl	lv_style_copy
 1110              	.LVL54:
 334:..\..\..\lvgl\version_6.1.2\lvgl\src\lv_themes/lv_theme_material.c **** 
 1111              		.loc 1 334 0
 1112 064e 5A22     		movs	r2, #90
 1113 0650 1146     		mov	r1, r2
 333:..\..\..\lvgl\version_6.1.2\lvgl\src\lv_themes/lv_theme_material.c ****     arc.line.color = lv_color_hsv_to_rgb(_hue, 90, 90);
 1114              		.loc 1 333 0
 1115 0652 4FF00A03 		mov	r3, #10	@ movhi
 334:..\..\..\lvgl\version_6.1.2\lvgl\src\lv_themes/lv_theme_material.c **** 
 1116              		.loc 1 334 0
 1117 0656 B4F8A801 		ldrh	r0, [r4, #424]
 333:..\..\..\lvgl\version_6.1.2\lvgl\src\lv_themes/lv_theme_material.c ****     arc.line.color = lv_color_hsv_to_rgb(_hue, 90, 90);
 1118              		.loc 1 333 0
 1119 065a A4F8CC39 		strh	r3, [r4, #2508]	@ movhi
 334:..\..\..\lvgl\version_6.1.2\lvgl\src\lv_themes/lv_theme_material.c **** 
 1120              		.loc 1 334 0
 1121 065e FFF7FEFF 		bl	lv_color_hsv_to_rgb
 1122              	.LVL55:
 338:..\..\..\lvgl\version_6.1.2\lvgl\src\lv_themes/lv_theme_material.c ****     arc.body.padding.left   = 0;
 1123              		.loc 1 338 0
 1124 0662 5A22     		movs	r2, #90
 334:..\..\..\lvgl\version_6.1.2\lvgl\src\lv_themes/lv_theme_material.c **** 
 1125              		.loc 1 334 0
 1126 0664 C4F8C809 		str	r0, [r4, #2504]
 337:..\..\..\lvgl\version_6.1.2\lvgl\src\lv_themes/lv_theme_material.c ****     arc.body.border.color   = lv_color_hsv_to_rgb(_hue, 30, 90);
 1127              		.loc 1 337 0
 1128 0668 4FF00A03 		mov	r3, #10	@ movhi
 338:..\..\..\lvgl\version_6.1.2\lvgl\src\lv_themes/lv_theme_material.c ****     arc.body.padding.left   = 0;
 1129              		.loc 1 338 0
 1130 066c 1E21     		movs	r1, #30
 1131 066e B4F8A801 		ldrh	r0, [r4, #424]
 337:..\..\..\lvgl\version_6.1.2\lvgl\src\lv_themes/lv_theme_material.c ****     arc.body.border.color   = lv_color_hsv_to_rgb(_hue, 30, 90);
 1132              		.loc 1 337 0
 1133 0672 A4F89439 		strh	r3, [r4, #2452]	@ movhi
 338:..\..\..\lvgl\version_6.1.2\lvgl\src\lv_themes/lv_theme_material.c ****     arc.body.padding.left   = 0;
 1134              		.loc 1 338 0
 1135 0676 FFF7FEFF 		bl	lv_color_hsv_to_rgb
 1136              	.LVL56:
 1137              	.LBE269:
 1138              	.LBE281:
 1139              	.LBB282:
 1140              	.LBB283:
 367:..\..\..\lvgl\version_6.1.2\lvgl\src\lv_themes/lv_theme_material.c ****     ina_days.text.color = lv_color_hsv_to_rgb(_hue, 0, 70);
 1141              		.loc 1 367 0
 1142 067a 04F51D69 		add	r9, r4, #2512
 1143              	.LBE283:
 1144              	.LBE282:
 1145              	.LBB288:
 1146              	.LBB270:
ARM GAS  C:\Users\pearlstl\AppData\Local\Temp\cc5dErme.s 			page 42


 344:..\..\..\lvgl\version_6.1.2\lvgl\src\lv_themes/lv_theme_material.c **** #endif
 1147              		.loc 1 344 0
 1148 067e 009B     		ldr	r3, [sp]
 338:..\..\..\lvgl\version_6.1.2\lvgl\src\lv_themes/lv_theme_material.c ****     arc.body.padding.left   = 0;
 1149              		.loc 1 338 0
 1150 0680 C4F89009 		str	r0, [r4, #2448]
 1151              	.LBE270:
 1152              	.LBE288:
 1153              	.LBB289:
 1154              	.LBB284:
 367:..\..\..\lvgl\version_6.1.2\lvgl\src\lv_themes/lv_theme_material.c ****     ina_days.text.color = lv_color_hsv_to_rgb(_hue, 0, 70);
 1155              		.loc 1 367 0
 1156 0684 3146     		mov	r1, r6
 1157 0686 4846     		mov	r0, r9
 1158              	.LBE284:
 1159              	.LBE289:
 1160              	.LBB290:
 1161              	.LBB271:
 344:..\..\..\lvgl\version_6.1.2\lvgl\src\lv_themes/lv_theme_material.c **** #endif
 1162              		.loc 1 344 0
 1163 0688 2367     		str	r3, [r4, #112]
 1164              	.LBE271:
 1165              	.LBE290:
 1166              	.LBB291:
 1167              	.LBB292:
 352:..\..\..\lvgl\version_6.1.2\lvgl\src\lv_themes/lv_theme_material.c **** #endif
 1168              		.loc 1 352 0
 1169 068a 6367     		str	r3, [r4, #116]
 1170              	.LBE292:
 1171              	.LBE291:
 1172              	.LBB293:
 1173              	.LBB272:
 339:..\..\..\lvgl\version_6.1.2\lvgl\src\lv_themes/lv_theme_material.c ****     arc.body.padding.right  = 0;
 1174              		.loc 1 339 0
 1175 068c A4F8A489 		strh	r8, [r4, #2468]	@ movhi
 340:..\..\..\lvgl\version_6.1.2\lvgl\src\lv_themes/lv_theme_material.c ****     arc.body.padding.top    = 0;
 1176              		.loc 1 340 0
 1177 0690 A4F8A689 		strh	r8, [r4, #2470]	@ movhi
 341:..\..\..\lvgl\version_6.1.2\lvgl\src\lv_themes/lv_theme_material.c ****     arc.body.padding.bottom = 0;
 1178              		.loc 1 341 0
 1179 0694 A4F8A089 		strh	r8, [r4, #2464]	@ movhi
 342:..\..\..\lvgl\version_6.1.2\lvgl\src\lv_themes/lv_theme_material.c **** 
 1180              		.loc 1 342 0
 1181 0698 A4F8A289 		strh	r8, [r4, #2466]	@ movhi
 1182              	.LBE272:
 1183              	.LBE293:
 1184              	.LBB294:
 1185              	.LBB285:
 367:..\..\..\lvgl\version_6.1.2\lvgl\src\lv_themes/lv_theme_material.c ****     ina_days.text.color = lv_color_hsv_to_rgb(_hue, 0, 70);
 1186              		.loc 1 367 0
 1187 069c FFF7FEFF 		bl	lv_style_copy
 1188              	.LVL57:
 368:..\..\..\lvgl\version_6.1.2\lvgl\src\lv_themes/lv_theme_material.c **** 
 1189              		.loc 1 368 0
 1190 06a0 4146     		mov	r1, r8
 1191 06a2 4622     		movs	r2, #70
 1192 06a4 B4F8A801 		ldrh	r0, [r4, #424]
ARM GAS  C:\Users\pearlstl\AppData\Local\Temp\cc5dErme.s 			page 43


 1193 06a8 FFF7FEFF 		bl	lv_color_hsv_to_rgb
 1194              	.LVL58:
 371:..\..\..\lvgl\version_6.1.2\lvgl\src\lv_themes/lv_theme_material.c ****     high_days.text.color = lv_color_hsv_to_rgb(_hue, 80, 90);
 1195              		.loc 1 371 0
 1196 06ac 3146     		mov	r1, r6
 368:..\..\..\lvgl\version_6.1.2\lvgl\src\lv_themes/lv_theme_material.c **** 
 1197              		.loc 1 368 0
 1198 06ae C4F8FC09 		str	r0, [r4, #2556]
 371:..\..\..\lvgl\version_6.1.2\lvgl\src\lv_themes/lv_theme_material.c ****     high_days.text.color = lv_color_hsv_to_rgb(_hue, 80, 90);
 1199              		.loc 1 371 0
 1200 06b2 06F50760 		add	r0, r6, #2160
 1201 06b6 FFF7FEFF 		bl	lv_style_copy
 1202              	.LVL59:
 372:..\..\..\lvgl\version_6.1.2\lvgl\src\lv_themes/lv_theme_material.c **** 
 1203              		.loc 1 372 0
 1204 06ba 5A22     		movs	r2, #90
 1205 06bc 5021     		movs	r1, #80
 1206 06be B4F8A801 		ldrh	r0, [r4, #424]
 1207 06c2 FFF7FEFF 		bl	lv_color_hsv_to_rgb
 1208              	.LVL60:
 375:..\..\..\lvgl\version_6.1.2\lvgl\src\lv_themes/lv_theme_material.c ****     week_box.body.main_color     = lv_color_hsv_to_rgb(_hue, 40, 100);
 1209              		.loc 1 375 0
 1210 06c6 3146     		mov	r1, r6
 372:..\..\..\lvgl\version_6.1.2\lvgl\src\lv_themes/lv_theme_material.c **** 
 1211              		.loc 1 372 0
 1212 06c8 C4F84C0A 		str	r0, [r4, #2636]
 375:..\..\..\lvgl\version_6.1.2\lvgl\src\lv_themes/lv_theme_material.c ****     week_box.body.main_color     = lv_color_hsv_to_rgb(_hue, 40, 100);
 1213              		.loc 1 375 0
 1214 06cc 06F50C60 		add	r0, r6, #2240
 1215 06d0 FFF7FEFF 		bl	lv_style_copy
 1216              	.LVL61:
 376:..\..\..\lvgl\version_6.1.2\lvgl\src\lv_themes/lv_theme_material.c ****     week_box.body.grad_color     = lv_color_hsv_to_rgb(_hue, 40, 100);
 1217              		.loc 1 376 0
 1218 06d4 6422     		movs	r2, #100
 1219 06d6 2821     		movs	r1, #40
 1220 06d8 B4F8A801 		ldrh	r0, [r4, #424]
 1221 06dc FFF7FEFF 		bl	lv_color_hsv_to_rgb
 1222              	.LVL62:
 377:..\..\..\lvgl\version_6.1.2\lvgl\src\lv_themes/lv_theme_material.c ****     week_box.body.padding.top    = LV_DPI / 20;
 1223              		.loc 1 377 0
 1224 06e0 6422     		movs	r2, #100
 376:..\..\..\lvgl\version_6.1.2\lvgl\src\lv_themes/lv_theme_material.c ****     week_box.body.grad_color     = lv_color_hsv_to_rgb(_hue, 40, 100);
 1225              		.loc 1 376 0
 1226 06e2 C4F8740A 		str	r0, [r4, #2676]
 377:..\..\..\lvgl\version_6.1.2\lvgl\src\lv_themes/lv_theme_material.c ****     week_box.body.padding.top    = LV_DPI / 20;
 1227              		.loc 1 377 0
 1228 06e6 2821     		movs	r1, #40
 1229 06e8 B4F8A801 		ldrh	r0, [r4, #424]
 1230 06ec FFF7FEFF 		bl	lv_color_hsv_to_rgb
 1231              	.LVL63:
 380:..\..\..\lvgl\version_6.1.2\lvgl\src\lv_themes/lv_theme_material.c ****     week_box.body.padding.right  = theme.style.panel->body.padding.right;
 1232              		.loc 1 380 0
 1233 06f0 A368     		ldr	r3, [r4, #8]
 377:..\..\..\lvgl\version_6.1.2\lvgl\src\lv_themes/lv_theme_material.c ****     week_box.body.padding.top    = LV_DPI / 20;
 1234              		.loc 1 377 0
 1235 06f2 C4F8780A 		str	r0, [r4, #2680]
 380:..\..\..\lvgl\version_6.1.2\lvgl\src\lv_themes/lv_theme_material.c ****     week_box.body.padding.right  = theme.style.panel->body.padding.right;
ARM GAS  C:\Users\pearlstl\AppData\Local\Temp\cc5dErme.s 			page 44


 1236              		.loc 1 380 0
 1237 06f6 B3F924E0 		ldrsh	lr, [r3, #36]
 382:..\..\..\lvgl\version_6.1.2\lvgl\src\lv_themes/lv_theme_material.c ****     week_box.body.border.width   = theme.style.panel->body.border.width;
 1238              		.loc 1 382 0
 1239 06fa 1969     		ldr	r1, [r3, #16]
 381:..\..\..\lvgl\version_6.1.2\lvgl\src\lv_themes/lv_theme_material.c ****     week_box.body.border.color   = theme.style.panel->body.border.color;
 1240              		.loc 1 381 0
 1241 06fc B3F92620 		ldrsh	r2, [r3, #38]
 383:..\..\..\lvgl\version_6.1.2\lvgl\src\lv_themes/lv_theme_material.c ****     week_box.body.border.part    = LV_BORDER_LEFT | LV_BORDER_RIGHT;
 1242              		.loc 1 383 0
 1243 0700 B3F91430 		ldrsh	r3, [r3, #20]
 1244 0704 A4F8843A 		strh	r3, [r4, #2692]	@ movhi
 388:..\..\..\lvgl\version_6.1.2\lvgl\src\lv_themes/lv_theme_material.c ****     today_box.body.main_color     = LV_COLOR_WHITE;
 1245              		.loc 1 388 0
 1246 0708 04F52C6A 		add	r10, r4, #2752
 384:..\..\..\lvgl\version_6.1.2\lvgl\src\lv_themes/lv_theme_material.c ****     week_box.body.radius         = 0;
 1247              		.loc 1 384 0
 1248 070c 4FF00C03 		mov	r3, #12
 382:..\..\..\lvgl\version_6.1.2\lvgl\src\lv_themes/lv_theme_material.c ****     week_box.body.border.width   = theme.style.panel->body.border.width;
 1249              		.loc 1 382 0
 1250 0710 C4F8801A 		str	r1, [r4, #2688]
 388:..\..\..\lvgl\version_6.1.2\lvgl\src\lv_themes/lv_theme_material.c ****     today_box.body.main_color     = LV_COLOR_WHITE;
 1251              		.loc 1 388 0
 1252 0714 5046     		mov	r0, r10
 1253 0716 3146     		mov	r1, r6
 384:..\..\..\lvgl\version_6.1.2\lvgl\src\lv_themes/lv_theme_material.c ****     week_box.body.radius         = 0;
 1254              		.loc 1 384 0
 1255 0718 84F8863A 		strb	r3, [r4, #2694]
 378:..\..\..\lvgl\version_6.1.2\lvgl\src\lv_themes/lv_theme_material.c ****     week_box.body.padding.bottom = LV_DPI / 20;
 1256              		.loc 1 378 0
 1257 071c 4FF00703 		mov	r3, #7	@ movhi
 380:..\..\..\lvgl\version_6.1.2\lvgl\src\lv_themes/lv_theme_material.c ****     week_box.body.padding.right  = theme.style.panel->body.padding.right;
 1258              		.loc 1 380 0
 1259 0720 A4F894EA 		strh	lr, [r4, #2708]	@ movhi
 381:..\..\..\lvgl\version_6.1.2\lvgl\src\lv_themes/lv_theme_material.c ****     week_box.body.border.color   = theme.style.panel->body.border.color;
 1260              		.loc 1 381 0
 1261 0724 A4F8962A 		strh	r2, [r4, #2710]	@ movhi
 378:..\..\..\lvgl\version_6.1.2\lvgl\src\lv_themes/lv_theme_material.c ****     week_box.body.padding.bottom = LV_DPI / 20;
 1262              		.loc 1 378 0
 1263 0728 A4F8903A 		strh	r3, [r4, #2704]	@ movhi
 379:..\..\..\lvgl\version_6.1.2\lvgl\src\lv_themes/lv_theme_material.c ****     week_box.body.padding.left   = theme.style.panel->body.padding.left;
 1264              		.loc 1 379 0
 1265 072c A4F8923A 		strh	r3, [r4, #2706]	@ movhi
 385:..\..\..\lvgl\version_6.1.2\lvgl\src\lv_themes/lv_theme_material.c **** 
 1266              		.loc 1 385 0
 1267 0730 A4F87C8A 		strh	r8, [r4, #2684]	@ movhi
 388:..\..\..\lvgl\version_6.1.2\lvgl\src\lv_themes/lv_theme_material.c ****     today_box.body.main_color     = LV_COLOR_WHITE;
 1268              		.loc 1 388 0
 1269 0734 FFF7FEFF 		bl	lv_style_copy
 1270              	.LVL64:
 395:..\..\..\lvgl\version_6.1.2\lvgl\src\lv_themes/lv_theme_material.c ****     theme.style.calendar.header           = &lv_style_transp;
 1271              		.loc 1 395 0
 1272 0738 A368     		ldr	r3, [r4, #8]
 397:..\..\..\lvgl\version_6.1.2\lvgl\src\lv_themes/lv_theme_material.c ****     theme.style.calendar.highlighted_days = &high_days;
 1273              		.loc 1 397 0
 1274 073a C4F8A090 		str	r9, [r4, #160]
 391:..\..\..\lvgl\version_6.1.2\lvgl\src\lv_themes/lv_theme_material.c ****     today_box.body.padding.bottom = LV_DPI / 20;
ARM GAS  C:\Users\pearlstl\AppData\Local\Temp\cc5dErme.s 			page 45


 1275              		.loc 1 391 0
 1276 073e 4FF00702 		mov	r2, #7	@ movhi
 1277              	.LBE285:
 1278              	.LBE294:
 1279              	.LBB295:
 1280              	.LBB296:
 408:..\..\..\lvgl\version_6.1.2\lvgl\src\lv_themes/lv_theme_material.c ****     rel.body.shadow.type  = LV_SHADOW_BOTTOM;
 1281              		.loc 1 408 0
 1282 0742 04F53169 		add	r9, r4, #2832
 1283              	.LBE296:
 1284              	.LBE295:
 1285              	.LBB301:
 1286              	.LBB286:
 391:..\..\..\lvgl\version_6.1.2\lvgl\src\lv_themes/lv_theme_material.c ****     today_box.body.padding.bottom = LV_DPI / 20;
 1287              		.loc 1 391 0
 1288 0746 A4F8E02A 		strh	r2, [r4, #2784]	@ movhi
 392:..\..\..\lvgl\version_6.1.2\lvgl\src\lv_themes/lv_theme_material.c ****     today_box.body.radius         = 0;
 1289              		.loc 1 392 0
 1290 074a A4F8E22A 		strh	r2, [r4, #2786]	@ movhi
 398:..\..\..\lvgl\version_6.1.2\lvgl\src\lv_themes/lv_theme_material.c ****     theme.style.calendar.week_box         = &week_box;
 1291              		.loc 1 398 0
 1292 074e A9F1F002 		sub	r2, r9, #240
 1293              	.LBE286:
 1294              	.LBE301:
 1295              	.LBB302:
 1296              	.LBB297:
 408:..\..\..\lvgl\version_6.1.2\lvgl\src\lv_themes/lv_theme_material.c ****     rel.body.shadow.type  = LV_SHADOW_BOTTOM;
 1297              		.loc 1 408 0
 1298 0752 1946     		mov	r1, r3
 1299 0754 4846     		mov	r0, r9
 1300              	.LBE297:
 1301              	.LBE302:
 1302              	.LBB303:
 1303              	.LBB287:
 398:..\..\..\lvgl\version_6.1.2\lvgl\src\lv_themes/lv_theme_material.c ****     theme.style.calendar.week_box         = &week_box;
 1304              		.loc 1 398 0
 1305 0756 C4F89C20 		str	r2, [r4, #156]
 395:..\..\..\lvgl\version_6.1.2\lvgl\src\lv_themes/lv_theme_material.c ****     theme.style.calendar.header           = &lv_style_transp;
 1306              		.loc 1 395 0
 1307 075a C4F88C30 		str	r3, [r4, #140]
 399:..\..\..\lvgl\version_6.1.2\lvgl\src\lv_themes/lv_theme_material.c ****     theme.style.calendar.today_box        = &today_box;
 1308              		.loc 1 399 0
 1309 075e A9F1A002 		sub	r2, r9, #160
 396:..\..\..\lvgl\version_6.1.2\lvgl\src\lv_themes/lv_theme_material.c ****     theme.style.calendar.inactive_days    = &ina_days;
 1310              		.loc 1 396 0
 1311 0762 F54B     		ldr	r3, .L10
 399:..\..\..\lvgl\version_6.1.2\lvgl\src\lv_themes/lv_theme_material.c ****     theme.style.calendar.today_box        = &today_box;
 1312              		.loc 1 399 0
 1313 0764 C4F8A420 		str	r2, [r4, #164]
 400:..\..\..\lvgl\version_6.1.2\lvgl\src\lv_themes/lv_theme_material.c **** #endif
 1314              		.loc 1 400 0
 1315 0768 C4F8A8A0 		str	r10, [r4, #168]
 396:..\..\..\lvgl\version_6.1.2\lvgl\src\lv_themes/lv_theme_material.c ****     theme.style.calendar.inactive_days    = &ina_days;
 1316              		.loc 1 396 0
 1317 076c C4F89030 		str	r3, [r4, #144]
 389:..\..\..\lvgl\version_6.1.2\lvgl\src\lv_themes/lv_theme_material.c ****     today_box.body.grad_color     = LV_COLOR_WHITE;
 1318              		.loc 1 389 0
ARM GAS  C:\Users\pearlstl\AppData\Local\Temp\cc5dErme.s 			page 46


 1319 0770 84F8C4BA 		strb	fp, [r4, #2756]
 1320 0774 84F8C5BA 		strb	fp, [r4, #2757]
 1321 0778 84F8C6BA 		strb	fp, [r4, #2758]
 1322 077c 84F8C7BA 		strb	fp, [r4, #2759]
 390:..\..\..\lvgl\version_6.1.2\lvgl\src\lv_themes/lv_theme_material.c ****     today_box.body.padding.top    = LV_DPI / 20;
 1323              		.loc 1 390 0
 1324 0780 84F8C8BA 		strb	fp, [r4, #2760]
 1325 0784 84F8C9BA 		strb	fp, [r4, #2761]
 1326 0788 84F8CABA 		strb	fp, [r4, #2762]
 1327 078c 84F8CBBA 		strb	fp, [r4, #2763]
 393:..\..\..\lvgl\version_6.1.2\lvgl\src\lv_themes/lv_theme_material.c **** 
 1328              		.loc 1 393 0
 1329 0790 A4F8CC8A 		strh	r8, [r4, #2764]	@ movhi
 1330              	.LBE287:
 1331              	.LBE303:
 1332              	.LBB304:
 1333              	.LBB298:
 408:..\..\..\lvgl\version_6.1.2\lvgl\src\lv_themes/lv_theme_material.c ****     rel.body.shadow.type  = LV_SHADOW_BOTTOM;
 1334              		.loc 1 408 0
 1335 0794 FFF7FEFF 		bl	lv_style_copy
 1336              	.LVL65:
 412:..\..\..\lvgl\version_6.1.2\lvgl\src\lv_themes/lv_theme_material.c ****     pr.body.main_color   = lv_color_hex3(0xccc);
 1337              		.loc 1 412 0
 1338 0798 4946     		mov	r1, r9
 1339 079a 09F15000 		add	r0, r9, #80
 410:..\..\..\lvgl\version_6.1.2\lvgl\src\lv_themes/lv_theme_material.c **** 
 1340              		.loc 1 410 0
 1341 079e 4FF00303 		mov	r3, #3	@ movhi
 1342 07a2 A4F82C3B 		strh	r3, [r4, #2860]	@ movhi
 409:..\..\..\lvgl\version_6.1.2\lvgl\src\lv_themes/lv_theme_material.c ****     rel.body.shadow.width = 3;
 1343              		.loc 1 409 0
 1344 07a6 84F82E8B 		strb	r8, [r4, #2862]
 412:..\..\..\lvgl\version_6.1.2\lvgl\src\lv_themes/lv_theme_material.c ****     pr.body.main_color   = lv_color_hex3(0xccc);
 1345              		.loc 1 412 0
 1346 07aa FFF7FEFF 		bl	lv_style_copy
 1347              	.LVL66:
 413:..\..\..\lvgl\version_6.1.2\lvgl\src\lv_themes/lv_theme_material.c ****     pr.body.grad_color   = pr.body.main_color;
 1348              		.loc 1 413 0
 1349 07ae 6FF03303 		mvn	r3, #51
 417:..\..\..\lvgl\version_6.1.2\lvgl\src\lv_themes/lv_theme_material.c ****     tgl_rel.body.main_color   = lv_color_hsv_to_rgb(_hue, 75, 85);
 1350              		.loc 1 417 0
 1351 07b2 04F53B6A 		add	r10, r4, #2992
 413:..\..\..\lvgl\version_6.1.2\lvgl\src\lv_themes/lv_theme_material.c ****     pr.body.grad_color   = pr.body.main_color;
 1352              		.loc 1 413 0
 1353 07b6 84F8643B 		strb	r3, [r4, #2916]
 1354 07ba 84F8653B 		strb	r3, [r4, #2917]
 1355 07be 84F8663B 		strb	r3, [r4, #2918]
 1356 07c2 84F867BB 		strb	fp, [r4, #2919]
 414:..\..\..\lvgl\version_6.1.2\lvgl\src\lv_themes/lv_theme_material.c ****     pr.body.shadow.width = 0;
 1357              		.loc 1 414 0
 1358 07c6 D4F8643B 		ldr	r3, [r4, #2916]
 1359 07ca C4F8683B 		str	r3, [r4, #2920]
 417:..\..\..\lvgl\version_6.1.2\lvgl\src\lv_themes/lv_theme_material.c ****     tgl_rel.body.main_color   = lv_color_hsv_to_rgb(_hue, 75, 85);
 1360              		.loc 1 417 0
 1361 07ce 4946     		mov	r1, r9
 1362 07d0 5046     		mov	r0, r10
 415:..\..\..\lvgl\version_6.1.2\lvgl\src\lv_themes/lv_theme_material.c **** 
ARM GAS  C:\Users\pearlstl\AppData\Local\Temp\cc5dErme.s 			page 47


 1363              		.loc 1 415 0
 1364 07d2 A4F87C8B 		strh	r8, [r4, #2940]	@ movhi
 417:..\..\..\lvgl\version_6.1.2\lvgl\src\lv_themes/lv_theme_material.c ****     tgl_rel.body.main_color   = lv_color_hsv_to_rgb(_hue, 75, 85);
 1365              		.loc 1 417 0
 1366 07d6 FFF7FEFF 		bl	lv_style_copy
 1367              	.LVL67:
 418:..\..\..\lvgl\version_6.1.2\lvgl\src\lv_themes/lv_theme_material.c ****     tgl_rel.body.grad_color   = tgl_rel.body.main_color;
 1368              		.loc 1 418 0
 1369 07da 5522     		movs	r2, #85
 1370 07dc 4B21     		movs	r1, #75
 1371 07de B4F8A801 		ldrh	r0, [r4, #424]
 1372 07e2 FFF7FEFF 		bl	lv_color_hsv_to_rgb
 1373              	.LVL68:
 420:..\..\..\lvgl\version_6.1.2\lvgl\src\lv_themes/lv_theme_material.c ****     tgl_rel.body.shadow.width = 0;
 1374              		.loc 1 420 0
 1375 07e6 4FF00103 		mov	r3, #1
 418:..\..\..\lvgl\version_6.1.2\lvgl\src\lv_themes/lv_theme_material.c ****     tgl_rel.body.grad_color   = tgl_rel.body.main_color;
 1376              		.loc 1 418 0
 1377 07ea C4F8B40B 		str	r0, [r4, #2996]
 419:..\..\..\lvgl\version_6.1.2\lvgl\src\lv_themes/lv_theme_material.c ****     tgl_rel.body.shadow.type  = LV_SHADOW_FULL;
 1378              		.loc 1 419 0
 1379 07ee C4F8B80B 		str	r0, [r4, #3000]
 423:..\..\..\lvgl\version_6.1.2\lvgl\src\lv_themes/lv_theme_material.c ****     tgl_pr.body.main_color   = lv_color_hsv_to_rgb(_hue, 75, 65);
 1380              		.loc 1 423 0
 1381 07f2 5146     		mov	r1, r10
 1382 07f4 0AF15000 		add	r0, r10, #80
 420:..\..\..\lvgl\version_6.1.2\lvgl\src\lv_themes/lv_theme_material.c ****     tgl_rel.body.shadow.width = 0;
 1383              		.loc 1 420 0
 1384 07f8 84F8CE3B 		strb	r3, [r4, #3022]
 421:..\..\..\lvgl\version_6.1.2\lvgl\src\lv_themes/lv_theme_material.c **** 
 1385              		.loc 1 421 0
 1386 07fc A4F8CC8B 		strh	r8, [r4, #3020]	@ movhi
 423:..\..\..\lvgl\version_6.1.2\lvgl\src\lv_themes/lv_theme_material.c ****     tgl_pr.body.main_color   = lv_color_hsv_to_rgb(_hue, 75, 65);
 1387              		.loc 1 423 0
 1388 0800 FFF7FEFF 		bl	lv_style_copy
 1389              	.LVL69:
 424:..\..\..\lvgl\version_6.1.2\lvgl\src\lv_themes/lv_theme_material.c ****     tgl_pr.body.grad_color   = tgl_pr.body.main_color;
 1390              		.loc 1 424 0
 1391 0804 4122     		movs	r2, #65
 1392 0806 4B21     		movs	r1, #75
 1393 0808 B4F8A801 		ldrh	r0, [r4, #424]
 1394 080c FFF7FEFF 		bl	lv_color_hsv_to_rgb
 1395              	.LVL70:
 428:..\..\..\lvgl\version_6.1.2\lvgl\src\lv_themes/lv_theme_material.c **** 
 1396              		.loc 1 428 0
 1397 0810 04F54563 		add	r3, r4, #3152
 424:..\..\..\lvgl\version_6.1.2\lvgl\src\lv_themes/lv_theme_material.c ****     tgl_pr.body.grad_color   = tgl_pr.body.main_color;
 1398              		.loc 1 424 0
 1399 0814 C4F8040C 		str	r0, [r4, #3076]
 425:..\..\..\lvgl\version_6.1.2\lvgl\src\lv_themes/lv_theme_material.c ****     tgl_pr.body.shadow.width = 0;
 1400              		.loc 1 425 0
 1401 0818 C4F8080C 		str	r0, [r4, #3080]
 428:..\..\..\lvgl\version_6.1.2\lvgl\src\lv_themes/lv_theme_material.c **** 
 1402              		.loc 1 428 0
 1403 081c 216A     		ldr	r1, [r4, #32]
 1404 081e 0093     		str	r3, [sp]
 1405 0820 1846     		mov	r0, r3
ARM GAS  C:\Users\pearlstl\AppData\Local\Temp\cc5dErme.s 			page 48


 426:..\..\..\lvgl\version_6.1.2\lvgl\src\lv_themes/lv_theme_material.c **** 
 1406              		.loc 1 426 0
 1407 0822 A4F81C8C 		strh	r8, [r4, #3100]	@ movhi
 428:..\..\..\lvgl\version_6.1.2\lvgl\src\lv_themes/lv_theme_material.c **** 
 1408              		.loc 1 428 0
 1409 0826 FFF7FEFF 		bl	lv_style_copy
 1410              	.LVL71:
 1411              	.LBE298:
 1412              	.LBE304:
 1413              	.LBB305:
 1414              	.LBB306:
 444:..\..\..\lvgl\version_6.1.2\lvgl\src\lv_themes/lv_theme_material.c ****     bg.body.padding.left   = 0;
 1415              		.loc 1 444 0
 1416 082a 04F54A60 		add	r0, r4, #3232
 1417              	.LBE306:
 1418              	.LBE305:
 1419              	.LBB313:
 1420              	.LBB299:
 432:..\..\..\lvgl\version_6.1.2\lvgl\src\lv_themes/lv_theme_material.c ****     theme.style.cb.box.tgl_rel = &tgl_rel;
 1421              		.loc 1 432 0
 1422 082e A0F5A073 		sub	r3, r0, #320
 1423 0832 C4F8B430 		str	r3, [r4, #180]
 430:..\..\..\lvgl\version_6.1.2\lvgl\src\lv_themes/lv_theme_material.c ****     theme.style.cb.box.rel     = &rel;
 1424              		.loc 1 430 0
 1425 0836 C04B     		ldr	r3, .L10
 1426 0838 C4F8AC30 		str	r3, [r4, #172]
 434:..\..\..\lvgl\version_6.1.2\lvgl\src\lv_themes/lv_theme_material.c ****     theme.style.cb.box.ina     = &ina;
 1427              		.loc 1 434 0
 1428 083c A0F1A003 		sub	r3, r0, #160
 1429              	.LBE299:
 1430              	.LBE313:
 1431              	.LBB314:
 1432              	.LBB307:
 444:..\..\..\lvgl\version_6.1.2\lvgl\src\lv_themes/lv_theme_material.c ****     bg.body.padding.left   = 0;
 1433              		.loc 1 444 0
 1434 0840 A168     		ldr	r1, [r4, #8]
 1435              	.LBE307:
 1436              	.LBE314:
 1437              	.LBB315:
 1438              	.LBB300:
 434:..\..\..\lvgl\version_6.1.2\lvgl\src\lv_themes/lv_theme_material.c ****     theme.style.cb.box.ina     = &ina;
 1439              		.loc 1 434 0
 1440 0842 C4F8BC30 		str	r3, [r4, #188]
 435:..\..\..\lvgl\version_6.1.2\lvgl\src\lv_themes/lv_theme_material.c **** #endif
 1441              		.loc 1 435 0
 1442 0846 009B     		ldr	r3, [sp]
 1443 0848 C4F8C030 		str	r3, [r4, #192]
 431:..\..\..\lvgl\version_6.1.2\lvgl\src\lv_themes/lv_theme_material.c ****     theme.style.cb.box.pr      = &pr;
 1444              		.loc 1 431 0
 1445 084c C4F8B090 		str	r9, [r4, #176]
 433:..\..\..\lvgl\version_6.1.2\lvgl\src\lv_themes/lv_theme_material.c ****     theme.style.cb.box.tgl_pr  = &tgl_pr;
 1446              		.loc 1 433 0
 1447 0850 C4F8B8A0 		str	r10, [r4, #184]
 1448              	.LBE300:
 1449              	.LBE315:
 1450              	.LBB316:
 1451              	.LBB308:
ARM GAS  C:\Users\pearlstl\AppData\Local\Temp\cc5dErme.s 			page 49


 444:..\..\..\lvgl\version_6.1.2\lvgl\src\lv_themes/lv_theme_material.c ****     bg.body.padding.left   = 0;
 1452              		.loc 1 444 0
 1453 0854 FFF7FEFF 		bl	lv_style_copy
 1454              	.LVL72:
 450:..\..\..\lvgl\version_6.1.2\lvgl\src\lv_themes/lv_theme_material.c **** 
 1455              		.loc 1 450 0
 1456 0858 4FF0550A 		mov	r10, #85
 452:..\..\..\lvgl\version_6.1.2\lvgl\src\lv_themes/lv_theme_material.c ****     rel.body.border.part  = LV_BORDER_FULL | LV_BORDER_INTERNAL;
 1457              		.loc 1 452 0
 1458 085c 04F54F60 		add	r0, r4, #3312
 1459 0860 A168     		ldr	r1, [r4, #8]
 450:..\..\..\lvgl\version_6.1.2\lvgl\src\lv_themes/lv_theme_material.c **** 
 1460              		.loc 1 450 0
 1461 0862 84F8CCAC 		strb	r10, [r4, #3276]
 459:..\..\..\lvgl\version_6.1.2\lvgl\src\lv_themes/lv_theme_material.c ****     pr.glass             = 0;
 1462              		.loc 1 459 0
 1463 0866 04F55469 		add	r9, r4, #3392
 450:..\..\..\lvgl\version_6.1.2\lvgl\src\lv_themes/lv_theme_material.c **** 
 1464              		.loc 1 450 0
 1465 086a 84F8CDAC 		strb	r10, [r4, #3277]
 1466 086e 84F8CEAC 		strb	r10, [r4, #3278]
 445:..\..\..\lvgl\version_6.1.2\lvgl\src\lv_themes/lv_theme_material.c ****     bg.body.padding.right  = 0;
 1467              		.loc 1 445 0
 1468 0872 A4F8C48C 		strh	r8, [r4, #3268]	@ movhi
 446:..\..\..\lvgl\version_6.1.2\lvgl\src\lv_themes/lv_theme_material.c ****     bg.body.padding.top    = 0;
 1469              		.loc 1 446 0
 1470 0876 A4F8C68C 		strh	r8, [r4, #3270]	@ movhi
 447:..\..\..\lvgl\version_6.1.2\lvgl\src\lv_themes/lv_theme_material.c ****     bg.body.padding.bottom = 0;
 1471              		.loc 1 447 0
 1472 087a A4F8C08C 		strh	r8, [r4, #3264]	@ movhi
 448:..\..\..\lvgl\version_6.1.2\lvgl\src\lv_themes/lv_theme_material.c ****     bg.body.padding.inner  = 0;
 1473              		.loc 1 448 0
 1474 087e A4F8C28C 		strh	r8, [r4, #3266]	@ movhi
 449:..\..\..\lvgl\version_6.1.2\lvgl\src\lv_themes/lv_theme_material.c ****     bg.text.color          = lv_color_hex3(0x555);
 1475              		.loc 1 449 0
 1476 0882 A4F8C88C 		strh	r8, [r4, #3272]	@ movhi
 450:..\..\..\lvgl\version_6.1.2\lvgl\src\lv_themes/lv_theme_material.c **** 
 1477              		.loc 1 450 0
 1478 0886 84F8CFBC 		strb	fp, [r4, #3279]
 452:..\..\..\lvgl\version_6.1.2\lvgl\src\lv_themes/lv_theme_material.c ****     rel.body.border.part  = LV_BORDER_FULL | LV_BORDER_INTERNAL;
 1479              		.loc 1 452 0
 1480 088a FFF7FEFF 		bl	lv_style_copy
 1481              	.LVL73:
 453:..\..\..\lvgl\version_6.1.2\lvgl\src\lv_themes/lv_theme_material.c ****     rel.body.border.width = 1;
 1482              		.loc 1 453 0
 1483 088e 1F23     		movs	r3, #31
 454:..\..\..\lvgl\version_6.1.2\lvgl\src\lv_themes/lv_theme_material.c ****     rel.body.border.color = lv_color_hex3(0xbbb);
 1484              		.loc 1 454 0
 1485 0890 4FF00102 		mov	r2, #1	@ movhi
 459:..\..\..\lvgl\version_6.1.2\lvgl\src\lv_themes/lv_theme_material.c ****     pr.glass             = 0;
 1486              		.loc 1 459 0
 1487 0894 04F54F61 		add	r1, r4, #3312
 1488 0898 4846     		mov	r0, r9
 454:..\..\..\lvgl\version_6.1.2\lvgl\src\lv_themes/lv_theme_material.c ****     rel.body.border.color = lv_color_hex3(0xbbb);
 1489              		.loc 1 454 0
 1490 089a A4F8042D 		strh	r2, [r4, #3332]	@ movhi
 453:..\..\..\lvgl\version_6.1.2\lvgl\src\lv_themes/lv_theme_material.c ****     rel.body.border.width = 1;
ARM GAS  C:\Users\pearlstl\AppData\Local\Temp\cc5dErme.s 			page 50


 1491              		.loc 1 453 0
 1492 089e 84F8063D 		strb	r3, [r4, #3334]
 455:..\..\..\lvgl\version_6.1.2\lvgl\src\lv_themes/lv_theme_material.c ****     rel.body.opa          = LV_OPA_TRANSP;
 1493              		.loc 1 455 0
 1494 08a2 6FF04402 		mvn	r2, #68
 461:..\..\..\lvgl\version_6.1.2\lvgl\src\lv_themes/lv_theme_material.c ****     pr.body.grad_color   = pr.body.main_color;
 1495              		.loc 1 461 0
 1496 08a6 DD23     		movs	r3, #221
 455:..\..\..\lvgl\version_6.1.2\lvgl\src\lv_themes/lv_theme_material.c ****     rel.body.opa          = LV_OPA_TRANSP;
 1497              		.loc 1 455 0
 1498 08a8 84F8002D 		strb	r2, [r4, #3328]
 1499 08ac 84F8012D 		strb	r2, [r4, #3329]
 1500 08b0 84F8022D 		strb	r2, [r4, #3330]
 461:..\..\..\lvgl\version_6.1.2\lvgl\src\lv_themes/lv_theme_material.c ****     pr.body.grad_color   = pr.body.main_color;
 1501              		.loc 1 461 0
 1502 08b4 0093     		str	r3, [sp]
 455:..\..\..\lvgl\version_6.1.2\lvgl\src\lv_themes/lv_theme_material.c ****     rel.body.opa          = LV_OPA_TRANSP;
 1503              		.loc 1 455 0
 1504 08b6 84F803BD 		strb	fp, [r4, #3331]
 456:..\..\..\lvgl\version_6.1.2\lvgl\src\lv_themes/lv_theme_material.c ****     rel.body.shadow.width = 0;
 1505              		.loc 1 456 0
 1506 08ba 84F8FE8C 		strb	r8, [r4, #3326]
 457:..\..\..\lvgl\version_6.1.2\lvgl\src\lv_themes/lv_theme_material.c **** 
 1507              		.loc 1 457 0
 1508 08be A4F80C8D 		strh	r8, [r4, #3340]	@ movhi
 459:..\..\..\lvgl\version_6.1.2\lvgl\src\lv_themes/lv_theme_material.c ****     pr.glass             = 0;
 1509              		.loc 1 459 0
 1510 08c2 FFF7FEFF 		bl	lv_style_copy
 1511              	.LVL74:
 461:..\..\..\lvgl\version_6.1.2\lvgl\src\lv_themes/lv_theme_material.c ****     pr.body.grad_color   = pr.body.main_color;
 1512              		.loc 1 461 0
 1513 08c6 009B     		ldr	r3, [sp]
 460:..\..\..\lvgl\version_6.1.2\lvgl\src\lv_themes/lv_theme_material.c ****     pr.body.main_color   = lv_color_hex3(0xddd);
 1514              		.loc 1 460 0
 1515 08c8 94F840ED 		ldrb	lr, [r4, #3392]	@ zero_extendqisi2
 461:..\..\..\lvgl\version_6.1.2\lvgl\src\lv_themes/lv_theme_material.c ****     pr.body.grad_color   = pr.body.main_color;
 1516              		.loc 1 461 0
 1517 08cc 84F8443D 		strb	r3, [r4, #3396]
 1518 08d0 84F8453D 		strb	r3, [r4, #3397]
 1519 08d4 84F8463D 		strb	r3, [r4, #3398]
 1520 08d8 84F847BD 		strb	fp, [r4, #3399]
 460:..\..\..\lvgl\version_6.1.2\lvgl\src\lv_themes/lv_theme_material.c ****     pr.body.main_color   = lv_color_hex3(0xddd);
 1521              		.loc 1 460 0
 1522 08dc 68F3000E 		bfi	lr, r8, #0, #1
 462:..\..\..\lvgl\version_6.1.2\lvgl\src\lv_themes/lv_theme_material.c ****     pr.body.border.width = 0;
 1523              		.loc 1 462 0
 1524 08e0 D4F8442D 		ldr	r2, [r4, #3396]
 460:..\..\..\lvgl\version_6.1.2\lvgl\src\lv_themes/lv_theme_material.c ****     pr.body.main_color   = lv_color_hex3(0xddd);
 1525              		.loc 1 460 0
 1526 08e4 84F840ED 		strb	lr, [r4, #3392]
 466:..\..\..\lvgl\version_6.1.2\lvgl\src\lv_themes/lv_theme_material.c ****     tgl_rel.body.main_color = lv_color_hsv_to_rgb(_hue, 90, 70);
 1527              		.loc 1 466 0
 1528 08e8 4946     		mov	r1, r9
 1529 08ea 09F15000 		add	r0, r9, #80
 461:..\..\..\lvgl\version_6.1.2\lvgl\src\lv_themes/lv_theme_material.c ****     pr.body.grad_color   = pr.body.main_color;
 1530              		.loc 1 461 0
 1531 08ee 0193     		str	r3, [sp, #4]
ARM GAS  C:\Users\pearlstl\AppData\Local\Temp\cc5dErme.s 			page 51


 462:..\..\..\lvgl\version_6.1.2\lvgl\src\lv_themes/lv_theme_material.c ****     pr.body.border.width = 0;
 1532              		.loc 1 462 0
 1533 08f0 C4F8482D 		str	r2, [r4, #3400]
 463:..\..\..\lvgl\version_6.1.2\lvgl\src\lv_themes/lv_theme_material.c ****     pr.body.opa          = LV_OPA_COVER;
 1534              		.loc 1 463 0
 1535 08f4 A4F8548D 		strh	r8, [r4, #3412]	@ movhi
 464:..\..\..\lvgl\version_6.1.2\lvgl\src\lv_themes/lv_theme_material.c **** 
 1536              		.loc 1 464 0
 1537 08f8 84F84EBD 		strb	fp, [r4, #3406]
 466:..\..\..\lvgl\version_6.1.2\lvgl\src\lv_themes/lv_theme_material.c ****     tgl_rel.body.main_color = lv_color_hsv_to_rgb(_hue, 90, 70);
 1538              		.loc 1 466 0
 1539 08fc FFF7FEFF 		bl	lv_style_copy
 1540              	.LVL75:
 467:..\..\..\lvgl\version_6.1.2\lvgl\src\lv_themes/lv_theme_material.c ****     tgl_rel.body.grad_color = tgl_rel.body.main_color;
 1541              		.loc 1 467 0
 1542 0900 4622     		movs	r2, #70
 1543 0902 5A21     		movs	r1, #90
 1544 0904 B4F8A801 		ldrh	r0, [r4, #424]
 1545 0908 FFF7FEFF 		bl	lv_color_hsv_to_rgb
 1546              	.LVL76:
 469:..\..\..\lvgl\version_6.1.2\lvgl\src\lv_themes/lv_theme_material.c **** 
 1547              		.loc 1 469 0
 1548 090c 5F22     		movs	r2, #95
 467:..\..\..\lvgl\version_6.1.2\lvgl\src\lv_themes/lv_theme_material.c ****     tgl_rel.body.grad_color = tgl_rel.body.main_color;
 1549              		.loc 1 467 0
 1550 090e C4F8940D 		str	r0, [r4, #3476]
 468:..\..\..\lvgl\version_6.1.2\lvgl\src\lv_themes/lv_theme_material.c ****     tgl_rel.text.color      = lv_color_hsv_to_rgb(_hue, 5, 95);
 1551              		.loc 1 468 0
 1552 0912 C4F8980D 		str	r0, [r4, #3480]
 469:..\..\..\lvgl\version_6.1.2\lvgl\src\lv_themes/lv_theme_material.c **** 
 1553              		.loc 1 469 0
 1554 0916 0521     		movs	r1, #5
 1555 0918 B4F8A801 		ldrh	r0, [r4, #424]
 1556 091c FFF7FEFF 		bl	lv_color_hsv_to_rgb
 1557              	.LVL77:
 471:..\..\..\lvgl\version_6.1.2\lvgl\src\lv_themes/lv_theme_material.c ****     tgl_pr.body.main_color   = lv_color_hsv_to_rgb(_hue, 95, 65);
 1558              		.loc 1 471 0
 1559 0920 04F55961 		add	r1, r4, #3472
 469:..\..\..\lvgl\version_6.1.2\lvgl\src\lv_themes/lv_theme_material.c **** 
 1560              		.loc 1 469 0
 1561 0924 C4F8BC0D 		str	r0, [r4, #3516]
 471:..\..\..\lvgl\version_6.1.2\lvgl\src\lv_themes/lv_theme_material.c ****     tgl_pr.body.main_color   = lv_color_hsv_to_rgb(_hue, 95, 65);
 1562              		.loc 1 471 0
 1563 0928 01F15000 		add	r0, r1, #80
 1564 092c FFF7FEFF 		bl	lv_style_copy
 1565              	.LVL78:
 472:..\..\..\lvgl\version_6.1.2\lvgl\src\lv_themes/lv_theme_material.c ****     tgl_pr.body.grad_color   = tgl_pr.body.main_color;
 1566              		.loc 1 472 0
 1567 0930 4122     		movs	r2, #65
 1568 0932 5F21     		movs	r1, #95
 1569 0934 B4F8A801 		ldrh	r0, [r4, #424]
 1570 0938 FFF7FEFF 		bl	lv_color_hsv_to_rgb
 1571              	.LVL79:
 476:..\..\..\lvgl\version_6.1.2\lvgl\src\lv_themes/lv_theme_material.c ****     ina.body.main_color = lv_color_hex3(0xccc);
 1572              		.loc 1 476 0
 1573 093c 4946     		mov	r1, r9
 472:..\..\..\lvgl\version_6.1.2\lvgl\src\lv_themes/lv_theme_material.c ****     tgl_pr.body.grad_color   = tgl_pr.body.main_color;
ARM GAS  C:\Users\pearlstl\AppData\Local\Temp\cc5dErme.s 			page 52


 1574              		.loc 1 472 0
 1575 093e C4F8E40D 		str	r0, [r4, #3556]
 473:..\..\..\lvgl\version_6.1.2\lvgl\src\lv_themes/lv_theme_material.c ****     tgl_pr.body.border.width = 0;
 1576              		.loc 1 473 0
 1577 0942 C4F8E80D 		str	r0, [r4, #3560]
 476:..\..\..\lvgl\version_6.1.2\lvgl\src\lv_themes/lv_theme_material.c ****     ina.body.main_color = lv_color_hex3(0xccc);
 1578              		.loc 1 476 0
 1579 0946 04F56360 		add	r0, r4, #3632
 474:..\..\..\lvgl\version_6.1.2\lvgl\src\lv_themes/lv_theme_material.c **** 
 1580              		.loc 1 474 0
 1581 094a A4F8F48D 		strh	r8, [r4, #3572]	@ movhi
 476:..\..\..\lvgl\version_6.1.2\lvgl\src\lv_themes/lv_theme_material.c ****     ina.body.main_color = lv_color_hex3(0xccc);
 1582              		.loc 1 476 0
 1583 094e FFF7FEFF 		bl	lv_style_copy
 1584              	.LVL80:
 477:..\..\..\lvgl\version_6.1.2\lvgl\src\lv_themes/lv_theme_material.c ****     ina.body.grad_color = ina.body.main_color;
 1585              		.loc 1 477 0
 1586 0952 6FF03303 		mvn	r3, #51
 1587 0956 84F8343E 		strb	r3, [r4, #3636]
 1588 095a 84F8353E 		strb	r3, [r4, #3637]
 1589 095e 84F8363E 		strb	r3, [r4, #3638]
 480:..\..\..\lvgl\version_6.1.2\lvgl\src\lv_themes/lv_theme_material.c ****     theme.style.btnm.btn.rel     = &rel;
 1590              		.loc 1 480 0
 1591 0962 04F54A63 		add	r3, r4, #3232
 1592 0966 C4F8C430 		str	r3, [r4, #196]
 481:..\..\..\lvgl\version_6.1.2\lvgl\src\lv_themes/lv_theme_material.c ****     theme.style.btnm.btn.pr      = &pr;
 1593              		.loc 1 481 0
 1594 096a 04F54F63 		add	r3, r4, #3312
 1595 096e C4F8C830 		str	r3, [r4, #200]
 483:..\..\..\lvgl\version_6.1.2\lvgl\src\lv_themes/lv_theme_material.c ****     theme.style.btnm.btn.tgl_pr  = &tgl_pr;
 1596              		.loc 1 483 0
 1597 0972 A033     		adds	r3, r3, #160
 1598              	.LBE308:
 1599              	.LBE316:
 1600              	.LBB317:
 1601              	.LBB318:
 494:..\..\..\lvgl\version_6.1.2\lvgl\src\lv_themes/lv_theme_material.c ****     rel.text.font = _font;
 1602              		.loc 1 494 0
 1603 0974 04F56862 		add	r2, r4, #3712
 1604              	.LBE318:
 1605              	.LBE317:
 1606              	.LBB325:
 1607              	.LBB309:
 477:..\..\..\lvgl\version_6.1.2\lvgl\src\lv_themes/lv_theme_material.c ****     ina.body.grad_color = ina.body.main_color;
 1608              		.loc 1 477 0
 1609 0978 84F837BE 		strb	fp, [r4, #3639]
 483:..\..\..\lvgl\version_6.1.2\lvgl\src\lv_themes/lv_theme_material.c ****     theme.style.btnm.btn.tgl_pr  = &tgl_pr;
 1610              		.loc 1 483 0
 1611 097c C4F8D030 		str	r3, [r4, #208]
 484:..\..\..\lvgl\version_6.1.2\lvgl\src\lv_themes/lv_theme_material.c ****     theme.style.btnm.btn.ina     = &def;
 1612              		.loc 1 484 0
 1613 0980 5033     		adds	r3, r3, #80
 1614              	.LBE309:
 1615              	.LBE325:
 1616              	.LBB326:
 1617              	.LBB319:
 494:..\..\..\lvgl\version_6.1.2\lvgl\src\lv_themes/lv_theme_material.c ****     rel.text.font = _font;
ARM GAS  C:\Users\pearlstl\AppData\Local\Temp\cc5dErme.s 			page 53


 1618              		.loc 1 494 0
 1619 0982 1046     		mov	r0, r2
 1620              	.LBE319:
 1621              	.LBE326:
 1622              	.LBB327:
 1623              	.LBB310:
 484:..\..\..\lvgl\version_6.1.2\lvgl\src\lv_themes/lv_theme_material.c ****     theme.style.btnm.btn.ina     = &def;
 1624              		.loc 1 484 0
 1625 0984 C4F8D430 		str	r3, [r4, #212]
 1626              	.LBE310:
 1627              	.LBE327:
 1628              	.LBB328:
 1629              	.LBB320:
 494:..\..\..\lvgl\version_6.1.2\lvgl\src\lv_themes/lv_theme_material.c ****     rel.text.font = _font;
 1630              		.loc 1 494 0
 1631 0988 6B49     		ldr	r1, .L10
 1632              	.LBE320:
 1633              	.LBE328:
 1634              	.LBB329:
 1635              	.LBB311:
 478:..\..\..\lvgl\version_6.1.2\lvgl\src\lv_themes/lv_theme_material.c **** 
 1636              		.loc 1 478 0
 1637 098a D4F8343E 		ldr	r3, [r4, #3636]
 1638              	.LBE311:
 1639              	.LBE329:
 1640              	.LBB330:
 1641              	.LBB321:
 494:..\..\..\lvgl\version_6.1.2\lvgl\src\lv_themes/lv_theme_material.c ****     rel.text.font = _font;
 1642              		.loc 1 494 0
 1643 098e 0092     		str	r2, [sp]
 1644              	.LBE321:
 1645              	.LBE330:
 1646              	.LBB331:
 1647              	.LBB312:
 482:..\..\..\lvgl\version_6.1.2\lvgl\src\lv_themes/lv_theme_material.c ****     theme.style.btnm.btn.tgl_rel = &tgl_rel;
 1648              		.loc 1 482 0
 1649 0990 C4F8CC90 		str	r9, [r4, #204]
 485:..\..\..\lvgl\version_6.1.2\lvgl\src\lv_themes/lv_theme_material.c **** #endif
 1650              		.loc 1 485 0
 1651 0994 C4F8D870 		str	r7, [r4, #216]
 478:..\..\..\lvgl\version_6.1.2\lvgl\src\lv_themes/lv_theme_material.c **** 
 1652              		.loc 1 478 0
 1653 0998 C4F8383E 		str	r3, [r4, #3640]
 1654              	.LBE312:
 1655              	.LBE331:
 1656              	.LBB332:
 1657              	.LBB322:
 494:..\..\..\lvgl\version_6.1.2\lvgl\src\lv_themes/lv_theme_material.c ****     rel.text.font = _font;
 1658              		.loc 1 494 0
 1659 099c FFF7FEFF 		bl	lv_style_copy
 1660              	.LVL81:
 497:..\..\..\lvgl\version_6.1.2\lvgl\src\lv_themes/lv_theme_material.c ****     theme.style.kb.btn.rel     = &rel;
 1661              		.loc 1 497 0
 1662 09a0 D4F8C430 		ldr	r3, [r4, #196]
 1663 09a4 C4F8DC30 		str	r3, [r4, #220]
 499:..\..\..\lvgl\version_6.1.2\lvgl\src\lv_themes/lv_theme_material.c ****     theme.style.kb.btn.tgl_rel = theme.style.btnm.btn.tgl_rel;
 1664              		.loc 1 499 0
ARM GAS  C:\Users\pearlstl\AppData\Local\Temp\cc5dErme.s 			page 54


 1665 09a8 D4F8CC30 		ldr	r3, [r4, #204]
 498:..\..\..\lvgl\version_6.1.2\lvgl\src\lv_themes/lv_theme_material.c ****     theme.style.kb.btn.pr      = theme.style.btnm.btn.pr;
 1666              		.loc 1 498 0
 1667 09ac 009A     		ldr	r2, [sp]
 499:..\..\..\lvgl\version_6.1.2\lvgl\src\lv_themes/lv_theme_material.c ****     theme.style.kb.btn.tgl_rel = theme.style.btnm.btn.tgl_rel;
 1668              		.loc 1 499 0
 1669 09ae C4F8E430 		str	r3, [r4, #228]
 500:..\..\..\lvgl\version_6.1.2\lvgl\src\lv_themes/lv_theme_material.c ****     theme.style.kb.btn.tgl_pr  = theme.style.btnm.btn.tgl_pr;
 1670              		.loc 1 500 0
 1671 09b2 D4F8D030 		ldr	r3, [r4, #208]
 495:..\..\..\lvgl\version_6.1.2\lvgl\src\lv_themes/lv_theme_material.c **** 
 1672              		.loc 1 495 0
 1673 09b6 D4F8AC71 		ldr	r7, [r4, #428]
 498:..\..\..\lvgl\version_6.1.2\lvgl\src\lv_themes/lv_theme_material.c ****     theme.style.kb.btn.pr      = theme.style.btnm.btn.pr;
 1674              		.loc 1 498 0
 1675 09ba C4F8E020 		str	r2, [r4, #224]
 1676              	.LBE322:
 1677              	.LBE332:
 1678              	.LBB333:
 1679              	.LBB334:
 511:..\..\..\lvgl\version_6.1.2\lvgl\src\lv_themes/lv_theme_material.c ****     rel.glass      = 0;
 1680              		.loc 1 511 0
 1681 09be 04F56D60 		add	r0, r4, #3792
 1682              	.LBE334:
 1683              	.LBE333:
 1684              	.LBB341:
 1685              	.LBB323:
 502:..\..\..\lvgl\version_6.1.2\lvgl\src\lv_themes/lv_theme_material.c **** #endif
 1686              		.loc 1 502 0
 1687 09c2 D4F8D820 		ldr	r2, [r4, #216]
 500:..\..\..\lvgl\version_6.1.2\lvgl\src\lv_themes/lv_theme_material.c ****     theme.style.kb.btn.tgl_pr  = theme.style.btnm.btn.tgl_pr;
 1688              		.loc 1 500 0
 1689 09c6 C4F8E830 		str	r3, [r4, #232]
 1690              	.LBE323:
 1691              	.LBE341:
 1692              	.LBB342:
 1693              	.LBB335:
 511:..\..\..\lvgl\version_6.1.2\lvgl\src\lv_themes/lv_theme_material.c ****     rel.glass      = 0;
 1694              		.loc 1 511 0
 1695 09ca 5B49     		ldr	r1, .L10
 1696              	.LBE335:
 1697              	.LBE342:
 1698              	.LBB343:
 1699              	.LBB324:
 501:..\..\..\lvgl\version_6.1.2\lvgl\src\lv_themes/lv_theme_material.c ****     theme.style.kb.btn.ina     = theme.style.btnm.btn.ina;
 1700              		.loc 1 501 0
 1701 09cc D4F8D430 		ldr	r3, [r4, #212]
 1702 09d0 C4F8EC30 		str	r3, [r4, #236]
 495:..\..\..\lvgl\version_6.1.2\lvgl\src\lv_themes/lv_theme_material.c **** 
 1703              		.loc 1 495 0
 1704 09d4 C4F8B47E 		str	r7, [r4, #3764]
 502:..\..\..\lvgl\version_6.1.2\lvgl\src\lv_themes/lv_theme_material.c **** #endif
 1705              		.loc 1 502 0
 1706 09d8 C4F8F020 		str	r2, [r4, #240]
 1707              	.LBE324:
 1708              	.LBE343:
 1709              	.LBB344:
ARM GAS  C:\Users\pearlstl\AppData\Local\Temp\cc5dErme.s 			page 55


 1710              	.LBB336:
 511:..\..\..\lvgl\version_6.1.2\lvgl\src\lv_themes/lv_theme_material.c ****     rel.glass      = 0;
 1711              		.loc 1 511 0
 1712 09dc FFF7FEFF 		bl	lv_style_copy
 1713              	.LVL82:
 512:..\..\..\lvgl\version_6.1.2\lvgl\src\lv_themes/lv_theme_material.c ****     rel.text.font  = _font;
 1714              		.loc 1 512 0
 1715 09e0 94F8D07E 		ldrb	r7, [r4, #3792]	@ zero_extendqisi2
 513:..\..\..\lvgl\version_6.1.2\lvgl\src\lv_themes/lv_theme_material.c ****     rel.text.color = lv_color_hsv_to_rgb(_hue, 85, 75);
 1716              		.loc 1 513 0
 1717 09e4 D4F8AC21 		ldr	r2, [r4, #428]
 1718 09e8 C4F8042F 		str	r2, [r4, #3844]
 512:..\..\..\lvgl\version_6.1.2\lvgl\src\lv_themes/lv_theme_material.c ****     rel.text.font  = _font;
 1719              		.loc 1 512 0
 1720 09ec 68F30007 		bfi	r7, r8, #0, #1
 514:..\..\..\lvgl\version_6.1.2\lvgl\src\lv_themes/lv_theme_material.c **** 
 1721              		.loc 1 514 0
 1722 09f0 5146     		mov	r1, r10
 1723 09f2 4B22     		movs	r2, #75
 1724 09f4 B4F8A801 		ldrh	r0, [r4, #424]
 512:..\..\..\lvgl\version_6.1.2\lvgl\src\lv_themes/lv_theme_material.c ****     rel.text.font  = _font;
 1725              		.loc 1 512 0
 1726 09f8 84F8D07E 		strb	r7, [r4, #3792]
 514:..\..\..\lvgl\version_6.1.2\lvgl\src\lv_themes/lv_theme_material.c **** 
 1727              		.loc 1 514 0
 1728 09fc FFF7FEFF 		bl	lv_color_hsv_to_rgb
 1729              	.LVL83:
 516:..\..\..\lvgl\version_6.1.2\lvgl\src\lv_themes/lv_theme_material.c ****     pr.text.color = lv_color_hsv_to_rgb(_hue, 85, 60);
 1730              		.loc 1 516 0
 1731 0a00 04F57267 		add	r7, r4, #3872
 514:..\..\..\lvgl\version_6.1.2\lvgl\src\lv_themes/lv_theme_material.c **** 
 1732              		.loc 1 514 0
 1733 0a04 C4F8FC0E 		str	r0, [r4, #3836]
 516:..\..\..\lvgl\version_6.1.2\lvgl\src\lv_themes/lv_theme_material.c ****     pr.text.color = lv_color_hsv_to_rgb(_hue, 85, 60);
 1734              		.loc 1 516 0
 1735 0a08 D4F8CC10 		ldr	r1, [r4, #204]
 1736 0a0c 3846     		mov	r0, r7
 1737 0a0e FFF7FEFF 		bl	lv_style_copy
 1738              	.LVL84:
 517:..\..\..\lvgl\version_6.1.2\lvgl\src\lv_themes/lv_theme_material.c **** 
 1739              		.loc 1 517 0
 1740 0a12 5146     		mov	r1, r10
 1741 0a14 3C22     		movs	r2, #60
 1742 0a16 B4F8A801 		ldrh	r0, [r4, #424]
 1743 0a1a FFF7FEFF 		bl	lv_color_hsv_to_rgb
 1744              	.LVL85:
 521:..\..\..\lvgl\version_6.1.2\lvgl\src\lv_themes/lv_theme_material.c ****     theme.style.mbox.btn.pr  = &pr;
 1745              		.loc 1 521 0
 1746 0a1e 04F56D63 		add	r3, r4, #3792
 1747              	.LBE336:
 1748              	.LBE344:
 1749              	.LBB345:
 1750              	.LBB346:
 541:..\..\..\lvgl\version_6.1.2\lvgl\src\lv_themes/lv_theme_material.c ****     oneline.body.opa          = LV_OPA_TRANSP;
 1751              		.loc 1 541 0
 1752 0a22 04F57769 		add	r9, r4, #3952
 1753              	.LBE346:
ARM GAS  C:\Users\pearlstl\AppData\Local\Temp\cc5dErme.s 			page 56


 1754              	.LBE345:
 1755              	.LBB353:
 1756              	.LBB337:
 521:..\..\..\lvgl\version_6.1.2\lvgl\src\lv_themes/lv_theme_material.c ****     theme.style.mbox.btn.pr  = &pr;
 1757              		.loc 1 521 0
 1758 0a26 C4F8FC30 		str	r3, [r4, #252]
 520:..\..\..\lvgl\version_6.1.2\lvgl\src\lv_themes/lv_theme_material.c ****     theme.style.mbox.btn.rel = &rel;
 1759              		.loc 1 520 0
 1760 0a2a 434B     		ldr	r3, .L10
 519:..\..\..\lvgl\version_6.1.2\lvgl\src\lv_themes/lv_theme_material.c ****     theme.style.mbox.btn.bg  = &lv_style_transp;
 1761              		.loc 1 519 0
 1762 0a2c A268     		ldr	r2, [r4, #8]
 517:..\..\..\lvgl\version_6.1.2\lvgl\src\lv_themes/lv_theme_material.c **** 
 1763              		.loc 1 517 0
 1764 0a2e C4F84C0F 		str	r0, [r4, #3916]
 1765              	.LBE337:
 1766              	.LBE353:
 1767              	.LBB354:
 1768              	.LBB347:
 541:..\..\..\lvgl\version_6.1.2\lvgl\src\lv_themes/lv_theme_material.c ****     oneline.body.opa          = LV_OPA_TRANSP;
 1769              		.loc 1 541 0
 1770 0a32 3146     		mov	r1, r6
 1771 0a34 4846     		mov	r0, r9
 1772              	.LBE347:
 1773              	.LBE354:
 1774              	.LBB355:
 1775              	.LBB338:
 520:..\..\..\lvgl\version_6.1.2\lvgl\src\lv_themes/lv_theme_material.c ****     theme.style.mbox.btn.rel = &rel;
 1776              		.loc 1 520 0
 1777 0a36 C4F8F830 		str	r3, [r4, #248]
 1778              	.LBE338:
 1779              	.LBE355:
 1780              	.LBB356:
 1781              	.LBB357:
 531:..\..\..\lvgl\version_6.1.2\lvgl\src\lv_themes/lv_theme_material.c ****     theme.style.page.sb   = &sb;
 1782              		.loc 1 531 0
 1783 0a3a C4F80831 		str	r3, [r4, #264]
 532:..\..\..\lvgl\version_6.1.2\lvgl\src\lv_themes/lv_theme_material.c **** #endif
 1784              		.loc 1 532 0
 1785 0a3e A9F54863 		sub	r3, r9, #3200
 1786              	.LBE357:
 1787              	.LBE356:
 1788              	.LBB360:
 1789              	.LBB339:
 522:..\..\..\lvgl\version_6.1.2\lvgl\src\lv_themes/lv_theme_material.c **** #endif
 1790              		.loc 1 522 0
 1791 0a42 C4F80071 		str	r7, [r4, #256]
 1792              	.LBE339:
 1793              	.LBE360:
 1794              	.LBB361:
 1795              	.LBB358:
 532:..\..\..\lvgl\version_6.1.2\lvgl\src\lv_themes/lv_theme_material.c **** #endif
 1796              		.loc 1 532 0
 1797 0a46 C4F80C31 		str	r3, [r4, #268]
 1798              	.LBE358:
 1799              	.LBE361:
 1800              	.LBB362:
ARM GAS  C:\Users\pearlstl\AppData\Local\Temp\cc5dErme.s 			page 57


 1801              	.LBB340:
 519:..\..\..\lvgl\version_6.1.2\lvgl\src\lv_themes/lv_theme_material.c ****     theme.style.mbox.btn.bg  = &lv_style_transp;
 1802              		.loc 1 519 0
 1803 0a4a C4F8F420 		str	r2, [r4, #244]
 1804              	.LBE340:
 1805              	.LBE362:
 1806              	.LBB363:
 1807              	.LBB359:
 530:..\..\..\lvgl\version_6.1.2\lvgl\src\lv_themes/lv_theme_material.c ****     theme.style.page.scrl = &lv_style_transp;
 1808              		.loc 1 530 0
 1809 0a4e C4F80421 		str	r2, [r4, #260]
 1810              	.LBE359:
 1811              	.LBE363:
 1812              	.LBB364:
 1813              	.LBB348:
 541:..\..\..\lvgl\version_6.1.2\lvgl\src\lv_themes/lv_theme_material.c ****     oneline.body.opa          = LV_OPA_TRANSP;
 1814              		.loc 1 541 0
 1815 0a52 FFF7FEFF 		bl	lv_style_copy
 1816              	.LVL86:
 545:..\..\..\lvgl\version_6.1.2\lvgl\src\lv_themes/lv_theme_material.c ****     oneline.body.border.color = lv_color_hex3(0x333);
 1817              		.loc 1 545 0
 1818 0a56 4FF00303 		mov	r3, #3	@ movhi
 550:..\..\..\lvgl\version_6.1.2\lvgl\src\lv_themes/lv_theme_material.c ****     theme.style.ta.oneline = &oneline;
 1819              		.loc 1 550 0
 1820 0a5a A268     		ldr	r2, [r4, #8]
 545:..\..\..\lvgl\version_6.1.2\lvgl\src\lv_themes/lv_theme_material.c ****     oneline.body.border.color = lv_color_hex3(0x333);
 1821              		.loc 1 545 0
 1822 0a5c A4F8843F 		strh	r3, [r4, #3972]	@ movhi
 544:..\..\..\lvgl\version_6.1.2\lvgl\src\lv_themes/lv_theme_material.c ****     oneline.body.border.width = 3;
 1823              		.loc 1 544 0
 1824 0a60 4FF00103 		mov	r3, #1
 1825              	.LBE348:
 1826              	.LBE364:
 1827              	.LBB365:
 1828              	.LBB162:
 572:..\..\..\lvgl\version_6.1.2\lvgl\src\lv_themes/lv_theme_material.c ****     list_bg.body.padding.left   = 0;
 1829              		.loc 1 572 0
 1830 0a64 04F57C60 		add	r0, r4, #4032
 1831              	.LBE162:
 1832              	.LBE365:
 1833              	.LBB366:
 1834              	.LBB349:
 544:..\..\..\lvgl\version_6.1.2\lvgl\src\lv_themes/lv_theme_material.c ****     oneline.body.border.width = 3;
 1835              		.loc 1 544 0
 1836 0a68 84F8863F 		strb	r3, [r4, #3974]
 546:..\..\..\lvgl\version_6.1.2\lvgl\src\lv_themes/lv_theme_material.c ****     oneline.body.border.opa   = LV_OPA_COVER;
 1837              		.loc 1 546 0
 1838 0a6c 4FF03303 		mov	r3, #51
 1839              	.LBE349:
 1840              	.LBE366:
 1841              	.LBB367:
 1842              	.LBB163:
 572:..\..\..\lvgl\version_6.1.2\lvgl\src\lv_themes/lv_theme_material.c ****     list_bg.body.padding.left   = 0;
 1843              		.loc 1 572 0
 1844 0a70 1146     		mov	r1, r2
 579:..\..\..\lvgl\version_6.1.2\lvgl\src\lv_themes/lv_theme_material.c ****     rel.body.padding.left   = LV_DPI / 8;
 1845              		.loc 1 579 0
ARM GAS  C:\Users\pearlstl\AppData\Local\Temp\cc5dErme.s 			page 58


 1846 0a72 A5F1E80A 		sub	r10, r5, #232
 1847              	.LBE163:
 1848              	.LBE367:
 1849              	.LBB368:
 1850              	.LBB350:
 546:..\..\..\lvgl\version_6.1.2\lvgl\src\lv_themes/lv_theme_material.c ****     oneline.body.border.opa   = LV_OPA_COVER;
 1851              		.loc 1 546 0
 1852 0a76 84F8803F 		strb	r3, [r4, #3968]
 1853 0a7a 84F8813F 		strb	r3, [r4, #3969]
 1854 0a7e 84F8823F 		strb	r3, [r4, #3970]
 548:..\..\..\lvgl\version_6.1.2\lvgl\src\lv_themes/lv_theme_material.c **** 
 1855              		.loc 1 548 0
 1856 0a82 84F89C3F 		strb	r3, [r4, #3996]
 1857 0a86 84F89D3F 		strb	r3, [r4, #3997]
 1858 0a8a 84F89E3F 		strb	r3, [r4, #3998]
 553:..\..\..\lvgl\version_6.1.2\lvgl\src\lv_themes/lv_theme_material.c **** #endif
 1859              		.loc 1 553 0
 1860 0a8e A0F54D63 		sub	r3, r0, #3280
 550:..\..\..\lvgl\version_6.1.2\lvgl\src\lv_themes/lv_theme_material.c ****     theme.style.ta.oneline = &oneline;
 1861              		.loc 1 550 0
 1862 0a92 C4F81021 		str	r2, [r4, #272]
 1863              	.LBE350:
 1864              	.LBE368:
 1865              	.LBB369:
 1866              	.LBB370:
 560:..\..\..\lvgl\version_6.1.2\lvgl\src\lv_themes/lv_theme_material.c ****     theme.style.spinbox.cursor = theme.style.ta.cursor;
 1867              		.loc 1 560 0
 1868 0a96 C4F82021 		str	r2, [r4, #288]
 1869              	.LBE370:
 1870              	.LBE369:
 1871              	.LBB373:
 1872              	.LBB351:
 553:..\..\..\lvgl\version_6.1.2\lvgl\src\lv_themes/lv_theme_material.c **** #endif
 1873              		.loc 1 553 0
 1874 0a9a C4F81C31 		str	r3, [r4, #284]
 1875              	.LBE351:
 1876              	.LBE373:
 1877              	.LBB374:
 1878              	.LBB371:
 562:..\..\..\lvgl\version_6.1.2\lvgl\src\lv_themes/lv_theme_material.c **** #endif
 1879              		.loc 1 562 0
 1880 0a9e C4F82831 		str	r3, [r4, #296]
 1881              	.LBE371:
 1882              	.LBE374:
 1883              	.LBB375:
 1884              	.LBB352:
 551:..\..\..\lvgl\version_6.1.2\lvgl\src\lv_themes/lv_theme_material.c ****     theme.style.ta.cursor  = NULL; /*Let library to calculate the cursor's style*/
 1885              		.loc 1 551 0
 1886 0aa2 C4F81491 		str	r9, [r4, #276]
 542:..\..\..\lvgl\version_6.1.2\lvgl\src\lv_themes/lv_theme_material.c ****     oneline.body.radius       = 0;
 1887              		.loc 1 542 0
 1888 0aa6 84F87E8F 		strb	r8, [r4, #3966]
 543:..\..\..\lvgl\version_6.1.2\lvgl\src\lv_themes/lv_theme_material.c ****     oneline.body.border.part  = LV_BORDER_BOTTOM;
 1889              		.loc 1 543 0
 1890 0aaa A4F87C8F 		strh	r8, [r4, #3964]	@ movhi
 546:..\..\..\lvgl\version_6.1.2\lvgl\src\lv_themes/lv_theme_material.c ****     oneline.body.border.opa   = LV_OPA_COVER;
 1891              		.loc 1 546 0
ARM GAS  C:\Users\pearlstl\AppData\Local\Temp\cc5dErme.s 			page 59


 1892 0aae 84F883BF 		strb	fp, [r4, #3971]
 547:..\..\..\lvgl\version_6.1.2\lvgl\src\lv_themes/lv_theme_material.c ****     oneline.text.color        = lv_color_hex3(0x333);
 1893              		.loc 1 547 0
 1894 0ab2 84F887BF 		strb	fp, [r4, #3975]
 548:..\..\..\lvgl\version_6.1.2\lvgl\src\lv_themes/lv_theme_material.c **** 
 1895              		.loc 1 548 0
 1896 0ab6 84F89FBF 		strb	fp, [r4, #3999]
 552:..\..\..\lvgl\version_6.1.2\lvgl\src\lv_themes/lv_theme_material.c ****     theme.style.ta.sb      = &sb;
 1897              		.loc 1 552 0
 1898 0aba C4F81881 		str	r8, [r4, #280]
 1899              	.LBE352:
 1900              	.LBE375:
 1901              	.LBB376:
 1902              	.LBB372:
 561:..\..\..\lvgl\version_6.1.2\lvgl\src\lv_themes/lv_theme_material.c ****     theme.style.spinbox.sb     = theme.style.ta.sb;
 1903              		.loc 1 561 0
 1904 0abe C4F82481 		str	r8, [r4, #292]
 1905              	.LBE372:
 1906              	.LBE376:
 1907              	.LBB377:
 1908              	.LBB164:
 572:..\..\..\lvgl\version_6.1.2\lvgl\src\lv_themes/lv_theme_material.c ****     list_bg.body.padding.left   = 0;
 1909              		.loc 1 572 0
 1910 0ac2 FFF7FEFF 		bl	lv_style_copy
 1911              	.LVL87:
 579:..\..\..\lvgl\version_6.1.2\lvgl\src\lv_themes/lv_theme_material.c ****     rel.body.padding.left   = LV_DPI / 8;
 1912              		.loc 1 579 0
 1913 0ac6 5046     		mov	r0, r10
 1914 0ac8 1B49     		ldr	r1, .L10
 573:..\..\..\lvgl\version_6.1.2\lvgl\src\lv_themes/lv_theme_material.c ****     list_bg.body.padding.right  = 0;
 1915              		.loc 1 573 0
 1916 0aca A4F8E48F 		strh	r8, [r4, #4068]	@ movhi
 574:..\..\..\lvgl\version_6.1.2\lvgl\src\lv_themes/lv_theme_material.c ****     list_bg.body.padding.top    = 0;
 1917              		.loc 1 574 0
 1918 0ace A4F8E68F 		strh	r8, [r4, #4070]	@ movhi
 575:..\..\..\lvgl\version_6.1.2\lvgl\src\lv_themes/lv_theme_material.c ****     list_bg.body.padding.bottom = 0;
 1919              		.loc 1 575 0
 1920 0ad2 A4F8E08F 		strh	r8, [r4, #4064]	@ movhi
 576:..\..\..\lvgl\version_6.1.2\lvgl\src\lv_themes/lv_theme_material.c ****     list_bg.body.padding.inner  = 0;
 1921              		.loc 1 576 0
 1922 0ad6 A4F8E28F 		strh	r8, [r4, #4066]	@ movhi
 577:..\..\..\lvgl\version_6.1.2\lvgl\src\lv_themes/lv_theme_material.c **** 
 1923              		.loc 1 577 0
 1924 0ada A4F8E88F 		strh	r8, [r4, #4072]	@ movhi
 579:..\..\..\lvgl\version_6.1.2\lvgl\src\lv_themes/lv_theme_material.c ****     rel.body.padding.left   = LV_DPI / 8;
 1925              		.loc 1 579 0
 1926 0ade FFF7FEFF 		bl	lv_style_copy
 1927              	.LVL88:
 584:..\..\..\lvgl\version_6.1.2\lvgl\src\lv_themes/lv_theme_material.c ****     rel.body.border.color   = lv_color_hex3(0xbbb);
 1928              		.loc 1 584 0
 1929 0ae2 4FF00A03 		mov	r3, #10	@ movhi
 1930 0ae6 25F8DC3C 		strh	r3, [r5, #-220]	@ movhi
 582:..\..\..\lvgl\version_6.1.2\lvgl\src\lv_themes/lv_theme_material.c ****     rel.body.padding.bottom = LV_DPI / 6;
 1931              		.loc 1 582 0
 1932 0aea 4FF01903 		mov	r3, #25	@ movhi
 1933 0aee 25F8C83C 		strh	r3, [r5, #-200]	@ movhi
 583:..\..\..\lvgl\version_6.1.2\lvgl\src\lv_themes/lv_theme_material.c ****     rel.body.radius         = 10;
ARM GAS  C:\Users\pearlstl\AppData\Local\Temp\cc5dErme.s 			page 60


 1934              		.loc 1 583 0
 1935 0af2 25F8C63C 		strh	r3, [r5, #-198]	@ movhi
 580:..\..\..\lvgl\version_6.1.2\lvgl\src\lv_themes/lv_theme_material.c ****     rel.body.padding.right  = LV_DPI / 8;
 1936              		.loc 1 580 0
 1937 0af6 4FF01203 		mov	r3, #18	@ movhi
 589:..\..\..\lvgl\version_6.1.2\lvgl\src\lv_themes/lv_theme_material.c ****     pr.glass             = 0;
 1938              		.loc 1 589 0
 1939 0afa A5F19807 		sub	r7, r5, #152
 580:..\..\..\lvgl\version_6.1.2\lvgl\src\lv_themes/lv_theme_material.c ****     rel.body.padding.right  = LV_DPI / 8;
 1940              		.loc 1 580 0
 1941 0afe 25F8C43C 		strh	r3, [r5, #-196]	@ movhi
 581:..\..\..\lvgl\version_6.1.2\lvgl\src\lv_themes/lv_theme_material.c ****     rel.body.padding.top    = LV_DPI / 6;
 1942              		.loc 1 581 0
 1943 0b02 25F8C23C 		strh	r3, [r5, #-194]	@ movhi
 585:..\..\..\lvgl\version_6.1.2\lvgl\src\lv_themes/lv_theme_material.c ****     rel.body.border.width   = 1;
 1944              		.loc 1 585 0
 1945 0b06 6FF04403 		mvn	r3, #68
 589:..\..\..\lvgl\version_6.1.2\lvgl\src\lv_themes/lv_theme_material.c ****     pr.glass             = 0;
 1946              		.loc 1 589 0
 1947 0b0a 5146     		mov	r1, r10
 1948 0b0c 3846     		mov	r0, r7
 585:..\..\..\lvgl\version_6.1.2\lvgl\src\lv_themes/lv_theme_material.c ****     rel.body.border.width   = 1;
 1949              		.loc 1 585 0
 1950 0b0e 05F8D83C 		strb	r3, [r5, #-216]
 1951 0b12 05F8D73C 		strb	r3, [r5, #-215]
 1952 0b16 05F8D63C 		strb	r3, [r5, #-214]
 586:..\..\..\lvgl\version_6.1.2\lvgl\src\lv_themes/lv_theme_material.c ****     rel.body.border.part    = LV_BORDER_BOTTOM;
 1953              		.loc 1 586 0
 1954 0b1a 4FF00103 		mov	r3, #1	@ movhi
 1955 0b1e 25F8D43C 		strh	r3, [r5, #-212]	@ movhi
 587:..\..\..\lvgl\version_6.1.2\lvgl\src\lv_themes/lv_theme_material.c **** 
 1956              		.loc 1 587 0
 1957 0b22 05F8D23C 		strb	r3, [r5, #-210]
 585:..\..\..\lvgl\version_6.1.2\lvgl\src\lv_themes/lv_theme_material.c ****     rel.body.border.width   = 1;
 1958              		.loc 1 585 0
 1959 0b26 05F8D5BC 		strb	fp, [r5, #-213]
 589:..\..\..\lvgl\version_6.1.2\lvgl\src\lv_themes/lv_theme_material.c ****     pr.glass             = 0;
 1960              		.loc 1 589 0
 1961 0b2a FFF7FEFF 		bl	lv_style_copy
 1962              	.LVL89:
 590:..\..\..\lvgl\version_6.1.2\lvgl\src\lv_themes/lv_theme_material.c ****     pr.body.main_color   = lv_color_hex3(0xddd);
 1963              		.loc 1 590 0
 1964 0b2e 15F8981C 		ldrb	r1, [r5, #-152]	@ zero_extendqisi2
 591:..\..\..\lvgl\version_6.1.2\lvgl\src\lv_themes/lv_theme_material.c ****     pr.body.grad_color   = pr.body.main_color;
 1965              		.loc 1 591 0
 1966 0b32 019B     		ldr	r3, [sp, #4]
 1967 0b34 02E0     		b	.L11
 1968              	.L12:
 1969 0b36 00BF     		.align	2
 1970              	.L10:
 1971 0b38 00000000 		.word	lv_style_transp
 1972              	.L11:
 1973 0b3c 05F8943C 		strb	r3, [r5, #-148]
 1974 0b40 05F8933C 		strb	r3, [r5, #-147]
 1975 0b44 05F8923C 		strb	r3, [r5, #-146]
 1976 0b48 05F891BC 		strb	fp, [r5, #-145]
 596:..\..\..\lvgl\version_6.1.2\lvgl\src\lv_themes/lv_theme_material.c **** 
ARM GAS  C:\Users\pearlstl\AppData\Local\Temp\cc5dErme.s 			page 61


 1977              		.loc 1 596 0
 1978 0b4c D4F8AC31 		ldr	r3, [r4, #428]
 592:..\..\..\lvgl\version_6.1.2\lvgl\src\lv_themes/lv_theme_material.c ****     pr.body.border.width = 0;
 1979              		.loc 1 592 0
 1980 0b50 55F8942C 		ldr	r2, [r5, #-148]
 596:..\..\..\lvgl\version_6.1.2\lvgl\src\lv_themes/lv_theme_material.c **** 
 1981              		.loc 1 596 0
 1982 0b54 45F8643C 		str	r3, [r5, #-100]
 590:..\..\..\lvgl\version_6.1.2\lvgl\src\lv_themes/lv_theme_material.c ****     pr.body.main_color   = lv_color_hex3(0xddd);
 1983              		.loc 1 590 0
 1984 0b58 68F30001 		bfi	r1, r8, #0, #1
 595:..\..\..\lvgl\version_6.1.2\lvgl\src\lv_themes/lv_theme_material.c ****     pr.text.font         = _font;
 1985              		.loc 1 595 0
 1986 0b5c 4FF00403 		mov	r3, #4	@ movhi
 590:..\..\..\lvgl\version_6.1.2\lvgl\src\lv_themes/lv_theme_material.c ****     pr.body.main_color   = lv_color_hex3(0xddd);
 1987              		.loc 1 590 0
 1988 0b60 05F8981C 		strb	r1, [r5, #-152]
 598:..\..\..\lvgl\version_6.1.2\lvgl\src\lv_themes/lv_theme_material.c ****     tgl_rel.body.main_color = lv_color_hsv_to_rgb(_hue, 90, 70);
 1989              		.loc 1 598 0
 1990 0b64 07F15000 		add	r0, r7, #80
 1991 0b68 3946     		mov	r1, r7
 595:..\..\..\lvgl\version_6.1.2\lvgl\src\lv_themes/lv_theme_material.c ****     pr.text.font         = _font;
 1992              		.loc 1 595 0
 1993 0b6a 25F88C3C 		strh	r3, [r5, #-140]	@ movhi
 592:..\..\..\lvgl\version_6.1.2\lvgl\src\lv_themes/lv_theme_material.c ****     pr.body.border.width = 0;
 1994              		.loc 1 592 0
 1995 0b6e 45F8902C 		str	r2, [r5, #-144]
 593:..\..\..\lvgl\version_6.1.2\lvgl\src\lv_themes/lv_theme_material.c ****     pr.body.opa          = LV_OPA_COVER;
 1996              		.loc 1 593 0
 1997 0b72 25F8848C 		strh	r8, [r5, #-132]	@ movhi
 594:..\..\..\lvgl\version_6.1.2\lvgl\src\lv_themes/lv_theme_material.c ****     pr.body.radius       = DEF_RADIUS;
 1998              		.loc 1 594 0
 1999 0b76 05F88ABC 		strb	fp, [r5, #-138]
 598:..\..\..\lvgl\version_6.1.2\lvgl\src\lv_themes/lv_theme_material.c ****     tgl_rel.body.main_color = lv_color_hsv_to_rgb(_hue, 90, 70);
 2000              		.loc 1 598 0
 2001 0b7a FFF7FEFF 		bl	lv_style_copy
 2002              	.LVL90:
 599:..\..\..\lvgl\version_6.1.2\lvgl\src\lv_themes/lv_theme_material.c ****     tgl_rel.body.grad_color = tgl_rel.body.main_color;
 2003              		.loc 1 599 0
 2004 0b7e 4622     		movs	r2, #70
 2005 0b80 5A21     		movs	r1, #90
 2006 0b82 B4F8A801 		ldrh	r0, [r4, #424]
 2007 0b86 FFF7FEFF 		bl	lv_color_hsv_to_rgb
 2008              	.LVL91:
 601:..\..\..\lvgl\version_6.1.2\lvgl\src\lv_themes/lv_theme_material.c **** 
 2009              		.loc 1 601 0
 2010 0b8a 5F22     		movs	r2, #95
 599:..\..\..\lvgl\version_6.1.2\lvgl\src\lv_themes/lv_theme_material.c ****     tgl_rel.body.grad_color = tgl_rel.body.main_color;
 2011              		.loc 1 599 0
 2012 0b8c 45F8440C 		str	r0, [r5, #-68]
 600:..\..\..\lvgl\version_6.1.2\lvgl\src\lv_themes/lv_theme_material.c ****     tgl_rel.text.color      = lv_color_hsv_to_rgb(_hue, 5, 95);
 2013              		.loc 1 600 0
 2014 0b90 45F8400C 		str	r0, [r5, #-64]
 601:..\..\..\lvgl\version_6.1.2\lvgl\src\lv_themes/lv_theme_material.c **** 
 2015              		.loc 1 601 0
 2016 0b94 0521     		movs	r1, #5
 2017 0b96 B4F8A801 		ldrh	r0, [r4, #424]
ARM GAS  C:\Users\pearlstl\AppData\Local\Temp\cc5dErme.s 			page 62


 2018 0b9a FFF7FEFF 		bl	lv_color_hsv_to_rgb
 2019              	.LVL92:
 603:..\..\..\lvgl\version_6.1.2\lvgl\src\lv_themes/lv_theme_material.c ****     tgl_pr.body.main_color   = lv_color_hsv_to_rgb(_hue, 90, 60);
 2020              		.loc 1 603 0
 2021 0b9e 05F10803 		add	r3, r5, #8
 601:..\..\..\lvgl\version_6.1.2\lvgl\src\lv_themes/lv_theme_material.c **** 
 2022              		.loc 1 601 0
 2023 0ba2 45F81C0C 		str	r0, [r5, #-28]
 603:..\..\..\lvgl\version_6.1.2\lvgl\src\lv_themes/lv_theme_material.c ****     tgl_pr.body.main_color   = lv_color_hsv_to_rgb(_hue, 90, 60);
 2024              		.loc 1 603 0
 2025 0ba6 A5F14801 		sub	r1, r5, #72
 2026 0baa 1846     		mov	r0, r3
 2027 0bac 0193     		str	r3, [sp, #4]
 2028 0bae FFF7FEFF 		bl	lv_style_copy
 2029              	.LVL93:
 604:..\..\..\lvgl\version_6.1.2\lvgl\src\lv_themes/lv_theme_material.c ****     tgl_pr.body.grad_color   = tgl_pr.body.main_color;
 2030              		.loc 1 604 0
 2031 0bb2 3C22     		movs	r2, #60
 2032 0bb4 5A21     		movs	r1, #90
 2033 0bb6 B4F8A801 		ldrh	r0, [r4, #424]
 2034 0bba FFF7FEFF 		bl	lv_color_hsv_to_rgb
 2035              	.LVL94:
 608:..\..\..\lvgl\version_6.1.2\lvgl\src\lv_themes/lv_theme_material.c ****     ina.body.main_color = lv_color_hex3(0xccc);
 2036              		.loc 1 608 0
 2037 0bbe 05F15802 		add	r2, r5, #88
 604:..\..\..\lvgl\version_6.1.2\lvgl\src\lv_themes/lv_theme_material.c ****     tgl_pr.body.grad_color   = tgl_pr.body.main_color;
 2038              		.loc 1 604 0
 2039 0bc2 E860     		str	r0, [r5, #12]
 605:..\..\..\lvgl\version_6.1.2\lvgl\src\lv_themes/lv_theme_material.c ****     tgl_pr.body.border.width = 0;
 2040              		.loc 1 605 0
 2041 0bc4 2861     		str	r0, [r5, #16]
 608:..\..\..\lvgl\version_6.1.2\lvgl\src\lv_themes/lv_theme_material.c ****     ina.body.main_color = lv_color_hex3(0xccc);
 2042              		.loc 1 608 0
 2043 0bc6 3946     		mov	r1, r7
 2044 0bc8 1046     		mov	r0, r2
 2045              	.LBE164:
 2046              	.LBE377:
 2047              	.LBB378:
 2048              	.LBB379:
 627:..\..\..\lvgl\version_6.1.2\lvgl\src\lv_themes/lv_theme_material.c ****     bg.body.padding.left   = LV_DPI / 6;
 2049              		.loc 1 627 0
 2050 0bca 05F1A809 		add	r9, r5, #168
 2051              	.LBE379:
 2052              	.LBE378:
 2053              	.LBB387:
 2054              	.LBB165:
 608:..\..\..\lvgl\version_6.1.2\lvgl\src\lv_themes/lv_theme_material.c ****     ina.body.main_color = lv_color_hex3(0xccc);
 2055              		.loc 1 608 0
 2056 0bce 0092     		str	r2, [sp]
 606:..\..\..\lvgl\version_6.1.2\lvgl\src\lv_themes/lv_theme_material.c **** 
 2057              		.loc 1 606 0
 2058 0bd0 A5F81C80 		strh	r8, [r5, #28]	@ movhi
 608:..\..\..\lvgl\version_6.1.2\lvgl\src\lv_themes/lv_theme_material.c ****     ina.body.main_color = lv_color_hex3(0xccc);
 2059              		.loc 1 608 0
 2060 0bd4 FFF7FEFF 		bl	lv_style_copy
 2061              	.LVL95:
 609:..\..\..\lvgl\version_6.1.2\lvgl\src\lv_themes/lv_theme_material.c ****     ina.body.grad_color = ina.body.main_color;
ARM GAS  C:\Users\pearlstl\AppData\Local\Temp\cc5dErme.s 			page 63


 2062              		.loc 1 609 0
 2063 0bd8 6FF03303 		mvn	r3, #51
 2064 0bdc 85F85C30 		strb	r3, [r5, #92]
 2065 0be0 85F85D30 		strb	r3, [r5, #93]
 2066 0be4 85F85E30 		strb	r3, [r5, #94]
 617:..\..\..\lvgl\version_6.1.2\lvgl\src\lv_themes/lv_theme_material.c ****     theme.style.list.btn.tgl_pr  = &tgl_pr;
 2067              		.loc 1 617 0
 2068 0be8 A9F1F003 		sub	r3, r9, #240
 2069 0bec C4F84031 		str	r3, [r4, #320]
 618:..\..\..\lvgl\version_6.1.2\lvgl\src\lv_themes/lv_theme_material.c ****     theme.style.list.btn.ina     = &ina;
 2070              		.loc 1 618 0
 2071 0bf0 019B     		ldr	r3, [sp, #4]
 2072 0bf2 C4F84431 		str	r3, [r4, #324]
 612:..\..\..\lvgl\version_6.1.2\lvgl\src\lv_themes/lv_theme_material.c ****     theme.style.list.bg          = &list_bg;
 2073              		.loc 1 612 0
 2074 0bf6 04F53C73 		add	r3, r4, #752
 609:..\..\..\lvgl\version_6.1.2\lvgl\src\lv_themes/lv_theme_material.c ****     ina.body.grad_color = ina.body.main_color;
 2075              		.loc 1 609 0
 2076 0bfa 85F85FB0 		strb	fp, [r5, #95]
 612:..\..\..\lvgl\version_6.1.2\lvgl\src\lv_themes/lv_theme_material.c ****     theme.style.list.bg          = &list_bg;
 2077              		.loc 1 612 0
 2078 0bfe C4F83431 		str	r3, [r4, #308]
 613:..\..\..\lvgl\version_6.1.2\lvgl\src\lv_themes/lv_theme_material.c ****     theme.style.list.scrl        = &lv_style_transp_tight;
 2079              		.loc 1 613 0
 2080 0c02 04F57C63 		add	r3, r4, #4032
 2081 0c06 C4F82C31 		str	r3, [r4, #300]
 610:..\..\..\lvgl\version_6.1.2\lvgl\src\lv_themes/lv_theme_material.c **** 
 2082              		.loc 1 610 0
 2083 0c0a EB6D     		ldr	r3, [r5, #92]
 619:..\..\..\lvgl\version_6.1.2\lvgl\src\lv_themes/lv_theme_material.c **** #endif
 2084              		.loc 1 619 0
 2085 0c0c 009A     		ldr	r2, [sp]
 2086              	.LBE165:
 2087              	.LBE387:
 2088              	.LBB388:
 2089              	.LBB380:
 627:..\..\..\lvgl\version_6.1.2\lvgl\src\lv_themes/lv_theme_material.c ****     bg.body.padding.left   = LV_DPI / 6;
 2090              		.loc 1 627 0
 2091 0c0e A168     		ldr	r1, [r4, #8]
 2092              	.LBE380:
 2093              	.LBE388:
 2094              	.LBB389:
 2095              	.LBB166:
 610:..\..\..\lvgl\version_6.1.2\lvgl\src\lv_themes/lv_theme_material.c **** 
 2096              		.loc 1 610 0
 2097 0c10 2B66     		str	r3, [r5, #96]
 2098              	.LBE166:
 2099              	.LBE389:
 2100              	.LBB390:
 2101              	.LBB381:
 627:..\..\..\lvgl\version_6.1.2\lvgl\src\lv_themes/lv_theme_material.c ****     bg.body.padding.left   = LV_DPI / 6;
 2102              		.loc 1 627 0
 2103 0c12 4846     		mov	r0, r9
 2104              	.LBE381:
 2105              	.LBE390:
 2106              	.LBB391:
 2107              	.LBB167:
ARM GAS  C:\Users\pearlstl\AppData\Local\Temp\cc5dErme.s 			page 64


 614:..\..\..\lvgl\version_6.1.2\lvgl\src\lv_themes/lv_theme_material.c ****     theme.style.list.btn.rel     = &rel;
 2108              		.loc 1 614 0
 2109 0c14 F74B     		ldr	r3, .L13
 619:..\..\..\lvgl\version_6.1.2\lvgl\src\lv_themes/lv_theme_material.c **** #endif
 2110              		.loc 1 619 0
 2111 0c16 C4F84821 		str	r2, [r4, #328]
 615:..\..\..\lvgl\version_6.1.2\lvgl\src\lv_themes/lv_theme_material.c ****     theme.style.list.btn.pr      = &pr;
 2112              		.loc 1 615 0
 2113 0c1a C4F838A1 		str	r10, [r4, #312]
 616:..\..\..\lvgl\version_6.1.2\lvgl\src\lv_themes/lv_theme_material.c ****     theme.style.list.btn.tgl_rel = &tgl_rel;
 2114              		.loc 1 616 0
 2115 0c1e C4F83C71 		str	r7, [r4, #316]
 2116              	.LBE167:
 2117              	.LBE391:
 2118              	.LBB392:
 2119              	.LBB382:
 634:..\..\..\lvgl\version_6.1.2\lvgl\src\lv_themes/lv_theme_material.c ****     sel.body.main_color   = lv_color_hsv_to_rgb(_hue, 90, 70);
 2120              		.loc 1 634 0
 2121 0c22 05F1F80A 		add	r10, r5, #248
 2122              	.LBE382:
 2123              	.LBE392:
 2124              	.LBB393:
 2125              	.LBB168:
 614:..\..\..\lvgl\version_6.1.2\lvgl\src\lv_themes/lv_theme_material.c ****     theme.style.list.btn.rel     = &rel;
 2126              		.loc 1 614 0
 2127 0c26 C4F83031 		str	r3, [r4, #304]
 2128              	.LBE168:
 2129              	.LBE393:
 2130              	.LBB394:
 2131              	.LBB383:
 627:..\..\..\lvgl\version_6.1.2\lvgl\src\lv_themes/lv_theme_material.c ****     bg.body.padding.left   = LV_DPI / 6;
 2132              		.loc 1 627 0
 2133 0c2a FFF7FEFF 		bl	lv_style_copy
 2134              	.LVL96:
 628:..\..\..\lvgl\version_6.1.2\lvgl\src\lv_themes/lv_theme_material.c ****     bg.body.padding.right  = LV_DPI / 6;
 2135              		.loc 1 628 0
 2136 0c2e 4FF01903 		mov	r3, #25	@ movhi
 634:..\..\..\lvgl\version_6.1.2\lvgl\src\lv_themes/lv_theme_material.c ****     sel.body.main_color   = lv_color_hsv_to_rgb(_hue, 90, 70);
 2137              		.loc 1 634 0
 2138 0c32 4946     		mov	r1, r9
 2139 0c34 5046     		mov	r0, r10
 628:..\..\..\lvgl\version_6.1.2\lvgl\src\lv_themes/lv_theme_material.c ****     bg.body.padding.right  = LV_DPI / 6;
 2140              		.loc 1 628 0
 2141 0c36 A5F8CC30 		strh	r3, [r5, #204]	@ movhi
 629:..\..\..\lvgl\version_6.1.2\lvgl\src\lv_themes/lv_theme_material.c ****     bg.body.padding.top    = LV_DPI / 6;
 2142              		.loc 1 629 0
 2143 0c3a A5F8CE30 		strh	r3, [r5, #206]	@ movhi
 630:..\..\..\lvgl\version_6.1.2\lvgl\src\lv_themes/lv_theme_material.c ****     bg.body.padding.bottom = LV_DPI / 6;
 2144              		.loc 1 630 0
 2145 0c3e A5F8C830 		strh	r3, [r5, #200]	@ movhi
 631:..\..\..\lvgl\version_6.1.2\lvgl\src\lv_themes/lv_theme_material.c ****     bg.text.line_space     = LV_DPI / 8;
 2146              		.loc 1 631 0
 2147 0c42 A5F8CA30 		strh	r3, [r5, #202]	@ movhi
 632:..\..\..\lvgl\version_6.1.2\lvgl\src\lv_themes/lv_theme_material.c **** 
 2148              		.loc 1 632 0
 2149 0c46 4FF01203 		mov	r3, #18	@ movhi
 2150 0c4a A5F8E230 		strh	r3, [r5, #226]	@ movhi
ARM GAS  C:\Users\pearlstl\AppData\Local\Temp\cc5dErme.s 			page 65


 634:..\..\..\lvgl\version_6.1.2\lvgl\src\lv_themes/lv_theme_material.c ****     sel.body.main_color   = lv_color_hsv_to_rgb(_hue, 90, 70);
 2151              		.loc 1 634 0
 2152 0c4e FFF7FEFF 		bl	lv_style_copy
 2153              	.LVL97:
 635:..\..\..\lvgl\version_6.1.2\lvgl\src\lv_themes/lv_theme_material.c ****     sel.body.grad_color   = sel.body.main_color;
 2154              		.loc 1 635 0
 2155 0c52 4622     		movs	r2, #70
 2156 0c54 5A21     		movs	r1, #90
 2157 0c56 B4F8A801 		ldrh	r0, [r4, #424]
 2158 0c5a FFF7FEFF 		bl	lv_color_hsv_to_rgb
 2159              	.LVL98:
 639:..\..\..\lvgl\version_6.1.2\lvgl\src\lv_themes/lv_theme_material.c **** 
 2160              		.loc 1 639 0
 2161 0c5e 5F22     		movs	r2, #95
 635:..\..\..\lvgl\version_6.1.2\lvgl\src\lv_themes/lv_theme_material.c ****     sel.body.grad_color   = sel.body.main_color;
 2162              		.loc 1 635 0
 2163 0c60 C5F8FC00 		str	r0, [r5, #252]
 636:..\..\..\lvgl\version_6.1.2\lvgl\src\lv_themes/lv_theme_material.c ****     sel.body.border.width = 0;
 2164              		.loc 1 636 0
 2165 0c64 C5F80001 		str	r0, [r5, #256]
 639:..\..\..\lvgl\version_6.1.2\lvgl\src\lv_themes/lv_theme_material.c **** 
 2166              		.loc 1 639 0
 2167 0c68 0521     		movs	r1, #5
 2168 0c6a B4F8A801 		ldrh	r0, [r4, #424]
 637:..\..\..\lvgl\version_6.1.2\lvgl\src\lv_themes/lv_theme_material.c ****     sel.body.shadow.width = 0;
 2169              		.loc 1 637 0
 2170 0c6e A5F80C81 		strh	r8, [r5, #268]	@ movhi
 638:..\..\..\lvgl\version_6.1.2\lvgl\src\lv_themes/lv_theme_material.c ****     sel.text.color        = lv_color_hsv_to_rgb(_hue, 5, 95);
 2171              		.loc 1 638 0
 2172 0c72 A5F81481 		strh	r8, [r5, #276]	@ movhi
 639:..\..\..\lvgl\version_6.1.2\lvgl\src\lv_themes/lv_theme_material.c **** 
 2173              		.loc 1 639 0
 2174 0c76 FFF7FEFF 		bl	lv_color_hsv_to_rgb
 2175              	.LVL99:
 2176              	.LBE383:
 2177              	.LBE394:
 2178              	.LBB395:
 2179              	.LBB396:
 652:..\..\..\lvgl\version_6.1.2\lvgl\src\lv_themes/lv_theme_material.c ****     roller_bg.body.padding.left   = LV_DPI / 6;
 2180              		.loc 1 652 0
 2181 0c7a 05F5A477 		add	r7, r5, #328
 2182              	.LBE396:
 2183              	.LBE395:
 2184              	.LBB402:
 2185              	.LBB384:
 643:..\..\..\lvgl\version_6.1.2\lvgl\src\lv_themes/lv_theme_material.c **** #endif
 2186              		.loc 1 643 0
 2187 0c7e 04F53C73 		add	r3, r4, #752
 639:..\..\..\lvgl\version_6.1.2\lvgl\src\lv_themes/lv_theme_material.c **** 
 2188              		.loc 1 639 0
 2189 0c82 C5F82401 		str	r0, [r5, #292]
 2190              	.LBE384:
 2191              	.LBE402:
 2192              	.LBB403:
 2193              	.LBB397:
 652:..\..\..\lvgl\version_6.1.2\lvgl\src\lv_themes/lv_theme_material.c ****     roller_bg.body.padding.left   = LV_DPI / 6;
 2194              		.loc 1 652 0
ARM GAS  C:\Users\pearlstl\AppData\Local\Temp\cc5dErme.s 			page 66


 2195 0c86 DC49     		ldr	r1, .L13+4
 2196              	.LBE397:
 2197              	.LBE403:
 2198              	.LBB404:
 2199              	.LBB385:
 641:..\..\..\lvgl\version_6.1.2\lvgl\src\lv_themes/lv_theme_material.c ****     theme.style.ddlist.sel = &sel;
 2200              		.loc 1 641 0
