ARM GAS  C:\Users\pearlstl\AppData\Local\Temp\ccILyAHD.s 			page 1


   1              		.syntax unified
   2              		.cpu cortex-m4
   3              		.eabi_attribute 27, 1
   4              		.fpu fpv4-sp-d16
   5              		.eabi_attribute 20, 1
   6              		.eabi_attribute 21, 1
   7              		.eabi_attribute 23, 3
   8              		.eabi_attribute 24, 1
   9              		.eabi_attribute 25, 1
  10              		.eabi_attribute 26, 1
  11              		.eabi_attribute 30, 2
  12              		.eabi_attribute 34, 1
  13              		.eabi_attribute 18, 4
  14              		.thumb
  15              		.syntax unified
  16              		.file	"lv_txt.c"
  17              		.text
  18              	.Ltext0:
  19              		.cfi_sections	.debug_frame
  20              		.section	.text.lv_txt_iso8859_1_size,"ax",%progbits
  21              		.align	2
  22              		.thumb
  23              		.thumb_func
  24              		.type	lv_txt_iso8859_1_size, %function
  25              	lv_txt_iso8859_1_size:
  26              	.LFB11:
  27              		.file 1 "..\\..\\..\\lvgl\\version_6.1.2\\lvgl\\src\\lv_misc\\lv_txt.c"
   1:..\..\..\lvgl\version_6.1.2\lvgl\src\lv_misc/lv_txt.c **** /**
   2:..\..\..\lvgl\version_6.1.2\lvgl\src\lv_misc/lv_txt.c ****  * @file lv_text.c
   3:..\..\..\lvgl\version_6.1.2\lvgl\src\lv_misc/lv_txt.c ****  *
   4:..\..\..\lvgl\version_6.1.2\lvgl\src\lv_misc/lv_txt.c ****  */
   5:..\..\..\lvgl\version_6.1.2\lvgl\src\lv_misc/lv_txt.c **** 
   6:..\..\..\lvgl\version_6.1.2\lvgl\src\lv_misc/lv_txt.c **** /*********************
   7:..\..\..\lvgl\version_6.1.2\lvgl\src\lv_misc/lv_txt.c ****  *      INCLUDES
   8:..\..\..\lvgl\version_6.1.2\lvgl\src\lv_misc/lv_txt.c ****  *********************/
   9:..\..\..\lvgl\version_6.1.2\lvgl\src\lv_misc/lv_txt.c **** #include "lv_txt.h"
  10:..\..\..\lvgl\version_6.1.2\lvgl\src\lv_misc/lv_txt.c **** #include "lv_math.h"
  11:..\..\..\lvgl\version_6.1.2\lvgl\src\lv_misc/lv_txt.c **** #include "lv_log.h"
  12:..\..\..\lvgl\version_6.1.2\lvgl\src\lv_misc/lv_txt.c **** 
  13:..\..\..\lvgl\version_6.1.2\lvgl\src\lv_misc/lv_txt.c **** /*********************
  14:..\..\..\lvgl\version_6.1.2\lvgl\src\lv_misc/lv_txt.c ****  *      DEFINES
  15:..\..\..\lvgl\version_6.1.2\lvgl\src\lv_misc/lv_txt.c ****  *********************/
  16:..\..\..\lvgl\version_6.1.2\lvgl\src\lv_misc/lv_txt.c **** #define NO_BREAK_FOUND UINT32_MAX
  17:..\..\..\lvgl\version_6.1.2\lvgl\src\lv_misc/lv_txt.c **** 
  18:..\..\..\lvgl\version_6.1.2\lvgl\src\lv_misc/lv_txt.c **** /**********************
  19:..\..\..\lvgl\version_6.1.2\lvgl\src\lv_misc/lv_txt.c ****  *      TYPEDEFS
  20:..\..\..\lvgl\version_6.1.2\lvgl\src\lv_misc/lv_txt.c ****  **********************/
  21:..\..\..\lvgl\version_6.1.2\lvgl\src\lv_misc/lv_txt.c **** 
  22:..\..\..\lvgl\version_6.1.2\lvgl\src\lv_misc/lv_txt.c **** /**********************
  23:..\..\..\lvgl\version_6.1.2\lvgl\src\lv_misc/lv_txt.c ****  *  STATIC PROTOTYPES
  24:..\..\..\lvgl\version_6.1.2\lvgl\src\lv_misc/lv_txt.c ****  **********************/
  25:..\..\..\lvgl\version_6.1.2\lvgl\src\lv_misc/lv_txt.c **** static inline bool is_break_char(uint32_t letter);
  26:..\..\..\lvgl\version_6.1.2\lvgl\src\lv_misc/lv_txt.c **** 
  27:..\..\..\lvgl\version_6.1.2\lvgl\src\lv_misc/lv_txt.c **** #if LV_TXT_ENC == LV_TXT_ENC_UTF8
  28:..\..\..\lvgl\version_6.1.2\lvgl\src\lv_misc/lv_txt.c **** static uint8_t lv_txt_utf8_size(const char * str);
  29:..\..\..\lvgl\version_6.1.2\lvgl\src\lv_misc/lv_txt.c **** static uint32_t lv_txt_unicode_to_utf8(uint32_t letter_uni);
  30:..\..\..\lvgl\version_6.1.2\lvgl\src\lv_misc/lv_txt.c **** static uint32_t lv_txt_utf8_conv_wc(uint32_t c);
ARM GAS  C:\Users\pearlstl\AppData\Local\Temp\ccILyAHD.s 			page 2


  31:..\..\..\lvgl\version_6.1.2\lvgl\src\lv_misc/lv_txt.c **** static uint32_t lv_txt_utf8_next(const char * txt, uint32_t * i);
  32:..\..\..\lvgl\version_6.1.2\lvgl\src\lv_misc/lv_txt.c **** static uint32_t lv_txt_utf8_prev(const char * txt, uint32_t * i_start);
  33:..\..\..\lvgl\version_6.1.2\lvgl\src\lv_misc/lv_txt.c **** static uint32_t lv_txt_utf8_get_byte_id(const char * txt, uint32_t utf8_id);
  34:..\..\..\lvgl\version_6.1.2\lvgl\src\lv_misc/lv_txt.c **** static uint32_t lv_txt_utf8_get_char_id(const char * txt, uint32_t byte_id);
  35:..\..\..\lvgl\version_6.1.2\lvgl\src\lv_misc/lv_txt.c **** static uint32_t lv_txt_utf8_get_length(const char * txt);
  36:..\..\..\lvgl\version_6.1.2\lvgl\src\lv_misc/lv_txt.c **** #elif LV_TXT_ENC == LV_TXT_ENC_ASCII
  37:..\..\..\lvgl\version_6.1.2\lvgl\src\lv_misc/lv_txt.c **** static uint8_t lv_txt_iso8859_1_size(const char * str);
  38:..\..\..\lvgl\version_6.1.2\lvgl\src\lv_misc/lv_txt.c **** static uint32_t lv_txt_unicode_to_iso8859_1(uint32_t letter_uni);
  39:..\..\..\lvgl\version_6.1.2\lvgl\src\lv_misc/lv_txt.c **** static uint32_t lv_txt_iso8859_1_conv_wc(uint32_t c);
  40:..\..\..\lvgl\version_6.1.2\lvgl\src\lv_misc/lv_txt.c **** static uint32_t lv_txt_iso8859_1_next(const char * txt, uint32_t * i);
  41:..\..\..\lvgl\version_6.1.2\lvgl\src\lv_misc/lv_txt.c **** static uint32_t lv_txt_iso8859_1_prev(const char * txt, uint32_t * i_start);
  42:..\..\..\lvgl\version_6.1.2\lvgl\src\lv_misc/lv_txt.c **** static uint32_t lv_txt_iso8859_1_get_byte_id(const char * txt, uint32_t utf8_id);
  43:..\..\..\lvgl\version_6.1.2\lvgl\src\lv_misc/lv_txt.c **** static uint32_t lv_txt_iso8859_1_get_char_id(const char * txt, uint32_t byte_id);
  44:..\..\..\lvgl\version_6.1.2\lvgl\src\lv_misc/lv_txt.c **** static uint32_t lv_txt_iso8859_1_get_length(const char * txt);
  45:..\..\..\lvgl\version_6.1.2\lvgl\src\lv_misc/lv_txt.c **** #endif
  46:..\..\..\lvgl\version_6.1.2\lvgl\src\lv_misc/lv_txt.c **** /**********************
  47:..\..\..\lvgl\version_6.1.2\lvgl\src\lv_misc/lv_txt.c ****  *  STATIC VARIABLES
  48:..\..\..\lvgl\version_6.1.2\lvgl\src\lv_misc/lv_txt.c ****  **********************/
  49:..\..\..\lvgl\version_6.1.2\lvgl\src\lv_misc/lv_txt.c **** 
  50:..\..\..\lvgl\version_6.1.2\lvgl\src\lv_misc/lv_txt.c **** /**********************
  51:..\..\..\lvgl\version_6.1.2\lvgl\src\lv_misc/lv_txt.c ****  *  GLOBAL VARIABLES
  52:..\..\..\lvgl\version_6.1.2\lvgl\src\lv_misc/lv_txt.c ****  **********************/
  53:..\..\..\lvgl\version_6.1.2\lvgl\src\lv_misc/lv_txt.c **** #if LV_TXT_ENC == LV_TXT_ENC_UTF8
  54:..\..\..\lvgl\version_6.1.2\lvgl\src\lv_misc/lv_txt.c **** uint8_t (*lv_txt_encoded_size)(const char *)                   = lv_txt_utf8_size;
  55:..\..\..\lvgl\version_6.1.2\lvgl\src\lv_misc/lv_txt.c **** uint32_t (*lv_txt_unicode_to_encoded)(uint32_t)                = lv_txt_unicode_to_utf8;
  56:..\..\..\lvgl\version_6.1.2\lvgl\src\lv_misc/lv_txt.c **** uint32_t (*lv_txt_encoded_conv_wc)(uint32_t)                   = lv_txt_utf8_conv_wc;
  57:..\..\..\lvgl\version_6.1.2\lvgl\src\lv_misc/lv_txt.c **** uint32_t (*lv_txt_encoded_next)(const char *, uint32_t *)      = lv_txt_utf8_next;
  58:..\..\..\lvgl\version_6.1.2\lvgl\src\lv_misc/lv_txt.c **** uint32_t (*lv_txt_encoded_prev)(const char *, uint32_t *)      = lv_txt_utf8_prev;
  59:..\..\..\lvgl\version_6.1.2\lvgl\src\lv_misc/lv_txt.c **** uint32_t (*lv_txt_encoded_get_byte_id)(const char *, uint32_t) = lv_txt_utf8_get_byte_id;
  60:..\..\..\lvgl\version_6.1.2\lvgl\src\lv_misc/lv_txt.c **** uint32_t (*lv_txt_encoded_get_char_id)(const char *, uint32_t) = lv_txt_utf8_get_char_id;
  61:..\..\..\lvgl\version_6.1.2\lvgl\src\lv_misc/lv_txt.c **** uint32_t (*lv_txt_get_encoded_length)(const char *)            = lv_txt_utf8_get_length;
  62:..\..\..\lvgl\version_6.1.2\lvgl\src\lv_misc/lv_txt.c **** #elif LV_TXT_ENC == LV_TXT_ENC_ASCII
  63:..\..\..\lvgl\version_6.1.2\lvgl\src\lv_misc/lv_txt.c **** uint8_t (*lv_txt_encoded_size)(const char *)                   = lv_txt_iso8859_1_size;
  64:..\..\..\lvgl\version_6.1.2\lvgl\src\lv_misc/lv_txt.c **** uint32_t (*lv_txt_unicode_to_encoded)(uint32_t)                = lv_txt_unicode_to_iso8859_1;
  65:..\..\..\lvgl\version_6.1.2\lvgl\src\lv_misc/lv_txt.c **** uint32_t (*lv_txt_encoded_conv_wc)(uint32_t)                   = lv_txt_iso8859_1_conv_wc;
  66:..\..\..\lvgl\version_6.1.2\lvgl\src\lv_misc/lv_txt.c **** uint32_t (*lv_txt_encoded_next)(const char *, uint32_t *)      = lv_txt_iso8859_1_next;
  67:..\..\..\lvgl\version_6.1.2\lvgl\src\lv_misc/lv_txt.c **** uint32_t (*lv_txt_encoded_prev)(const char *, uint32_t *)      = lv_txt_iso8859_1_prev;
  68:..\..\..\lvgl\version_6.1.2\lvgl\src\lv_misc/lv_txt.c **** uint32_t (*lv_txt_encoded_get_byte_id)(const char *, uint32_t) = lv_txt_iso8859_1_get_byte_id;
  69:..\..\..\lvgl\version_6.1.2\lvgl\src\lv_misc/lv_txt.c **** uint32_t (*lv_txt_encoded_get_char_id)(const char *, uint32_t)     = lv_txt_iso8859_1_get_char_id;
  70:..\..\..\lvgl\version_6.1.2\lvgl\src\lv_misc/lv_txt.c **** uint32_t (*lv_txt_get_encoded_length)(const char *)            = lv_txt_iso8859_1_get_length;
  71:..\..\..\lvgl\version_6.1.2\lvgl\src\lv_misc/lv_txt.c **** 
  72:..\..\..\lvgl\version_6.1.2\lvgl\src\lv_misc/lv_txt.c **** #endif
  73:..\..\..\lvgl\version_6.1.2\lvgl\src\lv_misc/lv_txt.c **** 
  74:..\..\..\lvgl\version_6.1.2\lvgl\src\lv_misc/lv_txt.c **** /**********************
  75:..\..\..\lvgl\version_6.1.2\lvgl\src\lv_misc/lv_txt.c ****  *      MACROS
  76:..\..\..\lvgl\version_6.1.2\lvgl\src\lv_misc/lv_txt.c ****  **********************/
  77:..\..\..\lvgl\version_6.1.2\lvgl\src\lv_misc/lv_txt.c **** 
  78:..\..\..\lvgl\version_6.1.2\lvgl\src\lv_misc/lv_txt.c **** /**********************
  79:..\..\..\lvgl\version_6.1.2\lvgl\src\lv_misc/lv_txt.c ****  *   GLOBAL FUNCTIONS
  80:..\..\..\lvgl\version_6.1.2\lvgl\src\lv_misc/lv_txt.c ****  **********************/
  81:..\..\..\lvgl\version_6.1.2\lvgl\src\lv_misc/lv_txt.c **** 
  82:..\..\..\lvgl\version_6.1.2\lvgl\src\lv_misc/lv_txt.c **** /**
  83:..\..\..\lvgl\version_6.1.2\lvgl\src\lv_misc/lv_txt.c ****  * Get size of a text
  84:..\..\..\lvgl\version_6.1.2\lvgl\src\lv_misc/lv_txt.c ****  * @param size_res pointer to a 'point_t' variable to store the result
  85:..\..\..\lvgl\version_6.1.2\lvgl\src\lv_misc/lv_txt.c ****  * @param text pointer to a text
  86:..\..\..\lvgl\version_6.1.2\lvgl\src\lv_misc/lv_txt.c ****  * @param font pinter to font of the text
  87:..\..\..\lvgl\version_6.1.2\lvgl\src\lv_misc/lv_txt.c ****  * @param letter_space letter space of the text
ARM GAS  C:\Users\pearlstl\AppData\Local\Temp\ccILyAHD.s 			page 3


  88:..\..\..\lvgl\version_6.1.2\lvgl\src\lv_misc/lv_txt.c ****  * @param txt.line_space line space of the text
  89:..\..\..\lvgl\version_6.1.2\lvgl\src\lv_misc/lv_txt.c ****  * @param flags settings for the text from 'txt_flag_t' enum
  90:..\..\..\lvgl\version_6.1.2\lvgl\src\lv_misc/lv_txt.c ****  * @param max_width max with of the text (break the lines to fit this size) Set CORD_MAX to avoid
  91:..\..\..\lvgl\version_6.1.2\lvgl\src\lv_misc/lv_txt.c ****  * line breaks
  92:..\..\..\lvgl\version_6.1.2\lvgl\src\lv_misc/lv_txt.c ****  */
  93:..\..\..\lvgl\version_6.1.2\lvgl\src\lv_misc/lv_txt.c **** void lv_txt_get_size(lv_point_t * size_res, const char * text, const lv_font_t * font, lv_coord_t l
  94:..\..\..\lvgl\version_6.1.2\lvgl\src\lv_misc/lv_txt.c ****                      lv_coord_t line_space, lv_coord_t max_width, lv_txt_flag_t flag)
  95:..\..\..\lvgl\version_6.1.2\lvgl\src\lv_misc/lv_txt.c **** {
  96:..\..\..\lvgl\version_6.1.2\lvgl\src\lv_misc/lv_txt.c ****     size_res->x = 0;
  97:..\..\..\lvgl\version_6.1.2\lvgl\src\lv_misc/lv_txt.c ****     size_res->y = 0;
  98:..\..\..\lvgl\version_6.1.2\lvgl\src\lv_misc/lv_txt.c **** 
  99:..\..\..\lvgl\version_6.1.2\lvgl\src\lv_misc/lv_txt.c ****     if(text == NULL) return;
 100:..\..\..\lvgl\version_6.1.2\lvgl\src\lv_misc/lv_txt.c ****     if(font == NULL) return;
 101:..\..\..\lvgl\version_6.1.2\lvgl\src\lv_misc/lv_txt.c **** 
 102:..\..\..\lvgl\version_6.1.2\lvgl\src\lv_misc/lv_txt.c ****     if(flag & LV_TXT_FLAG_EXPAND) max_width = LV_COORD_MAX;
 103:..\..\..\lvgl\version_6.1.2\lvgl\src\lv_misc/lv_txt.c **** 
 104:..\..\..\lvgl\version_6.1.2\lvgl\src\lv_misc/lv_txt.c ****     uint32_t line_start     = 0;
 105:..\..\..\lvgl\version_6.1.2\lvgl\src\lv_misc/lv_txt.c ****     uint32_t new_line_start = 0;
 106:..\..\..\lvgl\version_6.1.2\lvgl\src\lv_misc/lv_txt.c ****     lv_coord_t act_line_length;
 107:..\..\..\lvgl\version_6.1.2\lvgl\src\lv_misc/lv_txt.c ****     uint8_t letter_height = lv_font_get_line_height(font);
 108:..\..\..\lvgl\version_6.1.2\lvgl\src\lv_misc/lv_txt.c **** 
 109:..\..\..\lvgl\version_6.1.2\lvgl\src\lv_misc/lv_txt.c ****     /*Calc. the height and longest line*/
 110:..\..\..\lvgl\version_6.1.2\lvgl\src\lv_misc/lv_txt.c ****     while(text[line_start] != '\0') {
 111:..\..\..\lvgl\version_6.1.2\lvgl\src\lv_misc/lv_txt.c ****         new_line_start += lv_txt_get_next_line(&text[line_start], font, letter_space, max_width, fl
 112:..\..\..\lvgl\version_6.1.2\lvgl\src\lv_misc/lv_txt.c **** 
 113:..\..\..\lvgl\version_6.1.2\lvgl\src\lv_misc/lv_txt.c ****         if ((unsigned long)size_res->y + (unsigned long)letter_height + (unsigned long)line_space >
 114:..\..\..\lvgl\version_6.1.2\lvgl\src\lv_misc/lv_txt.c ****             LV_LOG_WARN("lv_txt_get_size: integer overflow while calculating text height");
 115:..\..\..\lvgl\version_6.1.2\lvgl\src\lv_misc/lv_txt.c ****             return;
 116:..\..\..\lvgl\version_6.1.2\lvgl\src\lv_misc/lv_txt.c ****         } else {
 117:..\..\..\lvgl\version_6.1.2\lvgl\src\lv_misc/lv_txt.c ****             size_res->y += letter_height;
 118:..\..\..\lvgl\version_6.1.2\lvgl\src\lv_misc/lv_txt.c ****             size_res->y += line_space;
 119:..\..\..\lvgl\version_6.1.2\lvgl\src\lv_misc/lv_txt.c ****         }
 120:..\..\..\lvgl\version_6.1.2\lvgl\src\lv_misc/lv_txt.c **** 
 121:..\..\..\lvgl\version_6.1.2\lvgl\src\lv_misc/lv_txt.c ****         /*Calculate the the longest line*/
 122:..\..\..\lvgl\version_6.1.2\lvgl\src\lv_misc/lv_txt.c ****         act_line_length = lv_txt_get_width(&text[line_start], new_line_start - line_start, font, le
 123:..\..\..\lvgl\version_6.1.2\lvgl\src\lv_misc/lv_txt.c **** 
 124:..\..\..\lvgl\version_6.1.2\lvgl\src\lv_misc/lv_txt.c ****         size_res->x = LV_MATH_MAX(act_line_length, size_res->x);
 125:..\..\..\lvgl\version_6.1.2\lvgl\src\lv_misc/lv_txt.c ****         line_start  = new_line_start;
 126:..\..\..\lvgl\version_6.1.2\lvgl\src\lv_misc/lv_txt.c ****     }
 127:..\..\..\lvgl\version_6.1.2\lvgl\src\lv_misc/lv_txt.c **** 
 128:..\..\..\lvgl\version_6.1.2\lvgl\src\lv_misc/lv_txt.c ****     /*Make the text one line taller if the last character is '\n' or '\r'*/
 129:..\..\..\lvgl\version_6.1.2\lvgl\src\lv_misc/lv_txt.c ****     if((line_start != 0) && (text[line_start - 1] == '\n' || text[line_start - 1] == '\r')) {
 130:..\..\..\lvgl\version_6.1.2\lvgl\src\lv_misc/lv_txt.c ****         size_res->y += letter_height + line_space;
 131:..\..\..\lvgl\version_6.1.2\lvgl\src\lv_misc/lv_txt.c ****     }
 132:..\..\..\lvgl\version_6.1.2\lvgl\src\lv_misc/lv_txt.c **** 
 133:..\..\..\lvgl\version_6.1.2\lvgl\src\lv_misc/lv_txt.c ****     /*Correction with the last line space or set the height manually if the text is empty*/
 134:..\..\..\lvgl\version_6.1.2\lvgl\src\lv_misc/lv_txt.c ****     if(size_res->y == 0)
 135:..\..\..\lvgl\version_6.1.2\lvgl\src\lv_misc/lv_txt.c ****         size_res->y = letter_height;
 136:..\..\..\lvgl\version_6.1.2\lvgl\src\lv_misc/lv_txt.c ****     else
 137:..\..\..\lvgl\version_6.1.2\lvgl\src\lv_misc/lv_txt.c ****         size_res->y -= line_space;
 138:..\..\..\lvgl\version_6.1.2\lvgl\src\lv_misc/lv_txt.c **** }
 139:..\..\..\lvgl\version_6.1.2\lvgl\src\lv_misc/lv_txt.c **** 
 140:..\..\..\lvgl\version_6.1.2\lvgl\src\lv_misc/lv_txt.c **** /**
 141:..\..\..\lvgl\version_6.1.2\lvgl\src\lv_misc/lv_txt.c ****  * Get the next word of text. A word is delimited by break characters.
 142:..\..\..\lvgl\version_6.1.2\lvgl\src\lv_misc/lv_txt.c ****  *
 143:..\..\..\lvgl\version_6.1.2\lvgl\src\lv_misc/lv_txt.c ****  * If the word cannot fit in the max_width space, obey LV_TXT_LINE_BREAK_LONG_* rules.
 144:..\..\..\lvgl\version_6.1.2\lvgl\src\lv_misc/lv_txt.c ****  *
ARM GAS  C:\Users\pearlstl\AppData\Local\Temp\ccILyAHD.s 			page 4


 145:..\..\..\lvgl\version_6.1.2\lvgl\src\lv_misc/lv_txt.c ****  * If the next word cannot fit anything, return 0.
 146:..\..\..\lvgl\version_6.1.2\lvgl\src\lv_misc/lv_txt.c ****  *
 147:..\..\..\lvgl\version_6.1.2\lvgl\src\lv_misc/lv_txt.c ****  * If the first character is a break character, returns the next index.
 148:..\..\..\lvgl\version_6.1.2\lvgl\src\lv_misc/lv_txt.c ****  *
 149:..\..\..\lvgl\version_6.1.2\lvgl\src\lv_misc/lv_txt.c ****  * Example calls from lv_txt_get_next_line() assuming sufficent max_width and
 150:..\..\..\lvgl\version_6.1.2\lvgl\src\lv_misc/lv_txt.c ****  * txt = "Test text\n"
 151:..\..\..\lvgl\version_6.1.2\lvgl\src\lv_misc/lv_txt.c ****  *        0123456789
 152:..\..\..\lvgl\version_6.1.2\lvgl\src\lv_misc/lv_txt.c ****  *
 153:..\..\..\lvgl\version_6.1.2\lvgl\src\lv_misc/lv_txt.c ****  * Calls would be as follows:
 154:..\..\..\lvgl\version_6.1.2\lvgl\src\lv_misc/lv_txt.c ****  *     1. Return i=4, pointing at breakchar ' ', for the string "Test"
 155:..\..\..\lvgl\version_6.1.2\lvgl\src\lv_misc/lv_txt.c ****  *     2. Return i=5, since i=4 was a breakchar.
 156:..\..\..\lvgl\version_6.1.2\lvgl\src\lv_misc/lv_txt.c ****  *     3. Return i=9, pointing at breakchar '\n'
 157:..\..\..\lvgl\version_6.1.2\lvgl\src\lv_misc/lv_txt.c ****  *     4. Parenting lv_txt_get_next_line() would detect subsequent '\0'
 158:..\..\..\lvgl\version_6.1.2\lvgl\src\lv_misc/lv_txt.c ****  *
 159:..\..\..\lvgl\version_6.1.2\lvgl\src\lv_misc/lv_txt.c ****  * TODO: Returned word_w_ptr may overestimate the returned word's width when 
 160:..\..\..\lvgl\version_6.1.2\lvgl\src\lv_misc/lv_txt.c ****  * max_width is reached. In current usage, this has no impact.
 161:..\..\..\lvgl\version_6.1.2\lvgl\src\lv_misc/lv_txt.c ****  *
 162:..\..\..\lvgl\version_6.1.2\lvgl\src\lv_misc/lv_txt.c ****  * @param txt a '\0' terminated string
 163:..\..\..\lvgl\version_6.1.2\lvgl\src\lv_misc/lv_txt.c ****  * @param font pointer to a font
 164:..\..\..\lvgl\version_6.1.2\lvgl\src\lv_misc/lv_txt.c ****  * @param letter_space letter space
 165:..\..\..\lvgl\version_6.1.2\lvgl\src\lv_misc/lv_txt.c ****  * @param max_width max with of the text (break the lines to fit this size) Set CORD_MAX to avoid l
 166:..\..\..\lvgl\version_6.1.2\lvgl\src\lv_misc/lv_txt.c ****  * @param flags settings for the text from 'txt_flag_type' enum
 167:..\..\..\lvgl\version_6.1.2\lvgl\src\lv_misc/lv_txt.c ****  * @param[out] word_w_ptr width (in pixels) of the parsed word. May be NULL.
 168:..\..\..\lvgl\version_6.1.2\lvgl\src\lv_misc/lv_txt.c ****  * @param force Force return the fraction of the word that can fit in the provided space.
 169:..\..\..\lvgl\version_6.1.2\lvgl\src\lv_misc/lv_txt.c ****  * @return the index of the first char of the next word (in byte index not letter index. With UTF-8
 170:..\..\..\lvgl\version_6.1.2\lvgl\src\lv_misc/lv_txt.c ****  */
 171:..\..\..\lvgl\version_6.1.2\lvgl\src\lv_misc/lv_txt.c **** static uint16_t lv_txt_get_next_word(const char * txt, const lv_font_t * font,
 172:..\..\..\lvgl\version_6.1.2\lvgl\src\lv_misc/lv_txt.c ****                               lv_coord_t letter_space, lv_coord_t max_width,
 173:..\..\..\lvgl\version_6.1.2\lvgl\src\lv_misc/lv_txt.c ****                               lv_txt_flag_t flag, uint32_t *word_w_ptr, lv_txt_cmd_state_t * cmd_st
 174:..\..\..\lvgl\version_6.1.2\lvgl\src\lv_misc/lv_txt.c **** {
 175:..\..\..\lvgl\version_6.1.2\lvgl\src\lv_misc/lv_txt.c ****     if(txt == NULL || txt[0] == '\0') return 0;
 176:..\..\..\lvgl\version_6.1.2\lvgl\src\lv_misc/lv_txt.c ****     if(font == NULL) return 0;
 177:..\..\..\lvgl\version_6.1.2\lvgl\src\lv_misc/lv_txt.c **** 
 178:..\..\..\lvgl\version_6.1.2\lvgl\src\lv_misc/lv_txt.c ****     if(flag & LV_TXT_FLAG_EXPAND) max_width = LV_COORD_MAX;
 179:..\..\..\lvgl\version_6.1.2\lvgl\src\lv_misc/lv_txt.c **** 
 180:..\..\..\lvgl\version_6.1.2\lvgl\src\lv_misc/lv_txt.c ****     uint32_t i = 0, i_next = 0, i_next_next = 0;  /* Iterating index into txt */
 181:..\..\..\lvgl\version_6.1.2\lvgl\src\lv_misc/lv_txt.c ****     uint32_t letter = 0;      /* Letter at i */
 182:..\..\..\lvgl\version_6.1.2\lvgl\src\lv_misc/lv_txt.c ****     uint32_t letter_next = 0; /* Letter at i_next */
 183:..\..\..\lvgl\version_6.1.2\lvgl\src\lv_misc/lv_txt.c ****     lv_coord_t letter_w;
 184:..\..\..\lvgl\version_6.1.2\lvgl\src\lv_misc/lv_txt.c ****     lv_coord_t cur_w = 0;  /* Pixel Width of transversed string */
 185:..\..\..\lvgl\version_6.1.2\lvgl\src\lv_misc/lv_txt.c ****     uint32_t word_len = 0;   /* Number of characters in the transversed word */
 186:..\..\..\lvgl\version_6.1.2\lvgl\src\lv_misc/lv_txt.c ****     uint32_t break_index = NO_BREAK_FOUND; /* only used for "long" words */
 187:..\..\..\lvgl\version_6.1.2\lvgl\src\lv_misc/lv_txt.c ****     uint32_t break_letter_count = 0; /* Number of characters up to the long word break point */
 188:..\..\..\lvgl\version_6.1.2\lvgl\src\lv_misc/lv_txt.c **** 
 189:..\..\..\lvgl\version_6.1.2\lvgl\src\lv_misc/lv_txt.c ****     letter = lv_txt_encoded_next(txt, &i_next);
 190:..\..\..\lvgl\version_6.1.2\lvgl\src\lv_misc/lv_txt.c ****     i_next_next = i_next;
 191:..\..\..\lvgl\version_6.1.2\lvgl\src\lv_misc/lv_txt.c **** 
 192:..\..\..\lvgl\version_6.1.2\lvgl\src\lv_misc/lv_txt.c ****     /* Obtain the full word, regardless if it fits or not in max_width */
 193:..\..\..\lvgl\version_6.1.2\lvgl\src\lv_misc/lv_txt.c ****     while(txt[i] != '\0') {
 194:..\..\..\lvgl\version_6.1.2\lvgl\src\lv_misc/lv_txt.c ****         letter_next = lv_txt_encoded_next(txt, &i_next_next);
 195:..\..\..\lvgl\version_6.1.2\lvgl\src\lv_misc/lv_txt.c ****         word_len++;
 196:..\..\..\lvgl\version_6.1.2\lvgl\src\lv_misc/lv_txt.c **** 
 197:..\..\..\lvgl\version_6.1.2\lvgl\src\lv_misc/lv_txt.c ****         /*Handle the recolor command*/
 198:..\..\..\lvgl\version_6.1.2\lvgl\src\lv_misc/lv_txt.c ****         if((flag & LV_TXT_FLAG_RECOLOR) != 0) {
 199:..\..\..\lvgl\version_6.1.2\lvgl\src\lv_misc/lv_txt.c ****             if(lv_txt_is_cmd(cmd_state, letter) != false) {
 200:..\..\..\lvgl\version_6.1.2\lvgl\src\lv_misc/lv_txt.c ****                 i = i_next;
 201:..\..\..\lvgl\version_6.1.2\lvgl\src\lv_misc/lv_txt.c ****                 i_next = i_next_next;
ARM GAS  C:\Users\pearlstl\AppData\Local\Temp\ccILyAHD.s 			page 5


 202:..\..\..\lvgl\version_6.1.2\lvgl\src\lv_misc/lv_txt.c ****                 letter = letter_next;
 203:..\..\..\lvgl\version_6.1.2\lvgl\src\lv_misc/lv_txt.c ****                 continue;   /*Skip the letter is it is part of a command*/
 204:..\..\..\lvgl\version_6.1.2\lvgl\src\lv_misc/lv_txt.c ****             }
 205:..\..\..\lvgl\version_6.1.2\lvgl\src\lv_misc/lv_txt.c ****         }
 206:..\..\..\lvgl\version_6.1.2\lvgl\src\lv_misc/lv_txt.c **** 
 207:..\..\..\lvgl\version_6.1.2\lvgl\src\lv_misc/lv_txt.c ****         letter_w = lv_font_get_glyph_width(font, letter, letter_next);
 208:..\..\..\lvgl\version_6.1.2\lvgl\src\lv_misc/lv_txt.c ****         cur_w += letter_w;
 209:..\..\..\lvgl\version_6.1.2\lvgl\src\lv_misc/lv_txt.c **** 
 210:..\..\..\lvgl\version_6.1.2\lvgl\src\lv_misc/lv_txt.c ****         if(letter_w > 0) {
 211:..\..\..\lvgl\version_6.1.2\lvgl\src\lv_misc/lv_txt.c ****             cur_w += letter_space;
 212:..\..\..\lvgl\version_6.1.2\lvgl\src\lv_misc/lv_txt.c ****         }
 213:..\..\..\lvgl\version_6.1.2\lvgl\src\lv_misc/lv_txt.c **** 
 214:..\..\..\lvgl\version_6.1.2\lvgl\src\lv_misc/lv_txt.c ****         /* Test if this character fits within max_width */
 215:..\..\..\lvgl\version_6.1.2\lvgl\src\lv_misc/lv_txt.c ****         if(break_index == NO_BREAK_FOUND && (cur_w - letter_space) > max_width) {
 216:..\..\..\lvgl\version_6.1.2\lvgl\src\lv_misc/lv_txt.c ****             break_index = i; 
 217:..\..\..\lvgl\version_6.1.2\lvgl\src\lv_misc/lv_txt.c ****             break_letter_count = word_len - 1;
 218:..\..\..\lvgl\version_6.1.2\lvgl\src\lv_misc/lv_txt.c ****             /* break_index is now pointing at the character that doesn't fit */
 219:..\..\..\lvgl\version_6.1.2\lvgl\src\lv_misc/lv_txt.c ****         }
 220:..\..\..\lvgl\version_6.1.2\lvgl\src\lv_misc/lv_txt.c **** 
 221:..\..\..\lvgl\version_6.1.2\lvgl\src\lv_misc/lv_txt.c ****         /*Check for new line chars and breakchars*/
 222:..\..\..\lvgl\version_6.1.2\lvgl\src\lv_misc/lv_txt.c ****         if(letter == '\n' || letter == '\r' || is_break_char(letter)) {
 223:..\..\..\lvgl\version_6.1.2\lvgl\src\lv_misc/lv_txt.c ****             /* Update the output width on the first character if it fits.
 224:..\..\..\lvgl\version_6.1.2\lvgl\src\lv_misc/lv_txt.c ****              * Must do this here incase first letter is a break character. */
 225:..\..\..\lvgl\version_6.1.2\lvgl\src\lv_misc/lv_txt.c ****             if(i == 0 && break_index == NO_BREAK_FOUND && word_w_ptr != NULL) *word_w_ptr = cur_w;
 226:..\..\..\lvgl\version_6.1.2\lvgl\src\lv_misc/lv_txt.c ****             word_len--;
 227:..\..\..\lvgl\version_6.1.2\lvgl\src\lv_misc/lv_txt.c ****             break;
 228:..\..\..\lvgl\version_6.1.2\lvgl\src\lv_misc/lv_txt.c ****         }
 229:..\..\..\lvgl\version_6.1.2\lvgl\src\lv_misc/lv_txt.c **** 
 230:..\..\..\lvgl\version_6.1.2\lvgl\src\lv_misc/lv_txt.c ****         /* Update the output width */
 231:..\..\..\lvgl\version_6.1.2\lvgl\src\lv_misc/lv_txt.c ****         if( word_w_ptr != NULL && break_index == NO_BREAK_FOUND ) *word_w_ptr = cur_w;
 232:..\..\..\lvgl\version_6.1.2\lvgl\src\lv_misc/lv_txt.c **** 
 233:..\..\..\lvgl\version_6.1.2\lvgl\src\lv_misc/lv_txt.c **** 
 234:..\..\..\lvgl\version_6.1.2\lvgl\src\lv_misc/lv_txt.c ****         i = i_next;
 235:..\..\..\lvgl\version_6.1.2\lvgl\src\lv_misc/lv_txt.c ****         i_next = i_next_next;
 236:..\..\..\lvgl\version_6.1.2\lvgl\src\lv_misc/lv_txt.c ****         letter = letter_next;
 237:..\..\..\lvgl\version_6.1.2\lvgl\src\lv_misc/lv_txt.c ****     }
 238:..\..\..\lvgl\version_6.1.2\lvgl\src\lv_misc/lv_txt.c **** 
 239:..\..\..\lvgl\version_6.1.2\lvgl\src\lv_misc/lv_txt.c ****     /* Entire Word fits in the provided space */
 240:..\..\..\lvgl\version_6.1.2\lvgl\src\lv_misc/lv_txt.c ****     if( break_index == NO_BREAK_FOUND ) {
 241:..\..\..\lvgl\version_6.1.2\lvgl\src\lv_misc/lv_txt.c ****         if( word_len == 0 || (letter == '\r' && letter_next == '\n') ) i = i_next;
 242:..\..\..\lvgl\version_6.1.2\lvgl\src\lv_misc/lv_txt.c ****         return i;
 243:..\..\..\lvgl\version_6.1.2\lvgl\src\lv_misc/lv_txt.c ****     }
 244:..\..\..\lvgl\version_6.1.2\lvgl\src\lv_misc/lv_txt.c **** 
 245:..\..\..\lvgl\version_6.1.2\lvgl\src\lv_misc/lv_txt.c **** #if LV_TXT_LINE_BREAK_LONG_LEN > 0
 246:..\..\..\lvgl\version_6.1.2\lvgl\src\lv_misc/lv_txt.c ****     /* Word doesn't fit in provided space, but isn't "long" */
 247:..\..\..\lvgl\version_6.1.2\lvgl\src\lv_misc/lv_txt.c ****     if(word_len < LV_TXT_LINE_BREAK_LONG_LEN) {
 248:..\..\..\lvgl\version_6.1.2\lvgl\src\lv_misc/lv_txt.c ****         if( force ) return break_index;
 249:..\..\..\lvgl\version_6.1.2\lvgl\src\lv_misc/lv_txt.c ****         if(word_w_ptr != NULL) *word_w_ptr = 0; /* Return no word */
 250:..\..\..\lvgl\version_6.1.2\lvgl\src\lv_misc/lv_txt.c ****         return 0;
 251:..\..\..\lvgl\version_6.1.2\lvgl\src\lv_misc/lv_txt.c ****     }
 252:..\..\..\lvgl\version_6.1.2\lvgl\src\lv_misc/lv_txt.c **** 
 253:..\..\..\lvgl\version_6.1.2\lvgl\src\lv_misc/lv_txt.c ****     /* Word is "long," but insufficient amounts can fit in provided space */
 254:..\..\..\lvgl\version_6.1.2\lvgl\src\lv_misc/lv_txt.c ****     if(break_letter_count < LV_TXT_LINE_BREAK_LONG_PRE_MIN_LEN) {
 255:..\..\..\lvgl\version_6.1.2\lvgl\src\lv_misc/lv_txt.c ****         if( force ) return break_index;
 256:..\..\..\lvgl\version_6.1.2\lvgl\src\lv_misc/lv_txt.c ****         if(word_w_ptr != NULL) *word_w_ptr = 0;
 257:..\..\..\lvgl\version_6.1.2\lvgl\src\lv_misc/lv_txt.c ****         return 0;
 258:..\..\..\lvgl\version_6.1.2\lvgl\src\lv_misc/lv_txt.c ****     }
ARM GAS  C:\Users\pearlstl\AppData\Local\Temp\ccILyAHD.s 			page 6


 259:..\..\..\lvgl\version_6.1.2\lvgl\src\lv_misc/lv_txt.c **** 
 260:..\..\..\lvgl\version_6.1.2\lvgl\src\lv_misc/lv_txt.c ****     /* Word is a "long", but letters may need to be better distributed */
 261:..\..\..\lvgl\version_6.1.2\lvgl\src\lv_misc/lv_txt.c ****     {
 262:..\..\..\lvgl\version_6.1.2\lvgl\src\lv_misc/lv_txt.c ****         i = break_index;
 263:..\..\..\lvgl\version_6.1.2\lvgl\src\lv_misc/lv_txt.c ****         int32_t n_move = LV_TXT_LINE_BREAK_LONG_POST_MIN_LEN - (word_len - break_letter_count);
 264:..\..\..\lvgl\version_6.1.2\lvgl\src\lv_misc/lv_txt.c ****         /* Move pointer "i" backwards */
 265:..\..\..\lvgl\version_6.1.2\lvgl\src\lv_misc/lv_txt.c ****         for(;n_move>0; n_move--){
 266:..\..\..\lvgl\version_6.1.2\lvgl\src\lv_misc/lv_txt.c ****             lv_txt_encoded_prev(txt, &i);
 267:..\..\..\lvgl\version_6.1.2\lvgl\src\lv_misc/lv_txt.c ****             // TODO: it would be appropriate to update the returned word width here
 268:..\..\..\lvgl\version_6.1.2\lvgl\src\lv_misc/lv_txt.c ****             // However, in current usage, this doesn't impact anything.
 269:..\..\..\lvgl\version_6.1.2\lvgl\src\lv_misc/lv_txt.c ****         }
 270:..\..\..\lvgl\version_6.1.2\lvgl\src\lv_misc/lv_txt.c ****     }
 271:..\..\..\lvgl\version_6.1.2\lvgl\src\lv_misc/lv_txt.c ****     return i;
 272:..\..\..\lvgl\version_6.1.2\lvgl\src\lv_misc/lv_txt.c **** #else
 273:..\..\..\lvgl\version_6.1.2\lvgl\src\lv_misc/lv_txt.c ****     if( force ) return break_index;
 274:..\..\..\lvgl\version_6.1.2\lvgl\src\lv_misc/lv_txt.c ****     if(word_w_ptr != NULL) *word_w_ptr = 0; /* Return no word */
 275:..\..\..\lvgl\version_6.1.2\lvgl\src\lv_misc/lv_txt.c ****     (void) break_letter_count;
 276:..\..\..\lvgl\version_6.1.2\lvgl\src\lv_misc/lv_txt.c ****     return 0;
 277:..\..\..\lvgl\version_6.1.2\lvgl\src\lv_misc/lv_txt.c **** #endif
 278:..\..\..\lvgl\version_6.1.2\lvgl\src\lv_misc/lv_txt.c **** }
 279:..\..\..\lvgl\version_6.1.2\lvgl\src\lv_misc/lv_txt.c **** 
 280:..\..\..\lvgl\version_6.1.2\lvgl\src\lv_misc/lv_txt.c **** /**
 281:..\..\..\lvgl\version_6.1.2\lvgl\src\lv_misc/lv_txt.c ****  * Get the next line of text. Check line length and break chars too.
 282:..\..\..\lvgl\version_6.1.2\lvgl\src\lv_misc/lv_txt.c ****  *
 283:..\..\..\lvgl\version_6.1.2\lvgl\src\lv_misc/lv_txt.c ****  * A line of txt includes the \n character.
 284:..\..\..\lvgl\version_6.1.2\lvgl\src\lv_misc/lv_txt.c ****  *
 285:..\..\..\lvgl\version_6.1.2\lvgl\src\lv_misc/lv_txt.c ****  * @param txt a '\0' terminated string
 286:..\..\..\lvgl\version_6.1.2\lvgl\src\lv_misc/lv_txt.c ****  * @param font pointer to a font
 287:..\..\..\lvgl\version_6.1.2\lvgl\src\lv_misc/lv_txt.c ****  * @param letter_space letter space
 288:..\..\..\lvgl\version_6.1.2\lvgl\src\lv_misc/lv_txt.c ****  * @param max_width max with of the text (break the lines to fit this size) Set CORD_MAX to avoid l
 289:..\..\..\lvgl\version_6.1.2\lvgl\src\lv_misc/lv_txt.c ****  * @param flags settings for the text from 'txt_flag_type' enum
 290:..\..\..\lvgl\version_6.1.2\lvgl\src\lv_misc/lv_txt.c ****  * @return the index of the first char of the new line (in byte index not letter index. With UTF-8 
 291:..\..\..\lvgl\version_6.1.2\lvgl\src\lv_misc/lv_txt.c ****  */
 292:..\..\..\lvgl\version_6.1.2\lvgl\src\lv_misc/lv_txt.c **** uint16_t lv_txt_get_next_line(const char * txt, const lv_font_t * font,
 293:..\..\..\lvgl\version_6.1.2\lvgl\src\lv_misc/lv_txt.c ****                               lv_coord_t letter_space, lv_coord_t max_width, lv_txt_flag_t flag)
 294:..\..\..\lvgl\version_6.1.2\lvgl\src\lv_misc/lv_txt.c **** {
 295:..\..\..\lvgl\version_6.1.2\lvgl\src\lv_misc/lv_txt.c ****     if(txt == NULL) return 0;
 296:..\..\..\lvgl\version_6.1.2\lvgl\src\lv_misc/lv_txt.c ****     if(font == NULL) return 0;
 297:..\..\..\lvgl\version_6.1.2\lvgl\src\lv_misc/lv_txt.c **** 
 298:..\..\..\lvgl\version_6.1.2\lvgl\src\lv_misc/lv_txt.c ****     if(flag & LV_TXT_FLAG_EXPAND) max_width = LV_COORD_MAX;
 299:..\..\..\lvgl\version_6.1.2\lvgl\src\lv_misc/lv_txt.c ****     lv_txt_cmd_state_t cmd_state = LV_TXT_CMD_STATE_WAIT;
 300:..\..\..\lvgl\version_6.1.2\lvgl\src\lv_misc/lv_txt.c ****     uint32_t i = 0;                                        /* Iterating index into txt */
 301:..\..\..\lvgl\version_6.1.2\lvgl\src\lv_misc/lv_txt.c **** 
 302:..\..\..\lvgl\version_6.1.2\lvgl\src\lv_misc/lv_txt.c ****     while(txt[i] != '\0' && max_width > 0) {
 303:..\..\..\lvgl\version_6.1.2\lvgl\src\lv_misc/lv_txt.c ****         uint32_t word_w = 0;
 304:..\..\..\lvgl\version_6.1.2\lvgl\src\lv_misc/lv_txt.c ****         uint32_t advance = lv_txt_get_next_word(&txt[i], font, letter_space, max_width, flag, &word
 305:..\..\..\lvgl\version_6.1.2\lvgl\src\lv_misc/lv_txt.c ****         max_width -= word_w;
 306:..\..\..\lvgl\version_6.1.2\lvgl\src\lv_misc/lv_txt.c **** 
 307:..\..\..\lvgl\version_6.1.2\lvgl\src\lv_misc/lv_txt.c ****         if( advance == 0 ){
 308:..\..\..\lvgl\version_6.1.2\lvgl\src\lv_misc/lv_txt.c ****             if(i == 0) lv_txt_encoded_next(txt, &i); // prevent inf loops
 309:..\..\..\lvgl\version_6.1.2\lvgl\src\lv_misc/lv_txt.c ****             break;
 310:..\..\..\lvgl\version_6.1.2\lvgl\src\lv_misc/lv_txt.c ****         }
 311:..\..\..\lvgl\version_6.1.2\lvgl\src\lv_misc/lv_txt.c **** 
 312:..\..\..\lvgl\version_6.1.2\lvgl\src\lv_misc/lv_txt.c ****         i += advance;
 313:..\..\..\lvgl\version_6.1.2\lvgl\src\lv_misc/lv_txt.c **** 
 314:..\..\..\lvgl\version_6.1.2\lvgl\src\lv_misc/lv_txt.c ****         if(txt[0] == '\n' || txt[0] == '\r') break;
 315:..\..\..\lvgl\version_6.1.2\lvgl\src\lv_misc/lv_txt.c **** 
ARM GAS  C:\Users\pearlstl\AppData\Local\Temp\ccILyAHD.s 			page 7


 316:..\..\..\lvgl\version_6.1.2\lvgl\src\lv_misc/lv_txt.c ****         if(txt[i] == '\n' || txt[i] == '\r'){
 317:..\..\..\lvgl\version_6.1.2\lvgl\src\lv_misc/lv_txt.c ****             i++;  /* Include the following newline in the current line */
 318:..\..\..\lvgl\version_6.1.2\lvgl\src\lv_misc/lv_txt.c ****             break;
 319:..\..\..\lvgl\version_6.1.2\lvgl\src\lv_misc/lv_txt.c ****         }
 320:..\..\..\lvgl\version_6.1.2\lvgl\src\lv_misc/lv_txt.c **** 
 321:..\..\..\lvgl\version_6.1.2\lvgl\src\lv_misc/lv_txt.c ****     }
 322:..\..\..\lvgl\version_6.1.2\lvgl\src\lv_misc/lv_txt.c **** 
 323:..\..\..\lvgl\version_6.1.2\lvgl\src\lv_misc/lv_txt.c ****     /* Always step at least one to avoid infinite loops */
 324:..\..\..\lvgl\version_6.1.2\lvgl\src\lv_misc/lv_txt.c ****     if(i == 0) {
 325:..\..\..\lvgl\version_6.1.2\lvgl\src\lv_misc/lv_txt.c ****         lv_txt_encoded_next(txt, &i);
 326:..\..\..\lvgl\version_6.1.2\lvgl\src\lv_misc/lv_txt.c ****     }
 327:..\..\..\lvgl\version_6.1.2\lvgl\src\lv_misc/lv_txt.c **** 
 328:..\..\..\lvgl\version_6.1.2\lvgl\src\lv_misc/lv_txt.c ****     return i;
 329:..\..\..\lvgl\version_6.1.2\lvgl\src\lv_misc/lv_txt.c **** }
 330:..\..\..\lvgl\version_6.1.2\lvgl\src\lv_misc/lv_txt.c **** 
 331:..\..\..\lvgl\version_6.1.2\lvgl\src\lv_misc/lv_txt.c **** /**
 332:..\..\..\lvgl\version_6.1.2\lvgl\src\lv_misc/lv_txt.c ****  * Give the length of a text with a given font
 333:..\..\..\lvgl\version_6.1.2\lvgl\src\lv_misc/lv_txt.c ****  * @param txt a '\0' terminate string
 334:..\..\..\lvgl\version_6.1.2\lvgl\src\lv_misc/lv_txt.c ****  * @param length length of 'txt' in byte count and not characters (Á is 1 character but 2 bytes in
 335:..\..\..\lvgl\version_6.1.2\lvgl\src\lv_misc/lv_txt.c ****  * UTF-8)
 336:..\..\..\lvgl\version_6.1.2\lvgl\src\lv_misc/lv_txt.c ****  * @param font pointer to a font
 337:..\..\..\lvgl\version_6.1.2\lvgl\src\lv_misc/lv_txt.c ****  * @param letter_space letter space
 338:..\..\..\lvgl\version_6.1.2\lvgl\src\lv_misc/lv_txt.c ****  * @param flags settings for the text from 'txt_flag_t' enum
 339:..\..\..\lvgl\version_6.1.2\lvgl\src\lv_misc/lv_txt.c ****  * @return length of a char_num long text
 340:..\..\..\lvgl\version_6.1.2\lvgl\src\lv_misc/lv_txt.c ****  */
 341:..\..\..\lvgl\version_6.1.2\lvgl\src\lv_misc/lv_txt.c **** lv_coord_t lv_txt_get_width(const char * txt, uint16_t length, const lv_font_t * font, lv_coord_t l
 342:..\..\..\lvgl\version_6.1.2\lvgl\src\lv_misc/lv_txt.c ****                             lv_txt_flag_t flag)
 343:..\..\..\lvgl\version_6.1.2\lvgl\src\lv_misc/lv_txt.c **** {
 344:..\..\..\lvgl\version_6.1.2\lvgl\src\lv_misc/lv_txt.c ****     if(txt == NULL) return 0;
 345:..\..\..\lvgl\version_6.1.2\lvgl\src\lv_misc/lv_txt.c ****     if(font == NULL) return 0;
 346:..\..\..\lvgl\version_6.1.2\lvgl\src\lv_misc/lv_txt.c **** 
 347:..\..\..\lvgl\version_6.1.2\lvgl\src\lv_misc/lv_txt.c ****     uint32_t i                   = 0;
 348:..\..\..\lvgl\version_6.1.2\lvgl\src\lv_misc/lv_txt.c ****     lv_coord_t width             = 0;
 349:..\..\..\lvgl\version_6.1.2\lvgl\src\lv_misc/lv_txt.c ****     lv_txt_cmd_state_t cmd_state = LV_TXT_CMD_STATE_WAIT;
 350:..\..\..\lvgl\version_6.1.2\lvgl\src\lv_misc/lv_txt.c ****     uint32_t letter;
 351:..\..\..\lvgl\version_6.1.2\lvgl\src\lv_misc/lv_txt.c ****     uint32_t letter_next;
 352:..\..\..\lvgl\version_6.1.2\lvgl\src\lv_misc/lv_txt.c **** 
 353:..\..\..\lvgl\version_6.1.2\lvgl\src\lv_misc/lv_txt.c ****     if(length != 0) {
 354:..\..\..\lvgl\version_6.1.2\lvgl\src\lv_misc/lv_txt.c ****         while(i < length) {
 355:..\..\..\lvgl\version_6.1.2\lvgl\src\lv_misc/lv_txt.c ****             letter      = lv_txt_encoded_next(txt, &i);
 356:..\..\..\lvgl\version_6.1.2\lvgl\src\lv_misc/lv_txt.c ****             letter_next = lv_txt_encoded_next(&txt[i], NULL);
 357:..\..\..\lvgl\version_6.1.2\lvgl\src\lv_misc/lv_txt.c ****             if((flag & LV_TXT_FLAG_RECOLOR) != 0) {
 358:..\..\..\lvgl\version_6.1.2\lvgl\src\lv_misc/lv_txt.c ****                 if(lv_txt_is_cmd(&cmd_state, letter) != false) {
 359:..\..\..\lvgl\version_6.1.2\lvgl\src\lv_misc/lv_txt.c ****                     continue;
 360:..\..\..\lvgl\version_6.1.2\lvgl\src\lv_misc/lv_txt.c ****                 }
 361:..\..\..\lvgl\version_6.1.2\lvgl\src\lv_misc/lv_txt.c ****             }
 362:..\..\..\lvgl\version_6.1.2\lvgl\src\lv_misc/lv_txt.c **** 
 363:..\..\..\lvgl\version_6.1.2\lvgl\src\lv_misc/lv_txt.c ****             lv_coord_t char_width = lv_font_get_glyph_width(font, letter, letter_next);
 364:..\..\..\lvgl\version_6.1.2\lvgl\src\lv_misc/lv_txt.c ****             if(char_width > 0) {
 365:..\..\..\lvgl\version_6.1.2\lvgl\src\lv_misc/lv_txt.c ****                 width += char_width;
 366:..\..\..\lvgl\version_6.1.2\lvgl\src\lv_misc/lv_txt.c ****                 width += letter_space;
 367:..\..\..\lvgl\version_6.1.2\lvgl\src\lv_misc/lv_txt.c ****             }
 368:..\..\..\lvgl\version_6.1.2\lvgl\src\lv_misc/lv_txt.c ****         }
 369:..\..\..\lvgl\version_6.1.2\lvgl\src\lv_misc/lv_txt.c **** 
 370:..\..\..\lvgl\version_6.1.2\lvgl\src\lv_misc/lv_txt.c ****         if(width > 0) {
 371:..\..\..\lvgl\version_6.1.2\lvgl\src\lv_misc/lv_txt.c ****             width -= letter_space; /*Trim the last letter space. Important if the text is center
 372:..\..\..\lvgl\version_6.1.2\lvgl\src\lv_misc/lv_txt.c ****                                       aligned */
ARM GAS  C:\Users\pearlstl\AppData\Local\Temp\ccILyAHD.s 			page 8


 373:..\..\..\lvgl\version_6.1.2\lvgl\src\lv_misc/lv_txt.c ****         }
 374:..\..\..\lvgl\version_6.1.2\lvgl\src\lv_misc/lv_txt.c ****     }
 375:..\..\..\lvgl\version_6.1.2\lvgl\src\lv_misc/lv_txt.c **** 
 376:..\..\..\lvgl\version_6.1.2\lvgl\src\lv_misc/lv_txt.c ****     return width;
 377:..\..\..\lvgl\version_6.1.2\lvgl\src\lv_misc/lv_txt.c **** }
 378:..\..\..\lvgl\version_6.1.2\lvgl\src\lv_misc/lv_txt.c **** 
 379:..\..\..\lvgl\version_6.1.2\lvgl\src\lv_misc/lv_txt.c **** /**
 380:..\..\..\lvgl\version_6.1.2\lvgl\src\lv_misc/lv_txt.c ****  * Check next character in a string and decide if the character is part of the command or not
 381:..\..\..\lvgl\version_6.1.2\lvgl\src\lv_misc/lv_txt.c ****  * @param state pointer to a txt_cmd_state_t variable which stores the current state of command
 382:..\..\..\lvgl\version_6.1.2\lvgl\src\lv_misc/lv_txt.c ****  * processing (Initied. to TXT_CMD_STATE_WAIT )
 383:..\..\..\lvgl\version_6.1.2\lvgl\src\lv_misc/lv_txt.c ****  * @param c the current character
 384:..\..\..\lvgl\version_6.1.2\lvgl\src\lv_misc/lv_txt.c ****  * @return true: the character is part of a command and should not be written,
 385:..\..\..\lvgl\version_6.1.2\lvgl\src\lv_misc/lv_txt.c ****  *         false: the character should be written
 386:..\..\..\lvgl\version_6.1.2\lvgl\src\lv_misc/lv_txt.c ****  */
 387:..\..\..\lvgl\version_6.1.2\lvgl\src\lv_misc/lv_txt.c **** bool lv_txt_is_cmd(lv_txt_cmd_state_t * state, uint32_t c)
 388:..\..\..\lvgl\version_6.1.2\lvgl\src\lv_misc/lv_txt.c **** {
 389:..\..\..\lvgl\version_6.1.2\lvgl\src\lv_misc/lv_txt.c ****     bool ret = false;
 390:..\..\..\lvgl\version_6.1.2\lvgl\src\lv_misc/lv_txt.c **** 
 391:..\..\..\lvgl\version_6.1.2\lvgl\src\lv_misc/lv_txt.c ****     if(c == (uint32_t)LV_TXT_COLOR_CMD[0]) {
 392:..\..\..\lvgl\version_6.1.2\lvgl\src\lv_misc/lv_txt.c ****         if(*state == LV_TXT_CMD_STATE_WAIT) { /*Start char*/
 393:..\..\..\lvgl\version_6.1.2\lvgl\src\lv_misc/lv_txt.c ****             *state = LV_TXT_CMD_STATE_PAR;
 394:..\..\..\lvgl\version_6.1.2\lvgl\src\lv_misc/lv_txt.c ****             ret    = true;
 395:..\..\..\lvgl\version_6.1.2\lvgl\src\lv_misc/lv_txt.c ****         }
 396:..\..\..\lvgl\version_6.1.2\lvgl\src\lv_misc/lv_txt.c ****         /*Other start char in parameter is escaped cmd. char */
 397:..\..\..\lvgl\version_6.1.2\lvgl\src\lv_misc/lv_txt.c ****         else if(*state == LV_TXT_CMD_STATE_PAR) {
 398:..\..\..\lvgl\version_6.1.2\lvgl\src\lv_misc/lv_txt.c ****             *state = LV_TXT_CMD_STATE_WAIT;
 399:..\..\..\lvgl\version_6.1.2\lvgl\src\lv_misc/lv_txt.c ****         }
 400:..\..\..\lvgl\version_6.1.2\lvgl\src\lv_misc/lv_txt.c ****         /*Command end */
 401:..\..\..\lvgl\version_6.1.2\lvgl\src\lv_misc/lv_txt.c ****         else if(*state == LV_TXT_CMD_STATE_IN) {
 402:..\..\..\lvgl\version_6.1.2\lvgl\src\lv_misc/lv_txt.c ****             *state = LV_TXT_CMD_STATE_WAIT;
 403:..\..\..\lvgl\version_6.1.2\lvgl\src\lv_misc/lv_txt.c ****             ret    = true;
 404:..\..\..\lvgl\version_6.1.2\lvgl\src\lv_misc/lv_txt.c ****         }
 405:..\..\..\lvgl\version_6.1.2\lvgl\src\lv_misc/lv_txt.c ****     }
 406:..\..\..\lvgl\version_6.1.2\lvgl\src\lv_misc/lv_txt.c **** 
 407:..\..\..\lvgl\version_6.1.2\lvgl\src\lv_misc/lv_txt.c ****     /*Skip the color parameter and wait the space after it*/
 408:..\..\..\lvgl\version_6.1.2\lvgl\src\lv_misc/lv_txt.c ****     if(*state == LV_TXT_CMD_STATE_PAR) {
 409:..\..\..\lvgl\version_6.1.2\lvgl\src\lv_misc/lv_txt.c ****         if(c == ' ') {
 410:..\..\..\lvgl\version_6.1.2\lvgl\src\lv_misc/lv_txt.c ****             *state = LV_TXT_CMD_STATE_IN; /*After the parameter the text is in the command*/
 411:..\..\..\lvgl\version_6.1.2\lvgl\src\lv_misc/lv_txt.c ****         }
 412:..\..\..\lvgl\version_6.1.2\lvgl\src\lv_misc/lv_txt.c ****         ret = true;
 413:..\..\..\lvgl\version_6.1.2\lvgl\src\lv_misc/lv_txt.c ****     }
 414:..\..\..\lvgl\version_6.1.2\lvgl\src\lv_misc/lv_txt.c **** 
 415:..\..\..\lvgl\version_6.1.2\lvgl\src\lv_misc/lv_txt.c ****     return ret;
 416:..\..\..\lvgl\version_6.1.2\lvgl\src\lv_misc/lv_txt.c **** }
 417:..\..\..\lvgl\version_6.1.2\lvgl\src\lv_misc/lv_txt.c **** 
 418:..\..\..\lvgl\version_6.1.2\lvgl\src\lv_misc/lv_txt.c **** /**
 419:..\..\..\lvgl\version_6.1.2\lvgl\src\lv_misc/lv_txt.c ****  * Insert a string into an other
 420:..\..\..\lvgl\version_6.1.2\lvgl\src\lv_misc/lv_txt.c ****  * @param txt_buf the original text (must be big enough for the result text)
 421:..\..\..\lvgl\version_6.1.2\lvgl\src\lv_misc/lv_txt.c ****  * @param pos position to insert. Expressed in character index and not byte index (Different in
 422:..\..\..\lvgl\version_6.1.2\lvgl\src\lv_misc/lv_txt.c ****  * UTF-8) 0: before the original text, 1: after the first char etc.
 423:..\..\..\lvgl\version_6.1.2\lvgl\src\lv_misc/lv_txt.c ****  * @param ins_txt text to insert
 424:..\..\..\lvgl\version_6.1.2\lvgl\src\lv_misc/lv_txt.c ****  */
 425:..\..\..\lvgl\version_6.1.2\lvgl\src\lv_misc/lv_txt.c **** void lv_txt_ins(char * txt_buf, uint32_t pos, const char * ins_txt)
 426:..\..\..\lvgl\version_6.1.2\lvgl\src\lv_misc/lv_txt.c **** {
 427:..\..\..\lvgl\version_6.1.2\lvgl\src\lv_misc/lv_txt.c ****     size_t old_len = strlen(txt_buf);
 428:..\..\..\lvgl\version_6.1.2\lvgl\src\lv_misc/lv_txt.c ****     size_t ins_len = strlen(ins_txt);
 429:..\..\..\lvgl\version_6.1.2\lvgl\src\lv_misc/lv_txt.c ****     size_t new_len = ins_len + old_len;
ARM GAS  C:\Users\pearlstl\AppData\Local\Temp\ccILyAHD.s 			page 9


 430:..\..\..\lvgl\version_6.1.2\lvgl\src\lv_misc/lv_txt.c ****     pos              = lv_txt_encoded_get_byte_id(txt_buf, pos); /*Convert to byte index instead of
 431:..\..\..\lvgl\version_6.1.2\lvgl\src\lv_misc/lv_txt.c **** 
 432:..\..\..\lvgl\version_6.1.2\lvgl\src\lv_misc/lv_txt.c ****     /*Copy the second part into the end to make place to text to insert*/
 433:..\..\..\lvgl\version_6.1.2\lvgl\src\lv_misc/lv_txt.c ****     size_t i;
 434:..\..\..\lvgl\version_6.1.2\lvgl\src\lv_misc/lv_txt.c ****     for(i = new_len; i >= pos + ins_len; i--) {
 435:..\..\..\lvgl\version_6.1.2\lvgl\src\lv_misc/lv_txt.c ****         txt_buf[i] = txt_buf[i - ins_len];
 436:..\..\..\lvgl\version_6.1.2\lvgl\src\lv_misc/lv_txt.c ****     }
 437:..\..\..\lvgl\version_6.1.2\lvgl\src\lv_misc/lv_txt.c **** 
 438:..\..\..\lvgl\version_6.1.2\lvgl\src\lv_misc/lv_txt.c ****     /* Copy the text into the new space*/
 439:..\..\..\lvgl\version_6.1.2\lvgl\src\lv_misc/lv_txt.c ****     memcpy(txt_buf + pos, ins_txt, ins_len);
 440:..\..\..\lvgl\version_6.1.2\lvgl\src\lv_misc/lv_txt.c **** }
 441:..\..\..\lvgl\version_6.1.2\lvgl\src\lv_misc/lv_txt.c **** 
 442:..\..\..\lvgl\version_6.1.2\lvgl\src\lv_misc/lv_txt.c **** /**
 443:..\..\..\lvgl\version_6.1.2\lvgl\src\lv_misc/lv_txt.c ****  * Delete a part of a string
 444:..\..\..\lvgl\version_6.1.2\lvgl\src\lv_misc/lv_txt.c ****  * @param txt string to modify
 445:..\..\..\lvgl\version_6.1.2\lvgl\src\lv_misc/lv_txt.c ****  * @param pos position where to start the deleting (0: before the first char, 1: after the first
 446:..\..\..\lvgl\version_6.1.2\lvgl\src\lv_misc/lv_txt.c ****  * char etc.)
 447:..\..\..\lvgl\version_6.1.2\lvgl\src\lv_misc/lv_txt.c ****  * @param len number of characters to delete
 448:..\..\..\lvgl\version_6.1.2\lvgl\src\lv_misc/lv_txt.c ****  */
 449:..\..\..\lvgl\version_6.1.2\lvgl\src\lv_misc/lv_txt.c **** void lv_txt_cut(char * txt, uint32_t pos, uint32_t len)
 450:..\..\..\lvgl\version_6.1.2\lvgl\src\lv_misc/lv_txt.c **** {
 451:..\..\..\lvgl\version_6.1.2\lvgl\src\lv_misc/lv_txt.c **** 
 452:..\..\..\lvgl\version_6.1.2\lvgl\src\lv_misc/lv_txt.c ****     size_t old_len = strlen(txt);
 453:..\..\..\lvgl\version_6.1.2\lvgl\src\lv_misc/lv_txt.c **** 
 454:..\..\..\lvgl\version_6.1.2\lvgl\src\lv_misc/lv_txt.c ****     pos = lv_txt_encoded_get_byte_id(txt, pos); /*Convert to byte index instead of letter index*/
 455:..\..\..\lvgl\version_6.1.2\lvgl\src\lv_misc/lv_txt.c ****     len = lv_txt_encoded_get_byte_id(&txt[pos], len);
 456:..\..\..\lvgl\version_6.1.2\lvgl\src\lv_misc/lv_txt.c **** 
 457:..\..\..\lvgl\version_6.1.2\lvgl\src\lv_misc/lv_txt.c ****     /*Copy the second part into the end to make place to text to insert*/
 458:..\..\..\lvgl\version_6.1.2\lvgl\src\lv_misc/lv_txt.c ****     uint32_t i;
 459:..\..\..\lvgl\version_6.1.2\lvgl\src\lv_misc/lv_txt.c ****     for(i = pos; i <= old_len - len; i++) {
 460:..\..\..\lvgl\version_6.1.2\lvgl\src\lv_misc/lv_txt.c ****         txt[i] = txt[i + len];
 461:..\..\..\lvgl\version_6.1.2\lvgl\src\lv_misc/lv_txt.c ****     }
 462:..\..\..\lvgl\version_6.1.2\lvgl\src\lv_misc/lv_txt.c **** }
 463:..\..\..\lvgl\version_6.1.2\lvgl\src\lv_misc/lv_txt.c **** 
 464:..\..\..\lvgl\version_6.1.2\lvgl\src\lv_misc/lv_txt.c **** #if LV_TXT_ENC == LV_TXT_ENC_UTF8
 465:..\..\..\lvgl\version_6.1.2\lvgl\src\lv_misc/lv_txt.c **** /*******************************
 466:..\..\..\lvgl\version_6.1.2\lvgl\src\lv_misc/lv_txt.c ****  *   UTF-8 ENCODER/DECOER
 467:..\..\..\lvgl\version_6.1.2\lvgl\src\lv_misc/lv_txt.c ****  ******************************/
 468:..\..\..\lvgl\version_6.1.2\lvgl\src\lv_misc/lv_txt.c **** 
 469:..\..\..\lvgl\version_6.1.2\lvgl\src\lv_misc/lv_txt.c **** /**
 470:..\..\..\lvgl\version_6.1.2\lvgl\src\lv_misc/lv_txt.c ****  * Give the size of an UTF-8 coded character
 471:..\..\..\lvgl\version_6.1.2\lvgl\src\lv_misc/lv_txt.c ****  * @param str pointer to a character in a string
 472:..\..\..\lvgl\version_6.1.2\lvgl\src\lv_misc/lv_txt.c ****  * @return length of the UTF-8 character (1,2,3 or 4). O on invalid code
 473:..\..\..\lvgl\version_6.1.2\lvgl\src\lv_misc/lv_txt.c ****  */
 474:..\..\..\lvgl\version_6.1.2\lvgl\src\lv_misc/lv_txt.c **** static uint8_t lv_txt_utf8_size(const char * str)
 475:..\..\..\lvgl\version_6.1.2\lvgl\src\lv_misc/lv_txt.c **** {
 476:..\..\..\lvgl\version_6.1.2\lvgl\src\lv_misc/lv_txt.c ****     if((str[0] & 0x80) == 0)
 477:..\..\..\lvgl\version_6.1.2\lvgl\src\lv_misc/lv_txt.c ****         return 1;
 478:..\..\..\lvgl\version_6.1.2\lvgl\src\lv_misc/lv_txt.c ****     else if((str[0] & 0xE0) == 0xC0)
 479:..\..\..\lvgl\version_6.1.2\lvgl\src\lv_misc/lv_txt.c ****         return 2;
 480:..\..\..\lvgl\version_6.1.2\lvgl\src\lv_misc/lv_txt.c ****     else if((str[0] & 0xF0) == 0xE0)
 481:..\..\..\lvgl\version_6.1.2\lvgl\src\lv_misc/lv_txt.c ****         return 3;
 482:..\..\..\lvgl\version_6.1.2\lvgl\src\lv_misc/lv_txt.c ****     else if((str[0] & 0xF8) == 0xF0)
 483:..\..\..\lvgl\version_6.1.2\lvgl\src\lv_misc/lv_txt.c ****         return 4;
 484:..\..\..\lvgl\version_6.1.2\lvgl\src\lv_misc/lv_txt.c ****     return 0; /*If the char was invalid tell it's 1 byte long*/
 485:..\..\..\lvgl\version_6.1.2\lvgl\src\lv_misc/lv_txt.c **** }
 486:..\..\..\lvgl\version_6.1.2\lvgl\src\lv_misc/lv_txt.c **** 
ARM GAS  C:\Users\pearlstl\AppData\Local\Temp\ccILyAHD.s 			page 10


 487:..\..\..\lvgl\version_6.1.2\lvgl\src\lv_misc/lv_txt.c **** /**
 488:..\..\..\lvgl\version_6.1.2\lvgl\src\lv_misc/lv_txt.c ****  * Convert an Unicode letter to UTF-8.
 489:..\..\..\lvgl\version_6.1.2\lvgl\src\lv_misc/lv_txt.c ****  * @param letter_uni an Unicode letter
 490:..\..\..\lvgl\version_6.1.2\lvgl\src\lv_misc/lv_txt.c ****  * @return UTF-8 coded character in Little Endian to be compatible with C chars (e.g. 'Á', 'Ű')
 491:..\..\..\lvgl\version_6.1.2\lvgl\src\lv_misc/lv_txt.c ****  */
 492:..\..\..\lvgl\version_6.1.2\lvgl\src\lv_misc/lv_txt.c **** static uint32_t lv_txt_unicode_to_utf8(uint32_t letter_uni)
 493:..\..\..\lvgl\version_6.1.2\lvgl\src\lv_misc/lv_txt.c **** {
 494:..\..\..\lvgl\version_6.1.2\lvgl\src\lv_misc/lv_txt.c ****     if(letter_uni < 128) return letter_uni;
 495:..\..\..\lvgl\version_6.1.2\lvgl\src\lv_misc/lv_txt.c ****     uint8_t bytes[4];
 496:..\..\..\lvgl\version_6.1.2\lvgl\src\lv_misc/lv_txt.c **** 
 497:..\..\..\lvgl\version_6.1.2\lvgl\src\lv_misc/lv_txt.c ****     if(letter_uni < 0x0800) {
 498:..\..\..\lvgl\version_6.1.2\lvgl\src\lv_misc/lv_txt.c ****         bytes[0] = ((letter_uni >> 6) & 0x1F) | 0xC0;
 499:..\..\..\lvgl\version_6.1.2\lvgl\src\lv_misc/lv_txt.c ****         bytes[1] = ((letter_uni >> 0) & 0x3F) | 0x80;
 500:..\..\..\lvgl\version_6.1.2\lvgl\src\lv_misc/lv_txt.c ****         bytes[2] = 0;
 501:..\..\..\lvgl\version_6.1.2\lvgl\src\lv_misc/lv_txt.c ****         bytes[3] = 0;
 502:..\..\..\lvgl\version_6.1.2\lvgl\src\lv_misc/lv_txt.c ****     } else if(letter_uni < 0x010000) {
 503:..\..\..\lvgl\version_6.1.2\lvgl\src\lv_misc/lv_txt.c ****         bytes[0] = ((letter_uni >> 12) & 0x0F) | 0xE0;
 504:..\..\..\lvgl\version_6.1.2\lvgl\src\lv_misc/lv_txt.c ****         bytes[1] = ((letter_uni >> 6) & 0x3F) | 0x80;
 505:..\..\..\lvgl\version_6.1.2\lvgl\src\lv_misc/lv_txt.c ****         bytes[2] = ((letter_uni >> 0) & 0x3F) | 0x80;
 506:..\..\..\lvgl\version_6.1.2\lvgl\src\lv_misc/lv_txt.c ****         bytes[3] = 0;
 507:..\..\..\lvgl\version_6.1.2\lvgl\src\lv_misc/lv_txt.c ****     } else if(letter_uni < 0x110000) {
 508:..\..\..\lvgl\version_6.1.2\lvgl\src\lv_misc/lv_txt.c ****         bytes[0] = ((letter_uni >> 18) & 0x07) | 0xF0;
 509:..\..\..\lvgl\version_6.1.2\lvgl\src\lv_misc/lv_txt.c ****         bytes[1] = ((letter_uni >> 12) & 0x3F) | 0x80;
 510:..\..\..\lvgl\version_6.1.2\lvgl\src\lv_misc/lv_txt.c ****         bytes[2] = ((letter_uni >> 6) & 0x3F) | 0x80;
 511:..\..\..\lvgl\version_6.1.2\lvgl\src\lv_misc/lv_txt.c ****         bytes[3] = ((letter_uni >> 0) & 0x3F) | 0x80;
 512:..\..\..\lvgl\version_6.1.2\lvgl\src\lv_misc/lv_txt.c ****     }
 513:..\..\..\lvgl\version_6.1.2\lvgl\src\lv_misc/lv_txt.c **** 
 514:..\..\..\lvgl\version_6.1.2\lvgl\src\lv_misc/lv_txt.c ****     uint32_t * res_p = (uint32_t *)bytes;
 515:..\..\..\lvgl\version_6.1.2\lvgl\src\lv_misc/lv_txt.c ****     return *res_p;
 516:..\..\..\lvgl\version_6.1.2\lvgl\src\lv_misc/lv_txt.c **** }
 517:..\..\..\lvgl\version_6.1.2\lvgl\src\lv_misc/lv_txt.c **** 
 518:..\..\..\lvgl\version_6.1.2\lvgl\src\lv_misc/lv_txt.c **** /**
 519:..\..\..\lvgl\version_6.1.2\lvgl\src\lv_misc/lv_txt.c ****  * Convert a wide character, e.g. 'Á' little endian to be UTF-8 compatible
 520:..\..\..\lvgl\version_6.1.2\lvgl\src\lv_misc/lv_txt.c ****  * @param c a wide character or a  Little endian number
 521:..\..\..\lvgl\version_6.1.2\lvgl\src\lv_misc/lv_txt.c ****  * @return `c` in big endian
 522:..\..\..\lvgl\version_6.1.2\lvgl\src\lv_misc/lv_txt.c ****  */
 523:..\..\..\lvgl\version_6.1.2\lvgl\src\lv_misc/lv_txt.c **** static uint32_t lv_txt_utf8_conv_wc(uint32_t c)
 524:..\..\..\lvgl\version_6.1.2\lvgl\src\lv_misc/lv_txt.c **** {
 525:..\..\..\lvgl\version_6.1.2\lvgl\src\lv_misc/lv_txt.c ****     /*Swap the bytes (UTF-8 is big endian, but the MCUs are little endian)*/
 526:..\..\..\lvgl\version_6.1.2\lvgl\src\lv_misc/lv_txt.c ****     if((c & 0x80) != 0) {
 527:..\..\..\lvgl\version_6.1.2\lvgl\src\lv_misc/lv_txt.c ****         uint32_t swapped;
 528:..\..\..\lvgl\version_6.1.2\lvgl\src\lv_misc/lv_txt.c ****         uint8_t c8[4];
 529:..\..\..\lvgl\version_6.1.2\lvgl\src\lv_misc/lv_txt.c ****         memcpy(c8, &c, 4);
 530:..\..\..\lvgl\version_6.1.2\lvgl\src\lv_misc/lv_txt.c ****         swapped = (c8[0] << 24) + (c8[1] << 16) + (c8[2] << 8) + (c8[3]);
 531:..\..\..\lvgl\version_6.1.2\lvgl\src\lv_misc/lv_txt.c ****         uint8_t i;
 532:..\..\..\lvgl\version_6.1.2\lvgl\src\lv_misc/lv_txt.c ****         for(i = 0; i < 4; i++) {
 533:..\..\..\lvgl\version_6.1.2\lvgl\src\lv_misc/lv_txt.c ****             if((swapped & 0xFF) == 0)
 534:..\..\..\lvgl\version_6.1.2\lvgl\src\lv_misc/lv_txt.c ****                 swapped = (swapped >> 8); /*Ignore leading zeros (they were in the end originally)*
 535:..\..\..\lvgl\version_6.1.2\lvgl\src\lv_misc/lv_txt.c ****         }
 536:..\..\..\lvgl\version_6.1.2\lvgl\src\lv_misc/lv_txt.c ****         c = swapped;
 537:..\..\..\lvgl\version_6.1.2\lvgl\src\lv_misc/lv_txt.c ****     }
 538:..\..\..\lvgl\version_6.1.2\lvgl\src\lv_misc/lv_txt.c **** 
 539:..\..\..\lvgl\version_6.1.2\lvgl\src\lv_misc/lv_txt.c ****     return c;
 540:..\..\..\lvgl\version_6.1.2\lvgl\src\lv_misc/lv_txt.c **** }
 541:..\..\..\lvgl\version_6.1.2\lvgl\src\lv_misc/lv_txt.c **** 
 542:..\..\..\lvgl\version_6.1.2\lvgl\src\lv_misc/lv_txt.c **** /**
 543:..\..\..\lvgl\version_6.1.2\lvgl\src\lv_misc/lv_txt.c ****  * Decode an UTF-8 character from a string.
ARM GAS  C:\Users\pearlstl\AppData\Local\Temp\ccILyAHD.s 			page 11


 544:..\..\..\lvgl\version_6.1.2\lvgl\src\lv_misc/lv_txt.c ****  * @param txt pointer to '\0' terminated string
 545:..\..\..\lvgl\version_6.1.2\lvgl\src\lv_misc/lv_txt.c ****  * @param i start byte index in 'txt' where to start.
 546:..\..\..\lvgl\version_6.1.2\lvgl\src\lv_misc/lv_txt.c ****  *          After call it will point to the next UTF-8 char in 'txt'.
 547:..\..\..\lvgl\version_6.1.2\lvgl\src\lv_misc/lv_txt.c ****  *          NULL to use txt[0] as index
 548:..\..\..\lvgl\version_6.1.2\lvgl\src\lv_misc/lv_txt.c ****  * @return the decoded Unicode character or 0 on invalid UTF-8 code
 549:..\..\..\lvgl\version_6.1.2\lvgl\src\lv_misc/lv_txt.c ****  */
 550:..\..\..\lvgl\version_6.1.2\lvgl\src\lv_misc/lv_txt.c **** static uint32_t lv_txt_utf8_next(const char * txt, uint32_t * i)
 551:..\..\..\lvgl\version_6.1.2\lvgl\src\lv_misc/lv_txt.c **** {
 552:..\..\..\lvgl\version_6.1.2\lvgl\src\lv_misc/lv_txt.c ****     /* Unicode to UTF-8
 553:..\..\..\lvgl\version_6.1.2\lvgl\src\lv_misc/lv_txt.c ****      * 00000000 00000000 00000000 0xxxxxxx -> 0xxxxxxx
 554:..\..\..\lvgl\version_6.1.2\lvgl\src\lv_misc/lv_txt.c ****      * 00000000 00000000 00000yyy yyxxxxxx -> 110yyyyy 10xxxxxx
 555:..\..\..\lvgl\version_6.1.2\lvgl\src\lv_misc/lv_txt.c ****      * 00000000 00000000 zzzzyyyy yyxxxxxx -> 1110zzzz 10yyyyyy 10xxxxxx
 556:..\..\..\lvgl\version_6.1.2\lvgl\src\lv_misc/lv_txt.c ****      * 00000000 000wwwzz zzzzyyyy yyxxxxxx -> 11110www 10zzzzzz 10yyyyyy 10xxxxxx
 557:..\..\..\lvgl\version_6.1.2\lvgl\src\lv_misc/lv_txt.c ****      * */
 558:..\..\..\lvgl\version_6.1.2\lvgl\src\lv_misc/lv_txt.c **** 
 559:..\..\..\lvgl\version_6.1.2\lvgl\src\lv_misc/lv_txt.c ****     uint32_t result = 0;
 560:..\..\..\lvgl\version_6.1.2\lvgl\src\lv_misc/lv_txt.c **** 
 561:..\..\..\lvgl\version_6.1.2\lvgl\src\lv_misc/lv_txt.c ****     /*Dummy 'i' pointer is required*/
 562:..\..\..\lvgl\version_6.1.2\lvgl\src\lv_misc/lv_txt.c ****     uint32_t i_tmp = 0;
 563:..\..\..\lvgl\version_6.1.2\lvgl\src\lv_misc/lv_txt.c ****     if(i == NULL) i = &i_tmp;
 564:..\..\..\lvgl\version_6.1.2\lvgl\src\lv_misc/lv_txt.c **** 
 565:..\..\..\lvgl\version_6.1.2\lvgl\src\lv_misc/lv_txt.c ****     /*Normal ASCII*/
 566:..\..\..\lvgl\version_6.1.2\lvgl\src\lv_misc/lv_txt.c ****     if((txt[*i] & 0x80) == 0) {
 567:..\..\..\lvgl\version_6.1.2\lvgl\src\lv_misc/lv_txt.c ****         result = txt[*i];
 568:..\..\..\lvgl\version_6.1.2\lvgl\src\lv_misc/lv_txt.c ****         (*i)++;
 569:..\..\..\lvgl\version_6.1.2\lvgl\src\lv_misc/lv_txt.c ****     }
 570:..\..\..\lvgl\version_6.1.2\lvgl\src\lv_misc/lv_txt.c ****     /*Real UTF-8 decode*/
 571:..\..\..\lvgl\version_6.1.2\lvgl\src\lv_misc/lv_txt.c ****     else {
 572:..\..\..\lvgl\version_6.1.2\lvgl\src\lv_misc/lv_txt.c ****         /*2 bytes UTF-8 code*/
 573:..\..\..\lvgl\version_6.1.2\lvgl\src\lv_misc/lv_txt.c ****         if((txt[*i] & 0xE0) == 0xC0) {
 574:..\..\..\lvgl\version_6.1.2\lvgl\src\lv_misc/lv_txt.c ****             result = (uint32_t)(txt[*i] & 0x1F) << 6;
 575:..\..\..\lvgl\version_6.1.2\lvgl\src\lv_misc/lv_txt.c ****             (*i)++;
 576:..\..\..\lvgl\version_6.1.2\lvgl\src\lv_misc/lv_txt.c ****             if((txt[*i] & 0xC0) != 0x80) return 0; /*Invalid UTF-8 code*/
 577:..\..\..\lvgl\version_6.1.2\lvgl\src\lv_misc/lv_txt.c ****             result += (txt[*i] & 0x3F);
 578:..\..\..\lvgl\version_6.1.2\lvgl\src\lv_misc/lv_txt.c ****             (*i)++;
 579:..\..\..\lvgl\version_6.1.2\lvgl\src\lv_misc/lv_txt.c ****         }
 580:..\..\..\lvgl\version_6.1.2\lvgl\src\lv_misc/lv_txt.c ****         /*3 bytes UTF-8 code*/
 581:..\..\..\lvgl\version_6.1.2\lvgl\src\lv_misc/lv_txt.c ****         else if((txt[*i] & 0xF0) == 0xE0) {
 582:..\..\..\lvgl\version_6.1.2\lvgl\src\lv_misc/lv_txt.c ****             result = (uint32_t)(txt[*i] & 0x0F) << 12;
 583:..\..\..\lvgl\version_6.1.2\lvgl\src\lv_misc/lv_txt.c ****             (*i)++;
 584:..\..\..\lvgl\version_6.1.2\lvgl\src\lv_misc/lv_txt.c **** 
 585:..\..\..\lvgl\version_6.1.2\lvgl\src\lv_misc/lv_txt.c ****             if((txt[*i] & 0xC0) != 0x80) return 0; /*Invalid UTF-8 code*/
 586:..\..\..\lvgl\version_6.1.2\lvgl\src\lv_misc/lv_txt.c ****             result += (uint32_t)(txt[*i] & 0x3F) << 6;
 587:..\..\..\lvgl\version_6.1.2\lvgl\src\lv_misc/lv_txt.c ****             (*i)++;
 588:..\..\..\lvgl\version_6.1.2\lvgl\src\lv_misc/lv_txt.c **** 
 589:..\..\..\lvgl\version_6.1.2\lvgl\src\lv_misc/lv_txt.c ****             if((txt[*i] & 0xC0) != 0x80) return 0; /*Invalid UTF-8 code*/
 590:..\..\..\lvgl\version_6.1.2\lvgl\src\lv_misc/lv_txt.c ****             result += (txt[*i] & 0x3F);
 591:..\..\..\lvgl\version_6.1.2\lvgl\src\lv_misc/lv_txt.c ****             (*i)++;
 592:..\..\..\lvgl\version_6.1.2\lvgl\src\lv_misc/lv_txt.c ****         }
 593:..\..\..\lvgl\version_6.1.2\lvgl\src\lv_misc/lv_txt.c ****         /*4 bytes UTF-8 code*/
 594:..\..\..\lvgl\version_6.1.2\lvgl\src\lv_misc/lv_txt.c ****         else if((txt[*i] & 0xF8) == 0xF0) {
 595:..\..\..\lvgl\version_6.1.2\lvgl\src\lv_misc/lv_txt.c ****             result = (uint32_t)(txt[*i] & 0x07) << 18;
 596:..\..\..\lvgl\version_6.1.2\lvgl\src\lv_misc/lv_txt.c ****             (*i)++;
 597:..\..\..\lvgl\version_6.1.2\lvgl\src\lv_misc/lv_txt.c **** 
 598:..\..\..\lvgl\version_6.1.2\lvgl\src\lv_misc/lv_txt.c ****             if((txt[*i] & 0xC0) != 0x80) return 0; /*Invalid UTF-8 code*/
 599:..\..\..\lvgl\version_6.1.2\lvgl\src\lv_misc/lv_txt.c ****             result += (uint32_t)(txt[*i] & 0x3F) << 12;
 600:..\..\..\lvgl\version_6.1.2\lvgl\src\lv_misc/lv_txt.c ****             (*i)++;
ARM GAS  C:\Users\pearlstl\AppData\Local\Temp\ccILyAHD.s 			page 12


 601:..\..\..\lvgl\version_6.1.2\lvgl\src\lv_misc/lv_txt.c **** 
 602:..\..\..\lvgl\version_6.1.2\lvgl\src\lv_misc/lv_txt.c ****             if((txt[*i] & 0xC0) != 0x80) return 0; /*Invalid UTF-8 code*/
 603:..\..\..\lvgl\version_6.1.2\lvgl\src\lv_misc/lv_txt.c ****             result += (uint32_t)(txt[*i] & 0x3F) << 6;
 604:..\..\..\lvgl\version_6.1.2\lvgl\src\lv_misc/lv_txt.c ****             (*i)++;
 605:..\..\..\lvgl\version_6.1.2\lvgl\src\lv_misc/lv_txt.c **** 
 606:..\..\..\lvgl\version_6.1.2\lvgl\src\lv_misc/lv_txt.c ****             if((txt[*i] & 0xC0) != 0x80) return 0; /*Invalid UTF-8 code*/
 607:..\..\..\lvgl\version_6.1.2\lvgl\src\lv_misc/lv_txt.c ****             result += txt[*i] & 0x3F;
 608:..\..\..\lvgl\version_6.1.2\lvgl\src\lv_misc/lv_txt.c ****             (*i)++;
 609:..\..\..\lvgl\version_6.1.2\lvgl\src\lv_misc/lv_txt.c ****         } else {
 610:..\..\..\lvgl\version_6.1.2\lvgl\src\lv_misc/lv_txt.c ****             (*i)++; /*Not UTF-8 char. Go the next.*/
 611:..\..\..\lvgl\version_6.1.2\lvgl\src\lv_misc/lv_txt.c ****         }
 612:..\..\..\lvgl\version_6.1.2\lvgl\src\lv_misc/lv_txt.c ****     }
 613:..\..\..\lvgl\version_6.1.2\lvgl\src\lv_misc/lv_txt.c ****     return result;
 614:..\..\..\lvgl\version_6.1.2\lvgl\src\lv_misc/lv_txt.c **** }
 615:..\..\..\lvgl\version_6.1.2\lvgl\src\lv_misc/lv_txt.c **** 
 616:..\..\..\lvgl\version_6.1.2\lvgl\src\lv_misc/lv_txt.c **** /**
 617:..\..\..\lvgl\version_6.1.2\lvgl\src\lv_misc/lv_txt.c ****  * Get previous UTF-8 character form a string.
 618:..\..\..\lvgl\version_6.1.2\lvgl\src\lv_misc/lv_txt.c ****  * @param txt pointer to '\0' terminated string
 619:..\..\..\lvgl\version_6.1.2\lvgl\src\lv_misc/lv_txt.c ****  * @param i start byte index in 'txt' where to start. After the call it will point to the previous
 620:..\..\..\lvgl\version_6.1.2\lvgl\src\lv_misc/lv_txt.c ****  * UTF-8 char in 'txt'.
 621:..\..\..\lvgl\version_6.1.2\lvgl\src\lv_misc/lv_txt.c ****  * @return the decoded Unicode character or 0 on invalid UTF-8 code
 622:..\..\..\lvgl\version_6.1.2\lvgl\src\lv_misc/lv_txt.c ****  */
 623:..\..\..\lvgl\version_6.1.2\lvgl\src\lv_misc/lv_txt.c **** static uint32_t lv_txt_utf8_prev(const char * txt, uint32_t * i)
 624:..\..\..\lvgl\version_6.1.2\lvgl\src\lv_misc/lv_txt.c **** {
 625:..\..\..\lvgl\version_6.1.2\lvgl\src\lv_misc/lv_txt.c ****     uint8_t c_size;
 626:..\..\..\lvgl\version_6.1.2\lvgl\src\lv_misc/lv_txt.c ****     uint8_t cnt = 0;
 627:..\..\..\lvgl\version_6.1.2\lvgl\src\lv_misc/lv_txt.c **** 
 628:..\..\..\lvgl\version_6.1.2\lvgl\src\lv_misc/lv_txt.c ****     /*Try to find a !0 long UTF-8 char by stepping one character back*/
 629:..\..\..\lvgl\version_6.1.2\lvgl\src\lv_misc/lv_txt.c ****     (*i)--;
 630:..\..\..\lvgl\version_6.1.2\lvgl\src\lv_misc/lv_txt.c ****     do {
 631:..\..\..\lvgl\version_6.1.2\lvgl\src\lv_misc/lv_txt.c ****         if(cnt >= 4) return 0; /*No UTF-8 char found before the initial*/
 632:..\..\..\lvgl\version_6.1.2\lvgl\src\lv_misc/lv_txt.c **** 
 633:..\..\..\lvgl\version_6.1.2\lvgl\src\lv_misc/lv_txt.c ****         c_size = lv_txt_encoded_size(&txt[*i]);
 634:..\..\..\lvgl\version_6.1.2\lvgl\src\lv_misc/lv_txt.c ****         if(c_size == 0) {
 635:..\..\..\lvgl\version_6.1.2\lvgl\src\lv_misc/lv_txt.c ****             if(*i != 0)
 636:..\..\..\lvgl\version_6.1.2\lvgl\src\lv_misc/lv_txt.c ****                 (*i)--;
 637:..\..\..\lvgl\version_6.1.2\lvgl\src\lv_misc/lv_txt.c ****             else
 638:..\..\..\lvgl\version_6.1.2\lvgl\src\lv_misc/lv_txt.c ****                 return 0;
 639:..\..\..\lvgl\version_6.1.2\lvgl\src\lv_misc/lv_txt.c ****         }
 640:..\..\..\lvgl\version_6.1.2\lvgl\src\lv_misc/lv_txt.c ****         cnt++;
 641:..\..\..\lvgl\version_6.1.2\lvgl\src\lv_misc/lv_txt.c ****     } while(c_size == 0);
 642:..\..\..\lvgl\version_6.1.2\lvgl\src\lv_misc/lv_txt.c **** 
 643:..\..\..\lvgl\version_6.1.2\lvgl\src\lv_misc/lv_txt.c ****     uint32_t i_tmp  = *i;
 644:..\..\..\lvgl\version_6.1.2\lvgl\src\lv_misc/lv_txt.c ****     uint32_t letter = lv_txt_encoded_next(txt, &i_tmp); /*Character found, get it*/
 645:..\..\..\lvgl\version_6.1.2\lvgl\src\lv_misc/lv_txt.c **** 
 646:..\..\..\lvgl\version_6.1.2\lvgl\src\lv_misc/lv_txt.c ****     return letter;
 647:..\..\..\lvgl\version_6.1.2\lvgl\src\lv_misc/lv_txt.c **** }
 648:..\..\..\lvgl\version_6.1.2\lvgl\src\lv_misc/lv_txt.c **** 
 649:..\..\..\lvgl\version_6.1.2\lvgl\src\lv_misc/lv_txt.c **** /**
 650:..\..\..\lvgl\version_6.1.2\lvgl\src\lv_misc/lv_txt.c ****  * Convert a character index (in an UTF-8 text) to byte index.
 651:..\..\..\lvgl\version_6.1.2\lvgl\src\lv_misc/lv_txt.c ****  * E.g. in "AÁRT" index of 'R' is 2th char but start at byte 3 because 'Á' is 2 bytes long
 652:..\..\..\lvgl\version_6.1.2\lvgl\src\lv_misc/lv_txt.c ****  * @param txt a '\0' terminated UTF-8 string
 653:..\..\..\lvgl\version_6.1.2\lvgl\src\lv_misc/lv_txt.c ****  * @param utf8_id character index
 654:..\..\..\lvgl\version_6.1.2\lvgl\src\lv_misc/lv_txt.c ****  * @return byte index of the 'utf8_id'th letter
 655:..\..\..\lvgl\version_6.1.2\lvgl\src\lv_misc/lv_txt.c ****  */
 656:..\..\..\lvgl\version_6.1.2\lvgl\src\lv_misc/lv_txt.c **** static uint32_t lv_txt_utf8_get_byte_id(const char * txt, uint32_t utf8_id)
 657:..\..\..\lvgl\version_6.1.2\lvgl\src\lv_misc/lv_txt.c **** {
ARM GAS  C:\Users\pearlstl\AppData\Local\Temp\ccILyAHD.s 			page 13


 658:..\..\..\lvgl\version_6.1.2\lvgl\src\lv_misc/lv_txt.c ****     uint32_t i;
 659:..\..\..\lvgl\version_6.1.2\lvgl\src\lv_misc/lv_txt.c ****     uint32_t byte_cnt = 0;
 660:..\..\..\lvgl\version_6.1.2\lvgl\src\lv_misc/lv_txt.c ****     for(i = 0; i < utf8_id; i++) {
 661:..\..\..\lvgl\version_6.1.2\lvgl\src\lv_misc/lv_txt.c ****         uint8_t c_size = lv_txt_encoded_size(&txt[byte_cnt]);
 662:..\..\..\lvgl\version_6.1.2\lvgl\src\lv_misc/lv_txt.c ****         byte_cnt += c_size > 0 ? c_size : 1;
 663:..\..\..\lvgl\version_6.1.2\lvgl\src\lv_misc/lv_txt.c ****     }
 664:..\..\..\lvgl\version_6.1.2\lvgl\src\lv_misc/lv_txt.c **** 
 665:..\..\..\lvgl\version_6.1.2\lvgl\src\lv_misc/lv_txt.c ****     return byte_cnt;
 666:..\..\..\lvgl\version_6.1.2\lvgl\src\lv_misc/lv_txt.c **** }
 667:..\..\..\lvgl\version_6.1.2\lvgl\src\lv_misc/lv_txt.c **** 
 668:..\..\..\lvgl\version_6.1.2\lvgl\src\lv_misc/lv_txt.c **** /**
 669:..\..\..\lvgl\version_6.1.2\lvgl\src\lv_misc/lv_txt.c ****  * Convert a byte index (in an UTF-8 text) to character index.
 670:..\..\..\lvgl\version_6.1.2\lvgl\src\lv_misc/lv_txt.c ****  * E.g. in "AÁRT" index of 'R' is 2th char but start at byte 3 because 'Á' is 2 bytes long
 671:..\..\..\lvgl\version_6.1.2\lvgl\src\lv_misc/lv_txt.c ****  * @param txt a '\0' terminated UTF-8 string
 672:..\..\..\lvgl\version_6.1.2\lvgl\src\lv_misc/lv_txt.c ****  * @param byte_id byte index
 673:..\..\..\lvgl\version_6.1.2\lvgl\src\lv_misc/lv_txt.c ****  * @return character index of the letter at 'byte_id'th position
 674:..\..\..\lvgl\version_6.1.2\lvgl\src\lv_misc/lv_txt.c ****  */
 675:..\..\..\lvgl\version_6.1.2\lvgl\src\lv_misc/lv_txt.c **** static uint32_t lv_txt_utf8_get_char_id(const char * txt, uint32_t byte_id)
 676:..\..\..\lvgl\version_6.1.2\lvgl\src\lv_misc/lv_txt.c **** {
 677:..\..\..\lvgl\version_6.1.2\lvgl\src\lv_misc/lv_txt.c ****     uint32_t i        = 0;
 678:..\..\..\lvgl\version_6.1.2\lvgl\src\lv_misc/lv_txt.c ****     uint32_t char_cnt = 0;
 679:..\..\..\lvgl\version_6.1.2\lvgl\src\lv_misc/lv_txt.c **** 
 680:..\..\..\lvgl\version_6.1.2\lvgl\src\lv_misc/lv_txt.c ****     while(i < byte_id) {
 681:..\..\..\lvgl\version_6.1.2\lvgl\src\lv_misc/lv_txt.c ****         lv_txt_encoded_next(txt, &i); /*'i' points to the next letter so use the prev. value*/
 682:..\..\..\lvgl\version_6.1.2\lvgl\src\lv_misc/lv_txt.c ****         char_cnt++;
 683:..\..\..\lvgl\version_6.1.2\lvgl\src\lv_misc/lv_txt.c ****     }
 684:..\..\..\lvgl\version_6.1.2\lvgl\src\lv_misc/lv_txt.c **** 
 685:..\..\..\lvgl\version_6.1.2\lvgl\src\lv_misc/lv_txt.c ****     return char_cnt;
 686:..\..\..\lvgl\version_6.1.2\lvgl\src\lv_misc/lv_txt.c **** }
 687:..\..\..\lvgl\version_6.1.2\lvgl\src\lv_misc/lv_txt.c **** 
 688:..\..\..\lvgl\version_6.1.2\lvgl\src\lv_misc/lv_txt.c **** /**
 689:..\..\..\lvgl\version_6.1.2\lvgl\src\lv_misc/lv_txt.c ****  * Get the number of characters (and NOT bytes) in a string. Decode it with UTF-8 if enabled.
 690:..\..\..\lvgl\version_6.1.2\lvgl\src\lv_misc/lv_txt.c ****  * E.g.: "ÁBC" is 3 characters (but 4 bytes)
 691:..\..\..\lvgl\version_6.1.2\lvgl\src\lv_misc/lv_txt.c ****  * @param txt a '\0' terminated char string
 692:..\..\..\lvgl\version_6.1.2\lvgl\src\lv_misc/lv_txt.c ****  * @return number of characters
 693:..\..\..\lvgl\version_6.1.2\lvgl\src\lv_misc/lv_txt.c ****  */
 694:..\..\..\lvgl\version_6.1.2\lvgl\src\lv_misc/lv_txt.c **** static uint32_t lv_txt_utf8_get_length(const char * txt)
 695:..\..\..\lvgl\version_6.1.2\lvgl\src\lv_misc/lv_txt.c **** {
 696:..\..\..\lvgl\version_6.1.2\lvgl\src\lv_misc/lv_txt.c ****     uint32_t len = 0;
 697:..\..\..\lvgl\version_6.1.2\lvgl\src\lv_misc/lv_txt.c ****     uint32_t i   = 0;
 698:..\..\..\lvgl\version_6.1.2\lvgl\src\lv_misc/lv_txt.c **** 
 699:..\..\..\lvgl\version_6.1.2\lvgl\src\lv_misc/lv_txt.c ****     while(txt[i] != '\0') {
 700:..\..\..\lvgl\version_6.1.2\lvgl\src\lv_misc/lv_txt.c ****         lv_txt_encoded_next(txt, &i);
 701:..\..\..\lvgl\version_6.1.2\lvgl\src\lv_misc/lv_txt.c ****         len++;
 702:..\..\..\lvgl\version_6.1.2\lvgl\src\lv_misc/lv_txt.c ****     }
 703:..\..\..\lvgl\version_6.1.2\lvgl\src\lv_misc/lv_txt.c **** 
 704:..\..\..\lvgl\version_6.1.2\lvgl\src\lv_misc/lv_txt.c ****     return len;
 705:..\..\..\lvgl\version_6.1.2\lvgl\src\lv_misc/lv_txt.c **** }
 706:..\..\..\lvgl\version_6.1.2\lvgl\src\lv_misc/lv_txt.c **** 
 707:..\..\..\lvgl\version_6.1.2\lvgl\src\lv_misc/lv_txt.c **** #elif LV_TXT_ENC == LV_TXT_ENC_ASCII
 708:..\..\..\lvgl\version_6.1.2\lvgl\src\lv_misc/lv_txt.c **** /*******************************
 709:..\..\..\lvgl\version_6.1.2\lvgl\src\lv_misc/lv_txt.c ****  *  ASCII ENCODER/DECOER
 710:..\..\..\lvgl\version_6.1.2\lvgl\src\lv_misc/lv_txt.c ****  ******************************/
 711:..\..\..\lvgl\version_6.1.2\lvgl\src\lv_misc/lv_txt.c **** 
 712:..\..\..\lvgl\version_6.1.2\lvgl\src\lv_misc/lv_txt.c **** /**
 713:..\..\..\lvgl\version_6.1.2\lvgl\src\lv_misc/lv_txt.c ****  * Give the size of an ISO8859-1 coded character
 714:..\..\..\lvgl\version_6.1.2\lvgl\src\lv_misc/lv_txt.c ****  * @param str pointer to a character in a string
ARM GAS  C:\Users\pearlstl\AppData\Local\Temp\ccILyAHD.s 			page 14


 715:..\..\..\lvgl\version_6.1.2\lvgl\src\lv_misc/lv_txt.c ****  * @return length of the UTF-8 character (1,2,3 or 4). O on invalid code
 716:..\..\..\lvgl\version_6.1.2\lvgl\src\lv_misc/lv_txt.c ****  */
 717:..\..\..\lvgl\version_6.1.2\lvgl\src\lv_misc/lv_txt.c **** static uint8_t lv_txt_iso8859_1_size(const char * str)
 718:..\..\..\lvgl\version_6.1.2\lvgl\src\lv_misc/lv_txt.c **** {
  28              		.loc 1 718 0
  29              		.cfi_startproc
  30              		@ args = 0, pretend = 0, frame = 0
  31              		@ frame_needed = 0, uses_anonymous_args = 0
  32              		@ link register save eliminated.
  33              	.LVL0:
 719:..\..\..\lvgl\version_6.1.2\lvgl\src\lv_misc/lv_txt.c ****     (void)str; /*Unused*/
 720:..\..\..\lvgl\version_6.1.2\lvgl\src\lv_misc/lv_txt.c ****     return 1;
 721:..\..\..\lvgl\version_6.1.2\lvgl\src\lv_misc/lv_txt.c **** }
  34              		.loc 1 721 0
  35 0000 0120     		movs	r0, #1
  36              	.LVL1:
  37 0002 7047     		bx	lr
  38              		.cfi_endproc
  39              	.LFE11:
  40              		.size	lv_txt_iso8859_1_size, .-lv_txt_iso8859_1_size
  41              		.section	.text.lv_txt_unicode_to_iso8859_1,"ax",%progbits
  42              		.align	2
  43              		.thumb
  44              		.thumb_func
  45              		.type	lv_txt_unicode_to_iso8859_1, %function
  46              	lv_txt_unicode_to_iso8859_1:
  47              	.LFB12:
 722:..\..\..\lvgl\version_6.1.2\lvgl\src\lv_misc/lv_txt.c **** 
 723:..\..\..\lvgl\version_6.1.2\lvgl\src\lv_misc/lv_txt.c **** /**
 724:..\..\..\lvgl\version_6.1.2\lvgl\src\lv_misc/lv_txt.c ****  * Convert an Unicode letter to ISO8859-1.
 725:..\..\..\lvgl\version_6.1.2\lvgl\src\lv_misc/lv_txt.c ****  * @param letter_uni an Unicode letter
 726:..\..\..\lvgl\version_6.1.2\lvgl\src\lv_misc/lv_txt.c ****  * @return ISO8859-1 coded character in Little Endian to be compatible with C chars (e.g. 'Á', 'Ű
 727:..\..\..\lvgl\version_6.1.2\lvgl\src\lv_misc/lv_txt.c ****  */
 728:..\..\..\lvgl\version_6.1.2\lvgl\src\lv_misc/lv_txt.c **** static uint32_t lv_txt_unicode_to_iso8859_1(uint32_t letter_uni)
 729:..\..\..\lvgl\version_6.1.2\lvgl\src\lv_misc/lv_txt.c **** {
  48              		.loc 1 729 0
  49              		.cfi_startproc
  50              		@ args = 0, pretend = 0, frame = 0
  51              		@ frame_needed = 0, uses_anonymous_args = 0
  52              		@ link register save eliminated.
  53              	.LVL2:
 730:..\..\..\lvgl\version_6.1.2\lvgl\src\lv_misc/lv_txt.c ****     if(letter_uni < 128)
 731:..\..\..\lvgl\version_6.1.2\lvgl\src\lv_misc/lv_txt.c ****         return letter_uni;
 732:..\..\..\lvgl\version_6.1.2\lvgl\src\lv_misc/lv_txt.c ****     else
 733:..\..\..\lvgl\version_6.1.2\lvgl\src\lv_misc/lv_txt.c ****         return ' ';
 734:..\..\..\lvgl\version_6.1.2\lvgl\src\lv_misc/lv_txt.c **** }
  54              		.loc 1 734 0
  55 0000 7F28     		cmp	r0, #127
  56 0002 88BF     		it	hi
  57 0004 2020     		movhi	r0, #32
  58              	.LVL3:
  59 0006 7047     		bx	lr
  60              		.cfi_endproc
  61              	.LFE12:
  62              		.size	lv_txt_unicode_to_iso8859_1, .-lv_txt_unicode_to_iso8859_1
  63              		.section	.text.lv_txt_iso8859_1_conv_wc,"ax",%progbits
  64              		.align	2
ARM GAS  C:\Users\pearlstl\AppData\Local\Temp\ccILyAHD.s 			page 15


  65              		.thumb
  66              		.thumb_func
  67              		.type	lv_txt_iso8859_1_conv_wc, %function
  68              	lv_txt_iso8859_1_conv_wc:
  69              	.LFB13:
 735:..\..\..\lvgl\version_6.1.2\lvgl\src\lv_misc/lv_txt.c **** 
 736:..\..\..\lvgl\version_6.1.2\lvgl\src\lv_misc/lv_txt.c **** /**
 737:..\..\..\lvgl\version_6.1.2\lvgl\src\lv_misc/lv_txt.c ****  * Convert wide characters to ASCII, however wide characters in ASCII range (e.g. 'A') are ASCII co
 738:..\..\..\lvgl\version_6.1.2\lvgl\src\lv_misc/lv_txt.c ****  * So this function does nothing just returns with `c`.
 739:..\..\..\lvgl\version_6.1.2\lvgl\src\lv_misc/lv_txt.c ****  * @param c a character, e.g. 'A'
 740:..\..\..\lvgl\version_6.1.2\lvgl\src\lv_misc/lv_txt.c ****  * @return same as `c`
 741:..\..\..\lvgl\version_6.1.2\lvgl\src\lv_misc/lv_txt.c ****  */
 742:..\..\..\lvgl\version_6.1.2\lvgl\src\lv_misc/lv_txt.c **** static uint32_t lv_txt_iso8859_1_conv_wc(uint32_t c)
 743:..\..\..\lvgl\version_6.1.2\lvgl\src\lv_misc/lv_txt.c **** {
  70              		.loc 1 743 0
  71              		.cfi_startproc
  72              		@ args = 0, pretend = 0, frame = 0
  73              		@ frame_needed = 0, uses_anonymous_args = 0
  74              		@ link register save eliminated.
  75              	.LVL4:
 744:..\..\..\lvgl\version_6.1.2\lvgl\src\lv_misc/lv_txt.c ****     return c;
 745:..\..\..\lvgl\version_6.1.2\lvgl\src\lv_misc/lv_txt.c **** }
  76              		.loc 1 745 0
  77 0000 7047     		bx	lr
  78              		.cfi_endproc
  79              	.LFE13:
  80              		.size	lv_txt_iso8859_1_conv_wc, .-lv_txt_iso8859_1_conv_wc
  81 0002 00BF     		.section	.text.lv_txt_iso8859_1_next,"ax",%progbits
  82              		.align	2
  83              		.thumb
  84              		.thumb_func
  85              		.type	lv_txt_iso8859_1_next, %function
  86              	lv_txt_iso8859_1_next:
  87              	.LFB14:
 746:..\..\..\lvgl\version_6.1.2\lvgl\src\lv_misc/lv_txt.c **** 
 747:..\..\..\lvgl\version_6.1.2\lvgl\src\lv_misc/lv_txt.c **** /**
 748:..\..\..\lvgl\version_6.1.2\lvgl\src\lv_misc/lv_txt.c ****  * Decode an ISO8859-1 character from a string.
 749:..\..\..\lvgl\version_6.1.2\lvgl\src\lv_misc/lv_txt.c ****  * @param txt pointer to '\0' terminated string
 750:..\..\..\lvgl\version_6.1.2\lvgl\src\lv_misc/lv_txt.c ****  * @param i start byte index in 'txt' where to start.
 751:..\..\..\lvgl\version_6.1.2\lvgl\src\lv_misc/lv_txt.c ****  *          After call it will point to the next UTF-8 char in 'txt'.
 752:..\..\..\lvgl\version_6.1.2\lvgl\src\lv_misc/lv_txt.c ****  *          NULL to use txt[0] as index
 753:..\..\..\lvgl\version_6.1.2\lvgl\src\lv_misc/lv_txt.c ****  * @return the decoded Unicode character or 0 on invalid UTF-8 code
 754:..\..\..\lvgl\version_6.1.2\lvgl\src\lv_misc/lv_txt.c ****  */
 755:..\..\..\lvgl\version_6.1.2\lvgl\src\lv_misc/lv_txt.c **** static uint32_t lv_txt_iso8859_1_next(const char * txt, uint32_t * i)
 756:..\..\..\lvgl\version_6.1.2\lvgl\src\lv_misc/lv_txt.c **** {
  88              		.loc 1 756 0
  89              		.cfi_startproc
  90              		@ args = 0, pretend = 0, frame = 0
  91              		@ frame_needed = 0, uses_anonymous_args = 0
  92              		@ link register save eliminated.
  93              	.LVL5:
 757:..\..\..\lvgl\version_6.1.2\lvgl\src\lv_misc/lv_txt.c ****     if(i == NULL) return txt[1]; /*Get the next char */
  94              		.loc 1 757 0
  95 0000 21B1     		cbz	r1, .L10
 758:..\..\..\lvgl\version_6.1.2\lvgl\src\lv_misc/lv_txt.c **** 
 759:..\..\..\lvgl\version_6.1.2\lvgl\src\lv_misc/lv_txt.c ****     uint8_t letter = txt[*i];
  96              		.loc 1 759 0
ARM GAS  C:\Users\pearlstl\AppData\Local\Temp\ccILyAHD.s 			page 16


  97 0002 0B68     		ldr	r3, [r1]
  98 0004 C05C     		ldrb	r0, [r0, r3]	@ zero_extendqisi2
  99              	.LVL6:
 760:..\..\..\lvgl\version_6.1.2\lvgl\src\lv_misc/lv_txt.c ****     (*i)++;
 100              		.loc 1 760 0
 101 0006 0133     		adds	r3, r3, #1
 102 0008 0B60     		str	r3, [r1]
 761:..\..\..\lvgl\version_6.1.2\lvgl\src\lv_misc/lv_txt.c ****     return letter;
 762:..\..\..\lvgl\version_6.1.2\lvgl\src\lv_misc/lv_txt.c **** }
 103              		.loc 1 762 0
 104 000a 7047     		bx	lr
 105              	.LVL7:
 106              	.L10:
 757:..\..\..\lvgl\version_6.1.2\lvgl\src\lv_misc/lv_txt.c **** 
 107              		.loc 1 757 0 discriminator 1
 108 000c 4078     		ldrb	r0, [r0, #1]	@ zero_extendqisi2
 109              	.LVL8:
 110 000e 7047     		bx	lr
 111              		.cfi_endproc
 112              	.LFE14:
 113              		.size	lv_txt_iso8859_1_next, .-lv_txt_iso8859_1_next
 114              		.section	.text.lv_txt_iso8859_1_prev,"ax",%progbits
 115              		.align	2
 116              		.thumb
 117              		.thumb_func
 118              		.type	lv_txt_iso8859_1_prev, %function
 119              	lv_txt_iso8859_1_prev:
 120              	.LFB15:
 763:..\..\..\lvgl\version_6.1.2\lvgl\src\lv_misc/lv_txt.c **** 
 764:..\..\..\lvgl\version_6.1.2\lvgl\src\lv_misc/lv_txt.c **** /**
 765:..\..\..\lvgl\version_6.1.2\lvgl\src\lv_misc/lv_txt.c ****  * Get previous ISO8859-1 character form a string.
 766:..\..\..\lvgl\version_6.1.2\lvgl\src\lv_misc/lv_txt.c ****  * @param txt pointer to '\0' terminated string
 767:..\..\..\lvgl\version_6.1.2\lvgl\src\lv_misc/lv_txt.c ****  * @param i start byte index in 'txt' where to start. After the call it will point to the previous 
 768:..\..\..\lvgl\version_6.1.2\lvgl\src\lv_misc/lv_txt.c ****  * @return the decoded Unicode character or 0 on invalid UTF-8 code
 769:..\..\..\lvgl\version_6.1.2\lvgl\src\lv_misc/lv_txt.c ****  */
 770:..\..\..\lvgl\version_6.1.2\lvgl\src\lv_misc/lv_txt.c **** static uint32_t lv_txt_iso8859_1_prev(const char * txt, uint32_t * i)
 771:..\..\..\lvgl\version_6.1.2\lvgl\src\lv_misc/lv_txt.c **** {
 121              		.loc 1 771 0
 122              		.cfi_startproc
 123              		@ args = 0, pretend = 0, frame = 0
 124              		@ frame_needed = 0, uses_anonymous_args = 0
 125              		@ link register save eliminated.
 126              	.LVL9:
 772:..\..\..\lvgl\version_6.1.2\lvgl\src\lv_misc/lv_txt.c ****     if(i == NULL) return *(txt - 1); /*Get the prev. char */
 127              		.loc 1 772 0
 128 0000 21B1     		cbz	r1, .L14
 773:..\..\..\lvgl\version_6.1.2\lvgl\src\lv_misc/lv_txt.c **** 
 774:..\..\..\lvgl\version_6.1.2\lvgl\src\lv_misc/lv_txt.c ****     (*i)--;
 129              		.loc 1 774 0
 130 0002 0B68     		ldr	r3, [r1]
 131 0004 013B     		subs	r3, r3, #1
 132 0006 0B60     		str	r3, [r1]
 133              	.LVL10:
 775:..\..\..\lvgl\version_6.1.2\lvgl\src\lv_misc/lv_txt.c ****     uint8_t letter = txt[*i];
 776:..\..\..\lvgl\version_6.1.2\lvgl\src\lv_misc/lv_txt.c **** 
 777:..\..\..\lvgl\version_6.1.2\lvgl\src\lv_misc/lv_txt.c ****     return letter;
 134              		.loc 1 777 0
ARM GAS  C:\Users\pearlstl\AppData\Local\Temp\ccILyAHD.s 			page 17


 135 0008 C05C     		ldrb	r0, [r0, r3]	@ zero_extendqisi2
 136              	.LVL11:
 778:..\..\..\lvgl\version_6.1.2\lvgl\src\lv_misc/lv_txt.c **** }
 137              		.loc 1 778 0
 138 000a 7047     		bx	lr
 139              	.LVL12:
 140              	.L14:
 772:..\..\..\lvgl\version_6.1.2\lvgl\src\lv_misc/lv_txt.c **** 
 141              		.loc 1 772 0 discriminator 1
 142 000c 10F8010C 		ldrb	r0, [r0, #-1]	@ zero_extendqisi2
 143              	.LVL13:
 144 0010 7047     		bx	lr
 145              		.cfi_endproc
 146              	.LFE15:
 147              		.size	lv_txt_iso8859_1_prev, .-lv_txt_iso8859_1_prev
 148 0012 00BF     		.section	.text.lv_txt_iso8859_1_get_char_id,"ax",%progbits
 149              		.align	2
 150              		.thumb
 151              		.thumb_func
 152              		.type	lv_txt_iso8859_1_get_char_id, %function
 153              	lv_txt_iso8859_1_get_char_id:
 154              	.LFB17:
 779:..\..\..\lvgl\version_6.1.2\lvgl\src\lv_misc/lv_txt.c **** 
 780:..\..\..\lvgl\version_6.1.2\lvgl\src\lv_misc/lv_txt.c **** /**
 781:..\..\..\lvgl\version_6.1.2\lvgl\src\lv_misc/lv_txt.c ****  * Convert a character index (in an ISO8859-1 text) to byte index.
 782:..\..\..\lvgl\version_6.1.2\lvgl\src\lv_misc/lv_txt.c ****  * E.g. in "AÁRT" index of 'R' is 2th char but start at byte 3 because 'Á' is 2 bytes long
 783:..\..\..\lvgl\version_6.1.2\lvgl\src\lv_misc/lv_txt.c ****  * @param txt a '\0' terminated UTF-8 string
 784:..\..\..\lvgl\version_6.1.2\lvgl\src\lv_misc/lv_txt.c ****  * @param utf8_id character index
 785:..\..\..\lvgl\version_6.1.2\lvgl\src\lv_misc/lv_txt.c ****  * @return byte index of the 'utf8_id'th letter
 786:..\..\..\lvgl\version_6.1.2\lvgl\src\lv_misc/lv_txt.c ****  */
 787:..\..\..\lvgl\version_6.1.2\lvgl\src\lv_misc/lv_txt.c **** static uint32_t lv_txt_iso8859_1_get_byte_id(const char * txt, uint32_t utf8_id)
 788:..\..\..\lvgl\version_6.1.2\lvgl\src\lv_misc/lv_txt.c **** {
 789:..\..\..\lvgl\version_6.1.2\lvgl\src\lv_misc/lv_txt.c ****     (void)txt;      /*Unused*/
 790:..\..\..\lvgl\version_6.1.2\lvgl\src\lv_misc/lv_txt.c ****     return utf8_id; /*In Non encoded no difference*/
 791:..\..\..\lvgl\version_6.1.2\lvgl\src\lv_misc/lv_txt.c **** }
 792:..\..\..\lvgl\version_6.1.2\lvgl\src\lv_misc/lv_txt.c **** 
 793:..\..\..\lvgl\version_6.1.2\lvgl\src\lv_misc/lv_txt.c **** /**
 794:..\..\..\lvgl\version_6.1.2\lvgl\src\lv_misc/lv_txt.c ****  * Convert a byte index (in an ISO8859-1 text) to character index.
 795:..\..\..\lvgl\version_6.1.2\lvgl\src\lv_misc/lv_txt.c ****  * E.g. in "AÁRT" index of 'R' is 2th char but start at byte 3 because 'Á' is 2 bytes long
 796:..\..\..\lvgl\version_6.1.2\lvgl\src\lv_misc/lv_txt.c ****  * @param txt a '\0' terminated UTF-8 string
 797:..\..\..\lvgl\version_6.1.2\lvgl\src\lv_misc/lv_txt.c ****  * @param byte_id byte index
 798:..\..\..\lvgl\version_6.1.2\lvgl\src\lv_misc/lv_txt.c ****  * @return character index of the letter at 'byte_id'th position
 799:..\..\..\lvgl\version_6.1.2\lvgl\src\lv_misc/lv_txt.c ****  */
 800:..\..\..\lvgl\version_6.1.2\lvgl\src\lv_misc/lv_txt.c **** static uint32_t lv_txt_iso8859_1_get_char_id(const char * txt, uint32_t byte_id)
 801:..\..\..\lvgl\version_6.1.2\lvgl\src\lv_misc/lv_txt.c **** {
 155              		.loc 1 801 0
 156              		.cfi_startproc
 157              		@ args = 0, pretend = 0, frame = 0
 158              		@ frame_needed = 0, uses_anonymous_args = 0
 159              		@ link register save eliminated.
 160              	.LVL14:
 802:..\..\..\lvgl\version_6.1.2\lvgl\src\lv_misc/lv_txt.c ****     (void)txt;      /*Unused*/
 803:..\..\..\lvgl\version_6.1.2\lvgl\src\lv_misc/lv_txt.c ****     return byte_id; /*In Non encoded no difference*/
 804:..\..\..\lvgl\version_6.1.2\lvgl\src\lv_misc/lv_txt.c **** }
 161              		.loc 1 804 0
 162 0000 0846     		mov	r0, r1
 163              	.LVL15:
ARM GAS  C:\Users\pearlstl\AppData\Local\Temp\ccILyAHD.s 			page 18


 164 0002 7047     		bx	lr
 165              		.cfi_endproc
 166              	.LFE17:
 167              		.size	lv_txt_iso8859_1_get_char_id, .-lv_txt_iso8859_1_get_char_id
 168              		.section	.text.lv_txt_iso8859_1_get_length,"ax",%progbits
 169              		.align	2
 170              		.thumb
 171              		.thumb_func
 172              		.type	lv_txt_iso8859_1_get_length, %function
 173              	lv_txt_iso8859_1_get_length:
 174              	.LFB18:
 805:..\..\..\lvgl\version_6.1.2\lvgl\src\lv_misc/lv_txt.c **** 
 806:..\..\..\lvgl\version_6.1.2\lvgl\src\lv_misc/lv_txt.c **** /**
 807:..\..\..\lvgl\version_6.1.2\lvgl\src\lv_misc/lv_txt.c ****  * Get the number of characters (and NOT bytes) in a string. Decode it with UTF-8 if enabled.
 808:..\..\..\lvgl\version_6.1.2\lvgl\src\lv_misc/lv_txt.c ****  * E.g.: "ÁBC" is 3 characters (but 4 bytes)
 809:..\..\..\lvgl\version_6.1.2\lvgl\src\lv_misc/lv_txt.c ****  * @param txt a '\0' terminated char string
 810:..\..\..\lvgl\version_6.1.2\lvgl\src\lv_misc/lv_txt.c ****  * @return number of characters
 811:..\..\..\lvgl\version_6.1.2\lvgl\src\lv_misc/lv_txt.c ****  */
 812:..\..\..\lvgl\version_6.1.2\lvgl\src\lv_misc/lv_txt.c **** static uint32_t lv_txt_iso8859_1_get_length(const char * txt)
 813:..\..\..\lvgl\version_6.1.2\lvgl\src\lv_misc/lv_txt.c **** {
 175              		.loc 1 813 0
 176              		.cfi_startproc
 177              		@ args = 0, pretend = 0, frame = 0
 178              		@ frame_needed = 0, uses_anonymous_args = 0
 179              		@ link register save eliminated.
 180              	.LVL16:
 814:..\..\..\lvgl\version_6.1.2\lvgl\src\lv_misc/lv_txt.c ****     return strlen(txt);
 181              		.loc 1 814 0
 182 0000 FFF7FEBF 		b	strlen
 183              	.LVL17:
 184              		.cfi_endproc
 185              	.LFE18:
 186              		.size	lv_txt_iso8859_1_get_length, .-lv_txt_iso8859_1_get_length
 187              		.section	.text.lv_txt_iso8859_1_get_byte_id,"ax",%progbits
 188              		.align	2
 189              		.thumb
 190              		.thumb_func
 191              		.type	lv_txt_iso8859_1_get_byte_id, %function
 192              	lv_txt_iso8859_1_get_byte_id:
 193              	.LFB22:
 194              		.cfi_startproc
 195              		@ args = 0, pretend = 0, frame = 0
 196              		@ frame_needed = 0, uses_anonymous_args = 0
 197              		@ link register save eliminated.
 198 0000 0846     		mov	r0, r1
 199 0002 7047     		bx	lr
 200              		.cfi_endproc
 201              	.LFE22:
 202              		.size	lv_txt_iso8859_1_get_byte_id, .-lv_txt_iso8859_1_get_byte_id
 203              		.section	.text.lv_txt_get_next_line,"ax",%progbits
 204              		.align	2
 205              		.global	lv_txt_get_next_line
 206              		.thumb
 207              		.thumb_func
 208              		.type	lv_txt_get_next_line, %function
 209              	lv_txt_get_next_line:
 210              	.LFB6:
ARM GAS  C:\Users\pearlstl\AppData\Local\Temp\ccILyAHD.s 			page 19


 294:..\..\..\lvgl\version_6.1.2\lvgl\src\lv_misc/lv_txt.c ****     if(txt == NULL) return 0;
 211              		.loc 1 294 0
 212              		.cfi_startproc
 213              		@ args = 4, pretend = 0, frame = 64
 214              		@ frame_needed = 0, uses_anonymous_args = 0
 215              	.LVL18:
 294:..\..\..\lvgl\version_6.1.2\lvgl\src\lv_misc/lv_txt.c ****     if(txt == NULL) return 0;
 216              		.loc 1 294 0
 217 0000 2DE9F04F 		push	{r4, r5, r6, r7, r8, r9, r10, fp, lr}
 218              		.cfi_def_cfa_offset 36
 219              		.cfi_offset 4, -36
 220              		.cfi_offset 5, -32
 221              		.cfi_offset 6, -28
 222              		.cfi_offset 7, -24
 223              		.cfi_offset 8, -20
 224              		.cfi_offset 9, -16
 225              		.cfi_offset 10, -12
 226              		.cfi_offset 11, -8
 227              		.cfi_offset 14, -4
 228 0004 91B0     		sub	sp, sp, #68
 229              		.cfi_def_cfa_offset 104
 294:..\..\..\lvgl\version_6.1.2\lvgl\src\lv_misc/lv_txt.c ****     if(txt == NULL) return 0;
 230              		.loc 1 294 0
 231 0006 1E46     		mov	r6, r3
 232 0008 0491     		str	r1, [sp, #16]
 233 000a 0592     		str	r2, [sp, #20]
 234 000c 9DF86830 		ldrb	r3, [sp, #104]	@ zero_extendqisi2
 235              	.LVL19:
 295:..\..\..\lvgl\version_6.1.2\lvgl\src\lv_misc/lv_txt.c ****     if(font == NULL) return 0;
 236              		.loc 1 295 0
 237 0010 0990     		str	r0, [sp, #36]
 238 0012 0446     		mov	r4, r0
 239 0014 0028     		cmp	r0, #0
 240 0016 00F0D980 		beq	.L91
 296:..\..\..\lvgl\version_6.1.2\lvgl\src\lv_misc/lv_txt.c **** 
 241              		.loc 1 296 0
 242 001a 0029     		cmp	r1, #0
 243 001c 00F02281 		beq	.L59
 300:..\..\..\lvgl\version_6.1.2\lvgl\src\lv_misc/lv_txt.c **** 
 244              		.loc 1 300 0
 245 0020 0021     		movs	r1, #0
 246              	.LVL20:
 247 0022 03F00202 		and	r2, r3, #2
 248              	.LVL21:
 302:..\..\..\lvgl\version_6.1.2\lvgl\src\lv_misc/lv_txt.c ****         uint32_t word_w = 0;
 249              		.loc 1 302 0
 250 0026 0D46     		mov	r5, r1
 251 0028 0691     		str	r1, [sp, #24]
 298:..\..\..\lvgl\version_6.1.2\lvgl\src\lv_misc/lv_txt.c ****     lv_txt_cmd_state_t cmd_state = LV_TXT_CMD_STATE_WAIT;
 252              		.loc 1 298 0
 253 002a 47F61840 		movw	r0, #31768
 254              	.LVL22:
 300:..\..\..\lvgl\version_6.1.2\lvgl\src\lv_misc/lv_txt.c **** 
 255              		.loc 1 300 0
 256 002e 0C91     		str	r1, [sp, #48]
 299:..\..\..\lvgl\version_6.1.2\lvgl\src\lv_misc/lv_txt.c ****     uint32_t i = 0;                                        /* Iterating index into txt */
 257              		.loc 1 299 0
ARM GAS  C:\Users\pearlstl\AppData\Local\Temp\ccILyAHD.s 			page 20


 258 0030 0291     		str	r1, [sp, #8]
 259 0032 03F00101 		and	r1, r3, #1
 298:..\..\..\lvgl\version_6.1.2\lvgl\src\lv_misc/lv_txt.c ****     lv_txt_cmd_state_t cmd_state = LV_TXT_CMD_STATE_WAIT;
 260              		.loc 1 298 0
 261 0036 3346     		mov	r3, r6
 262 0038 AA42     		cmp	r2, r5
 263 003a 18BF     		it	ne
 264 003c 0346     		movne	r3, r0
 265 003e 0793     		str	r3, [sp, #28]
 266              	.LVL23:
 267 0040 02F0FF03 		and	r3, r2, #255
 268 0044 0B93     		str	r3, [sp, #44]
 269              	.LBB25:
 270              	.LBB26:
 271              	.LBB27:
 189:..\..\..\lvgl\version_6.1.2\lvgl\src\lv_misc/lv_txt.c ****     i_next_next = i_next;
 272              		.loc 1 189 0
 273 0046 DFF824A2 		ldr	r10, .L109
 274 004a 2378     		ldrb	r3, [r4]	@ zero_extendqisi2
 275 004c DFF820B2 		ldr	fp, .L109+4
 276 0050 0391     		str	r1, [sp, #12]
 277              	.LVL24:
 278              	.L21:
 279              	.LBE27:
 280              	.LBE26:
 281              	.LBE25:
 302:..\..\..\lvgl\version_6.1.2\lvgl\src\lv_misc/lv_txt.c ****         uint32_t word_w = 0;
 282              		.loc 1 302 0
 283 0052 002B     		cmp	r3, #0
 284 0054 00F0CC80 		beq	.L52
 302:..\..\..\lvgl\version_6.1.2\lvgl\src\lv_misc/lv_txt.c ****         uint32_t word_w = 0;
 285              		.loc 1 302 0 is_stmt 0 discriminator 1
 286 0058 079B     		ldr	r3, [sp, #28]
 287 005a 002B     		cmp	r3, #0
 288 005c 40F3C880 		ble	.L52
 289              	.LVL25:
 290 0060 1D46     		mov	r5, r3
 302:..\..\..\lvgl\version_6.1.2\lvgl\src\lv_misc/lv_txt.c ****         uint32_t word_w = 0;
 291              		.loc 1 302 0
 292 0062 069A     		ldr	r2, [sp, #24]
 293 0064 099B     		ldr	r3, [sp, #36]
 294              	.LBB55:
 295              	.LBB49:
 296              	.LBB43:
 178:..\..\..\lvgl\version_6.1.2\lvgl\src\lv_misc/lv_txt.c **** 
 297              		.loc 1 178 0 is_stmt 1
 298 0066 0B9E     		ldr	r6, [sp, #44]
 299              	.LBE43:
 300              	.LBE49:
 301              	.LBE55:
 302:..\..\..\lvgl\version_6.1.2\lvgl\src\lv_misc/lv_txt.c ****         uint32_t word_w = 0;
 302              		.loc 1 302 0
 303 0068 9F18     		adds	r7, r3, r2
 304              	.LVL26:
 305              	.LBB56:
 306              	.LBB50:
 307              	.LBB44:
ARM GAS  C:\Users\pearlstl\AppData\Local\Temp\ccILyAHD.s 			page 21


 178:..\..\..\lvgl\version_6.1.2\lvgl\src\lv_misc/lv_txt.c **** 
 308              		.loc 1 178 0
 309 006a 47F61844 		movw	r4, #31768
 180:..\..\..\lvgl\version_6.1.2\lvgl\src\lv_misc/lv_txt.c ****     uint32_t letter = 0;      /* Letter at i */
 310              		.loc 1 180 0
 311 006e 0023     		movs	r3, #0
 312              	.LBE44:
 313              	.LBE50:
 303:..\..\..\lvgl\version_6.1.2\lvgl\src\lv_misc/lv_txt.c ****         uint32_t advance = lv_txt_get_next_word(&txt[i], font, letter_space, max_width, flag, &word
 314              		.loc 1 303 0
 315 0070 9946     		mov	r9, r3
 316              	.LBB51:
 317              	.LBB45:
 180:..\..\..\lvgl\version_6.1.2\lvgl\src\lv_misc/lv_txt.c ****     uint32_t letter = 0;      /* Letter at i */
 318              		.loc 1 180 0
 319 0072 0D93     		str	r3, [sp, #52]
 320 0074 0E93     		str	r3, [sp, #56]
 321 0076 0F93     		str	r3, [sp, #60]
 178:..\..\..\lvgl\version_6.1.2\lvgl\src\lv_misc/lv_txt.c **** 
 322              		.loc 1 178 0
 323 0078 2346     		mov	r3, r4
 324 007a 4E45     		cmp	r6, r9
 325 007c 08BF     		it	eq
 326 007e 2B46     		moveq	r3, r5
 189:..\..\..\lvgl\version_6.1.2\lvgl\src\lv_misc/lv_txt.c ****     i_next_next = i_next;
 327              		.loc 1 189 0
 328 0080 DAF80020 		ldr	r2, [r10]
 178:..\..\..\lvgl\version_6.1.2\lvgl\src\lv_misc/lv_txt.c **** 
 329              		.loc 1 178 0
 330 0084 0893     		str	r3, [sp, #32]
 189:..\..\..\lvgl\version_6.1.2\lvgl\src\lv_misc/lv_txt.c ****     i_next_next = i_next;
 331              		.loc 1 189 0
 332 0086 3846     		mov	r0, r7
 333 0088 0EA9     		add	r1, sp, #56
 334              	.LVL27:
 335 008a 9047     		blx	r2
 336              	.LVL28:
 190:..\..\..\lvgl\version_6.1.2\lvgl\src\lv_misc/lv_txt.c **** 
 337              		.loc 1 190 0
 338 008c 0E9B     		ldr	r3, [sp, #56]
 339 008e 0D9A     		ldr	r2, [sp, #52]
 340 0090 0F93     		str	r3, [sp, #60]
 186:..\..\..\lvgl\version_6.1.2\lvgl\src\lv_misc/lv_txt.c ****     uint32_t break_letter_count = 0; /* Number of characters up to the long word break point */
 341              		.loc 1 186 0
 342 0092 4FF0FF33 		mov	r3, #-1
 343 0096 0093     		str	r3, [sp]
 193:..\..\..\lvgl\version_6.1.2\lvgl\src\lv_misc/lv_txt.c ****         letter_next = lv_txt_encoded_next(txt, &i_next_next);
 344              		.loc 1 193 0
 345 0098 BB5C     		ldrb	r3, [r7, r2]	@ zero_extendqisi2
 187:..\..\..\lvgl\version_6.1.2\lvgl\src\lv_misc/lv_txt.c **** 
 346              		.loc 1 187 0
 347 009a CDF82890 		str	r9, [sp, #40]
 189:..\..\..\lvgl\version_6.1.2\lvgl\src\lv_misc/lv_txt.c ****     i_next_next = i_next;
 348              		.loc 1 189 0
 349 009e 0446     		mov	r4, r0
 350              	.LVL29:
 185:..\..\..\lvgl\version_6.1.2\lvgl\src\lv_misc/lv_txt.c ****     uint32_t break_index = NO_BREAK_FOUND; /* only used for "long" words */
ARM GAS  C:\Users\pearlstl\AppData\Local\Temp\ccILyAHD.s 			page 22


 351              		.loc 1 185 0
 352 00a0 C846     		mov	r8, r9
 353              	.LVL30:
 184:..\..\..\lvgl\version_6.1.2\lvgl\src\lv_misc/lv_txt.c ****     uint32_t word_len = 0;   /* Number of characters in the transversed word */
 354              		.loc 1 184 0
 355 00a2 4D46     		mov	r5, r9
 182:..\..\..\lvgl\version_6.1.2\lvgl\src\lv_misc/lv_txt.c ****     lv_coord_t letter_w;
 356              		.loc 1 182 0
 357 00a4 4E46     		mov	r6, r9
 193:..\..\..\lvgl\version_6.1.2\lvgl\src\lv_misc/lv_txt.c ****         letter_next = lv_txt_encoded_next(txt, &i_next_next);
 358              		.loc 1 193 0
 359 00a6 002B     		cmp	r3, #0
 360 00a8 40D0     		beq	.L38
 361              	.LVL31:
 362              	.L41:
 194:..\..\..\lvgl\version_6.1.2\lvgl\src\lv_misc/lv_txt.c ****         word_len++;
 363              		.loc 1 194 0
 364 00aa DAF80030 		ldr	r3, [r10]
 365 00ae 0FA9     		add	r1, sp, #60
 366 00b0 3846     		mov	r0, r7
 367 00b2 9847     		blx	r3
 368              	.LVL32:
 198:..\..\..\lvgl\version_6.1.2\lvgl\src\lv_misc/lv_txt.c ****             if(lv_txt_is_cmd(cmd_state, letter) != false) {
 369              		.loc 1 198 0
 370 00b4 039A     		ldr	r2, [sp, #12]
 194:..\..\..\lvgl\version_6.1.2\lvgl\src\lv_misc/lv_txt.c ****         word_len++;
 371              		.loc 1 194 0
 372 00b6 0646     		mov	r6, r0
 373              	.LVL33:
 195:..\..\..\lvgl\version_6.1.2\lvgl\src\lv_misc/lv_txt.c **** 
 374              		.loc 1 195 0
 375 00b8 08F10103 		add	r3, r8, #1
 376              	.LVL34:
 198:..\..\..\lvgl\version_6.1.2\lvgl\src\lv_misc/lv_txt.c ****             if(lv_txt_is_cmd(cmd_state, letter) != false) {
 377              		.loc 1 198 0
 378 00bc 22B1     		cbz	r2, .L24
 379              	.LVL35:
 380              	.LBB28:
 381              	.LBB29:
 391:..\..\..\lvgl\version_6.1.2\lvgl\src\lv_misc/lv_txt.c ****         if(*state == LV_TXT_CMD_STATE_WAIT) { /*Start char*/
 382              		.loc 1 391 0
 383 00be 232C     		cmp	r4, #35
 392:..\..\..\lvgl\version_6.1.2\lvgl\src\lv_misc/lv_txt.c ****             *state = LV_TXT_CMD_STATE_PAR;
 384              		.loc 1 392 0
 385 00c0 029A     		ldr	r2, [sp, #8]
 391:..\..\..\lvgl\version_6.1.2\lvgl\src\lv_misc/lv_txt.c ****         if(*state == LV_TXT_CMD_STATE_WAIT) { /*Start char*/
 386              		.loc 1 391 0
 387 00c2 3CD0     		beq	.L100
 408:..\..\..\lvgl\version_6.1.2\lvgl\src\lv_misc/lv_txt.c ****         if(c == ' ') {
 388              		.loc 1 408 0
 389 00c4 012A     		cmp	r2, #1
 390 00c6 75D0     		beq	.L101
 391              	.LVL36:
 392              	.L24:
 393              	.LBE29:
 394              	.LBE28:
 207:..\..\..\lvgl\version_6.1.2\lvgl\src\lv_misc/lv_txt.c ****         cur_w += letter_w;
ARM GAS  C:\Users\pearlstl\AppData\Local\Temp\ccILyAHD.s 			page 23


 395              		.loc 1 207 0
 396 00c8 3246     		mov	r2, r6
 397 00ca 2146     		mov	r1, r4
 398 00cc 0498     		ldr	r0, [sp, #16]
 399              	.LVL37:
 400 00ce 0193     		str	r3, [sp, #4]
 401              	.LVL38:
 402 00d0 FFF7FEFF 		bl	lv_font_get_glyph_width
 403              	.LVL39:
 208:..\..\..\lvgl\version_6.1.2\lvgl\src\lv_misc/lv_txt.c **** 
 404              		.loc 1 208 0
 405 00d4 0544     		add	r5, r5, r0
 210:..\..\..\lvgl\version_6.1.2\lvgl\src\lv_misc/lv_txt.c ****             cur_w += letter_space;
 406              		.loc 1 210 0
 407 00d6 00B2     		sxth	r0, r0
 408 00d8 0028     		cmp	r0, #0
 211:..\..\..\lvgl\version_6.1.2\lvgl\src\lv_misc/lv_txt.c ****         }
 409              		.loc 1 211 0
 410 00da C8BF     		it	gt
 411 00dc 059A     		ldrgt	r2, [sp, #20]
 210:..\..\..\lvgl\version_6.1.2\lvgl\src\lv_misc/lv_txt.c ****             cur_w += letter_space;
 412              		.loc 1 210 0
 413 00de 019B     		ldr	r3, [sp, #4]
 208:..\..\..\lvgl\version_6.1.2\lvgl\src\lv_misc/lv_txt.c **** 
 414              		.loc 1 208 0
 415 00e0 ADB2     		uxth	r5, r5
 416              	.LVL40:
 211:..\..\..\lvgl\version_6.1.2\lvgl\src\lv_misc/lv_txt.c ****         }
 417              		.loc 1 211 0
 418 00e2 C8BF     		it	gt
 419 00e4 AD18     		addgt	r5, r5, r2
 420              	.LVL41:
 215:..\..\..\lvgl\version_6.1.2\lvgl\src\lv_misc/lv_txt.c ****             break_index = i; 
 421              		.loc 1 215 0
 422 00e6 009A     		ldr	r2, [sp]
 423 00e8 0132     		adds	r2, r2, #1
 211:..\..\..\lvgl\version_6.1.2\lvgl\src\lv_misc/lv_txt.c ****         }
 424              		.loc 1 211 0
 425 00ea 2DB2     		sxth	r5, r5
 426              	.LVL42:
 215:..\..\..\lvgl\version_6.1.2\lvgl\src\lv_misc/lv_txt.c ****             break_index = i; 
 427              		.loc 1 215 0
 428 00ec 34D0     		beq	.L102
 429              	.L32:
 222:..\..\..\lvgl\version_6.1.2\lvgl\src\lv_misc/lv_txt.c ****             /* Update the output width on the first character if it fits.
 430              		.loc 1 222 0
 431 00ee 0A2C     		cmp	r4, #10
 432 00f0 3DD0     		beq	.L67
 433              	.L104:
 434 00f2 0D2C     		cmp	r4, #13
 435 00f4 3BD0     		beq	.L67
 436              	.LVL43:
 437              	.LBB33:
 438              	.LBB34:
 815:..\..\..\lvgl\version_6.1.2\lvgl\src\lv_misc/lv_txt.c **** }
 816:..\..\..\lvgl\version_6.1.2\lvgl\src\lv_misc/lv_txt.c **** #else
 817:..\..\..\lvgl\version_6.1.2\lvgl\src\lv_misc/lv_txt.c **** 
ARM GAS  C:\Users\pearlstl\AppData\Local\Temp\ccILyAHD.s 			page 24


 818:..\..\..\lvgl\version_6.1.2\lvgl\src\lv_misc/lv_txt.c **** #error "Invalid character encoding. See `LV_TXT_ENC` in `lv_conf.h`"
 819:..\..\..\lvgl\version_6.1.2\lvgl\src\lv_misc/lv_txt.c **** 
 820:..\..\..\lvgl\version_6.1.2\lvgl\src\lv_misc/lv_txt.c **** #endif
 821:..\..\..\lvgl\version_6.1.2\lvgl\src\lv_misc/lv_txt.c **** 
 822:..\..\..\lvgl\version_6.1.2\lvgl\src\lv_misc/lv_txt.c **** /**********************
 823:..\..\..\lvgl\version_6.1.2\lvgl\src\lv_misc/lv_txt.c ****  *   STATIC FUNCTIONS
 824:..\..\..\lvgl\version_6.1.2\lvgl\src\lv_misc/lv_txt.c ****  **********************/
 825:..\..\..\lvgl\version_6.1.2\lvgl\src\lv_misc/lv_txt.c **** 
 826:..\..\..\lvgl\version_6.1.2\lvgl\src\lv_misc/lv_txt.c **** /**
 827:..\..\..\lvgl\version_6.1.2\lvgl\src\lv_misc/lv_txt.c ****  * Test if char is break char or not (a text can broken here or not)
 828:..\..\..\lvgl\version_6.1.2\lvgl\src\lv_misc/lv_txt.c ****  * @param letter a letter
 829:..\..\..\lvgl\version_6.1.2\lvgl\src\lv_misc/lv_txt.c ****  * @return false: 'letter' is not break char
 830:..\..\..\lvgl\version_6.1.2\lvgl\src\lv_misc/lv_txt.c ****  */
 831:..\..\..\lvgl\version_6.1.2\lvgl\src\lv_misc/lv_txt.c **** static inline bool is_break_char(uint32_t letter)
 832:..\..\..\lvgl\version_6.1.2\lvgl\src\lv_misc/lv_txt.c **** {
 833:..\..\..\lvgl\version_6.1.2\lvgl\src\lv_misc/lv_txt.c ****     uint8_t i;
 834:..\..\..\lvgl\version_6.1.2\lvgl\src\lv_misc/lv_txt.c ****     bool ret = false;
 835:..\..\..\lvgl\version_6.1.2\lvgl\src\lv_misc/lv_txt.c **** 
 836:..\..\..\lvgl\version_6.1.2\lvgl\src\lv_misc/lv_txt.c ****     /*Compare the letter to TXT_BREAK_CHARS*/
 837:..\..\..\lvgl\version_6.1.2\lvgl\src\lv_misc/lv_txt.c ****     for(i = 0; LV_TXT_BREAK_CHARS[i] != '\0'; i++) {
 838:..\..\..\lvgl\version_6.1.2\lvgl\src\lv_misc/lv_txt.c ****         if(letter == (uint32_t)LV_TXT_BREAK_CHARS[i]) {
 439              		.loc 1 838 0
 440 00f6 202C     		cmp	r4, #32
 441 00f8 39D0     		beq	.L67
 442 00fa 0022     		movs	r2, #0
 443 00fc 01E0     		b	.L35
 444              	.LVL44:
 445              	.L36:
 446 00fe 8442     		cmp	r4, r0
 447 0100 36D0     		beq	.L33
 448              	.LVL45:
 449              	.L35:
 837:..\..\..\lvgl\version_6.1.2\lvgl\src\lv_misc/lv_txt.c ****         if(letter == (uint32_t)LV_TXT_BREAK_CHARS[i]) {
 450              		.loc 1 837 0
 451 0102 0132     		adds	r2, r2, #1
 452              	.LVL46:
 453 0104 D2B2     		uxtb	r2, r2
 454              	.LVL47:
 455 0106 1BF80210 		ldrb	r1, [fp, r2]	@ zero_extendqisi2
 456              		.loc 1 838 0
 457 010a 0846     		mov	r0, r1
 837:..\..\..\lvgl\version_6.1.2\lvgl\src\lv_misc/lv_txt.c ****         if(letter == (uint32_t)LV_TXT_BREAK_CHARS[i]) {
 458              		.loc 1 837 0
 459 010c 0029     		cmp	r1, #0
 460 010e F6D1     		bne	.L36
 461              	.LVL48:
 462              	.LBE34:
 463              	.LBE33:
 231:..\..\..\lvgl\version_6.1.2\lvgl\src\lv_misc/lv_txt.c **** 
 464              		.loc 1 231 0
 465 0110 0098     		ldr	r0, [sp]
 234:..\..\..\lvgl\version_6.1.2\lvgl\src\lv_misc/lv_txt.c ****         i_next = i_next_next;
 466              		.loc 1 234 0
 467 0112 0E9A     		ldr	r2, [sp, #56]
 235:..\..\..\lvgl\version_6.1.2\lvgl\src\lv_misc/lv_txt.c ****         letter = letter_next;
 468              		.loc 1 235 0
 469 0114 0F99     		ldr	r1, [sp, #60]
ARM GAS  C:\Users\pearlstl\AppData\Local\Temp\ccILyAHD.s 			page 25


 234:..\..\..\lvgl\version_6.1.2\lvgl\src\lv_misc/lv_txt.c ****         i_next = i_next_next;
 470              		.loc 1 234 0
 471 0116 0D92     		str	r2, [sp, #52]
 231:..\..\..\lvgl\version_6.1.2\lvgl\src\lv_misc/lv_txt.c **** 
 472              		.loc 1 231 0
 473 0118 B0F1FF3F 		cmp	r0, #-1
 474 011c 08BF     		it	eq
 475 011e A946     		moveq	r9, r5
 476              	.LVL49:
 235:..\..\..\lvgl\version_6.1.2\lvgl\src\lv_misc/lv_txt.c ****         letter = letter_next;
 477              		.loc 1 235 0
 478 0120 0E91     		str	r1, [sp, #56]
 479              	.LVL50:
 480              	.L29:
 481              	.LBB37:
 482              	.LBB35:
 483              		.loc 1 838 0
 484 0122 9846     		mov	r8, r3
 485              	.LVL51:
 486              	.LBE35:
 487              	.LBE37:
 193:..\..\..\lvgl\version_6.1.2\lvgl\src\lv_misc/lv_txt.c ****         letter_next = lv_txt_encoded_next(txt, &i_next_next);
 488              		.loc 1 193 0
 489 0124 BB5C     		ldrb	r3, [r7, r2]	@ zero_extendqisi2
 194:..\..\..\lvgl\version_6.1.2\lvgl\src\lv_misc/lv_txt.c ****         word_len++;
 490              		.loc 1 194 0
 491 0126 3446     		mov	r4, r6
 492              	.LVL52:
 193:..\..\..\lvgl\version_6.1.2\lvgl\src\lv_misc/lv_txt.c ****         letter_next = lv_txt_encoded_next(txt, &i_next_next);
 493              		.loc 1 193 0
 494 0128 002B     		cmp	r3, #0
 495 012a BED1     		bne	.L41
 496              	.L38:
 497              	.LVL53:
 240:..\..\..\lvgl\version_6.1.2\lvgl\src\lv_misc/lv_txt.c ****         if( word_len == 0 || (letter == '\r' && letter_next == '\n') ) i = i_next;
 498              		.loc 1 240 0
 499 012c 009B     		ldr	r3, [sp]
 500 012e 0133     		adds	r3, r3, #1
 501 0130 24D1     		bne	.L39
 502              	.LVL54:
 503              	.L40:
 241:..\..\..\lvgl\version_6.1.2\lvgl\src\lv_misc/lv_txt.c ****         return i;
 504              		.loc 1 241 0
 505 0132 B8F1000F 		cmp	r8, #0
 506 0136 40F08780 		bne	.L103
 507              	.L42:
 508 013a 0E9A     		ldr	r2, [sp, #56]
 509 013c 35E0     		b	.L48
 510              	.LVL55:
 511              	.L100:
 512              	.LBB38:
 513              	.LBB30:
 392:..\..\..\lvgl\version_6.1.2\lvgl\src\lv_misc/lv_txt.c ****             *state = LV_TXT_CMD_STATE_PAR;
 514              		.loc 1 392 0
 515 013e 002A     		cmp	r2, #0
 516 0140 35D0     		beq	.L62
 397:..\..\..\lvgl\version_6.1.2\lvgl\src\lv_misc/lv_txt.c ****             *state = LV_TXT_CMD_STATE_WAIT;
ARM GAS  C:\Users\pearlstl\AppData\Local\Temp\ccILyAHD.s 			page 26


 517              		.loc 1 397 0
 518 0142 012A     		cmp	r2, #1
 519 0144 45D0     		beq	.L63
 401:..\..\..\lvgl\version_6.1.2\lvgl\src\lv_misc/lv_txt.c ****             *state = LV_TXT_CMD_STATE_WAIT;
 520              		.loc 1 401 0
 521 0146 022A     		cmp	r2, #2
 522 0148 BED1     		bne	.L24
 402:..\..\..\lvgl\version_6.1.2\lvgl\src\lv_misc/lv_txt.c ****             ret    = true;
 523              		.loc 1 402 0
 524 014a 0022     		movs	r2, #0
 525 014c 0292     		str	r2, [sp, #8]
 526              	.LVL56:
 527              	.L28:
 528              	.LBE30:
 529              	.LBE38:
 200:..\..\..\lvgl\version_6.1.2\lvgl\src\lv_misc/lv_txt.c ****                 i_next = i_next_next;
 530              		.loc 1 200 0
 531 014e 0E9A     		ldr	r2, [sp, #56]
 201:..\..\..\lvgl\version_6.1.2\lvgl\src\lv_misc/lv_txt.c ****                 letter = letter_next;
 532              		.loc 1 201 0
 533 0150 0F99     		ldr	r1, [sp, #60]
 200:..\..\..\lvgl\version_6.1.2\lvgl\src\lv_misc/lv_txt.c ****                 i_next = i_next_next;
 534              		.loc 1 200 0
 535 0152 0D92     		str	r2, [sp, #52]
 201:..\..\..\lvgl\version_6.1.2\lvgl\src\lv_misc/lv_txt.c ****                 letter = letter_next;
 536              		.loc 1 201 0
 537 0154 0E91     		str	r1, [sp, #56]
 538              	.LVL57:
 539 0156 E4E7     		b	.L29
 540              	.LVL58:
 541              	.L102:
 215:..\..\..\lvgl\version_6.1.2\lvgl\src\lv_misc/lv_txt.c ****             break_index = i; 
 542              		.loc 1 215 0
 543 0158 059A     		ldr	r2, [sp, #20]
 544 015a 0899     		ldr	r1, [sp, #32]
 545 015c AA1A     		subs	r2, r5, r2
 546 015e 8A42     		cmp	r2, r1
 547 0160 C5DD     		ble	.L32
 216:..\..\..\lvgl\version_6.1.2\lvgl\src\lv_misc/lv_txt.c ****             break_letter_count = word_len - 1;
 548              		.loc 1 216 0
 549 0162 0D9A     		ldr	r2, [sp, #52]
 550 0164 0092     		str	r2, [sp]
 551              	.LVL59:
 222:..\..\..\lvgl\version_6.1.2\lvgl\src\lv_misc/lv_txt.c ****             /* Update the output width on the first character if it fits.
 552              		.loc 1 222 0
 553 0166 0A2C     		cmp	r4, #10
 216:..\..\..\lvgl\version_6.1.2\lvgl\src\lv_misc/lv_txt.c ****             break_letter_count = word_len - 1;
 554              		.loc 1 216 0
 555 0168 CDF82880 		str	r8, [sp, #40]
 222:..\..\..\lvgl\version_6.1.2\lvgl\src\lv_misc/lv_txt.c ****             /* Update the output width on the first character if it fits.
 556              		.loc 1 222 0
 557 016c C1D1     		bne	.L104
 558              	.LVL60:
 559              	.L67:
 560              	.LBB39:
 561              	.LBB36:
 562              		.loc 1 838 0
ARM GAS  C:\Users\pearlstl\AppData\Local\Temp\ccILyAHD.s 			page 27


 563 016e 2046     		mov	r0, r4
 564              	.LVL61:
 565              	.L33:
 566              	.LBE36:
 567              	.LBE39:
 225:..\..\..\lvgl\version_6.1.2\lvgl\src\lv_misc/lv_txt.c ****             word_len--;
 568              		.loc 1 225 0
 569 0170 0D9A     		ldr	r2, [sp, #52]
 570 0172 002A     		cmp	r2, #0
 571 0174 30D1     		bne	.L68
 572 0176 009B     		ldr	r3, [sp]
 573 0178 0133     		adds	r3, r3, #1
 574 017a 6AD0     		beq	.L105
 575              	.LVL62:
 576              	.L39:
 247:..\..\..\lvgl\version_6.1.2\lvgl\src\lv_misc/lv_txt.c ****         if( force ) return break_index;
 577              		.loc 1 247 0
 578 017c B8F10B0F 		cmp	r8, #11
 579 0180 1DD9     		bls	.L97
 254:..\..\..\lvgl\version_6.1.2\lvgl\src\lv_misc/lv_txt.c ****         if( force ) return break_index;
 580              		.loc 1 254 0
 581 0182 0A9B     		ldr	r3, [sp, #40]
 582 0184 022B     		cmp	r3, #2
 583 0186 1AD9     		bls	.L97
 584              	.LBB40:
 263:..\..\..\lvgl\version_6.1.2\lvgl\src\lv_misc/lv_txt.c ****         /* Move pointer "i" backwards */
 585              		.loc 1 263 0
 586 0188 0333     		adds	r3, r3, #3
 587 018a C8EB0308 		rsb	r8, r8, r3
 588              	.LVL63:
 265:..\..\..\lvgl\version_6.1.2\lvgl\src\lv_misc/lv_txt.c ****             lv_txt_encoded_prev(txt, &i);
 589              		.loc 1 265 0
 590 018e B8F1000F 		cmp	r8, #0
 262:..\..\..\lvgl\version_6.1.2\lvgl\src\lv_misc/lv_txt.c ****         int32_t n_move = LV_TXT_LINE_BREAK_LONG_POST_MIN_LEN - (word_len - break_letter_count);
 591              		.loc 1 262 0
 592 0192 009B     		ldr	r3, [sp]
 593 0194 0D93     		str	r3, [sp, #52]
 265:..\..\..\lvgl\version_6.1.2\lvgl\src\lv_misc/lv_txt.c ****             lv_txt_encoded_prev(txt, &i);
 594              		.loc 1 265 0
 595 0196 63DD     		ble	.L69
 596              	.L49:
 266:..\..\..\lvgl\version_6.1.2\lvgl\src\lv_misc/lv_txt.c ****             // TODO: it would be appropriate to update the returned word width here
 597              		.loc 1 266 0
 598 0198 DAF80430 		ldr	r3, [r10, #4]
 599 019c 0DA9     		add	r1, sp, #52
 600 019e 3846     		mov	r0, r7
 601 01a0 9847     		blx	r3
 602              	.LVL64:
 265:..\..\..\lvgl\version_6.1.2\lvgl\src\lv_misc/lv_txt.c ****             lv_txt_encoded_prev(txt, &i);
 603              		.loc 1 265 0
 604 01a2 B8F10108 		subs	r8, r8, #1
 605              	.LVL65:
 606 01a6 F7D1     		bne	.L49
 607 01a8 0D9A     		ldr	r2, [sp, #52]
 608              	.LVL66:
 609              	.L48:
 610              	.LBE40:
ARM GAS  C:\Users\pearlstl\AppData\Local\Temp\ccILyAHD.s 			page 28


 271:..\..\..\lvgl\version_6.1.2\lvgl\src\lv_misc/lv_txt.c **** #else
 611              		.loc 1 271 0
 612 01aa 92B2     		uxth	r2, r2
 613 01ac 2DE0     		b	.L44
 614              	.LVL67:
 615              	.L62:
 616              	.LBB41:
 617              	.LBB31:
 392:..\..\..\lvgl\version_6.1.2\lvgl\src\lv_misc/lv_txt.c ****             *state = LV_TXT_CMD_STATE_PAR;
 618              		.loc 1 392 0
 619 01ae 0122     		movs	r2, #1
 620 01b0 0292     		str	r2, [sp, #8]
 621              	.LVL68:
 622 01b2 CCE7     		b	.L28
 623              	.LVL69:
 624              	.L101:
 410:..\..\..\lvgl\version_6.1.2\lvgl\src\lv_misc/lv_txt.c ****         }
 625              		.loc 1 410 0
 626 01b4 202C     		cmp	r4, #32
 627 01b6 08BF     		it	eq
 628 01b8 0222     		moveq	r2, #2
 629 01ba 0292     		str	r2, [sp, #8]
 630 01bc C7E7     		b	.L28
 631              	.LVL70:
 632              	.L97:
 633              	.LBE31:
 634              	.LBE41:
 255:..\..\..\lvgl\version_6.1.2\lvgl\src\lv_misc/lv_txt.c ****         if(word_w_ptr != NULL) *word_w_ptr = 0;
 635              		.loc 1 255 0
 636 01be 069B     		ldr	r3, [sp, #24]
 637 01c0 0BB3     		cbz	r3, .L106
 638              	.LVL71:
 639              	.L57:
 640              	.LBE45:
 641              	.LBE51:
 308:..\..\..\lvgl\version_6.1.2\lvgl\src\lv_misc/lv_txt.c ****             break;
 642              		.loc 1 308 0
 643 01c2 0C9B     		ldr	r3, [sp, #48]
 644 01c4 0693     		str	r3, [sp, #24]
 645 01c6 63B1     		cbz	r3, .L107
 646              	.L51:
 647              	.LBE56:
 328:..\..\..\lvgl\version_6.1.2\lvgl\src\lv_misc/lv_txt.c **** }
 648              		.loc 1 328 0
 649 01c8 BDF81800 		ldrh	r0, [sp, #24]
 650              	.L91:
 329:..\..\..\lvgl\version_6.1.2\lvgl\src\lv_misc/lv_txt.c **** 
 651              		.loc 1 329 0
 652 01cc 11B0     		add	sp, sp, #68
 653              		.cfi_remember_state
 654              		.cfi_def_cfa_offset 36
 655              		@ sp needed
 656 01ce BDE8F08F 		pop	{r4, r5, r6, r7, r8, r9, r10, fp, pc}
 657              	.LVL72:
 658              	.L63:
 659              		.cfi_restore_state
 660              	.LBB57:
ARM GAS  C:\Users\pearlstl\AppData\Local\Temp\ccILyAHD.s 			page 29


 661              	.LBB52:
 662              	.LBB46:
 663              	.LBB42:
 664              	.LBB32:
 398:..\..\..\lvgl\version_6.1.2\lvgl\src\lv_misc/lv_txt.c ****         }
 665              		.loc 1 398 0
 666 01d2 0022     		movs	r2, #0
 667 01d4 0292     		str	r2, [sp, #8]
 668              	.LVL73:
 669 01d6 77E7     		b	.L24
 670              	.LVL74:
 671              	.L68:
 672              	.LBE32:
 673              	.LBE42:
 240:..\..\..\lvgl\version_6.1.2\lvgl\src\lv_misc/lv_txt.c ****         if( word_len == 0 || (letter == '\r' && letter_next == '\n') ) i = i_next;
 674              		.loc 1 240 0
 675 01d8 009B     		ldr	r3, [sp]
 676 01da 0133     		adds	r3, r3, #1
 225:..\..\..\lvgl\version_6.1.2\lvgl\src\lv_misc/lv_txt.c ****             word_len--;
 677              		.loc 1 225 0
 678 01dc 0446     		mov	r4, r0
 679              	.LVL75:
 240:..\..\..\lvgl\version_6.1.2\lvgl\src\lv_misc/lv_txt.c ****         if( word_len == 0 || (letter == '\r' && letter_next == '\n') ) i = i_next;
 680              		.loc 1 240 0
 681 01de CDD1     		bne	.L39
 682 01e0 A7E7     		b	.L40
 683              	.LVL76:
 684              	.L107:
 685              	.LBE46:
 686              	.LBE52:
 308:..\..\..\lvgl\version_6.1.2\lvgl\src\lv_misc/lv_txt.c ****             break;
 687              		.loc 1 308 0 discriminator 1
 688 01e2 224B     		ldr	r3, .L109
 689 01e4 0998     		ldr	r0, [sp, #36]
 690 01e6 1B68     		ldr	r3, [r3]
 691 01e8 0CA9     		add	r1, sp, #48
 692 01ea 9847     		blx	r3
 693              	.LVL77:
 694 01ec 0C9B     		ldr	r3, [sp, #48]
 695 01ee 0693     		str	r3, [sp, #24]
 696              	.L52:
 697              	.LBE57:
 324:..\..\..\lvgl\version_6.1.2\lvgl\src\lv_misc/lv_txt.c ****         lv_txt_encoded_next(txt, &i);
 698              		.loc 1 324 0
 699 01f0 069B     		ldr	r3, [sp, #24]
 700 01f2 002B     		cmp	r3, #0
 701 01f4 E8D1     		bne	.L51
 702              	.L108:
 325:..\..\..\lvgl\version_6.1.2\lvgl\src\lv_misc/lv_txt.c ****     }
 703              		.loc 1 325 0
 704 01f6 1D4B     		ldr	r3, .L109
 705 01f8 0998     		ldr	r0, [sp, #36]
 706 01fa 1B68     		ldr	r3, [r3]
 707 01fc 0CA9     		add	r1, sp, #48
 708 01fe 9847     		blx	r3
 709              	.LVL78:
 710 0200 0C9B     		ldr	r3, [sp, #48]
ARM GAS  C:\Users\pearlstl\AppData\Local\Temp\ccILyAHD.s 			page 30


 711 0202 0693     		str	r3, [sp, #24]
 712 0204 E0E7     		b	.L51
 713              	.LVL79:
 714              	.L106:
 715              	.LBB58:
 716              	.LBB53:
 717              	.LBB47:
 255:..\..\..\lvgl\version_6.1.2\lvgl\src\lv_misc/lv_txt.c ****         if(word_w_ptr != NULL) *word_w_ptr = 0;
 718              		.loc 1 255 0
 719 0206 BDF80020 		ldrh	r2, [sp]
 720              	.LVL80:
 721              	.L44:
 722              	.LBE47:
 723              	.LBE53:
 305:..\..\..\lvgl\version_6.1.2\lvgl\src\lv_misc/lv_txt.c **** 
 724              		.loc 1 305 0
 725 020a 079B     		ldr	r3, [sp, #28]
 726 020c C9EB0303 		rsb	r3, r9, r3
 727 0210 1BB2     		sxth	r3, r3
 728 0212 0793     		str	r3, [sp, #28]
 729              	.LVL81:
 307:..\..\..\lvgl\version_6.1.2\lvgl\src\lv_misc/lv_txt.c ****             if(i == 0) lv_txt_encoded_next(txt, &i); // prevent inf loops
 730              		.loc 1 307 0
 731 0214 002A     		cmp	r2, #0
 732 0216 D4D0     		beq	.L57
 314:..\..\..\lvgl\version_6.1.2\lvgl\src\lv_misc/lv_txt.c **** 
 733              		.loc 1 314 0
 734 0218 0998     		ldr	r0, [sp, #36]
 312:..\..\..\lvgl\version_6.1.2\lvgl\src\lv_misc/lv_txt.c **** 
 735              		.loc 1 312 0
 736 021a 0C99     		ldr	r1, [sp, #48]
 314:..\..\..\lvgl\version_6.1.2\lvgl\src\lv_misc/lv_txt.c **** 
 737              		.loc 1 314 0
 738 021c 0378     		ldrb	r3, [r0]	@ zero_extendqisi2
 312:..\..\..\lvgl\version_6.1.2\lvgl\src\lv_misc/lv_txt.c **** 
 739              		.loc 1 312 0
 740 021e 0A44     		add	r2, r2, r1
 741              	.LVL82:
 314:..\..\..\lvgl\version_6.1.2\lvgl\src\lv_misc/lv_txt.c **** 
 742              		.loc 1 314 0
 743 0220 0A2B     		cmp	r3, #10
 312:..\..\..\lvgl\version_6.1.2\lvgl\src\lv_misc/lv_txt.c **** 
 744              		.loc 1 312 0
 745 0222 0692     		str	r2, [sp, #24]
 746 0224 0C92     		str	r2, [sp, #48]
 314:..\..\..\lvgl\version_6.1.2\lvgl\src\lv_misc/lv_txt.c **** 
 747              		.loc 1 314 0
 748 0226 E3D0     		beq	.L52
 314:..\..\..\lvgl\version_6.1.2\lvgl\src\lv_misc/lv_txt.c **** 
 749              		.loc 1 314 0 is_stmt 0 discriminator 1
 750 0228 0D2B     		cmp	r3, #13
 751 022a E1D0     		beq	.L52
 316:..\..\..\lvgl\version_6.1.2\lvgl\src\lv_misc/lv_txt.c ****             i++;  /* Include the following newline in the current line */
 752              		.loc 1 316 0 is_stmt 1
 753 022c 835C     		ldrb	r3, [r0, r2]	@ zero_extendqisi2
 754 022e 0A2B     		cmp	r3, #10
 755 0230 02D0     		beq	.L53
ARM GAS  C:\Users\pearlstl\AppData\Local\Temp\ccILyAHD.s 			page 31


 316:..\..\..\lvgl\version_6.1.2\lvgl\src\lv_misc/lv_txt.c ****             i++;  /* Include the following newline in the current line */
 756              		.loc 1 316 0 is_stmt 0 discriminator 1
 757 0232 0D2B     		cmp	r3, #13
 758 0234 7FF40DAF 		bne	.L21
 759              	.L53:
 317:..\..\..\lvgl\version_6.1.2\lvgl\src\lv_misc/lv_txt.c ****             break;
 760              		.loc 1 317 0 is_stmt 1
 761 0238 069B     		ldr	r3, [sp, #24]
 762 023a 0133     		adds	r3, r3, #1
 763 023c 0693     		str	r3, [sp, #24]
 764 023e 0C93     		str	r3, [sp, #48]
 765              	.LBE58:
 324:..\..\..\lvgl\version_6.1.2\lvgl\src\lv_misc/lv_txt.c ****         lv_txt_encoded_next(txt, &i);
 766              		.loc 1 324 0
 767 0240 069B     		ldr	r3, [sp, #24]
 768 0242 002B     		cmp	r3, #0
 769 0244 C0D1     		bne	.L51
 770 0246 D6E7     		b	.L108
 771              	.LVL83:
 772              	.L103:
 773              	.LBB59:
 774              	.LBB54:
 775              	.LBB48:
 241:..\..\..\lvgl\version_6.1.2\lvgl\src\lv_misc/lv_txt.c ****         return i;
 776              		.loc 1 241 0
 777 0248 0D2C     		cmp	r4, #13
 778 024a AED1     		bne	.L48
 779 024c 0A2E     		cmp	r6, #10
 780 024e ACD1     		bne	.L48
 781 0250 73E7     		b	.L42
 782              	.LVL84:
 783              	.L105:
 225:..\..\..\lvgl\version_6.1.2\lvgl\src\lv_misc/lv_txt.c ****             word_len--;
 784              		.loc 1 225 0
 785 0252 A946     		mov	r9, r5
 786              	.LVL85:
 787 0254 0446     		mov	r4, r0
 788              	.LVL86:
 241:..\..\..\lvgl\version_6.1.2\lvgl\src\lv_misc/lv_txt.c ****         return i;
 789              		.loc 1 241 0
 790 0256 B8F1000F 		cmp	r8, #0
 791 025a 3FF46EAF 		beq	.L42
 792              	.LVL87:
 793 025e F3E7     		b	.L103
 794              	.LVL88:
 795              	.L69:
 796 0260 1A46     		mov	r2, r3
 797 0262 A2E7     		b	.L48
 798              	.LVL89:
 799              	.L59:
 800 0264 0846     		mov	r0, r1
 801              	.LVL90:
 802              	.LBE48:
 803              	.LBE54:
 804              	.LBE59:
 329:..\..\..\lvgl\version_6.1.2\lvgl\src\lv_misc/lv_txt.c **** 
 805              		.loc 1 329 0
ARM GAS  C:\Users\pearlstl\AppData\Local\Temp\ccILyAHD.s 			page 32


 806 0266 11B0     		add	sp, sp, #68
 807              		.cfi_def_cfa_offset 36
 808              		@ sp needed
 809 0268 BDE8F08F 		pop	{r4, r5, r6, r7, r8, r9, r10, fp, pc}
 810              	.LVL91:
 811              	.L110:
 812              		.align	2
 813              	.L109:
 814 026c 00000000 		.word	.LANCHOR0
 815 0270 00000000 		.word	.LC0
 816              		.cfi_endproc
 817              	.LFE6:
 818              		.size	lv_txt_get_next_line, .-lv_txt_get_next_line
 819              		.section	.text.lv_txt_get_width,"ax",%progbits
 820              		.align	2
 821              		.global	lv_txt_get_width
 822              		.thumb
 823              		.thumb_func
 824              		.type	lv_txt_get_width, %function
 825              	lv_txt_get_width:
 826              	.LFB7:
 343:..\..\..\lvgl\version_6.1.2\lvgl\src\lv_misc/lv_txt.c ****     if(txt == NULL) return 0;
 827              		.loc 1 343 0
 828              		.cfi_startproc
 829              		@ args = 4, pretend = 0, frame = 16
 830              		@ frame_needed = 0, uses_anonymous_args = 0
 831              	.LVL92:
 832 0000 2DE9F04F 		push	{r4, r5, r6, r7, r8, r9, r10, fp, lr}
 833              		.cfi_def_cfa_offset 36
 834              		.cfi_offset 4, -36
 835              		.cfi_offset 5, -32
 836              		.cfi_offset 6, -28
 837              		.cfi_offset 7, -24
 838              		.cfi_offset 8, -20
 839              		.cfi_offset 9, -16
 840              		.cfi_offset 10, -12
 841              		.cfi_offset 11, -8
 842              		.cfi_offset 14, -4
 843 0004 85B0     		sub	sp, sp, #20
 844              		.cfi_def_cfa_offset 56
 343:..\..\..\lvgl\version_6.1.2\lvgl\src\lv_misc/lv_txt.c ****     if(txt == NULL) return 0;
 845              		.loc 1 343 0
 846 0006 9DF83860 		ldrb	r6, [sp, #56]	@ zero_extendqisi2
 344:..\..\..\lvgl\version_6.1.2\lvgl\src\lv_misc/lv_txt.c ****     if(font == NULL) return 0;
 847              		.loc 1 344 0
 848 000a 0028     		cmp	r0, #0
 849 000c 3ED0     		beq	.L114
 345:..\..\..\lvgl\version_6.1.2\lvgl\src\lv_misc/lv_txt.c **** 
 850              		.loc 1 345 0
 851 000e 002A     		cmp	r2, #0
 852 0010 3CD0     		beq	.L114
 347:..\..\..\lvgl\version_6.1.2\lvgl\src\lv_misc/lv_txt.c ****     lv_coord_t width             = 0;
 853              		.loc 1 347 0
 854 0012 4FF00008 		mov	r8, #0
 855 0016 CDF80C80 		str	r8, [sp, #12]
 856              	.LVL93:
 353:..\..\..\lvgl\version_6.1.2\lvgl\src\lv_misc/lv_txt.c ****         while(i < length) {
ARM GAS  C:\Users\pearlstl\AppData\Local\Temp\ccILyAHD.s 			page 33


 857              		.loc 1 353 0
 858 001a 0029     		cmp	r1, #0
 859 001c 36D0     		beq	.L114
 860 001e 16F00104 		ands	r4, r6, #1
 861 0022 0546     		mov	r5, r0
 862 0024 0193     		str	r3, [sp, #4]
 863 0026 9146     		mov	r9, r2
 864 0028 0F46     		mov	r7, r1
 865 002a 324E     		ldr	r6, .L142
 866 002c 32D0     		beq	.L140
 867 002e 4446     		mov	r4, r8
 868 0030 0DF10C0B 		add	fp, sp, #12
 869 0034 11E0     		b	.L124
 870              	.LVL94:
 871              	.L119:
 872              	.LBB60:
 873              	.LBB61:
 874              	.LBB62:
 408:..\..\..\lvgl\version_6.1.2\lvgl\src\lv_misc/lv_txt.c ****         if(c == ' ') {
 875              		.loc 1 408 0
 876 0036 B8F1010F 		cmp	r8, #1
 877 003a 4FD0     		beq	.L141
 878              	.LVL95:
 879              	.L123:
 880              	.LBE62:
 881              	.LBE61:
 363:..\..\..\lvgl\version_6.1.2\lvgl\src\lv_misc/lv_txt.c ****             if(char_width > 0) {
 882              		.loc 1 363 0
 883 003c 0246     		mov	r2, r0
 884 003e 5146     		mov	r1, r10
 885 0040 4846     		mov	r0, r9
 886              	.LVL96:
 887 0042 FFF7FEFF 		bl	lv_font_get_glyph_width
 888              	.LVL97:
 364:..\..\..\lvgl\version_6.1.2\lvgl\src\lv_misc/lv_txt.c ****                 width += char_width;
 889              		.loc 1 364 0
 890 0046 03B2     		sxth	r3, r0
 891 0048 002B     		cmp	r3, #0
 892 004a 03DD     		ble	.L122
 893              	.LVL98:
 366:..\..\..\lvgl\version_6.1.2\lvgl\src\lv_misc/lv_txt.c ****             }
 894              		.loc 1 366 0
 895 004c 019B     		ldr	r3, [sp, #4]
 896 004e 1C44     		add	r4, r4, r3
 897              	.LVL99:
 898 0050 0444     		add	r4, r4, r0
 899 0052 24B2     		sxth	r4, r4
 900              	.LVL100:
 901              	.L122:
 902              	.LBE60:
 354:..\..\..\lvgl\version_6.1.2\lvgl\src\lv_misc/lv_txt.c ****             letter      = lv_txt_encoded_next(txt, &i);
 903              		.loc 1 354 0
 904 0054 039B     		ldr	r3, [sp, #12]
 905 0056 9F42     		cmp	r7, r3
 906 0058 37D9     		bls	.L118
 907              	.LVL101:
 908              	.L124:
ARM GAS  C:\Users\pearlstl\AppData\Local\Temp\ccILyAHD.s 			page 34


 909              	.LBB67:
 355:..\..\..\lvgl\version_6.1.2\lvgl\src\lv_misc/lv_txt.c ****             letter_next = lv_txt_encoded_next(&txt[i], NULL);
 910              		.loc 1 355 0
 911 005a 3368     		ldr	r3, [r6]
 912 005c 5946     		mov	r1, fp
 913 005e 2846     		mov	r0, r5
 914 0060 9847     		blx	r3
 915              	.LVL102:
 916 0062 8246     		mov	r10, r0
 917              	.LVL103:
 356:..\..\..\lvgl\version_6.1.2\lvgl\src\lv_misc/lv_txt.c ****             if((flag & LV_TXT_FLAG_RECOLOR) != 0) {
 918              		.loc 1 356 0
 919 0064 0398     		ldr	r0, [sp, #12]
 920              	.LVL104:
 921 0066 3268     		ldr	r2, [r6]
 922 0068 2844     		add	r0, r0, r5
 923 006a 0021     		movs	r1, #0
 924 006c 9047     		blx	r2
 925              	.LVL105:
 926              	.LBB65:
 927              	.LBB63:
 391:..\..\..\lvgl\version_6.1.2\lvgl\src\lv_misc/lv_txt.c ****         if(*state == LV_TXT_CMD_STATE_WAIT) { /*Start char*/
 928              		.loc 1 391 0
 929 006e BAF1230F 		cmp	r10, #35
 930 0072 E0D1     		bne	.L119
 392:..\..\..\lvgl\version_6.1.2\lvgl\src\lv_misc/lv_txt.c ****             *state = LV_TXT_CMD_STATE_PAR;
 931              		.loc 1 392 0
 932 0074 B8F1000F 		cmp	r8, #0
 933 0078 36D0     		beq	.L125
 397:..\..\..\lvgl\version_6.1.2\lvgl\src\lv_misc/lv_txt.c ****             *state = LV_TXT_CMD_STATE_WAIT;
 934              		.loc 1 397 0
 935 007a B8F1010F 		cmp	r8, #1
 936 007e 36D0     		beq	.L126
 401:..\..\..\lvgl\version_6.1.2\lvgl\src\lv_misc/lv_txt.c ****             *state = LV_TXT_CMD_STATE_WAIT;
 937              		.loc 1 401 0
 938 0080 B8F1020F 		cmp	r8, #2
 939 0084 DAD1     		bne	.L123
 402:..\..\..\lvgl\version_6.1.2\lvgl\src\lv_misc/lv_txt.c ****             ret    = true;
 940              		.loc 1 402 0
 941 0086 4FF00008 		mov	r8, #0
 942              	.LVL106:
 943 008a E3E7     		b	.L122
 944              	.LVL107:
 945              	.L114:
 946              	.LBE63:
 947              	.LBE65:
 948              	.LBE67:
 344:..\..\..\lvgl\version_6.1.2\lvgl\src\lv_misc/lv_txt.c ****     if(font == NULL) return 0;
 949              		.loc 1 344 0
 950 008c 0020     		movs	r0, #0
 951              	.LVL108:
 377:..\..\..\lvgl\version_6.1.2\lvgl\src\lv_misc/lv_txt.c **** 
 952              		.loc 1 377 0
 953 008e 05B0     		add	sp, sp, #20
 954              		.cfi_remember_state
 955              		.cfi_def_cfa_offset 36
 956              		@ sp needed
ARM GAS  C:\Users\pearlstl\AppData\Local\Temp\ccILyAHD.s 			page 35


 957 0090 BDE8F08F 		pop	{r4, r5, r6, r7, r8, r9, r10, fp, pc}
 958              	.LVL109:
 959              	.L140:
 960              		.cfi_restore_state
 961 0094 0DF10C0B 		add	fp, sp, #12
 962              	.LVL110:
 963              	.L117:
 964              	.LBB68:
 355:..\..\..\lvgl\version_6.1.2\lvgl\src\lv_misc/lv_txt.c ****             letter_next = lv_txt_encoded_next(&txt[i], NULL);
 965              		.loc 1 355 0
 966 0098 3368     		ldr	r3, [r6]
 967 009a 5946     		mov	r1, fp
 968 009c 2846     		mov	r0, r5
 969 009e 9847     		blx	r3
 970              	.LVL111:
 971 00a0 8046     		mov	r8, r0
 972              	.LVL112:
 356:..\..\..\lvgl\version_6.1.2\lvgl\src\lv_misc/lv_txt.c ****             if((flag & LV_TXT_FLAG_RECOLOR) != 0) {
 973              		.loc 1 356 0
 974 00a2 0398     		ldr	r0, [sp, #12]
 975              	.LVL113:
 976 00a4 3368     		ldr	r3, [r6]
 977 00a6 0021     		movs	r1, #0
 978 00a8 2844     		add	r0, r0, r5
 979 00aa 9847     		blx	r3
 980              	.LVL114:
 363:..\..\..\lvgl\version_6.1.2\lvgl\src\lv_misc/lv_txt.c ****             if(char_width > 0) {
 981              		.loc 1 363 0
 982 00ac 4146     		mov	r1, r8
 983 00ae 0246     		mov	r2, r0
 984 00b0 4846     		mov	r0, r9
 985              	.LVL115:
 986 00b2 FFF7FEFF 		bl	lv_font_get_glyph_width
 987              	.LVL116:
 364:..\..\..\lvgl\version_6.1.2\lvgl\src\lv_misc/lv_txt.c ****                 width += char_width;
 988              		.loc 1 364 0
 989 00b6 02B2     		sxth	r2, r0
 990 00b8 002A     		cmp	r2, #0
 991              	.LBE68:
 354:..\..\..\lvgl\version_6.1.2\lvgl\src\lv_misc/lv_txt.c ****             letter      = lv_txt_encoded_next(txt, &i);
 992              		.loc 1 354 0
 993 00ba 039B     		ldr	r3, [sp, #12]
 994              	.LBB69:
 364:..\..\..\lvgl\version_6.1.2\lvgl\src\lv_misc/lv_txt.c ****                 width += char_width;
 995              		.loc 1 364 0
 996 00bc 03DD     		ble	.L116
 366:..\..\..\lvgl\version_6.1.2\lvgl\src\lv_misc/lv_txt.c ****             }
 997              		.loc 1 366 0
 998 00be 019A     		ldr	r2, [sp, #4]
 999 00c0 1444     		add	r4, r4, r2
 1000              	.LVL117:
 1001 00c2 2044     		add	r0, r0, r4
 1002              	.LVL118:
 1003 00c4 04B2     		sxth	r4, r0
 1004              	.LVL119:
 1005              	.L116:
 1006              	.LBE69:
ARM GAS  C:\Users\pearlstl\AppData\Local\Temp\ccILyAHD.s 			page 36


 354:..\..\..\lvgl\version_6.1.2\lvgl\src\lv_misc/lv_txt.c ****             letter      = lv_txt_encoded_next(txt, &i);
 1007              		.loc 1 354 0
 1008 00c6 9F42     		cmp	r7, r3
 1009 00c8 E6D8     		bhi	.L117
 1010              	.LVL120:
 1011              	.L118:
 370:..\..\..\lvgl\version_6.1.2\lvgl\src\lv_misc/lv_txt.c ****             width -= letter_space; /*Trim the last letter space. Important if the text is center
 1012              		.loc 1 370 0
 1013 00ca 002C     		cmp	r4, #0
 371:..\..\..\lvgl\version_6.1.2\lvgl\src\lv_misc/lv_txt.c ****                                       aligned */
 1014              		.loc 1 371 0
 1015 00cc C3BF     		ittte	gt
 1016 00ce 019B     		ldrgt	r3, [sp, #4]
 1017 00d0 E41A     		subgt	r4, r4, r3
 1018              	.LVL121:
 1019 00d2 20B2     		sxthgt	r0, r4
 1020 00d4 2046     		movle	r0, r4
 377:..\..\..\lvgl\version_6.1.2\lvgl\src\lv_misc/lv_txt.c **** 
 1021              		.loc 1 377 0
 1022 00d6 05B0     		add	sp, sp, #20
 1023              		.cfi_remember_state
 1024              		.cfi_def_cfa_offset 36
 1025              		@ sp needed
 1026 00d8 BDE8F08F 		pop	{r4, r5, r6, r7, r8, r9, r10, fp, pc}
 1027              	.LVL122:
 1028              	.L141:
 1029              		.cfi_restore_state
 1030              	.LBB70:
 1031              	.LBB66:
 1032              	.LBB64:
 410:..\..\..\lvgl\version_6.1.2\lvgl\src\lv_misc/lv_txt.c ****         }
 1033              		.loc 1 410 0
 1034 00dc BAF1200F 		cmp	r10, #32
 1035 00e0 08BF     		it	eq
 1036 00e2 4FF00208 		moveq	r8, #2
 1037 00e6 B5E7     		b	.L122
 1038              	.LVL123:
 1039              	.L125:
 392:..\..\..\lvgl\version_6.1.2\lvgl\src\lv_misc/lv_txt.c ****             *state = LV_TXT_CMD_STATE_PAR;
 1040              		.loc 1 392 0
 1041 00e8 4FF00108 		mov	r8, #1
 1042              	.LVL124:
 1043 00ec B2E7     		b	.L122
 1044              	.LVL125:
 1045              	.L126:
 398:..\..\..\lvgl\version_6.1.2\lvgl\src\lv_misc/lv_txt.c ****         }
 1046              		.loc 1 398 0
 1047 00ee 4FF00008 		mov	r8, #0
 1048              	.LVL126:
 1049 00f2 A3E7     		b	.L123
 1050              	.L143:
 1051              		.align	2
 1052              	.L142:
 1053 00f4 00000000 		.word	.LANCHOR0
 1054              	.LBE64:
 1055              	.LBE66:
 1056              	.LBE70:
ARM GAS  C:\Users\pearlstl\AppData\Local\Temp\ccILyAHD.s 			page 37


 1057              		.cfi_endproc
 1058              	.LFE7:
 1059              		.size	lv_txt_get_width, .-lv_txt_get_width
 1060              		.section	.text.lv_txt_get_size,"ax",%progbits
 1061              		.align	2
 1062              		.global	lv_txt_get_size
 1063              		.thumb
 1064              		.thumb_func
 1065              		.type	lv_txt_get_size, %function
 1066              	lv_txt_get_size:
 1067              	.LFB4:
  95:..\..\..\lvgl\version_6.1.2\lvgl\src\lv_misc/lv_txt.c ****     size_res->x = 0;
 1068              		.loc 1 95 0
 1069              		.cfi_startproc
 1070              		@ args = 12, pretend = 0, frame = 24
 1071              		@ frame_needed = 0, uses_anonymous_args = 0
 1072              	.LVL127:
 1073 0000 2DE9F04F 		push	{r4, r5, r6, r7, r8, r9, r10, fp, lr}
 1074              		.cfi_def_cfa_offset 36
 1075              		.cfi_offset 4, -36
 1076              		.cfi_offset 5, -32
 1077              		.cfi_offset 6, -28
 1078              		.cfi_offset 7, -24
 1079              		.cfi_offset 8, -20
 1080              		.cfi_offset 9, -16
 1081              		.cfi_offset 10, -12
 1082              		.cfi_offset 11, -8
 1083              		.cfi_offset 14, -4
 1084 0004 89B0     		sub	sp, sp, #36
 1085              		.cfi_def_cfa_offset 72
  96:..\..\..\lvgl\version_6.1.2\lvgl\src\lv_misc/lv_txt.c ****     size_res->y = 0;
 1086              		.loc 1 96 0
 1087 0006 0026     		movs	r6, #0
  95:..\..\..\lvgl\version_6.1.2\lvgl\src\lv_misc/lv_txt.c ****     size_res->x = 0;
 1088              		.loc 1 95 0
 1089 0008 BDF94840 		ldrsh	r4, [sp, #72]
  96:..\..\..\lvgl\version_6.1.2\lvgl\src\lv_misc/lv_txt.c ****     size_res->y = 0;
 1090              		.loc 1 96 0
 1091 000c 0680     		strh	r6, [r0]	@ movhi
  97:..\..\..\lvgl\version_6.1.2\lvgl\src\lv_misc/lv_txt.c **** 
 1092              		.loc 1 97 0
 1093 000e 4680     		strh	r6, [r0, #2]	@ movhi
  95:..\..\..\lvgl\version_6.1.2\lvgl\src\lv_misc/lv_txt.c ****     size_res->x = 0;
 1094              		.loc 1 95 0
 1095 0010 0494     		str	r4, [sp, #16]
 1096 0012 BDF94CB0 		ldrsh	fp, [sp, #76]
 1097 0016 9DF850A0 		ldrb	r10, [sp, #80]	@ zero_extendqisi2
  99:..\..\..\lvgl\version_6.1.2\lvgl\src\lv_misc/lv_txt.c ****     if(font == NULL) return;
 1098              		.loc 1 99 0
 1099 001a 0029     		cmp	r1, #0
 1100 001c 48D0     		beq	.L144
 100:..\..\..\lvgl\version_6.1.2\lvgl\src\lv_misc/lv_txt.c **** 
 1101              		.loc 1 100 0
 1102 001e 002A     		cmp	r2, #0
 1103 0020 46D0     		beq	.L144
 1104 0022 9046     		mov	r8, r2
 1105 0024 127A     		ldrb	r2, [r2, #8]	@ zero_extendqisi2
ARM GAS  C:\Users\pearlstl\AppData\Local\Temp\ccILyAHD.s 			page 38


 1106              	.LVL128:
 1107 0026 0592     		str	r2, [sp, #20]
 1108 0028 9946     		mov	r9, r3
 110:..\..\..\lvgl\version_6.1.2\lvgl\src\lv_misc/lv_txt.c ****         new_line_start += lv_txt_get_next_line(&text[line_start], font, letter_space, max_width, fl
 1109              		.loc 1 110 0
 1110 002a 0B78     		ldrb	r3, [r1]	@ zero_extendqisi2
 1111              	.LVL129:
 1112 002c 0F46     		mov	r7, r1
 102:..\..\..\lvgl\version_6.1.2\lvgl\src\lv_misc/lv_txt.c **** 
 1113              		.loc 1 102 0
 1114 002e 1AF0020F 		tst	r10, #2
 1115 0032 1146     		mov	r1, r2
 1116              	.LVL130:
 1117 0034 47F61842 		movw	r2, #31768
 1118 0038 0546     		mov	r5, r0
 1119 003a 18BF     		it	ne
 1120 003c 9346     		movne	fp, r2
 1121              	.LVL131:
 110:..\..\..\lvgl\version_6.1.2\lvgl\src\lv_misc/lv_txt.c ****         new_line_start += lv_txt_get_next_line(&text[line_start], font, letter_space, max_width, fl
 1122              		.loc 1 110 0
 1123 003e 002B     		cmp	r3, #0
 1124 0040 52D0     		beq	.L149
 117:..\..\..\lvgl\version_6.1.2\lvgl\src\lv_misc/lv_txt.c ****             size_res->y += line_space;
 1125              		.loc 1 117 0
 1126 0042 8BB2     		uxth	r3, r1
 1127 0044 0693     		str	r3, [sp, #24]
 118:..\..\..\lvgl\version_6.1.2\lvgl\src\lv_misc/lv_txt.c ****         }
 1128              		.loc 1 118 0
 1129 0046 BDF81030 		ldrh	r3, [sp, #16]
 1130 004a CDF80CA0 		str	r10, [sp, #12]
 110:..\..\..\lvgl\version_6.1.2\lvgl\src\lv_misc/lv_txt.c ****         new_line_start += lv_txt_get_next_line(&text[line_start], font, letter_space, max_width, fl
 1131              		.loc 1 110 0
 1132 004e 3C46     		mov	r4, r7
 118:..\..\..\lvgl\version_6.1.2\lvgl\src\lv_misc/lv_txt.c ****         }
 1133              		.loc 1 118 0
 1134 0050 0793     		str	r3, [sp, #28]
 1135 0052 BA46     		mov	r10, r7
 1136 0054 10E0     		b	.L150
 1137              	.LVL132:
 1138              	.L169:
 122:..\..\..\lvgl\version_6.1.2\lvgl\src\lv_misc/lv_txt.c **** 
 1139              		.loc 1 122 0
 1140 0056 039C     		ldr	r4, [sp, #12]
 118:..\..\..\lvgl\version_6.1.2\lvgl\src\lv_misc/lv_txt.c ****         }
 1141              		.loc 1 118 0
 1142 0058 A5F802C0 		strh	ip, [r5, #2]	@ movhi
 122:..\..\..\lvgl\version_6.1.2\lvgl\src\lv_misc/lv_txt.c **** 
 1143              		.loc 1 122 0
 1144 005c 0094     		str	r4, [sp]
 1145 005e FFF7FEFF 		bl	lv_txt_get_width
 1146              	.LVL133:
 124:..\..\..\lvgl\version_6.1.2\lvgl\src\lv_misc/lv_txt.c ****         line_start  = new_line_start;
 1147              		.loc 1 124 0
 1148 0062 B5F90030 		ldrsh	r3, [r5]
 1149 0066 9842     		cmp	r0, r3
 1150 0068 B8BF     		it	lt
 1151 006a 1846     		movlt	r0, r3
ARM GAS  C:\Users\pearlstl\AppData\Local\Temp\ccILyAHD.s 			page 39


 1152              	.LVL134:
 1153 006c 2880     		strh	r0, [r5]	@ movhi
 1154              	.LVL135:
 110:..\..\..\lvgl\version_6.1.2\lvgl\src\lv_misc/lv_txt.c ****         new_line_start += lv_txt_get_next_line(&text[line_start], font, letter_space, max_width, fl
 1155              		.loc 1 110 0
 1156 006e 1AF80630 		ldrb	r3, [r10, r6]	@ zero_extendqisi2
 1157 0072 0AEB0604 		add	r4, r10, r6
 1158 0076 F3B1     		cbz	r3, .L168
 1159              	.LVL136:
 1160              	.L150:
 111:..\..\..\lvgl\version_6.1.2\lvgl\src\lv_misc/lv_txt.c **** 
 1161              		.loc 1 111 0
 1162 0078 039B     		ldr	r3, [sp, #12]
 1163 007a 0093     		str	r3, [sp]
 1164 007c 4A46     		mov	r2, r9
 1165 007e 5B46     		mov	r3, fp
 1166 0080 4146     		mov	r1, r8
 1167 0082 2046     		mov	r0, r4
 1168 0084 FFF7FEFF 		bl	lv_txt_get_next_line
 1169              	.LVL137:
 118:..\..\..\lvgl\version_6.1.2\lvgl\src\lv_misc/lv_txt.c ****         }
 1170              		.loc 1 118 0
 1171 0088 079F     		ldr	r7, [sp, #28]
 111:..\..\..\lvgl\version_6.1.2\lvgl\src\lv_misc/lv_txt.c **** 
 1172              		.loc 1 111 0
 1173 008a 8646     		mov	lr, r0
 122:..\..\..\lvgl\version_6.1.2\lvgl\src\lv_misc/lv_txt.c **** 
 1174              		.loc 1 122 0
 1175 008c 2046     		mov	r0, r4
 113:..\..\..\lvgl\version_6.1.2\lvgl\src\lv_misc/lv_txt.c ****             LV_LOG_WARN("lv_txt_get_size: integer overflow while calculating text height");
 1176              		.loc 1 113 0
 1177 008e B5F90240 		ldrsh	r4, [r5, #2]
 118:..\..\..\lvgl\version_6.1.2\lvgl\src\lv_misc/lv_txt.c ****         }
 1178              		.loc 1 118 0
 1179 0092 07EB040C 		add	ip, r7, r4
 1180 0096 069F     		ldr	r7, [sp, #24]
 1181 0098 BC44     		add	ip, ip, r7
 113:..\..\..\lvgl\version_6.1.2\lvgl\src\lv_misc/lv_txt.c ****             LV_LOG_WARN("lv_txt_get_size: integer overflow while calculating text height");
 1182              		.loc 1 113 0
 1183 009a 049F     		ldr	r7, [sp, #16]
 1184 009c 3C44     		add	r4, r4, r7
 1185 009e 059F     		ldr	r7, [sp, #20]
 1186 00a0 3C44     		add	r4, r4, r7
 1187 00a2 B4F5004F 		cmp	r4, #32768
 122:..\..\..\lvgl\version_6.1.2\lvgl\src\lv_misc/lv_txt.c **** 
 1188              		.loc 1 122 0
 1189 00a6 4B46     		mov	r3, r9
 1190 00a8 4246     		mov	r2, r8
 1191 00aa 7146     		mov	r1, lr
 111:..\..\..\lvgl\version_6.1.2\lvgl\src\lv_misc/lv_txt.c **** 
 1192              		.loc 1 111 0
 1193 00ac 7644     		add	r6, r6, lr
 1194              	.LVL138:
 113:..\..\..\lvgl\version_6.1.2\lvgl\src\lv_misc/lv_txt.c ****             LV_LOG_WARN("lv_txt_get_size: integer overflow while calculating text height");
 1195              		.loc 1 113 0
 1196 00ae D2D3     		bcc	.L169
 1197              	.LVL139:
ARM GAS  C:\Users\pearlstl\AppData\Local\Temp\ccILyAHD.s 			page 40


 1198              	.L144:
 138:..\..\..\lvgl\version_6.1.2\lvgl\src\lv_misc/lv_txt.c **** 
 1199              		.loc 1 138 0
 1200 00b0 09B0     		add	sp, sp, #36
 1201              		.cfi_remember_state
 1202              		.cfi_def_cfa_offset 36
 1203              		@ sp needed
 1204 00b2 BDE8F08F 		pop	{r4, r5, r6, r7, r8, r9, r10, fp, pc}
 1205              	.LVL140:
 1206              	.L168:
 1207              		.cfi_restore_state
 129:..\..\..\lvgl\version_6.1.2\lvgl\src\lv_misc/lv_txt.c ****         size_res->y += letter_height + line_space;
 1208              		.loc 1 129 0
 1209 00b6 2EB1     		cbz	r6, .L154
 129:..\..\..\lvgl\version_6.1.2\lvgl\src\lv_misc/lv_txt.c ****         size_res->y += letter_height + line_space;
 1210              		.loc 1 129 0 is_stmt 0 discriminator 1
 1211 00b8 14F8013C 		ldrb	r3, [r4, #-1]	@ zero_extendqisi2
 1212 00bc 0A2B     		cmp	r3, #10
 1213 00be 0AD0     		beq	.L153
 129:..\..\..\lvgl\version_6.1.2\lvgl\src\lv_misc/lv_txt.c ****         size_res->y += letter_height + line_space;
 1214              		.loc 1 129 0 discriminator 2
 1215 00c0 0D2B     		cmp	r3, #13
 1216 00c2 08D0     		beq	.L153
 1217              	.L154:
 1218 00c4 B5F90230 		ldrsh	r3, [r5, #2]
 134:..\..\..\lvgl\version_6.1.2\lvgl\src\lv_misc/lv_txt.c ****         size_res->y = letter_height;
 1219              		.loc 1 134 0 is_stmt 1
 1220 00c8 73B1     		cbz	r3, .L149
 1221              	.L155:
 137:..\..\..\lvgl\version_6.1.2\lvgl\src\lv_misc/lv_txt.c **** }
 1222              		.loc 1 137 0
 1223 00ca 049A     		ldr	r2, [sp, #16]
 1224 00cc 9B1A     		subs	r3, r3, r2
 1225 00ce 6B80     		strh	r3, [r5, #2]	@ movhi
 138:..\..\..\lvgl\version_6.1.2\lvgl\src\lv_misc/lv_txt.c **** 
 1226              		.loc 1 138 0
 1227 00d0 09B0     		add	sp, sp, #36
 1228              		.cfi_remember_state
 1229              		.cfi_def_cfa_offset 36
 1230              		@ sp needed
 1231 00d2 BDE8F08F 		pop	{r4, r5, r6, r7, r8, r9, r10, fp, pc}
 1232              	.LVL141:
 1233              	.L153:
 1234              		.cfi_restore_state
 130:..\..\..\lvgl\version_6.1.2\lvgl\src\lv_misc/lv_txt.c ****     }
 1235              		.loc 1 130 0
 1236 00d6 069B     		ldr	r3, [sp, #24]
 1237 00d8 0799     		ldr	r1, [sp, #28]
 1238 00da 6A88     		ldrh	r2, [r5, #2]
 1239 00dc 0B44     		add	r3, r3, r1
 1240 00de 1344     		add	r3, r3, r2
 1241 00e0 1BB2     		sxth	r3, r3
 1242 00e2 6B80     		strh	r3, [r5, #2]	@ movhi
 134:..\..\..\lvgl\version_6.1.2\lvgl\src\lv_misc/lv_txt.c ****         size_res->y = letter_height;
 1243              		.loc 1 134 0
 1244 00e4 002B     		cmp	r3, #0
 1245 00e6 F0D1     		bne	.L155
ARM GAS  C:\Users\pearlstl\AppData\Local\Temp\ccILyAHD.s 			page 41


 1246              	.LVL142:
 1247              	.L149:
 135:..\..\..\lvgl\version_6.1.2\lvgl\src\lv_misc/lv_txt.c ****     else
 1248              		.loc 1 135 0
 1249 00e8 BDF81430 		ldrh	r3, [sp, #20]
 1250 00ec 6B80     		strh	r3, [r5, #2]	@ movhi
 138:..\..\..\lvgl\version_6.1.2\lvgl\src\lv_misc/lv_txt.c **** 
 1251              		.loc 1 138 0
 1252 00ee 09B0     		add	sp, sp, #36
 1253              		.cfi_def_cfa_offset 36
 1254              		@ sp needed
 1255 00f0 BDE8F08F 		pop	{r4, r5, r6, r7, r8, r9, r10, fp, pc}
 1256              		.cfi_endproc
 1257              	.LFE4:
 1258              		.size	lv_txt_get_size, .-lv_txt_get_size
 1259              		.section	.text.lv_txt_is_cmd,"ax",%progbits
 1260              		.align	2
 1261              		.global	lv_txt_is_cmd
 1262              		.thumb
 1263              		.thumb_func
 1264              		.type	lv_txt_is_cmd, %function
 1265              	lv_txt_is_cmd:
 1266              	.LFB8:
 388:..\..\..\lvgl\version_6.1.2\lvgl\src\lv_misc/lv_txt.c ****     bool ret = false;
 1267              		.loc 1 388 0
 1268              		.cfi_startproc
 1269              		@ args = 0, pretend = 0, frame = 0
 1270              		@ frame_needed = 0, uses_anonymous_args = 0
 1271              		@ link register save eliminated.
 1272              	.LVL143:
 391:..\..\..\lvgl\version_6.1.2\lvgl\src\lv_misc/lv_txt.c ****         if(*state == LV_TXT_CMD_STATE_WAIT) { /*Start char*/
 1273              		.loc 1 391 0
 1274 0000 2329     		cmp	r1, #35
 388:..\..\..\lvgl\version_6.1.2\lvgl\src\lv_misc/lv_txt.c ****     bool ret = false;
 1275              		.loc 1 388 0
 1276 0002 0246     		mov	r2, r0
 392:..\..\..\lvgl\version_6.1.2\lvgl\src\lv_misc/lv_txt.c ****             *state = LV_TXT_CMD_STATE_PAR;
 1277              		.loc 1 392 0
 1278 0004 0378     		ldrb	r3, [r0]	@ zero_extendqisi2
 391:..\..\..\lvgl\version_6.1.2\lvgl\src\lv_misc/lv_txt.c ****         if(*state == LV_TXT_CMD_STATE_WAIT) { /*Start char*/
 1279              		.loc 1 391 0
 1280 0006 0AD0     		beq	.L180
 408:..\..\..\lvgl\version_6.1.2\lvgl\src\lv_misc/lv_txt.c ****         if(c == ' ') {
 1281              		.loc 1 408 0
 1282 0008 012B     		cmp	r3, #1
 1283 000a 01D0     		beq	.L181
 1284              	.L176:
 389:..\..\..\lvgl\version_6.1.2\lvgl\src\lv_misc/lv_txt.c **** 
 1285              		.loc 1 389 0
 1286 000c 0020     		movs	r0, #0
 1287              	.LVL144:
 416:..\..\..\lvgl\version_6.1.2\lvgl\src\lv_misc/lv_txt.c **** 
 1288              		.loc 1 416 0
 1289 000e 7047     		bx	lr
 1290              	.LVL145:
 1291              	.L181:
 409:..\..\..\lvgl\version_6.1.2\lvgl\src\lv_misc/lv_txt.c ****             *state = LV_TXT_CMD_STATE_IN; /*After the parameter the text is in the command*/
ARM GAS  C:\Users\pearlstl\AppData\Local\Temp\ccILyAHD.s 			page 42


 1292              		.loc 1 409 0
 1293 0010 2029     		cmp	r1, #32
 410:..\..\..\lvgl\version_6.1.2\lvgl\src\lv_misc/lv_txt.c ****         }
 1294              		.loc 1 410 0
 1295 0012 03BF     		ittte	eq
 1296 0014 0221     		moveq	r1, #2
 1297              	.LVL146:
 412:..\..\..\lvgl\version_6.1.2\lvgl\src\lv_misc/lv_txt.c ****     }
 1298              		.loc 1 412 0
 1299 0016 1846     		moveq	r0, r3
 1300              	.LVL147:
 410:..\..\..\lvgl\version_6.1.2\lvgl\src\lv_misc/lv_txt.c ****         }
 1301              		.loc 1 410 0
 1302 0018 1170     		strbeq	r1, [r2]
 412:..\..\..\lvgl\version_6.1.2\lvgl\src\lv_misc/lv_txt.c ****     }
 1303              		.loc 1 412 0
 1304 001a 1846     		movne	r0, r3
 1305 001c 7047     		bx	lr
 1306              	.LVL148:
 1307              	.L180:
 392:..\..\..\lvgl\version_6.1.2\lvgl\src\lv_misc/lv_txt.c ****             *state = LV_TXT_CMD_STATE_PAR;
 1308              		.loc 1 392 0
 1309 001e 3BB1     		cbz	r3, .L182
 397:..\..\..\lvgl\version_6.1.2\lvgl\src\lv_misc/lv_txt.c ****             *state = LV_TXT_CMD_STATE_WAIT;
 1310              		.loc 1 397 0
 1311 0020 012B     		cmp	r3, #1
 1312 0022 09D0     		beq	.L183
 401:..\..\..\lvgl\version_6.1.2\lvgl\src\lv_misc/lv_txt.c ****             *state = LV_TXT_CMD_STATE_WAIT;
 1313              		.loc 1 401 0
 1314 0024 022B     		cmp	r3, #2
 1315 0026 F1D1     		bne	.L176
 402:..\..\..\lvgl\version_6.1.2\lvgl\src\lv_misc/lv_txt.c ****             ret    = true;
 1316              		.loc 1 402 0
 1317 0028 0023     		movs	r3, #0
 1318 002a 0370     		strb	r3, [r0]
 1319              	.LVL149:
 403:..\..\..\lvgl\version_6.1.2\lvgl\src\lv_misc/lv_txt.c ****         }
 1320              		.loc 1 403 0
 1321 002c 0120     		movs	r0, #1
 1322              	.LVL150:
 1323 002e 7047     		bx	lr
 1324              	.LVL151:
 1325              	.L182:
 393:..\..\..\lvgl\version_6.1.2\lvgl\src\lv_misc/lv_txt.c ****             ret    = true;
 1326              		.loc 1 393 0
 1327 0030 0123     		movs	r3, #1
 1328 0032 0370     		strb	r3, [r0]
 1329              	.LVL152:
 412:..\..\..\lvgl\version_6.1.2\lvgl\src\lv_misc/lv_txt.c ****     }
 1330              		.loc 1 412 0
 1331 0034 1846     		mov	r0, r3
 1332              	.LVL153:
 1333 0036 7047     		bx	lr
 1334              	.LVL154:
 1335              	.L183:
 398:..\..\..\lvgl\version_6.1.2\lvgl\src\lv_misc/lv_txt.c ****         }
 1336              		.loc 1 398 0
ARM GAS  C:\Users\pearlstl\AppData\Local\Temp\ccILyAHD.s 			page 43


 1337 0038 0023     		movs	r3, #0
 1338 003a 0370     		strb	r3, [r0]
 389:..\..\..\lvgl\version_6.1.2\lvgl\src\lv_misc/lv_txt.c **** 
 1339              		.loc 1 389 0
 1340 003c 1846     		mov	r0, r3
 1341              	.LVL155:
 1342 003e 7047     		bx	lr
 1343              		.cfi_endproc
 1344              	.LFE8:
 1345              		.size	lv_txt_is_cmd, .-lv_txt_is_cmd
 1346              		.section	.text.lv_txt_ins,"ax",%progbits
 1347              		.align	2
 1348              		.global	lv_txt_ins
 1349              		.thumb
 1350              		.thumb_func
 1351              		.type	lv_txt_ins, %function
 1352              	lv_txt_ins:
 1353              	.LFB9:
 426:..\..\..\lvgl\version_6.1.2\lvgl\src\lv_misc/lv_txt.c ****     size_t old_len = strlen(txt_buf);
 1354              		.loc 1 426 0
 1355              		.cfi_startproc
 1356              		@ args = 0, pretend = 0, frame = 0
 1357              		@ frame_needed = 0, uses_anonymous_args = 0
 1358              	.LVL156:
 1359 0000 2DE9F843 		push	{r3, r4, r5, r6, r7, r8, r9, lr}
 1360              		.cfi_def_cfa_offset 32
 1361              		.cfi_offset 3, -32
 1362              		.cfi_offset 4, -28
 1363              		.cfi_offset 5, -24
 1364              		.cfi_offset 6, -20
 1365              		.cfi_offset 7, -16
 1366              		.cfi_offset 8, -12
 1367              		.cfi_offset 9, -8
 1368              		.cfi_offset 14, -4
 426:..\..\..\lvgl\version_6.1.2\lvgl\src\lv_misc/lv_txt.c ****     size_t old_len = strlen(txt_buf);
 1369              		.loc 1 426 0
 1370 0004 9046     		mov	r8, r2
 1371 0006 0D46     		mov	r5, r1
 1372 0008 0746     		mov	r7, r0
 427:..\..\..\lvgl\version_6.1.2\lvgl\src\lv_misc/lv_txt.c ****     size_t ins_len = strlen(ins_txt);
 1373              		.loc 1 427 0
 1374 000a FFF7FEFF 		bl	strlen
 1375              	.LVL157:
 1376 000e 0446     		mov	r4, r0
 1377              	.LVL158:
 428:..\..\..\lvgl\version_6.1.2\lvgl\src\lv_misc/lv_txt.c ****     size_t new_len = ins_len + old_len;
 1378              		.loc 1 428 0
 1379 0010 4046     		mov	r0, r8
 1380              	.LVL159:
 1381 0012 FFF7FEFF 		bl	strlen
 1382              	.LVL160:
 430:..\..\..\lvgl\version_6.1.2\lvgl\src\lv_misc/lv_txt.c **** 
 1383              		.loc 1 430 0
 1384 0016 0E4B     		ldr	r3, .L190
 428:..\..\..\lvgl\version_6.1.2\lvgl\src\lv_misc/lv_txt.c ****     size_t new_len = ins_len + old_len;
 1385              		.loc 1 428 0
 1386 0018 8146     		mov	r9, r0
ARM GAS  C:\Users\pearlstl\AppData\Local\Temp\ccILyAHD.s 			page 44


 1387              	.LVL161:
 430:..\..\..\lvgl\version_6.1.2\lvgl\src\lv_misc/lv_txt.c **** 
 1388              		.loc 1 430 0
 1389 001a 9B68     		ldr	r3, [r3, #8]
 1390 001c 2946     		mov	r1, r5
 1391 001e 3846     		mov	r0, r7
 1392              	.LVL162:
 1393 0020 9847     		blx	r3
 1394              	.LVL163:
 429:..\..\..\lvgl\version_6.1.2\lvgl\src\lv_misc/lv_txt.c ****     pos              = lv_txt_encoded_get_byte_id(txt_buf, pos); /*Convert to byte index instead of
 1395              		.loc 1 429 0
 1396 0022 04EB0903 		add	r3, r4, r9
 1397              	.LVL164:
 434:..\..\..\lvgl\version_6.1.2\lvgl\src\lv_misc/lv_txt.c ****         txt_buf[i] = txt_buf[i - ins_len];
 1398              		.loc 1 434 0
 1399 0026 09EB0006 		add	r6, r9, r0
 1400 002a B342     		cmp	r3, r6
 1401 002c 08D3     		bcc	.L187
 1402 002e 3919     		adds	r1, r7, r4
 1403 0030 FC18     		adds	r4, r7, r3
 1404              	.LVL165:
 1405              	.L186:
 434:..\..\..\lvgl\version_6.1.2\lvgl\src\lv_misc/lv_txt.c ****         txt_buf[i] = txt_buf[i - ins_len];
 1406              		.loc 1 434 0 is_stmt 0 discriminator 3
 1407 0032 013B     		subs	r3, r3, #1
 1408              	.LVL166:
 435:..\..\..\lvgl\version_6.1.2\lvgl\src\lv_misc/lv_txt.c ****     }
 1409              		.loc 1 435 0 is_stmt 1 discriminator 3
 1410 0034 11F80159 		ldrb	r5, [r1], #-1	@ zero_extendqisi2
 1411 0038 04F80159 		strb	r5, [r4], #-1
 434:..\..\..\lvgl\version_6.1.2\lvgl\src\lv_misc/lv_txt.c ****         txt_buf[i] = txt_buf[i - ins_len];
 1412              		.loc 1 434 0 discriminator 3
 1413 003c B342     		cmp	r3, r6
 1414 003e F8D2     		bcs	.L186
 1415              	.L187:
 439:..\..\..\lvgl\version_6.1.2\lvgl\src\lv_misc/lv_txt.c **** }
 1416              		.loc 1 439 0
 1417 0040 4A46     		mov	r2, r9
 1418 0042 4146     		mov	r1, r8
 1419 0044 3844     		add	r0, r0, r7
 1420              	.LVL167:
 440:..\..\..\lvgl\version_6.1.2\lvgl\src\lv_misc/lv_txt.c **** 
 1421              		.loc 1 440 0
 1422 0046 BDE8F843 		pop	{r3, r4, r5, r6, r7, r8, r9, lr}
 1423              		.cfi_restore 14
 1424              		.cfi_restore 9
 1425              		.cfi_restore 8
 1426              		.cfi_restore 7
 1427              		.cfi_restore 6
 1428              		.cfi_restore 5
 1429              		.cfi_restore 4
 1430              		.cfi_restore 3
 1431              		.cfi_def_cfa_offset 0
 1432              	.LVL168:
 439:..\..\..\lvgl\version_6.1.2\lvgl\src\lv_misc/lv_txt.c **** }
 1433              		.loc 1 439 0
 1434 004a FFF7FEBF 		b	memcpy
ARM GAS  C:\Users\pearlstl\AppData\Local\Temp\ccILyAHD.s 			page 45


 1435              	.LVL169:
 1436              	.L191:
 1437 004e 00BF     		.align	2
 1438              	.L190:
 1439 0050 00000000 		.word	.LANCHOR0
 1440              		.cfi_endproc
 1441              	.LFE9:
 1442              		.size	lv_txt_ins, .-lv_txt_ins
 1443              		.section	.text.lv_txt_cut,"ax",%progbits
 1444              		.align	2
 1445              		.global	lv_txt_cut
 1446              		.thumb
 1447              		.thumb_func
 1448              		.type	lv_txt_cut, %function
 1449              	lv_txt_cut:
 1450              	.LFB10:
 450:..\..\..\lvgl\version_6.1.2\lvgl\src\lv_misc/lv_txt.c **** 
 1451              		.loc 1 450 0
 1452              		.cfi_startproc
 1453              		@ args = 0, pretend = 0, frame = 0
 1454              		@ frame_needed = 0, uses_anonymous_args = 0
 1455              	.LVL170:
 1456 0000 2DE9F843 		push	{r3, r4, r5, r6, r7, r8, r9, lr}
 1457              		.cfi_def_cfa_offset 32
 1458              		.cfi_offset 3, -32
 1459              		.cfi_offset 4, -28
 1460              		.cfi_offset 5, -24
 1461              		.cfi_offset 6, -20
 1462              		.cfi_offset 7, -16
 1463              		.cfi_offset 8, -12
 1464              		.cfi_offset 9, -8
 1465              		.cfi_offset 14, -4
 450:..\..\..\lvgl\version_6.1.2\lvgl\src\lv_misc/lv_txt.c **** 
 1466              		.loc 1 450 0
 1467 0004 9146     		mov	r9, r2
 1468 0006 0C46     		mov	r4, r1
 1469 0008 0746     		mov	r7, r0
 452:..\..\..\lvgl\version_6.1.2\lvgl\src\lv_misc/lv_txt.c **** 
 1470              		.loc 1 452 0
 1471 000a FFF7FEFF 		bl	strlen
 1472              	.LVL171:
 454:..\..\..\lvgl\version_6.1.2\lvgl\src\lv_misc/lv_txt.c ****     len = lv_txt_encoded_get_byte_id(&txt[pos], len);
 1473              		.loc 1 454 0
 1474 000e DFF83C80 		ldr	r8, .L198
 1475 0012 2146     		mov	r1, r4
 452:..\..\..\lvgl\version_6.1.2\lvgl\src\lv_misc/lv_txt.c **** 
 1476              		.loc 1 452 0
 1477 0014 0646     		mov	r6, r0
 1478              	.LVL172:
 454:..\..\..\lvgl\version_6.1.2\lvgl\src\lv_misc/lv_txt.c ****     len = lv_txt_encoded_get_byte_id(&txt[pos], len);
 1479              		.loc 1 454 0
 1480 0016 D8F80830 		ldr	r3, [r8, #8]
 1481 001a 3846     		mov	r0, r7
 1482              	.LVL173:
 1483 001c 9847     		blx	r3
 1484              	.LVL174:
 455:..\..\..\lvgl\version_6.1.2\lvgl\src\lv_misc/lv_txt.c **** 
ARM GAS  C:\Users\pearlstl\AppData\Local\Temp\ccILyAHD.s 			page 46


 1485              		.loc 1 455 0
 1486 001e 3D18     		adds	r5, r7, r0
 454:..\..\..\lvgl\version_6.1.2\lvgl\src\lv_misc/lv_txt.c ****     len = lv_txt_encoded_get_byte_id(&txt[pos], len);
 1487              		.loc 1 454 0
 1488 0020 0446     		mov	r4, r0
 1489              	.LVL175:
 455:..\..\..\lvgl\version_6.1.2\lvgl\src\lv_misc/lv_txt.c **** 
 1490              		.loc 1 455 0
 1491 0022 4946     		mov	r1, r9
 1492 0024 D8F80830 		ldr	r3, [r8, #8]
 1493 0028 2846     		mov	r0, r5
 1494              	.LVL176:
 1495 002a 9847     		blx	r3
 1496              	.LVL177:
 459:..\..\..\lvgl\version_6.1.2\lvgl\src\lv_misc/lv_txt.c ****         txt[i] = txt[i + len];
 1497              		.loc 1 459 0
 1498 002c 311A     		subs	r1, r6, r0
 1499 002e 8C42     		cmp	r4, r1
 1500 0030 09D8     		bhi	.L192
 1501 0032 2318     		adds	r3, r4, r0
 1502 0034 3B44     		add	r3, r3, r7
 1503 0036 2846     		mov	r0, r5
 1504              	.LVL178:
 1505              	.L194:
 459:..\..\..\lvgl\version_6.1.2\lvgl\src\lv_misc/lv_txt.c ****         txt[i] = txt[i + len];
 1506              		.loc 1 459 0 is_stmt 0 discriminator 3
 1507 0038 0134     		adds	r4, r4, #1
 1508              	.LVL179:
 460:..\..\..\lvgl\version_6.1.2\lvgl\src\lv_misc/lv_txt.c ****     }
 1509              		.loc 1 460 0 is_stmt 1 discriminator 3
 1510 003a 13F8012B 		ldrb	r2, [r3], #1	@ zero_extendqisi2
 1511 003e 00F8012B 		strb	r2, [r0], #1
 459:..\..\..\lvgl\version_6.1.2\lvgl\src\lv_misc/lv_txt.c ****         txt[i] = txt[i + len];
 1512              		.loc 1 459 0 discriminator 3
 1513 0042 8C42     		cmp	r4, r1
 1514 0044 F8D9     		bls	.L194
 1515              	.L192:
 1516 0046 BDE8F883 		pop	{r3, r4, r5, r6, r7, r8, r9, pc}
 1517              	.LVL180:
 1518              	.L199:
 1519 004a 00BF     		.align	2
 1520              	.L198:
 1521 004c 00000000 		.word	.LANCHOR0
 1522              		.cfi_endproc
 1523              	.LFE10:
 1524              		.size	lv_txt_cut, .-lv_txt_cut
 1525              		.global	lv_txt_get_encoded_length
 1526              		.global	lv_txt_encoded_get_char_id
 1527              		.global	lv_txt_encoded_get_byte_id
 1528              		.global	lv_txt_encoded_prev
 1529              		.global	lv_txt_encoded_next
 1530              		.global	lv_txt_encoded_conv_wc
 1531              		.global	lv_txt_unicode_to_encoded
 1532              		.global	lv_txt_encoded_size
 1533              		.data
 1534              		.align	2
 1535              		.set	.LANCHOR0,. + 0
ARM GAS  C:\Users\pearlstl\AppData\Local\Temp\ccILyAHD.s 			page 47


 1536              		.type	lv_txt_encoded_next, %object
 1537              		.size	lv_txt_encoded_next, 4
 1538              	lv_txt_encoded_next:
 1539 0000 00000000 		.word	lv_txt_iso8859_1_next
 1540              		.type	lv_txt_encoded_prev, %object
 1541              		.size	lv_txt_encoded_prev, 4
 1542              	lv_txt_encoded_prev:
 1543 0004 00000000 		.word	lv_txt_iso8859_1_prev
 1544              		.type	lv_txt_encoded_get_byte_id, %object
 1545              		.size	lv_txt_encoded_get_byte_id, 4
 1546              	lv_txt_encoded_get_byte_id:
 1547 0008 00000000 		.word	lv_txt_iso8859_1_get_byte_id
 1548              		.type	lv_txt_get_encoded_length, %object
 1549              		.size	lv_txt_get_encoded_length, 4
 1550              	lv_txt_get_encoded_length:
 1551 000c 00000000 		.word	lv_txt_iso8859_1_get_length
 1552              		.type	lv_txt_encoded_get_char_id, %object
 1553              		.size	lv_txt_encoded_get_char_id, 4
 1554              	lv_txt_encoded_get_char_id:
 1555 0010 00000000 		.word	lv_txt_iso8859_1_get_char_id
 1556              		.type	lv_txt_encoded_conv_wc, %object
 1557              		.size	lv_txt_encoded_conv_wc, 4
 1558              	lv_txt_encoded_conv_wc:
 1559 0014 00000000 		.word	lv_txt_iso8859_1_conv_wc
 1560              		.type	lv_txt_unicode_to_encoded, %object
 1561              		.size	lv_txt_unicode_to_encoded, 4
 1562              	lv_txt_unicode_to_encoded:
 1563 0018 00000000 		.word	lv_txt_unicode_to_iso8859_1
 1564              		.type	lv_txt_encoded_size, %object
 1565              		.size	lv_txt_encoded_size, 4
 1566              	lv_txt_encoded_size:
 1567 001c 00000000 		.word	lv_txt_iso8859_1_size
 1568              		.section	.rodata.str1.4,"aMS",%progbits,1
 1569              		.align	2
 1570              	.LC0:
 1571 0000 202C2E3B 		.ascii	" ,.;:-_\000"
 1571      3A2D5F00 
 1572              		.text
 1573              	.Letext0:
 1574              		.file 2 "c:\\program files (x86)\\cypress\\psoc creator\\4.2\\psoc creator\\import\\gnu\\arm\\5.4.
 1575              		.file 3 "c:\\program files (x86)\\cypress\\psoc creator\\4.2\\psoc creator\\import\\gnu\\arm\\5.4.
 1576              		.file 4 "..\\..\\..\\lvgl\\version_6.1.2\\lvgl\\src\\lv_misc\\../../../lv_conf.h"
 1577              		.file 5 "c:\\program files (x86)\\cypress\\psoc creator\\4.2\\psoc creator\\import\\gnu\\arm\\5.4.
 1578              		.file 6 "..\\..\\..\\lvgl\\version_6.1.2\\lvgl\\src\\lv_misc\\lv_area.h"
 1579              		.file 7 "..\\..\\..\\lvgl\\version_6.1.2\\lvgl\\src\\lv_misc\\../lv_font/lv_font.h"
 1580              		.file 8 "..\\..\\..\\lvgl\\version_6.1.2\\lvgl\\src\\lv_misc\\lv_txt.h"
 1581              		.file 9 "c:\\program files (x86)\\cypress\\psoc creator\\4.2\\psoc creator\\import\\gnu\\arm\\5.4.