ARM GAS  C:\Users\pearlstl\AppData\Local\Temp\ccCKyJt8.s 			page 1


   1              		.syntax unified
   2              		.cpu cortex-m4
   3              		.eabi_attribute 27, 1
   4              		.fpu fpv4-sp-d16
   5              		.eabi_attribute 20, 1
   6              		.eabi_attribute 21, 1
   7              		.eabi_attribute 23, 3
   8              		.eabi_attribute 24, 1
   9              		.eabi_attribute 25, 1
  10              		.eabi_attribute 26, 1
  11              		.eabi_attribute 30, 2
  12              		.eabi_attribute 34, 1
  13              		.eabi_attribute 18, 4
  14              		.thumb
  15              		.syntax unified
  16              		.file	"lv_utils.c"
  17              		.text
  18              	.Ltext0:
  19              		.cfi_sections	.debug_frame
  20              		.section	.text.lv_utils_num_to_str,"ax",%progbits
  21              		.align	2
  22              		.global	lv_utils_num_to_str
  23              		.thumb
  24              		.thumb_func
  25              		.type	lv_utils_num_to_str, %function
  26              	lv_utils_num_to_str:
  27              	.LFB0:
  28              		.file 1 "..\\..\\..\\lvgl\\version_6.1.2\\lvgl\\src\\lv_misc\\lv_utils.c"
   1:..\..\..\lvgl\version_6.1.2\lvgl\src\lv_misc/lv_utils.c **** /**
   2:..\..\..\lvgl\version_6.1.2\lvgl\src\lv_misc/lv_utils.c ****  * @file lv_utils.c
   3:..\..\..\lvgl\version_6.1.2\lvgl\src\lv_misc/lv_utils.c ****  *
   4:..\..\..\lvgl\version_6.1.2\lvgl\src\lv_misc/lv_utils.c ****  */
   5:..\..\..\lvgl\version_6.1.2\lvgl\src\lv_misc/lv_utils.c **** 
   6:..\..\..\lvgl\version_6.1.2\lvgl\src\lv_misc/lv_utils.c **** /*********************
   7:..\..\..\lvgl\version_6.1.2\lvgl\src\lv_misc/lv_utils.c ****  *      INCLUDES
   8:..\..\..\lvgl\version_6.1.2\lvgl\src\lv_misc/lv_utils.c ****  *********************/
   9:..\..\..\lvgl\version_6.1.2\lvgl\src\lv_misc/lv_utils.c **** #include <stdbool.h>
  10:..\..\..\lvgl\version_6.1.2\lvgl\src\lv_misc/lv_utils.c **** 
  11:..\..\..\lvgl\version_6.1.2\lvgl\src\lv_misc/lv_utils.c **** #include "lv_utils.h"
  12:..\..\..\lvgl\version_6.1.2\lvgl\src\lv_misc/lv_utils.c **** #include "lv_math.h"
  13:..\..\..\lvgl\version_6.1.2\lvgl\src\lv_misc/lv_utils.c **** 
  14:..\..\..\lvgl\version_6.1.2\lvgl\src\lv_misc/lv_utils.c **** /*********************
  15:..\..\..\lvgl\version_6.1.2\lvgl\src\lv_misc/lv_utils.c ****  *      DEFINES
  16:..\..\..\lvgl\version_6.1.2\lvgl\src\lv_misc/lv_utils.c ****  *********************/
  17:..\..\..\lvgl\version_6.1.2\lvgl\src\lv_misc/lv_utils.c **** 
  18:..\..\..\lvgl\version_6.1.2\lvgl\src\lv_misc/lv_utils.c **** /**********************
  19:..\..\..\lvgl\version_6.1.2\lvgl\src\lv_misc/lv_utils.c ****  *      TYPEDEFS
  20:..\..\..\lvgl\version_6.1.2\lvgl\src\lv_misc/lv_utils.c ****  **********************/
  21:..\..\..\lvgl\version_6.1.2\lvgl\src\lv_misc/lv_utils.c **** 
  22:..\..\..\lvgl\version_6.1.2\lvgl\src\lv_misc/lv_utils.c **** /**********************
  23:..\..\..\lvgl\version_6.1.2\lvgl\src\lv_misc/lv_utils.c ****  *  STATIC PROTOTYPES
  24:..\..\..\lvgl\version_6.1.2\lvgl\src\lv_misc/lv_utils.c ****  **********************/
  25:..\..\..\lvgl\version_6.1.2\lvgl\src\lv_misc/lv_utils.c **** 
  26:..\..\..\lvgl\version_6.1.2\lvgl\src\lv_misc/lv_utils.c **** /**********************
  27:..\..\..\lvgl\version_6.1.2\lvgl\src\lv_misc/lv_utils.c ****  *  STATIC VARIABLES
  28:..\..\..\lvgl\version_6.1.2\lvgl\src\lv_misc/lv_utils.c ****  **********************/
  29:..\..\..\lvgl\version_6.1.2\lvgl\src\lv_misc/lv_utils.c **** 
ARM GAS  C:\Users\pearlstl\AppData\Local\Temp\ccCKyJt8.s 			page 2


  30:..\..\..\lvgl\version_6.1.2\lvgl\src\lv_misc/lv_utils.c **** /**********************
  31:..\..\..\lvgl\version_6.1.2\lvgl\src\lv_misc/lv_utils.c ****  *      MACROS
  32:..\..\..\lvgl\version_6.1.2\lvgl\src\lv_misc/lv_utils.c ****  **********************/
  33:..\..\..\lvgl\version_6.1.2\lvgl\src\lv_misc/lv_utils.c **** 
  34:..\..\..\lvgl\version_6.1.2\lvgl\src\lv_misc/lv_utils.c **** /**********************
  35:..\..\..\lvgl\version_6.1.2\lvgl\src\lv_misc/lv_utils.c ****  *   GLOBAL FUNCTIONS
  36:..\..\..\lvgl\version_6.1.2\lvgl\src\lv_misc/lv_utils.c ****  **********************/
  37:..\..\..\lvgl\version_6.1.2\lvgl\src\lv_misc/lv_utils.c **** 
  38:..\..\..\lvgl\version_6.1.2\lvgl\src\lv_misc/lv_utils.c **** /**
  39:..\..\..\lvgl\version_6.1.2\lvgl\src\lv_misc/lv_utils.c ****  * Convert a number to string
  40:..\..\..\lvgl\version_6.1.2\lvgl\src\lv_misc/lv_utils.c ****  * @param num a number
  41:..\..\..\lvgl\version_6.1.2\lvgl\src\lv_misc/lv_utils.c ****  * @param buf pointer to a `char` buffer. The result will be stored here (max 10 elements)
  42:..\..\..\lvgl\version_6.1.2\lvgl\src\lv_misc/lv_utils.c ****  * @return same as `buf` (just for convenience)
  43:..\..\..\lvgl\version_6.1.2\lvgl\src\lv_misc/lv_utils.c ****  */
  44:..\..\..\lvgl\version_6.1.2\lvgl\src\lv_misc/lv_utils.c **** char * lv_utils_num_to_str(int32_t num, char * buf)
  45:..\..\..\lvgl\version_6.1.2\lvgl\src\lv_misc/lv_utils.c **** {
  29              		.loc 1 45 0
  30              		.cfi_startproc
  31              		@ args = 0, pretend = 0, frame = 0
  32              		@ frame_needed = 0, uses_anonymous_args = 0
  33              		@ link register save eliminated.
  34              	.LVL0:
  46:..\..\..\lvgl\version_6.1.2\lvgl\src\lv_misc/lv_utils.c ****     if(num == 0) {
  35              		.loc 1 46 0
  36 0000 0028     		cmp	r0, #0
  37 0002 26D0     		beq	.L14
  38              	.LVL1:
  45:..\..\..\lvgl\version_6.1.2\lvgl\src\lv_misc/lv_utils.c ****     if(num == 0) {
  39              		.loc 1 45 0
  40 0004 70B4     		push	{r4, r5, r6}
  41              		.cfi_def_cfa_offset 12
  42              		.cfi_offset 4, -12
  43              		.cfi_offset 5, -8
  44              		.cfi_offset 6, -4
  47:..\..\..\lvgl\version_6.1.2\lvgl\src\lv_misc/lv_utils.c ****         buf[0] = '0';
  48:..\..\..\lvgl\version_6.1.2\lvgl\src\lv_misc/lv_utils.c ****         buf[1] = '\0';
  49:..\..\..\lvgl\version_6.1.2\lvgl\src\lv_misc/lv_utils.c ****         return buf;
  50:..\..\..\lvgl\version_6.1.2\lvgl\src\lv_misc/lv_utils.c ****     }
  51:..\..\..\lvgl\version_6.1.2\lvgl\src\lv_misc/lv_utils.c ****     int8_t digitCount = 0;
  52:..\..\..\lvgl\version_6.1.2\lvgl\src\lv_misc/lv_utils.c ****     int8_t i          = 0;
  53:..\..\..\lvgl\version_6.1.2\lvgl\src\lv_misc/lv_utils.c ****     if(num < 0) {
  45              		.loc 1 53 0
  46 0006 29DB     		blt	.L15
  51:..\..\..\lvgl\version_6.1.2\lvgl\src\lv_misc/lv_utils.c ****     int8_t i          = 0;
  47              		.loc 1 51 0
  48 0008 0022     		movs	r2, #0
  49              	.LVL2:
  50              	.L4:
  51 000a 1346     		mov	r3, r2
  52              	.LBB2:
  54:..\..\..\lvgl\version_6.1.2\lvgl\src\lv_misc/lv_utils.c ****         buf[digitCount++] = '-';
  55:..\..\..\lvgl\version_6.1.2\lvgl\src\lv_misc/lv_utils.c ****         num               = LV_MATH_ABS(num);
  56:..\..\..\lvgl\version_6.1.2\lvgl\src\lv_misc/lv_utils.c ****         ++i;
  57:..\..\..\lvgl\version_6.1.2\lvgl\src\lv_misc/lv_utils.c ****     }
  58:..\..\..\lvgl\version_6.1.2\lvgl\src\lv_misc/lv_utils.c ****     while(num) {
  59:..\..\..\lvgl\version_6.1.2\lvgl\src\lv_misc/lv_utils.c ****         char digit        = num % 10;
  60:..\..\..\lvgl\version_6.1.2\lvgl\src\lv_misc/lv_utils.c ****         buf[digitCount++] = digit + 48;
ARM GAS  C:\Users\pearlstl\AppData\Local\Temp\ccCKyJt8.s 			page 3


  53              		.loc 1 60 0
  54 000c 164E     		ldr	r6, .L16
  55 000e 00E0     		b	.L5
  56              	.LVL3:
  57              	.L10:
  58              	.LBE2:
  59 0010 2346     		mov	r3, r4
  60              	.LVL4:
  61              	.L5:
  62              	.LBB3:
  63 0012 86FB0045 		smull	r4, r5, r6, r0
  64 0016 C417     		asrs	r4, r0, #31
  65 0018 C4EBA505 		rsb	r5, r4, r5, asr #2
  66 001c 05EB8504 		add	r4, r5, r5, lsl #2
  67 0020 A0EB4400 		sub	r0, r0, r4, lsl #1
  68              	.LVL5:
  69 0024 3030     		adds	r0, r0, #48
  70 0026 5C1C     		adds	r4, r3, #1
  71 0028 C854     		strb	r0, [r1, r3]
  72 002a 64B2     		sxtb	r4, r4
  73              	.LVL6:
  74              	.LBE3:
  58:..\..\..\lvgl\version_6.1.2\lvgl\src\lv_misc/lv_utils.c ****         char digit        = num % 10;
  75              		.loc 1 58 0
  76 002c 2846     		mov	r0, r5
  77 002e 002D     		cmp	r5, #0
  78 0030 EED1     		bne	.L10
  61:..\..\..\lvgl\version_6.1.2\lvgl\src\lv_misc/lv_utils.c ****         num /= 10;
  62:..\..\..\lvgl\version_6.1.2\lvgl\src\lv_misc/lv_utils.c ****     }
  63:..\..\..\lvgl\version_6.1.2\lvgl\src\lv_misc/lv_utils.c ****     buf[digitCount] = '\0';
  64:..\..\..\lvgl\version_6.1.2\lvgl\src\lv_misc/lv_utils.c ****     digitCount--;
  65:..\..\..\lvgl\version_6.1.2\lvgl\src\lv_misc/lv_utils.c ****     while(digitCount > i) {
  79              		.loc 1 65 0
  80 0032 9342     		cmp	r3, r2
  63:..\..\..\lvgl\version_6.1.2\lvgl\src\lv_misc/lv_utils.c ****     digitCount--;
  81              		.loc 1 63 0
  82 0034 0D55     		strb	r5, [r1, r4]
  83              	.LVL7:
  84              		.loc 1 65 0
  85 0036 09DD     		ble	.L3
  86              	.L7:
  87              	.LBB4:
  66:..\..\..\lvgl\version_6.1.2\lvgl\src\lv_misc/lv_utils.c ****         char temp       = buf[i];
  67:..\..\..\lvgl\version_6.1.2\lvgl\src\lv_misc/lv_utils.c ****         buf[i]          = buf[digitCount];
  88              		.loc 1 67 0
  89 0038 C85C     		ldrb	r0, [r1, r3]	@ zero_extendqisi2
  66:..\..\..\lvgl\version_6.1.2\lvgl\src\lv_misc/lv_utils.c ****         char temp       = buf[i];
  90              		.loc 1 66 0
  91 003a 8C5C     		ldrb	r4, [r1, r2]	@ zero_extendqisi2
  92              	.LVL8:
  93              		.loc 1 67 0
  94 003c 8854     		strb	r0, [r1, r2]
  95 003e 581E     		subs	r0, r3, #1
  96 0040 0132     		adds	r2, r2, #1
  97              	.LVL9:
  68:..\..\..\lvgl\version_6.1.2\lvgl\src\lv_misc/lv_utils.c ****         buf[digitCount] = temp;
  98              		.loc 1 68 0
ARM GAS  C:\Users\pearlstl\AppData\Local\Temp\ccCKyJt8.s 			page 4


  99 0042 CC54     		strb	r4, [r1, r3]
 100 0044 52B2     		sxtb	r2, r2
 101 0046 43B2     		sxtb	r3, r0
 102              	.LVL10:
 103              	.LBE4:
  65:..\..\..\lvgl\version_6.1.2\lvgl\src\lv_misc/lv_utils.c ****         char temp       = buf[i];
 104              		.loc 1 65 0
 105 0048 9A42     		cmp	r2, r3
 106 004a F5DB     		blt	.L7
 107              	.LVL11:
 108              	.L3:
  69:..\..\..\lvgl\version_6.1.2\lvgl\src\lv_misc/lv_utils.c ****         digitCount--;
  70:..\..\..\lvgl\version_6.1.2\lvgl\src\lv_misc/lv_utils.c ****         i++;
  71:..\..\..\lvgl\version_6.1.2\lvgl\src\lv_misc/lv_utils.c ****     }
  72:..\..\..\lvgl\version_6.1.2\lvgl\src\lv_misc/lv_utils.c ****     return buf;
  73:..\..\..\lvgl\version_6.1.2\lvgl\src\lv_misc/lv_utils.c **** }
 109              		.loc 1 73 0
 110 004c 0846     		mov	r0, r1
 111 004e 70BC     		pop	{r4, r5, r6}
 112              		.cfi_restore 6
 113              		.cfi_restore 5
 114              		.cfi_restore 4
 115              		.cfi_def_cfa_offset 0
 116              	.LVL12:
 117 0050 7047     		bx	lr
 118              	.LVL13:
 119              	.L14:
  47:..\..\..\lvgl\version_6.1.2\lvgl\src\lv_misc/lv_utils.c ****         buf[1] = '\0';
 120              		.loc 1 47 0
 121 0052 3023     		movs	r3, #48
  48:..\..\..\lvgl\version_6.1.2\lvgl\src\lv_misc/lv_utils.c ****         return buf;
 122              		.loc 1 48 0
 123 0054 4870     		strb	r0, [r1, #1]
  47:..\..\..\lvgl\version_6.1.2\lvgl\src\lv_misc/lv_utils.c ****         buf[1] = '\0';
 124              		.loc 1 47 0
 125 0056 0B70     		strb	r3, [r1]
 126              		.loc 1 73 0
 127 0058 0846     		mov	r0, r1
 128              	.LVL14:
 129 005a 7047     		bx	lr
 130              	.LVL15:
 131              	.L15:
 132              		.cfi_def_cfa_offset 12
 133              		.cfi_offset 4, -12
 134              		.cfi_offset 5, -8
 135              		.cfi_offset 6, -4
  54:..\..\..\lvgl\version_6.1.2\lvgl\src\lv_misc/lv_utils.c ****         num               = LV_MATH_ABS(num);
 136              		.loc 1 54 0
 137 005c 2D23     		movs	r3, #45
  55:..\..\..\lvgl\version_6.1.2\lvgl\src\lv_misc/lv_utils.c ****         ++i;
 138              		.loc 1 55 0
 139 005e 4042     		negs	r0, r0
 140              	.LVL16:
  54:..\..\..\lvgl\version_6.1.2\lvgl\src\lv_misc/lv_utils.c ****         num               = LV_MATH_ABS(num);
 141              		.loc 1 54 0
 142 0060 0B70     		strb	r3, [r1]
 143 0062 0122     		movs	r2, #1
ARM GAS  C:\Users\pearlstl\AppData\Local\Temp\ccCKyJt8.s 			page 5


 144 0064 D1E7     		b	.L4
 145              	.L17:
 146 0066 00BF     		.align	2
 147              	.L16:
 148 0068 67666666 		.word	1717986919
 149              		.cfi_endproc
 150              	.LFE0:
 151              		.size	lv_utils_num_to_str, .-lv_utils_num_to_str
 152              		.section	.text.lv_utils_bsearch,"ax",%progbits
 153              		.align	2
 154              		.global	lv_utils_bsearch
 155              		.thumb
 156              		.thumb_func
 157              		.type	lv_utils_bsearch, %function
 158              	lv_utils_bsearch:
 159              	.LFB1:
  74:..\..\..\lvgl\version_6.1.2\lvgl\src\lv_misc/lv_utils.c **** 
  75:..\..\..\lvgl\version_6.1.2\lvgl\src\lv_misc/lv_utils.c **** /** Searches base[0] to base[n - 1] for an item that matches *key.
  76:..\..\..\lvgl\version_6.1.2\lvgl\src\lv_misc/lv_utils.c ****  *
  77:..\..\..\lvgl\version_6.1.2\lvgl\src\lv_misc/lv_utils.c ****  * @note The function cmp must return negative if its first
  78:..\..\..\lvgl\version_6.1.2\lvgl\src\lv_misc/lv_utils.c ****  *  argument (the search key) is less that its second (a table entry),
  79:..\..\..\lvgl\version_6.1.2\lvgl\src\lv_misc/lv_utils.c ****  *  zero if equal, and positive if greater.
  80:..\..\..\lvgl\version_6.1.2\lvgl\src\lv_misc/lv_utils.c ****  *
  81:..\..\..\lvgl\version_6.1.2\lvgl\src\lv_misc/lv_utils.c ****  *  @note Items in the array must be in ascending order.
  82:..\..\..\lvgl\version_6.1.2\lvgl\src\lv_misc/lv_utils.c ****  *
  83:..\..\..\lvgl\version_6.1.2\lvgl\src\lv_misc/lv_utils.c ****  * @param key    Pointer to item being searched for
  84:..\..\..\lvgl\version_6.1.2\lvgl\src\lv_misc/lv_utils.c ****  * @param base   Pointer to first element to search
  85:..\..\..\lvgl\version_6.1.2\lvgl\src\lv_misc/lv_utils.c ****  * @param n      Number of elements
  86:..\..\..\lvgl\version_6.1.2\lvgl\src\lv_misc/lv_utils.c ****  * @param size   Size of each element
  87:..\..\..\lvgl\version_6.1.2\lvgl\src\lv_misc/lv_utils.c ****  * @param cmp    Pointer to comparison function (see #lv_font_codeCompare as a comparison function
  88:..\..\..\lvgl\version_6.1.2\lvgl\src\lv_misc/lv_utils.c ****  * example)
  89:..\..\..\lvgl\version_6.1.2\lvgl\src\lv_misc/lv_utils.c ****  *
  90:..\..\..\lvgl\version_6.1.2\lvgl\src\lv_misc/lv_utils.c ****  * @return a pointer to a matching item, or NULL if none exists.
  91:..\..\..\lvgl\version_6.1.2\lvgl\src\lv_misc/lv_utils.c ****  */
  92:..\..\..\lvgl\version_6.1.2\lvgl\src\lv_misc/lv_utils.c **** void * lv_utils_bsearch(const void * key, const void * base, uint32_t n, uint32_t size,
  93:..\..\..\lvgl\version_6.1.2\lvgl\src\lv_misc/lv_utils.c ****                         int32_t (*cmp)(const void * pRef, const void * pElement))
  94:..\..\..\lvgl\version_6.1.2\lvgl\src\lv_misc/lv_utils.c **** {
 160              		.loc 1 94 0
 161              		.cfi_startproc
 162              		@ args = 4, pretend = 0, frame = 0
 163              		@ frame_needed = 0, uses_anonymous_args = 0
 164              	.LVL17:
 165 0000 2DE9F047 		push	{r4, r5, r6, r7, r8, r9, r10, lr}
 166              		.cfi_def_cfa_offset 32
 167              		.cfi_offset 4, -32
 168              		.cfi_offset 5, -28
 169              		.cfi_offset 6, -24
 170              		.cfi_offset 7, -20
 171              		.cfi_offset 8, -16
 172              		.cfi_offset 9, -12
 173              		.cfi_offset 10, -8
 174              		.cfi_offset 14, -4
 175              		.loc 1 94 0
 176 0004 DDF82080 		ldr	r8, [sp, #32]
  95:..\..\..\lvgl\version_6.1.2\lvgl\src\lv_misc/lv_utils.c ****     const char * middle;
  96:..\..\..\lvgl\version_6.1.2\lvgl\src\lv_misc/lv_utils.c ****     int32_t c;
  97:..\..\..\lvgl\version_6.1.2\lvgl\src\lv_misc/lv_utils.c **** 
ARM GAS  C:\Users\pearlstl\AppData\Local\Temp\ccCKyJt8.s 			page 6


  98:..\..\..\lvgl\version_6.1.2\lvgl\src\lv_misc/lv_utils.c ****     for(middle = base; n != 0;) {
 177              		.loc 1 98 0
 178 0008 A2B1     		cbz	r2, .L24
 179 000a 8146     		mov	r9, r0
 180 000c 0F46     		mov	r7, r1
 181 000e 1E46     		mov	r6, r3
 182 0010 1446     		mov	r4, r2
 183              	.LVL18:
 184              	.L23:
  99:..\..\..\lvgl\version_6.1.2\lvgl\src\lv_misc/lv_utils.c ****         middle += (n / 2) * size;
 185              		.loc 1 99 0
 186 0012 6508     		lsrs	r5, r4, #1
 187 0014 06FB057A 		mla	r10, r6, r5, r7
 188              	.LVL19:
 100:..\..\..\lvgl\version_6.1.2\lvgl\src\lv_misc/lv_utils.c ****         if((c = (*cmp)(key, middle)) > 0) {
 189              		.loc 1 100 0
 190 0018 5146     		mov	r1, r10
 191 001a 4846     		mov	r0, r9
 192 001c C047     		blx	r8
 193              	.LVL20:
 194 001e 04F00104 		and	r4, r4, #1
 195              	.LVL21:
 196 0022 0028     		cmp	r0, #0
 197 0024 84F00104 		eor	r4, r4, #1
 198 0028 07DD     		ble	.L21
 101:..\..\..\lvgl\version_6.1.2\lvgl\src\lv_misc/lv_utils.c ****             n    = (n / 2) - ((n & 1) == 0);
 199              		.loc 1 101 0
 200 002a 2C1B     		subs	r4, r5, r4
 201              	.LVL22:
 102:..\..\..\lvgl\version_6.1.2\lvgl\src\lv_misc/lv_utils.c ****             base = (middle += size);
 202              		.loc 1 102 0
 203 002c 0AEB0607 		add	r7, r10, r6
 204              	.LVL23:
  98:..\..\..\lvgl\version_6.1.2\lvgl\src\lv_misc/lv_utils.c ****         middle += (n / 2) * size;
 205              		.loc 1 98 0
 206 0030 002C     		cmp	r4, #0
 207 0032 EED1     		bne	.L23
 208              	.LVL24:
 209              	.L24:
 103:..\..\..\lvgl\version_6.1.2\lvgl\src\lv_misc/lv_utils.c ****         } else if(c < 0) {
 104:..\..\..\lvgl\version_6.1.2\lvgl\src\lv_misc/lv_utils.c ****             n /= 2;
 105:..\..\..\lvgl\version_6.1.2\lvgl\src\lv_misc/lv_utils.c ****             middle = base;
 106:..\..\..\lvgl\version_6.1.2\lvgl\src\lv_misc/lv_utils.c ****         } else {
 107:..\..\..\lvgl\version_6.1.2\lvgl\src\lv_misc/lv_utils.c ****             return (char *)middle;
 108:..\..\..\lvgl\version_6.1.2\lvgl\src\lv_misc/lv_utils.c ****         }
 109:..\..\..\lvgl\version_6.1.2\lvgl\src\lv_misc/lv_utils.c ****     }
 110:..\..\..\lvgl\version_6.1.2\lvgl\src\lv_misc/lv_utils.c ****     return NULL;
 210              		.loc 1 110 0
 211 0034 0020     		movs	r0, #0
 212 0036 BDE8F087 		pop	{r4, r5, r6, r7, r8, r9, r10, pc}
 213              	.LVL25:
 214              	.L21:
 103:..\..\..\lvgl\version_6.1.2\lvgl\src\lv_misc/lv_utils.c ****         } else if(c < 0) {
 215              		.loc 1 103 0
 216 003a 03D0     		beq	.L25
 104:..\..\..\lvgl\version_6.1.2\lvgl\src\lv_misc/lv_utils.c ****             middle = base;
 217              		.loc 1 104 0
ARM GAS  C:\Users\pearlstl\AppData\Local\Temp\ccCKyJt8.s 			page 7


 218 003c 2C46     		mov	r4, r5
 219              	.LVL26:
  98:..\..\..\lvgl\version_6.1.2\lvgl\src\lv_misc/lv_utils.c ****         middle += (n / 2) * size;
 220              		.loc 1 98 0
 221 003e 002C     		cmp	r4, #0
 222 0040 E7D1     		bne	.L23
 223 0042 F7E7     		b	.L24
 224              	.LVL27:
 225              	.L25:
  99:..\..\..\lvgl\version_6.1.2\lvgl\src\lv_misc/lv_utils.c ****         if((c = (*cmp)(key, middle)) > 0) {
 226              		.loc 1 99 0
 227 0044 5046     		mov	r0, r10
 228              	.LVL28:
 111:..\..\..\lvgl\version_6.1.2\lvgl\src\lv_misc/lv_utils.c **** }
 229              		.loc 1 111 0
 230 0046 BDE8F087 		pop	{r4, r5, r6, r7, r8, r9, r10, pc}
 231              		.cfi_endproc
 232              	.LFE1:
 233              		.size	lv_utils_bsearch, .-lv_utils_bsearch
 234 004a 00BF     		.text
 235              	.Letext0:
 236              		.file 2 "c:\\program files (x86)\\cypress\\psoc creator\\4.2\\psoc creator\\import\\gnu\\arm\\5.4.
 237              		.file 3 "c:\\program files (x86)\\cypress\\psoc creator\\4.2\\psoc creator\\import\\gnu\\arm\\5.4.