ARM GAS  C:\Users\pearlstl\AppData\Local\Temp\ccI2fBBa.s 			page 1


   1              		.syntax unified
   2              		.cpu cortex-m4
   3              		.eabi_attribute 27, 1
   4              		.fpu fpv4-sp-d16
   5              		.eabi_attribute 20, 1
   6              		.eabi_attribute 21, 1
   7              		.eabi_attribute 23, 3
   8              		.eabi_attribute 24, 1
   9              		.eabi_attribute 25, 1
  10              		.eabi_attribute 26, 1
  11              		.eabi_attribute 30, 2
  12              		.eabi_attribute 34, 1
  13              		.eabi_attribute 18, 4
  14              		.thumb
  15              		.syntax unified
  16              		.file	"lv_win.c"
  17              		.text
  18              	.Ltext0:
  19              		.cfi_sections	.debug_frame
  20              		.section	.text.lv_win_realign,"ax",%progbits
  21              		.align	2
  22              		.thumb
  23              		.thumb_func
  24              		.type	lv_win_realign, %function
  25              	lv_win_realign:
  26              	.LFB91:
  27              		.file 1 "..\\..\\..\\lvgl\\version_6.1.2\\lvgl\\src\\lv_objx\\lv_win.c"
   1:..\..\..\lvgl\version_6.1.2\lvgl\src\lv_objx/lv_win.c **** /**
   2:..\..\..\lvgl\version_6.1.2\lvgl\src\lv_objx/lv_win.c ****  * @file lv_win.c
   3:..\..\..\lvgl\version_6.1.2\lvgl\src\lv_objx/lv_win.c ****  *
   4:..\..\..\lvgl\version_6.1.2\lvgl\src\lv_objx/lv_win.c ****  */
   5:..\..\..\lvgl\version_6.1.2\lvgl\src\lv_objx/lv_win.c **** 
   6:..\..\..\lvgl\version_6.1.2\lvgl\src\lv_objx/lv_win.c **** /*********************
   7:..\..\..\lvgl\version_6.1.2\lvgl\src\lv_objx/lv_win.c ****  *      INCLUDES
   8:..\..\..\lvgl\version_6.1.2\lvgl\src\lv_objx/lv_win.c ****  *********************/
   9:..\..\..\lvgl\version_6.1.2\lvgl\src\lv_objx/lv_win.c **** #include "lv_win.h"
  10:..\..\..\lvgl\version_6.1.2\lvgl\src\lv_objx/lv_win.c **** #if LV_USE_WIN != 0
  11:..\..\..\lvgl\version_6.1.2\lvgl\src\lv_objx/lv_win.c **** 
  12:..\..\..\lvgl\version_6.1.2\lvgl\src\lv_objx/lv_win.c **** #include "../lv_core/lv_debug.h"
  13:..\..\..\lvgl\version_6.1.2\lvgl\src\lv_objx/lv_win.c **** #include "../lv_themes/lv_theme.h"
  14:..\..\..\lvgl\version_6.1.2\lvgl\src\lv_objx/lv_win.c **** #include "../lv_core/lv_disp.h"
  15:..\..\..\lvgl\version_6.1.2\lvgl\src\lv_objx/lv_win.c **** 
  16:..\..\..\lvgl\version_6.1.2\lvgl\src\lv_objx/lv_win.c **** /*********************
  17:..\..\..\lvgl\version_6.1.2\lvgl\src\lv_objx/lv_win.c ****  *      DEFINES
  18:..\..\..\lvgl\version_6.1.2\lvgl\src\lv_objx/lv_win.c ****  *********************/
  19:..\..\..\lvgl\version_6.1.2\lvgl\src\lv_objx/lv_win.c **** #define LV_OBJX_NAME "lv_win"
  20:..\..\..\lvgl\version_6.1.2\lvgl\src\lv_objx/lv_win.c **** 
  21:..\..\..\lvgl\version_6.1.2\lvgl\src\lv_objx/lv_win.c **** /**********************
  22:..\..\..\lvgl\version_6.1.2\lvgl\src\lv_objx/lv_win.c ****  *      TYPEDEFS
  23:..\..\..\lvgl\version_6.1.2\lvgl\src\lv_objx/lv_win.c ****  **********************/
  24:..\..\..\lvgl\version_6.1.2\lvgl\src\lv_objx/lv_win.c **** 
  25:..\..\..\lvgl\version_6.1.2\lvgl\src\lv_objx/lv_win.c **** /**********************
  26:..\..\..\lvgl\version_6.1.2\lvgl\src\lv_objx/lv_win.c ****  *  STATIC PROTOTYPES
  27:..\..\..\lvgl\version_6.1.2\lvgl\src\lv_objx/lv_win.c ****  **********************/
  28:..\..\..\lvgl\version_6.1.2\lvgl\src\lv_objx/lv_win.c **** static lv_res_t lv_win_signal(lv_obj_t * win, lv_signal_t sign, void * param);
  29:..\..\..\lvgl\version_6.1.2\lvgl\src\lv_objx/lv_win.c **** static void lv_win_realign(lv_obj_t * win);
  30:..\..\..\lvgl\version_6.1.2\lvgl\src\lv_objx/lv_win.c **** 
ARM GAS  C:\Users\pearlstl\AppData\Local\Temp\ccI2fBBa.s 			page 2


  31:..\..\..\lvgl\version_6.1.2\lvgl\src\lv_objx/lv_win.c **** /**********************
  32:..\..\..\lvgl\version_6.1.2\lvgl\src\lv_objx/lv_win.c ****  *  STATIC VARIABLES
  33:..\..\..\lvgl\version_6.1.2\lvgl\src\lv_objx/lv_win.c ****  **********************/
  34:..\..\..\lvgl\version_6.1.2\lvgl\src\lv_objx/lv_win.c **** static lv_signal_cb_t ancestor_signal;
  35:..\..\..\lvgl\version_6.1.2\lvgl\src\lv_objx/lv_win.c **** 
  36:..\..\..\lvgl\version_6.1.2\lvgl\src\lv_objx/lv_win.c **** /**********************
  37:..\..\..\lvgl\version_6.1.2\lvgl\src\lv_objx/lv_win.c ****  *      MACROS
  38:..\..\..\lvgl\version_6.1.2\lvgl\src\lv_objx/lv_win.c ****  **********************/
  39:..\..\..\lvgl\version_6.1.2\lvgl\src\lv_objx/lv_win.c **** 
  40:..\..\..\lvgl\version_6.1.2\lvgl\src\lv_objx/lv_win.c **** /**********************
  41:..\..\..\lvgl\version_6.1.2\lvgl\src\lv_objx/lv_win.c ****  *   GLOBAL FUNCTIONS
  42:..\..\..\lvgl\version_6.1.2\lvgl\src\lv_objx/lv_win.c ****  **********************/
  43:..\..\..\lvgl\version_6.1.2\lvgl\src\lv_objx/lv_win.c **** 
  44:..\..\..\lvgl\version_6.1.2\lvgl\src\lv_objx/lv_win.c **** /**
  45:..\..\..\lvgl\version_6.1.2\lvgl\src\lv_objx/lv_win.c ****  * Create a window objects
  46:..\..\..\lvgl\version_6.1.2\lvgl\src\lv_objx/lv_win.c ****  * @param par pointer to an object, it will be the parent of the new window
  47:..\..\..\lvgl\version_6.1.2\lvgl\src\lv_objx/lv_win.c ****  * @param copy pointer to a window object, if not NULL then the new object will be copied from it
  48:..\..\..\lvgl\version_6.1.2\lvgl\src\lv_objx/lv_win.c ****  * @return pointer to the created window
  49:..\..\..\lvgl\version_6.1.2\lvgl\src\lv_objx/lv_win.c ****  */
  50:..\..\..\lvgl\version_6.1.2\lvgl\src\lv_objx/lv_win.c **** lv_obj_t * lv_win_create(lv_obj_t * par, const lv_obj_t * copy)
  51:..\..\..\lvgl\version_6.1.2\lvgl\src\lv_objx/lv_win.c **** {
  52:..\..\..\lvgl\version_6.1.2\lvgl\src\lv_objx/lv_win.c ****     LV_LOG_TRACE("window create started");
  53:..\..\..\lvgl\version_6.1.2\lvgl\src\lv_objx/lv_win.c **** 
  54:..\..\..\lvgl\version_6.1.2\lvgl\src\lv_objx/lv_win.c ****     /*Create the ancestor object*/
  55:..\..\..\lvgl\version_6.1.2\lvgl\src\lv_objx/lv_win.c ****     lv_obj_t * new_win = lv_obj_create(par, copy);
  56:..\..\..\lvgl\version_6.1.2\lvgl\src\lv_objx/lv_win.c ****     LV_ASSERT_MEM(new_win);
  57:..\..\..\lvgl\version_6.1.2\lvgl\src\lv_objx/lv_win.c ****     if(new_win == NULL) return NULL;
  58:..\..\..\lvgl\version_6.1.2\lvgl\src\lv_objx/lv_win.c **** 
  59:..\..\..\lvgl\version_6.1.2\lvgl\src\lv_objx/lv_win.c ****     if(ancestor_signal == NULL) ancestor_signal = lv_obj_get_signal_cb(new_win);
  60:..\..\..\lvgl\version_6.1.2\lvgl\src\lv_objx/lv_win.c **** 
  61:..\..\..\lvgl\version_6.1.2\lvgl\src\lv_objx/lv_win.c ****     /*Allocate the object type specific extended data*/
  62:..\..\..\lvgl\version_6.1.2\lvgl\src\lv_objx/lv_win.c ****     lv_win_ext_t * ext = lv_obj_allocate_ext_attr(new_win, sizeof(lv_win_ext_t));
  63:..\..\..\lvgl\version_6.1.2\lvgl\src\lv_objx/lv_win.c ****     LV_ASSERT_MEM(ext);
  64:..\..\..\lvgl\version_6.1.2\lvgl\src\lv_objx/lv_win.c ****     if(ext == NULL) return NULL;
  65:..\..\..\lvgl\version_6.1.2\lvgl\src\lv_objx/lv_win.c **** 
  66:..\..\..\lvgl\version_6.1.2\lvgl\src\lv_objx/lv_win.c ****     ext->page          = NULL;
  67:..\..\..\lvgl\version_6.1.2\lvgl\src\lv_objx/lv_win.c ****     ext->header        = NULL;
  68:..\..\..\lvgl\version_6.1.2\lvgl\src\lv_objx/lv_win.c ****     ext->title         = NULL;
  69:..\..\..\lvgl\version_6.1.2\lvgl\src\lv_objx/lv_win.c ****     ext->style_btn_rel = &lv_style_btn_rel;
  70:..\..\..\lvgl\version_6.1.2\lvgl\src\lv_objx/lv_win.c ****     ext->style_btn_pr  = &lv_style_btn_pr;
  71:..\..\..\lvgl\version_6.1.2\lvgl\src\lv_objx/lv_win.c ****     ext->btn_size      = (LV_DPI) / 2;
  72:..\..\..\lvgl\version_6.1.2\lvgl\src\lv_objx/lv_win.c **** 
  73:..\..\..\lvgl\version_6.1.2\lvgl\src\lv_objx/lv_win.c ****     /*Init the new window object*/
  74:..\..\..\lvgl\version_6.1.2\lvgl\src\lv_objx/lv_win.c ****     if(copy == NULL) {
  75:..\..\..\lvgl\version_6.1.2\lvgl\src\lv_objx/lv_win.c ****         /* Set a size which fits into the parent.
  76:..\..\..\lvgl\version_6.1.2\lvgl\src\lv_objx/lv_win.c ****          * Don't use `par` directly because if the window is created on a page it is moved to the
  77:..\..\..\lvgl\version_6.1.2\lvgl\src\lv_objx/lv_win.c ****          * scrollable so the parent has changed */
  78:..\..\..\lvgl\version_6.1.2\lvgl\src\lv_objx/lv_win.c ****         lv_coord_t w;
  79:..\..\..\lvgl\version_6.1.2\lvgl\src\lv_objx/lv_win.c ****         lv_coord_t h;
  80:..\..\..\lvgl\version_6.1.2\lvgl\src\lv_objx/lv_win.c ****         if(par) {
  81:..\..\..\lvgl\version_6.1.2\lvgl\src\lv_objx/lv_win.c ****             w = lv_obj_get_width_fit(lv_obj_get_parent(new_win));
  82:..\..\..\lvgl\version_6.1.2\lvgl\src\lv_objx/lv_win.c ****             h = lv_obj_get_height_fit(lv_obj_get_parent(new_win));
  83:..\..\..\lvgl\version_6.1.2\lvgl\src\lv_objx/lv_win.c ****         } else {
  84:..\..\..\lvgl\version_6.1.2\lvgl\src\lv_objx/lv_win.c ****             w = lv_disp_get_hor_res(NULL);
  85:..\..\..\lvgl\version_6.1.2\lvgl\src\lv_objx/lv_win.c ****             h = lv_disp_get_ver_res(NULL);
  86:..\..\..\lvgl\version_6.1.2\lvgl\src\lv_objx/lv_win.c ****         }
  87:..\..\..\lvgl\version_6.1.2\lvgl\src\lv_objx/lv_win.c **** 
ARM GAS  C:\Users\pearlstl\AppData\Local\Temp\ccI2fBBa.s 			page 3


  88:..\..\..\lvgl\version_6.1.2\lvgl\src\lv_objx/lv_win.c ****         lv_obj_set_size(new_win, w, h);
  89:..\..\..\lvgl\version_6.1.2\lvgl\src\lv_objx/lv_win.c **** 
  90:..\..\..\lvgl\version_6.1.2\lvgl\src\lv_objx/lv_win.c ****         lv_obj_set_style(new_win, &lv_style_pretty);
  91:..\..\..\lvgl\version_6.1.2\lvgl\src\lv_objx/lv_win.c **** 
  92:..\..\..\lvgl\version_6.1.2\lvgl\src\lv_objx/lv_win.c ****         ext->page = lv_page_create(new_win, NULL);
  93:..\..\..\lvgl\version_6.1.2\lvgl\src\lv_objx/lv_win.c ****         lv_obj_set_protect(ext->page, LV_PROTECT_PARENT);
  94:..\..\..\lvgl\version_6.1.2\lvgl\src\lv_objx/lv_win.c ****         lv_page_set_sb_mode(ext->page, LV_SB_MODE_AUTO);
  95:..\..\..\lvgl\version_6.1.2\lvgl\src\lv_objx/lv_win.c ****         lv_page_set_style(ext->page, LV_PAGE_STYLE_BG, &lv_style_transp_fit);
  96:..\..\..\lvgl\version_6.1.2\lvgl\src\lv_objx/lv_win.c **** 
  97:..\..\..\lvgl\version_6.1.2\lvgl\src\lv_objx/lv_win.c ****         /*Create a holder for the header*/
  98:..\..\..\lvgl\version_6.1.2\lvgl\src\lv_objx/lv_win.c ****         ext->header = lv_obj_create(new_win, NULL);
  99:..\..\..\lvgl\version_6.1.2\lvgl\src\lv_objx/lv_win.c ****         /*Move back the header because it is automatically moved to the scrollable */
 100:..\..\..\lvgl\version_6.1.2\lvgl\src\lv_objx/lv_win.c ****         lv_obj_set_protect(ext->header, LV_PROTECT_PARENT);
 101:..\..\..\lvgl\version_6.1.2\lvgl\src\lv_objx/lv_win.c ****         lv_obj_set_parent(ext->header, new_win);
 102:..\..\..\lvgl\version_6.1.2\lvgl\src\lv_objx/lv_win.c **** 
 103:..\..\..\lvgl\version_6.1.2\lvgl\src\lv_objx/lv_win.c ****         /*Create a title on the header*/
 104:..\..\..\lvgl\version_6.1.2\lvgl\src\lv_objx/lv_win.c ****         ext->title = lv_label_create(ext->header, NULL);
 105:..\..\..\lvgl\version_6.1.2\lvgl\src\lv_objx/lv_win.c ****         lv_label_set_text(ext->title, "My title");
 106:..\..\..\lvgl\version_6.1.2\lvgl\src\lv_objx/lv_win.c **** 
 107:..\..\..\lvgl\version_6.1.2\lvgl\src\lv_objx/lv_win.c ****         lv_obj_set_signal_cb(new_win, lv_win_signal);
 108:..\..\..\lvgl\version_6.1.2\lvgl\src\lv_objx/lv_win.c **** 
 109:..\..\..\lvgl\version_6.1.2\lvgl\src\lv_objx/lv_win.c ****         /*Set the default styles*/
 110:..\..\..\lvgl\version_6.1.2\lvgl\src\lv_objx/lv_win.c ****         lv_theme_t * th = lv_theme_get_current();
 111:..\..\..\lvgl\version_6.1.2\lvgl\src\lv_objx/lv_win.c ****         if(th) {
 112:..\..\..\lvgl\version_6.1.2\lvgl\src\lv_objx/lv_win.c ****             lv_win_set_style(new_win, LV_WIN_STYLE_BG, th->style.win.bg);
 113:..\..\..\lvgl\version_6.1.2\lvgl\src\lv_objx/lv_win.c ****             lv_win_set_style(new_win, LV_WIN_STYLE_SB, th->style.win.sb);
 114:..\..\..\lvgl\version_6.1.2\lvgl\src\lv_objx/lv_win.c ****             lv_win_set_style(new_win, LV_WIN_STYLE_HEADER, th->style.win.header);
 115:..\..\..\lvgl\version_6.1.2\lvgl\src\lv_objx/lv_win.c ****             lv_win_set_style(new_win, LV_WIN_STYLE_CONTENT, th->style.win.content);
 116:..\..\..\lvgl\version_6.1.2\lvgl\src\lv_objx/lv_win.c ****             lv_win_set_style(new_win, LV_WIN_STYLE_BTN_REL, th->style.win.btn.rel);
 117:..\..\..\lvgl\version_6.1.2\lvgl\src\lv_objx/lv_win.c ****             lv_win_set_style(new_win, LV_WIN_STYLE_BTN_PR, th->style.win.btn.pr);
 118:..\..\..\lvgl\version_6.1.2\lvgl\src\lv_objx/lv_win.c ****         } else {
 119:..\..\..\lvgl\version_6.1.2\lvgl\src\lv_objx/lv_win.c ****             lv_win_set_style(new_win, LV_WIN_STYLE_BG, &lv_style_plain);
 120:..\..\..\lvgl\version_6.1.2\lvgl\src\lv_objx/lv_win.c ****             lv_win_set_style(new_win, LV_WIN_STYLE_CONTENT, &lv_style_transp);
 121:..\..\..\lvgl\version_6.1.2\lvgl\src\lv_objx/lv_win.c ****             lv_win_set_style(new_win, LV_WIN_STYLE_HEADER, &lv_style_plain_color);
 122:..\..\..\lvgl\version_6.1.2\lvgl\src\lv_objx/lv_win.c ****         }
 123:..\..\..\lvgl\version_6.1.2\lvgl\src\lv_objx/lv_win.c ****     }
 124:..\..\..\lvgl\version_6.1.2\lvgl\src\lv_objx/lv_win.c ****     /*Copy an existing object*/
 125:..\..\..\lvgl\version_6.1.2\lvgl\src\lv_objx/lv_win.c ****     else {
 126:..\..\..\lvgl\version_6.1.2\lvgl\src\lv_objx/lv_win.c ****         lv_win_ext_t * copy_ext = lv_obj_get_ext_attr(copy);
 127:..\..\..\lvgl\version_6.1.2\lvgl\src\lv_objx/lv_win.c ****         /*Create the objects*/
 128:..\..\..\lvgl\version_6.1.2\lvgl\src\lv_objx/lv_win.c ****         ext->header   = lv_obj_create(new_win, copy_ext->header);
 129:..\..\..\lvgl\version_6.1.2\lvgl\src\lv_objx/lv_win.c ****         ext->title    = lv_label_create(ext->header, copy_ext->title);
 130:..\..\..\lvgl\version_6.1.2\lvgl\src\lv_objx/lv_win.c ****         ext->page     = lv_page_create(new_win, copy_ext->page);
 131:..\..\..\lvgl\version_6.1.2\lvgl\src\lv_objx/lv_win.c ****         ext->btn_size = copy_ext->btn_size;
 132:..\..\..\lvgl\version_6.1.2\lvgl\src\lv_objx/lv_win.c **** 
 133:..\..\..\lvgl\version_6.1.2\lvgl\src\lv_objx/lv_win.c ****         /*Copy the control buttons*/
 134:..\..\..\lvgl\version_6.1.2\lvgl\src\lv_objx/lv_win.c ****         lv_obj_t * child;
 135:..\..\..\lvgl\version_6.1.2\lvgl\src\lv_objx/lv_win.c ****         lv_obj_t * cbtn;
 136:..\..\..\lvgl\version_6.1.2\lvgl\src\lv_objx/lv_win.c ****         child = lv_obj_get_child_back(copy_ext->header, NULL);
 137:..\..\..\lvgl\version_6.1.2\lvgl\src\lv_objx/lv_win.c ****         child = lv_obj_get_child_back(copy_ext->header, child); /*Sip the title*/
 138:..\..\..\lvgl\version_6.1.2\lvgl\src\lv_objx/lv_win.c ****         while(child != NULL) {
 139:..\..\..\lvgl\version_6.1.2\lvgl\src\lv_objx/lv_win.c ****             cbtn = lv_btn_create(ext->header, child);
 140:..\..\..\lvgl\version_6.1.2\lvgl\src\lv_objx/lv_win.c ****             lv_img_create(cbtn, lv_obj_get_child(child, NULL));
 141:..\..\..\lvgl\version_6.1.2\lvgl\src\lv_objx/lv_win.c ****             child = lv_obj_get_child_back(copy_ext->header, child);
 142:..\..\..\lvgl\version_6.1.2\lvgl\src\lv_objx/lv_win.c ****         }
 143:..\..\..\lvgl\version_6.1.2\lvgl\src\lv_objx/lv_win.c **** 
 144:..\..\..\lvgl\version_6.1.2\lvgl\src\lv_objx/lv_win.c ****         lv_obj_set_signal_cb(new_win, lv_win_signal);
ARM GAS  C:\Users\pearlstl\AppData\Local\Temp\ccI2fBBa.s 			page 4


 145:..\..\..\lvgl\version_6.1.2\lvgl\src\lv_objx/lv_win.c ****     }
 146:..\..\..\lvgl\version_6.1.2\lvgl\src\lv_objx/lv_win.c **** 
 147:..\..\..\lvgl\version_6.1.2\lvgl\src\lv_objx/lv_win.c ****     /*Refresh the style with new signal function*/
 148:..\..\..\lvgl\version_6.1.2\lvgl\src\lv_objx/lv_win.c ****     lv_obj_refresh_style(new_win);
 149:..\..\..\lvgl\version_6.1.2\lvgl\src\lv_objx/lv_win.c **** 
 150:..\..\..\lvgl\version_6.1.2\lvgl\src\lv_objx/lv_win.c ****     lv_win_realign(new_win);
 151:..\..\..\lvgl\version_6.1.2\lvgl\src\lv_objx/lv_win.c **** 
 152:..\..\..\lvgl\version_6.1.2\lvgl\src\lv_objx/lv_win.c ****     LV_LOG_INFO("window created");
 153:..\..\..\lvgl\version_6.1.2\lvgl\src\lv_objx/lv_win.c **** 
 154:..\..\..\lvgl\version_6.1.2\lvgl\src\lv_objx/lv_win.c ****     return new_win;
 155:..\..\..\lvgl\version_6.1.2\lvgl\src\lv_objx/lv_win.c **** }
 156:..\..\..\lvgl\version_6.1.2\lvgl\src\lv_objx/lv_win.c **** 
 157:..\..\..\lvgl\version_6.1.2\lvgl\src\lv_objx/lv_win.c **** /**
 158:..\..\..\lvgl\version_6.1.2\lvgl\src\lv_objx/lv_win.c ****  * Delete all children of the scrl object, without deleting scrl child.
 159:..\..\..\lvgl\version_6.1.2\lvgl\src\lv_objx/lv_win.c ****  * @param win pointer to an object
 160:..\..\..\lvgl\version_6.1.2\lvgl\src\lv_objx/lv_win.c ****  */
 161:..\..\..\lvgl\version_6.1.2\lvgl\src\lv_objx/lv_win.c **** void lv_win_clean(lv_obj_t * win)
 162:..\..\..\lvgl\version_6.1.2\lvgl\src\lv_objx/lv_win.c **** {
 163:..\..\..\lvgl\version_6.1.2\lvgl\src\lv_objx/lv_win.c ****     LV_ASSERT_OBJ(win, LV_OBJX_NAME);
 164:..\..\..\lvgl\version_6.1.2\lvgl\src\lv_objx/lv_win.c **** 
 165:..\..\..\lvgl\version_6.1.2\lvgl\src\lv_objx/lv_win.c ****     lv_obj_t * scrl = lv_page_get_scrl(win);
 166:..\..\..\lvgl\version_6.1.2\lvgl\src\lv_objx/lv_win.c ****     lv_obj_clean(scrl);
 167:..\..\..\lvgl\version_6.1.2\lvgl\src\lv_objx/lv_win.c **** }
 168:..\..\..\lvgl\version_6.1.2\lvgl\src\lv_objx/lv_win.c **** 
 169:..\..\..\lvgl\version_6.1.2\lvgl\src\lv_objx/lv_win.c **** /*======================
 170:..\..\..\lvgl\version_6.1.2\lvgl\src\lv_objx/lv_win.c ****  * Add/remove functions
 171:..\..\..\lvgl\version_6.1.2\lvgl\src\lv_objx/lv_win.c ****  *=====================*/
 172:..\..\..\lvgl\version_6.1.2\lvgl\src\lv_objx/lv_win.c **** 
 173:..\..\..\lvgl\version_6.1.2\lvgl\src\lv_objx/lv_win.c **** /**
 174:..\..\..\lvgl\version_6.1.2\lvgl\src\lv_objx/lv_win.c ****  * Add control button to the header of the window
 175:..\..\..\lvgl\version_6.1.2\lvgl\src\lv_objx/lv_win.c ****  * @param win pointer to a window object
 176:..\..\..\lvgl\version_6.1.2\lvgl\src\lv_objx/lv_win.c ****  * @param img_src an image source ('lv_img_t' variable, path to file or a symbol)
 177:..\..\..\lvgl\version_6.1.2\lvgl\src\lv_objx/lv_win.c ****  * @return pointer to the created button object
 178:..\..\..\lvgl\version_6.1.2\lvgl\src\lv_objx/lv_win.c ****  */
 179:..\..\..\lvgl\version_6.1.2\lvgl\src\lv_objx/lv_win.c **** lv_obj_t * lv_win_add_btn(lv_obj_t * win, const void * img_src)
 180:..\..\..\lvgl\version_6.1.2\lvgl\src\lv_objx/lv_win.c **** {
 181:..\..\..\lvgl\version_6.1.2\lvgl\src\lv_objx/lv_win.c ****     LV_ASSERT_OBJ(win, LV_OBJX_NAME);
 182:..\..\..\lvgl\version_6.1.2\lvgl\src\lv_objx/lv_win.c ****     LV_ASSERT_NULL(img_src);
 183:..\..\..\lvgl\version_6.1.2\lvgl\src\lv_objx/lv_win.c **** 
 184:..\..\..\lvgl\version_6.1.2\lvgl\src\lv_objx/lv_win.c ****     lv_win_ext_t * ext = lv_obj_get_ext_attr(win);
 185:..\..\..\lvgl\version_6.1.2\lvgl\src\lv_objx/lv_win.c **** 
 186:..\..\..\lvgl\version_6.1.2\lvgl\src\lv_objx/lv_win.c ****     lv_obj_t * btn = lv_btn_create(ext->header, NULL);
 187:..\..\..\lvgl\version_6.1.2\lvgl\src\lv_objx/lv_win.c ****     lv_btn_set_style(btn, LV_BTN_STYLE_REL, ext->style_btn_rel);
 188:..\..\..\lvgl\version_6.1.2\lvgl\src\lv_objx/lv_win.c ****     lv_btn_set_style(btn, LV_BTN_STYLE_PR, ext->style_btn_pr);
 189:..\..\..\lvgl\version_6.1.2\lvgl\src\lv_objx/lv_win.c ****     lv_obj_set_size(btn, ext->btn_size, ext->btn_size);
 190:..\..\..\lvgl\version_6.1.2\lvgl\src\lv_objx/lv_win.c **** 
 191:..\..\..\lvgl\version_6.1.2\lvgl\src\lv_objx/lv_win.c ****     lv_obj_t * img = lv_img_create(btn, NULL);
 192:..\..\..\lvgl\version_6.1.2\lvgl\src\lv_objx/lv_win.c ****     lv_obj_set_click(img, false);
 193:..\..\..\lvgl\version_6.1.2\lvgl\src\lv_objx/lv_win.c ****     lv_img_set_src(img, img_src);
 194:..\..\..\lvgl\version_6.1.2\lvgl\src\lv_objx/lv_win.c **** 
 195:..\..\..\lvgl\version_6.1.2\lvgl\src\lv_objx/lv_win.c ****     lv_win_realign(win);
 196:..\..\..\lvgl\version_6.1.2\lvgl\src\lv_objx/lv_win.c **** 
 197:..\..\..\lvgl\version_6.1.2\lvgl\src\lv_objx/lv_win.c ****     return btn;
 198:..\..\..\lvgl\version_6.1.2\lvgl\src\lv_objx/lv_win.c **** }
 199:..\..\..\lvgl\version_6.1.2\lvgl\src\lv_objx/lv_win.c **** 
 200:..\..\..\lvgl\version_6.1.2\lvgl\src\lv_objx/lv_win.c **** /*=====================
 201:..\..\..\lvgl\version_6.1.2\lvgl\src\lv_objx/lv_win.c ****  * Setter functions
ARM GAS  C:\Users\pearlstl\AppData\Local\Temp\ccI2fBBa.s 			page 5


 202:..\..\..\lvgl\version_6.1.2\lvgl\src\lv_objx/lv_win.c ****  *====================*/
 203:..\..\..\lvgl\version_6.1.2\lvgl\src\lv_objx/lv_win.c **** 
 204:..\..\..\lvgl\version_6.1.2\lvgl\src\lv_objx/lv_win.c **** /**
 205:..\..\..\lvgl\version_6.1.2\lvgl\src\lv_objx/lv_win.c ****  * Can be assigned to a window control button to close the window
 206:..\..\..\lvgl\version_6.1.2\lvgl\src\lv_objx/lv_win.c ****  * @param btn pointer to the control button on teh widows header
 207:..\..\..\lvgl\version_6.1.2\lvgl\src\lv_objx/lv_win.c ****  * @param evet the event type
 208:..\..\..\lvgl\version_6.1.2\lvgl\src\lv_objx/lv_win.c ****  */
 209:..\..\..\lvgl\version_6.1.2\lvgl\src\lv_objx/lv_win.c **** void lv_win_close_event_cb(lv_obj_t * btn, lv_event_t event)
 210:..\..\..\lvgl\version_6.1.2\lvgl\src\lv_objx/lv_win.c **** {
 211:..\..\..\lvgl\version_6.1.2\lvgl\src\lv_objx/lv_win.c ****     LV_ASSERT_OBJ(btn, "lv_btn");
 212:..\..\..\lvgl\version_6.1.2\lvgl\src\lv_objx/lv_win.c **** 
 213:..\..\..\lvgl\version_6.1.2\lvgl\src\lv_objx/lv_win.c ****     if(event == LV_EVENT_RELEASED) {
 214:..\..\..\lvgl\version_6.1.2\lvgl\src\lv_objx/lv_win.c ****         lv_obj_t * win = lv_win_get_from_btn(btn);
 215:..\..\..\lvgl\version_6.1.2\lvgl\src\lv_objx/lv_win.c **** 
 216:..\..\..\lvgl\version_6.1.2\lvgl\src\lv_objx/lv_win.c ****         lv_obj_del(win);
 217:..\..\..\lvgl\version_6.1.2\lvgl\src\lv_objx/lv_win.c ****     }
 218:..\..\..\lvgl\version_6.1.2\lvgl\src\lv_objx/lv_win.c **** }
 219:..\..\..\lvgl\version_6.1.2\lvgl\src\lv_objx/lv_win.c **** 
 220:..\..\..\lvgl\version_6.1.2\lvgl\src\lv_objx/lv_win.c **** /**
 221:..\..\..\lvgl\version_6.1.2\lvgl\src\lv_objx/lv_win.c ****  * Set the title of a window
 222:..\..\..\lvgl\version_6.1.2\lvgl\src\lv_objx/lv_win.c ****  * @param win pointer to a window object
 223:..\..\..\lvgl\version_6.1.2\lvgl\src\lv_objx/lv_win.c ****  * @param title string of the new title
 224:..\..\..\lvgl\version_6.1.2\lvgl\src\lv_objx/lv_win.c ****  */
 225:..\..\..\lvgl\version_6.1.2\lvgl\src\lv_objx/lv_win.c **** void lv_win_set_title(lv_obj_t * win, const char * title)
 226:..\..\..\lvgl\version_6.1.2\lvgl\src\lv_objx/lv_win.c **** {
 227:..\..\..\lvgl\version_6.1.2\lvgl\src\lv_objx/lv_win.c ****     LV_ASSERT_OBJ(win, LV_OBJX_NAME);
 228:..\..\..\lvgl\version_6.1.2\lvgl\src\lv_objx/lv_win.c ****     LV_ASSERT_STR(title);
 229:..\..\..\lvgl\version_6.1.2\lvgl\src\lv_objx/lv_win.c **** 
 230:..\..\..\lvgl\version_6.1.2\lvgl\src\lv_objx/lv_win.c ****     lv_win_ext_t * ext = lv_obj_get_ext_attr(win);
 231:..\..\..\lvgl\version_6.1.2\lvgl\src\lv_objx/lv_win.c **** 
 232:..\..\..\lvgl\version_6.1.2\lvgl\src\lv_objx/lv_win.c ****     lv_label_set_text(ext->title, title);
 233:..\..\..\lvgl\version_6.1.2\lvgl\src\lv_objx/lv_win.c ****     lv_win_realign(win);
 234:..\..\..\lvgl\version_6.1.2\lvgl\src\lv_objx/lv_win.c **** }
 235:..\..\..\lvgl\version_6.1.2\lvgl\src\lv_objx/lv_win.c **** 
 236:..\..\..\lvgl\version_6.1.2\lvgl\src\lv_objx/lv_win.c **** /**
 237:..\..\..\lvgl\version_6.1.2\lvgl\src\lv_objx/lv_win.c ****  * Set the control button size of a window
 238:..\..\..\lvgl\version_6.1.2\lvgl\src\lv_objx/lv_win.c ****  * @param win pointer to a window object
 239:..\..\..\lvgl\version_6.1.2\lvgl\src\lv_objx/lv_win.c ****  * @param size control button size
 240:..\..\..\lvgl\version_6.1.2\lvgl\src\lv_objx/lv_win.c ****  */
 241:..\..\..\lvgl\version_6.1.2\lvgl\src\lv_objx/lv_win.c **** void lv_win_set_btn_size(lv_obj_t * win, lv_coord_t size)
 242:..\..\..\lvgl\version_6.1.2\lvgl\src\lv_objx/lv_win.c **** {
 243:..\..\..\lvgl\version_6.1.2\lvgl\src\lv_objx/lv_win.c ****     LV_ASSERT_OBJ(win, LV_OBJX_NAME);
 244:..\..\..\lvgl\version_6.1.2\lvgl\src\lv_objx/lv_win.c **** 
 245:..\..\..\lvgl\version_6.1.2\lvgl\src\lv_objx/lv_win.c ****     lv_win_ext_t * ext = lv_obj_get_ext_attr(win);
 246:..\..\..\lvgl\version_6.1.2\lvgl\src\lv_objx/lv_win.c ****     if(ext->btn_size == size) return;
 247:..\..\..\lvgl\version_6.1.2\lvgl\src\lv_objx/lv_win.c **** 
 248:..\..\..\lvgl\version_6.1.2\lvgl\src\lv_objx/lv_win.c ****     ext->btn_size = size;
 249:..\..\..\lvgl\version_6.1.2\lvgl\src\lv_objx/lv_win.c **** 
 250:..\..\..\lvgl\version_6.1.2\lvgl\src\lv_objx/lv_win.c ****     lv_win_realign(win);
 251:..\..\..\lvgl\version_6.1.2\lvgl\src\lv_objx/lv_win.c **** }
 252:..\..\..\lvgl\version_6.1.2\lvgl\src\lv_objx/lv_win.c **** 
 253:..\..\..\lvgl\version_6.1.2\lvgl\src\lv_objx/lv_win.c **** /**
 254:..\..\..\lvgl\version_6.1.2\lvgl\src\lv_objx/lv_win.c ****  * Set the size of the content area.
 255:..\..\..\lvgl\version_6.1.2\lvgl\src\lv_objx/lv_win.c ****  * @param win pointer to a window object
 256:..\..\..\lvgl\version_6.1.2\lvgl\src\lv_objx/lv_win.c ****  * @param w width
 257:..\..\..\lvgl\version_6.1.2\lvgl\src\lv_objx/lv_win.c ****  * @param h height (the window will be higher with the height of the header)
 258:..\..\..\lvgl\version_6.1.2\lvgl\src\lv_objx/lv_win.c ****  */
ARM GAS  C:\Users\pearlstl\AppData\Local\Temp\ccI2fBBa.s 			page 6


 259:..\..\..\lvgl\version_6.1.2\lvgl\src\lv_objx/lv_win.c **** void lv_win_set_content_size(lv_obj_t * win, lv_coord_t w, lv_coord_t h)
 260:..\..\..\lvgl\version_6.1.2\lvgl\src\lv_objx/lv_win.c **** {
 261:..\..\..\lvgl\version_6.1.2\lvgl\src\lv_objx/lv_win.c ****     LV_ASSERT_OBJ(win, LV_OBJX_NAME);
 262:..\..\..\lvgl\version_6.1.2\lvgl\src\lv_objx/lv_win.c **** 
 263:..\..\..\lvgl\version_6.1.2\lvgl\src\lv_objx/lv_win.c ****     lv_win_ext_t * ext = lv_obj_get_ext_attr(win);
 264:..\..\..\lvgl\version_6.1.2\lvgl\src\lv_objx/lv_win.c ****     h += lv_obj_get_height(ext->header);
 265:..\..\..\lvgl\version_6.1.2\lvgl\src\lv_objx/lv_win.c **** 
 266:..\..\..\lvgl\version_6.1.2\lvgl\src\lv_objx/lv_win.c ****     lv_obj_set_size(win, w, h);
 267:..\..\..\lvgl\version_6.1.2\lvgl\src\lv_objx/lv_win.c **** }
 268:..\..\..\lvgl\version_6.1.2\lvgl\src\lv_objx/lv_win.c **** 
 269:..\..\..\lvgl\version_6.1.2\lvgl\src\lv_objx/lv_win.c **** /**
 270:..\..\..\lvgl\version_6.1.2\lvgl\src\lv_objx/lv_win.c ****  * Set the layout of the window
 271:..\..\..\lvgl\version_6.1.2\lvgl\src\lv_objx/lv_win.c ****  * @param win pointer to a window object
 272:..\..\..\lvgl\version_6.1.2\lvgl\src\lv_objx/lv_win.c ****  * @param layout the layout from 'lv_layout_t'
 273:..\..\..\lvgl\version_6.1.2\lvgl\src\lv_objx/lv_win.c ****  */
 274:..\..\..\lvgl\version_6.1.2\lvgl\src\lv_objx/lv_win.c **** void lv_win_set_layout(lv_obj_t * win, lv_layout_t layout)
 275:..\..\..\lvgl\version_6.1.2\lvgl\src\lv_objx/lv_win.c **** {
 276:..\..\..\lvgl\version_6.1.2\lvgl\src\lv_objx/lv_win.c ****     LV_ASSERT_OBJ(win, LV_OBJX_NAME);
 277:..\..\..\lvgl\version_6.1.2\lvgl\src\lv_objx/lv_win.c **** 
 278:..\..\..\lvgl\version_6.1.2\lvgl\src\lv_objx/lv_win.c ****     lv_win_ext_t * ext = lv_obj_get_ext_attr(win);
 279:..\..\..\lvgl\version_6.1.2\lvgl\src\lv_objx/lv_win.c ****     lv_page_set_scrl_layout(ext->page, layout);
 280:..\..\..\lvgl\version_6.1.2\lvgl\src\lv_objx/lv_win.c **** }
 281:..\..\..\lvgl\version_6.1.2\lvgl\src\lv_objx/lv_win.c **** 
 282:..\..\..\lvgl\version_6.1.2\lvgl\src\lv_objx/lv_win.c **** /**
 283:..\..\..\lvgl\version_6.1.2\lvgl\src\lv_objx/lv_win.c ****  * Set the scroll bar mode of a window
 284:..\..\..\lvgl\version_6.1.2\lvgl\src\lv_objx/lv_win.c ****  * @param win pointer to a window object
 285:..\..\..\lvgl\version_6.1.2\lvgl\src\lv_objx/lv_win.c ****  * @param sb_mode the new scroll bar mode from  'lv_sb_mode_t'
 286:..\..\..\lvgl\version_6.1.2\lvgl\src\lv_objx/lv_win.c ****  */
 287:..\..\..\lvgl\version_6.1.2\lvgl\src\lv_objx/lv_win.c **** void lv_win_set_sb_mode(lv_obj_t * win, lv_sb_mode_t sb_mode)
 288:..\..\..\lvgl\version_6.1.2\lvgl\src\lv_objx/lv_win.c **** {
 289:..\..\..\lvgl\version_6.1.2\lvgl\src\lv_objx/lv_win.c ****     LV_ASSERT_OBJ(win, LV_OBJX_NAME);
 290:..\..\..\lvgl\version_6.1.2\lvgl\src\lv_objx/lv_win.c **** 
 291:..\..\..\lvgl\version_6.1.2\lvgl\src\lv_objx/lv_win.c ****     lv_win_ext_t * ext = lv_obj_get_ext_attr(win);
 292:..\..\..\lvgl\version_6.1.2\lvgl\src\lv_objx/lv_win.c ****     lv_page_set_sb_mode(ext->page, sb_mode);
 293:..\..\..\lvgl\version_6.1.2\lvgl\src\lv_objx/lv_win.c **** }
 294:..\..\..\lvgl\version_6.1.2\lvgl\src\lv_objx/lv_win.c **** /**
 295:..\..\..\lvgl\version_6.1.2\lvgl\src\lv_objx/lv_win.c ****  * Set focus animation duration on `lv_win_focus()`
 296:..\..\..\lvgl\version_6.1.2\lvgl\src\lv_objx/lv_win.c ****  * @param win pointer to a window object
 297:..\..\..\lvgl\version_6.1.2\lvgl\src\lv_objx/lv_win.c ****  * @param anim_time duration of animation [ms]
 298:..\..\..\lvgl\version_6.1.2\lvgl\src\lv_objx/lv_win.c ****  */
 299:..\..\..\lvgl\version_6.1.2\lvgl\src\lv_objx/lv_win.c **** void lv_win_set_anim_time(lv_obj_t * win, uint16_t anim_time)
 300:..\..\..\lvgl\version_6.1.2\lvgl\src\lv_objx/lv_win.c **** {
 301:..\..\..\lvgl\version_6.1.2\lvgl\src\lv_objx/lv_win.c ****     LV_ASSERT_OBJ(win, LV_OBJX_NAME);
 302:..\..\..\lvgl\version_6.1.2\lvgl\src\lv_objx/lv_win.c **** 
 303:..\..\..\lvgl\version_6.1.2\lvgl\src\lv_objx/lv_win.c ****     lv_page_set_anim_time(lv_win_get_content(win), anim_time);
 304:..\..\..\lvgl\version_6.1.2\lvgl\src\lv_objx/lv_win.c **** }
 305:..\..\..\lvgl\version_6.1.2\lvgl\src\lv_objx/lv_win.c **** 
 306:..\..\..\lvgl\version_6.1.2\lvgl\src\lv_objx/lv_win.c **** /**
 307:..\..\..\lvgl\version_6.1.2\lvgl\src\lv_objx/lv_win.c ****  * Set a style of a window
 308:..\..\..\lvgl\version_6.1.2\lvgl\src\lv_objx/lv_win.c ****  * @param win pointer to a window object
 309:..\..\..\lvgl\version_6.1.2\lvgl\src\lv_objx/lv_win.c ****  * @param type which style should be set
 310:..\..\..\lvgl\version_6.1.2\lvgl\src\lv_objx/lv_win.c ****  * @param style pointer to a style
 311:..\..\..\lvgl\version_6.1.2\lvgl\src\lv_objx/lv_win.c ****  */
 312:..\..\..\lvgl\version_6.1.2\lvgl\src\lv_objx/lv_win.c **** void lv_win_set_style(lv_obj_t * win, lv_win_style_t type, const lv_style_t * style)
 313:..\..\..\lvgl\version_6.1.2\lvgl\src\lv_objx/lv_win.c **** {
 314:..\..\..\lvgl\version_6.1.2\lvgl\src\lv_objx/lv_win.c ****     LV_ASSERT_OBJ(win, LV_OBJX_NAME);
 315:..\..\..\lvgl\version_6.1.2\lvgl\src\lv_objx/lv_win.c **** 
ARM GAS  C:\Users\pearlstl\AppData\Local\Temp\ccI2fBBa.s 			page 7


 316:..\..\..\lvgl\version_6.1.2\lvgl\src\lv_objx/lv_win.c ****     lv_win_ext_t * ext = lv_obj_get_ext_attr(win);
 317:..\..\..\lvgl\version_6.1.2\lvgl\src\lv_objx/lv_win.c **** 
 318:..\..\..\lvgl\version_6.1.2\lvgl\src\lv_objx/lv_win.c ****     switch(type) {
 319:..\..\..\lvgl\version_6.1.2\lvgl\src\lv_objx/lv_win.c ****         case LV_WIN_STYLE_BG:
 320:..\..\..\lvgl\version_6.1.2\lvgl\src\lv_objx/lv_win.c ****             lv_obj_set_style(win, style);
 321:..\..\..\lvgl\version_6.1.2\lvgl\src\lv_objx/lv_win.c ****             lv_win_realign(win);
 322:..\..\..\lvgl\version_6.1.2\lvgl\src\lv_objx/lv_win.c ****             break;
 323:..\..\..\lvgl\version_6.1.2\lvgl\src\lv_objx/lv_win.c ****         case LV_WIN_STYLE_CONTENT: lv_page_set_style(ext->page, LV_PAGE_STYLE_SCRL, style); break;
 324:..\..\..\lvgl\version_6.1.2\lvgl\src\lv_objx/lv_win.c ****         case LV_WIN_STYLE_SB: lv_page_set_style(ext->page, LV_PAGE_STYLE_SB, style); break;
 325:..\..\..\lvgl\version_6.1.2\lvgl\src\lv_objx/lv_win.c ****         case LV_WIN_STYLE_HEADER:
 326:..\..\..\lvgl\version_6.1.2\lvgl\src\lv_objx/lv_win.c ****             lv_obj_set_style(ext->header, style);
 327:..\..\..\lvgl\version_6.1.2\lvgl\src\lv_objx/lv_win.c ****             lv_win_realign(win);
 328:..\..\..\lvgl\version_6.1.2\lvgl\src\lv_objx/lv_win.c ****             break;
 329:..\..\..\lvgl\version_6.1.2\lvgl\src\lv_objx/lv_win.c ****         case LV_WIN_STYLE_BTN_REL: ext->style_btn_rel = style; break;
 330:..\..\..\lvgl\version_6.1.2\lvgl\src\lv_objx/lv_win.c ****         case LV_WIN_STYLE_BTN_PR: ext->style_btn_pr = style; break;
 331:..\..\..\lvgl\version_6.1.2\lvgl\src\lv_objx/lv_win.c ****     }
 332:..\..\..\lvgl\version_6.1.2\lvgl\src\lv_objx/lv_win.c **** 
 333:..\..\..\lvgl\version_6.1.2\lvgl\src\lv_objx/lv_win.c ****     /*Refresh the existing buttons*/
 334:..\..\..\lvgl\version_6.1.2\lvgl\src\lv_objx/lv_win.c ****     if(type == LV_WIN_STYLE_BTN_REL || type == LV_WIN_STYLE_BTN_PR) {
 335:..\..\..\lvgl\version_6.1.2\lvgl\src\lv_objx/lv_win.c ****         lv_obj_t * btn;
 336:..\..\..\lvgl\version_6.1.2\lvgl\src\lv_objx/lv_win.c ****         btn = lv_obj_get_child_back(ext->header, NULL);
 337:..\..\..\lvgl\version_6.1.2\lvgl\src\lv_objx/lv_win.c ****         btn = lv_obj_get_child_back(ext->header, btn); /*Skip the title*/
 338:..\..\..\lvgl\version_6.1.2\lvgl\src\lv_objx/lv_win.c ****         while(btn != NULL) {
 339:..\..\..\lvgl\version_6.1.2\lvgl\src\lv_objx/lv_win.c ****             if(type == LV_WIN_STYLE_BTN_REL)
 340:..\..\..\lvgl\version_6.1.2\lvgl\src\lv_objx/lv_win.c ****                 lv_btn_set_style(btn, LV_BTN_STYLE_REL, style);
 341:..\..\..\lvgl\version_6.1.2\lvgl\src\lv_objx/lv_win.c ****             else
 342:..\..\..\lvgl\version_6.1.2\lvgl\src\lv_objx/lv_win.c ****                 lv_btn_set_style(btn, LV_BTN_STYLE_PR, style);
 343:..\..\..\lvgl\version_6.1.2\lvgl\src\lv_objx/lv_win.c ****             btn = lv_obj_get_child_back(ext->header, btn);
 344:..\..\..\lvgl\version_6.1.2\lvgl\src\lv_objx/lv_win.c ****         }
 345:..\..\..\lvgl\version_6.1.2\lvgl\src\lv_objx/lv_win.c ****     }
 346:..\..\..\lvgl\version_6.1.2\lvgl\src\lv_objx/lv_win.c **** }
 347:..\..\..\lvgl\version_6.1.2\lvgl\src\lv_objx/lv_win.c **** 
 348:..\..\..\lvgl\version_6.1.2\lvgl\src\lv_objx/lv_win.c **** /**
 349:..\..\..\lvgl\version_6.1.2\lvgl\src\lv_objx/lv_win.c ****  * Set drag status of a window. If set to 'true' window can be dragged like on a PC.
 350:..\..\..\lvgl\version_6.1.2\lvgl\src\lv_objx/lv_win.c ****  * @param win pointer to a window object
 351:..\..\..\lvgl\version_6.1.2\lvgl\src\lv_objx/lv_win.c ****  * @param en whether dragging is enabled
 352:..\..\..\lvgl\version_6.1.2\lvgl\src\lv_objx/lv_win.c ****  */
 353:..\..\..\lvgl\version_6.1.2\lvgl\src\lv_objx/lv_win.c **** void lv_win_set_drag(lv_obj_t * win, bool en)
 354:..\..\..\lvgl\version_6.1.2\lvgl\src\lv_objx/lv_win.c **** {
 355:..\..\..\lvgl\version_6.1.2\lvgl\src\lv_objx/lv_win.c ****     LV_ASSERT_OBJ(win, LV_OBJX_NAME);
 356:..\..\..\lvgl\version_6.1.2\lvgl\src\lv_objx/lv_win.c **** 
 357:..\..\..\lvgl\version_6.1.2\lvgl\src\lv_objx/lv_win.c ****     lv_win_ext_t * ext    = lv_obj_get_ext_attr(win);
 358:..\..\..\lvgl\version_6.1.2\lvgl\src\lv_objx/lv_win.c ****     lv_obj_t * win_header = ext->header;
 359:..\..\..\lvgl\version_6.1.2\lvgl\src\lv_objx/lv_win.c ****     lv_obj_set_drag_parent(win_header, en);
 360:..\..\..\lvgl\version_6.1.2\lvgl\src\lv_objx/lv_win.c ****     lv_obj_set_drag(win, en);
 361:..\..\..\lvgl\version_6.1.2\lvgl\src\lv_objx/lv_win.c **** }
 362:..\..\..\lvgl\version_6.1.2\lvgl\src\lv_objx/lv_win.c **** 
 363:..\..\..\lvgl\version_6.1.2\lvgl\src\lv_objx/lv_win.c **** /*=====================
 364:..\..\..\lvgl\version_6.1.2\lvgl\src\lv_objx/lv_win.c ****  * Getter functions
 365:..\..\..\lvgl\version_6.1.2\lvgl\src\lv_objx/lv_win.c ****  *====================*/
 366:..\..\..\lvgl\version_6.1.2\lvgl\src\lv_objx/lv_win.c **** 
 367:..\..\..\lvgl\version_6.1.2\lvgl\src\lv_objx/lv_win.c **** /**
 368:..\..\..\lvgl\version_6.1.2\lvgl\src\lv_objx/lv_win.c ****  * Get the title of a window
 369:..\..\..\lvgl\version_6.1.2\lvgl\src\lv_objx/lv_win.c ****  * @param win pointer to a window object
 370:..\..\..\lvgl\version_6.1.2\lvgl\src\lv_objx/lv_win.c ****  * @return title string of the window
 371:..\..\..\lvgl\version_6.1.2\lvgl\src\lv_objx/lv_win.c ****  */
 372:..\..\..\lvgl\version_6.1.2\lvgl\src\lv_objx/lv_win.c **** const char * lv_win_get_title(const lv_obj_t * win)
ARM GAS  C:\Users\pearlstl\AppData\Local\Temp\ccI2fBBa.s 			page 8


 373:..\..\..\lvgl\version_6.1.2\lvgl\src\lv_objx/lv_win.c **** {
 374:..\..\..\lvgl\version_6.1.2\lvgl\src\lv_objx/lv_win.c ****     LV_ASSERT_OBJ(win, LV_OBJX_NAME);
 375:..\..\..\lvgl\version_6.1.2\lvgl\src\lv_objx/lv_win.c **** 
 376:..\..\..\lvgl\version_6.1.2\lvgl\src\lv_objx/lv_win.c ****     lv_win_ext_t * ext = lv_obj_get_ext_attr(win);
 377:..\..\..\lvgl\version_6.1.2\lvgl\src\lv_objx/lv_win.c ****     return lv_label_get_text(ext->title);
 378:..\..\..\lvgl\version_6.1.2\lvgl\src\lv_objx/lv_win.c **** }
 379:..\..\..\lvgl\version_6.1.2\lvgl\src\lv_objx/lv_win.c **** 
 380:..\..\..\lvgl\version_6.1.2\lvgl\src\lv_objx/lv_win.c **** /**
 381:..\..\..\lvgl\version_6.1.2\lvgl\src\lv_objx/lv_win.c ****  * Get the content holder object of window (`lv_page`) to allow additional customization
 382:..\..\..\lvgl\version_6.1.2\lvgl\src\lv_objx/lv_win.c ****  * @param win pointer to a window object
 383:..\..\..\lvgl\version_6.1.2\lvgl\src\lv_objx/lv_win.c ****  * @return the Page object where the window's content is
 384:..\..\..\lvgl\version_6.1.2\lvgl\src\lv_objx/lv_win.c ****  */
 385:..\..\..\lvgl\version_6.1.2\lvgl\src\lv_objx/lv_win.c **** lv_obj_t * lv_win_get_content(const lv_obj_t * win)
 386:..\..\..\lvgl\version_6.1.2\lvgl\src\lv_objx/lv_win.c **** {
 387:..\..\..\lvgl\version_6.1.2\lvgl\src\lv_objx/lv_win.c ****     LV_ASSERT_OBJ(win, LV_OBJX_NAME);
 388:..\..\..\lvgl\version_6.1.2\lvgl\src\lv_objx/lv_win.c **** 
 389:..\..\..\lvgl\version_6.1.2\lvgl\src\lv_objx/lv_win.c ****     lv_win_ext_t * ext = lv_obj_get_ext_attr(win);
 390:..\..\..\lvgl\version_6.1.2\lvgl\src\lv_objx/lv_win.c ****     return ext->page;
 391:..\..\..\lvgl\version_6.1.2\lvgl\src\lv_objx/lv_win.c **** }
 392:..\..\..\lvgl\version_6.1.2\lvgl\src\lv_objx/lv_win.c **** 
 393:..\..\..\lvgl\version_6.1.2\lvgl\src\lv_objx/lv_win.c **** /**
 394:..\..\..\lvgl\version_6.1.2\lvgl\src\lv_objx/lv_win.c ****  * Get the control button size of a window
 395:..\..\..\lvgl\version_6.1.2\lvgl\src\lv_objx/lv_win.c ****  * @param win pointer to a window object
 396:..\..\..\lvgl\version_6.1.2\lvgl\src\lv_objx/lv_win.c ****  * @return control button size
 397:..\..\..\lvgl\version_6.1.2\lvgl\src\lv_objx/lv_win.c ****  */
 398:..\..\..\lvgl\version_6.1.2\lvgl\src\lv_objx/lv_win.c **** lv_coord_t lv_win_get_btn_size(const lv_obj_t * win)
 399:..\..\..\lvgl\version_6.1.2\lvgl\src\lv_objx/lv_win.c **** {
 400:..\..\..\lvgl\version_6.1.2\lvgl\src\lv_objx/lv_win.c ****     LV_ASSERT_OBJ(win, LV_OBJX_NAME);
 401:..\..\..\lvgl\version_6.1.2\lvgl\src\lv_objx/lv_win.c **** 
 402:..\..\..\lvgl\version_6.1.2\lvgl\src\lv_objx/lv_win.c ****     lv_win_ext_t * ext = lv_obj_get_ext_attr(win);
 403:..\..\..\lvgl\version_6.1.2\lvgl\src\lv_objx/lv_win.c ****     return ext->btn_size;
 404:..\..\..\lvgl\version_6.1.2\lvgl\src\lv_objx/lv_win.c **** }
 405:..\..\..\lvgl\version_6.1.2\lvgl\src\lv_objx/lv_win.c **** 
 406:..\..\..\lvgl\version_6.1.2\lvgl\src\lv_objx/lv_win.c **** /**
 407:..\..\..\lvgl\version_6.1.2\lvgl\src\lv_objx/lv_win.c ****  * Get the pointer of a widow from one of  its control button.
 408:..\..\..\lvgl\version_6.1.2\lvgl\src\lv_objx/lv_win.c ****  * It is useful in the action of the control buttons where only button is known.
 409:..\..\..\lvgl\version_6.1.2\lvgl\src\lv_objx/lv_win.c ****  * @param ctrl_btn pointer to a control button of a window
 410:..\..\..\lvgl\version_6.1.2\lvgl\src\lv_objx/lv_win.c ****  * @return pointer to the window of 'ctrl_btn'
 411:..\..\..\lvgl\version_6.1.2\lvgl\src\lv_objx/lv_win.c ****  */
 412:..\..\..\lvgl\version_6.1.2\lvgl\src\lv_objx/lv_win.c **** lv_obj_t * lv_win_get_from_btn(const lv_obj_t * ctrl_btn)
 413:..\..\..\lvgl\version_6.1.2\lvgl\src\lv_objx/lv_win.c **** {
 414:..\..\..\lvgl\version_6.1.2\lvgl\src\lv_objx/lv_win.c ****     LV_ASSERT_OBJ(ctrl_btn, "lv_btn");
 415:..\..\..\lvgl\version_6.1.2\lvgl\src\lv_objx/lv_win.c **** 
 416:..\..\..\lvgl\version_6.1.2\lvgl\src\lv_objx/lv_win.c ****     lv_obj_t * header = lv_obj_get_parent(ctrl_btn);
 417:..\..\..\lvgl\version_6.1.2\lvgl\src\lv_objx/lv_win.c ****     lv_obj_t * win    = lv_obj_get_parent(header);
 418:..\..\..\lvgl\version_6.1.2\lvgl\src\lv_objx/lv_win.c **** 
 419:..\..\..\lvgl\version_6.1.2\lvgl\src\lv_objx/lv_win.c ****     return win;
 420:..\..\..\lvgl\version_6.1.2\lvgl\src\lv_objx/lv_win.c **** }
 421:..\..\..\lvgl\version_6.1.2\lvgl\src\lv_objx/lv_win.c **** 
 422:..\..\..\lvgl\version_6.1.2\lvgl\src\lv_objx/lv_win.c **** /**
 423:..\..\..\lvgl\version_6.1.2\lvgl\src\lv_objx/lv_win.c ****  * Get the layout of a window
 424:..\..\..\lvgl\version_6.1.2\lvgl\src\lv_objx/lv_win.c ****  * @param win pointer to a window object
 425:..\..\..\lvgl\version_6.1.2\lvgl\src\lv_objx/lv_win.c ****  * @return the layout of the window (from 'lv_layout_t')
 426:..\..\..\lvgl\version_6.1.2\lvgl\src\lv_objx/lv_win.c ****  */
 427:..\..\..\lvgl\version_6.1.2\lvgl\src\lv_objx/lv_win.c **** lv_layout_t lv_win_get_layout(lv_obj_t * win)
 428:..\..\..\lvgl\version_6.1.2\lvgl\src\lv_objx/lv_win.c **** {
 429:..\..\..\lvgl\version_6.1.2\lvgl\src\lv_objx/lv_win.c ****     LV_ASSERT_OBJ(win, LV_OBJX_NAME);
ARM GAS  C:\Users\pearlstl\AppData\Local\Temp\ccI2fBBa.s 			page 9


 430:..\..\..\lvgl\version_6.1.2\lvgl\src\lv_objx/lv_win.c **** 
 431:..\..\..\lvgl\version_6.1.2\lvgl\src\lv_objx/lv_win.c ****     lv_win_ext_t * ext = lv_obj_get_ext_attr(win);
 432:..\..\..\lvgl\version_6.1.2\lvgl\src\lv_objx/lv_win.c ****     return lv_page_get_scrl_layout(ext->page);
 433:..\..\..\lvgl\version_6.1.2\lvgl\src\lv_objx/lv_win.c **** }
 434:..\..\..\lvgl\version_6.1.2\lvgl\src\lv_objx/lv_win.c **** 
 435:..\..\..\lvgl\version_6.1.2\lvgl\src\lv_objx/lv_win.c **** /**
 436:..\..\..\lvgl\version_6.1.2\lvgl\src\lv_objx/lv_win.c ****  * Get the scroll bar mode of a window
 437:..\..\..\lvgl\version_6.1.2\lvgl\src\lv_objx/lv_win.c ****  * @param win pointer to a window object
 438:..\..\..\lvgl\version_6.1.2\lvgl\src\lv_objx/lv_win.c ****  * @return the scroll bar mode of the window (from 'lv_sb_mode_t')
 439:..\..\..\lvgl\version_6.1.2\lvgl\src\lv_objx/lv_win.c ****  */
 440:..\..\..\lvgl\version_6.1.2\lvgl\src\lv_objx/lv_win.c **** lv_sb_mode_t lv_win_get_sb_mode(lv_obj_t * win)
 441:..\..\..\lvgl\version_6.1.2\lvgl\src\lv_objx/lv_win.c **** {
 442:..\..\..\lvgl\version_6.1.2\lvgl\src\lv_objx/lv_win.c ****     LV_ASSERT_OBJ(win, LV_OBJX_NAME);
 443:..\..\..\lvgl\version_6.1.2\lvgl\src\lv_objx/lv_win.c **** 
 444:..\..\..\lvgl\version_6.1.2\lvgl\src\lv_objx/lv_win.c ****     lv_win_ext_t * ext = lv_obj_get_ext_attr(win);
 445:..\..\..\lvgl\version_6.1.2\lvgl\src\lv_objx/lv_win.c ****     return lv_page_get_sb_mode(ext->page);
 446:..\..\..\lvgl\version_6.1.2\lvgl\src\lv_objx/lv_win.c **** }
 447:..\..\..\lvgl\version_6.1.2\lvgl\src\lv_objx/lv_win.c **** 
 448:..\..\..\lvgl\version_6.1.2\lvgl\src\lv_objx/lv_win.c **** /**
 449:..\..\..\lvgl\version_6.1.2\lvgl\src\lv_objx/lv_win.c ****  * Get focus animation duration
 450:..\..\..\lvgl\version_6.1.2\lvgl\src\lv_objx/lv_win.c ****  * @param win pointer to a window object
 451:..\..\..\lvgl\version_6.1.2\lvgl\src\lv_objx/lv_win.c ****  * @return duration of animation [ms]
 452:..\..\..\lvgl\version_6.1.2\lvgl\src\lv_objx/lv_win.c ****  */
 453:..\..\..\lvgl\version_6.1.2\lvgl\src\lv_objx/lv_win.c **** uint16_t lv_win_get_anim_time(const lv_obj_t * win)
 454:..\..\..\lvgl\version_6.1.2\lvgl\src\lv_objx/lv_win.c **** {
 455:..\..\..\lvgl\version_6.1.2\lvgl\src\lv_objx/lv_win.c ****     LV_ASSERT_OBJ(win, LV_OBJX_NAME);
 456:..\..\..\lvgl\version_6.1.2\lvgl\src\lv_objx/lv_win.c **** 
 457:..\..\..\lvgl\version_6.1.2\lvgl\src\lv_objx/lv_win.c ****     return lv_page_get_anim_time(lv_win_get_content(win));
 458:..\..\..\lvgl\version_6.1.2\lvgl\src\lv_objx/lv_win.c **** }
 459:..\..\..\lvgl\version_6.1.2\lvgl\src\lv_objx/lv_win.c **** 
 460:..\..\..\lvgl\version_6.1.2\lvgl\src\lv_objx/lv_win.c **** /**
 461:..\..\..\lvgl\version_6.1.2\lvgl\src\lv_objx/lv_win.c ****  * Get width of the content area (page scrollable) of the window
 462:..\..\..\lvgl\version_6.1.2\lvgl\src\lv_objx/lv_win.c ****  * @param win pointer to a window object
 463:..\..\..\lvgl\version_6.1.2\lvgl\src\lv_objx/lv_win.c ****  * @return the width of the content_bg area
 464:..\..\..\lvgl\version_6.1.2\lvgl\src\lv_objx/lv_win.c ****  */
 465:..\..\..\lvgl\version_6.1.2\lvgl\src\lv_objx/lv_win.c **** lv_coord_t lv_win_get_width(lv_obj_t * win)
 466:..\..\..\lvgl\version_6.1.2\lvgl\src\lv_objx/lv_win.c **** {
 467:..\..\..\lvgl\version_6.1.2\lvgl\src\lv_objx/lv_win.c ****     LV_ASSERT_OBJ(win, LV_OBJX_NAME);
 468:..\..\..\lvgl\version_6.1.2\lvgl\src\lv_objx/lv_win.c **** 
 469:..\..\..\lvgl\version_6.1.2\lvgl\src\lv_objx/lv_win.c ****     lv_win_ext_t * ext            = lv_obj_get_ext_attr(win);
 470:..\..\..\lvgl\version_6.1.2\lvgl\src\lv_objx/lv_win.c ****     lv_obj_t * scrl               = lv_page_get_scrl(ext->page);
 471:..\..\..\lvgl\version_6.1.2\lvgl\src\lv_objx/lv_win.c ****     const lv_style_t * style_scrl = lv_obj_get_style(scrl);
 472:..\..\..\lvgl\version_6.1.2\lvgl\src\lv_objx/lv_win.c **** 
 473:..\..\..\lvgl\version_6.1.2\lvgl\src\lv_objx/lv_win.c ****     return lv_obj_get_width(scrl) - style_scrl->body.padding.left - style_scrl->body.padding.right;
 474:..\..\..\lvgl\version_6.1.2\lvgl\src\lv_objx/lv_win.c **** }
 475:..\..\..\lvgl\version_6.1.2\lvgl\src\lv_objx/lv_win.c **** 
 476:..\..\..\lvgl\version_6.1.2\lvgl\src\lv_objx/lv_win.c **** /**
 477:..\..\..\lvgl\version_6.1.2\lvgl\src\lv_objx/lv_win.c ****  * Get a style of a window
 478:..\..\..\lvgl\version_6.1.2\lvgl\src\lv_objx/lv_win.c ****  * @param win pointer to a button object
 479:..\..\..\lvgl\version_6.1.2\lvgl\src\lv_objx/lv_win.c ****  * @param type which style window be get
 480:..\..\..\lvgl\version_6.1.2\lvgl\src\lv_objx/lv_win.c ****  * @return style pointer to a style
 481:..\..\..\lvgl\version_6.1.2\lvgl\src\lv_objx/lv_win.c ****  */
 482:..\..\..\lvgl\version_6.1.2\lvgl\src\lv_objx/lv_win.c **** const lv_style_t * lv_win_get_style(const lv_obj_t * win, lv_win_style_t type)
 483:..\..\..\lvgl\version_6.1.2\lvgl\src\lv_objx/lv_win.c **** {
 484:..\..\..\lvgl\version_6.1.2\lvgl\src\lv_objx/lv_win.c ****     LV_ASSERT_OBJ(win, LV_OBJX_NAME);
 485:..\..\..\lvgl\version_6.1.2\lvgl\src\lv_objx/lv_win.c **** 
 486:..\..\..\lvgl\version_6.1.2\lvgl\src\lv_objx/lv_win.c ****     const lv_style_t * style = NULL;
ARM GAS  C:\Users\pearlstl\AppData\Local\Temp\ccI2fBBa.s 			page 10


 487:..\..\..\lvgl\version_6.1.2\lvgl\src\lv_objx/lv_win.c ****     lv_win_ext_t * ext       = lv_obj_get_ext_attr(win);
 488:..\..\..\lvgl\version_6.1.2\lvgl\src\lv_objx/lv_win.c **** 
 489:..\..\..\lvgl\version_6.1.2\lvgl\src\lv_objx/lv_win.c ****     switch(type) {
 490:..\..\..\lvgl\version_6.1.2\lvgl\src\lv_objx/lv_win.c ****         case LV_WIN_STYLE_BG: style = lv_obj_get_style(win); break;
 491:..\..\..\lvgl\version_6.1.2\lvgl\src\lv_objx/lv_win.c ****         case LV_WIN_STYLE_CONTENT: style = lv_page_get_style(ext->page, LV_PAGE_STYLE_SCRL); break;
 492:..\..\..\lvgl\version_6.1.2\lvgl\src\lv_objx/lv_win.c ****         case LV_WIN_STYLE_SB: style = lv_page_get_style(ext->page, LV_PAGE_STYLE_SB); break;
 493:..\..\..\lvgl\version_6.1.2\lvgl\src\lv_objx/lv_win.c ****         case LV_WIN_STYLE_HEADER: style = lv_obj_get_style(ext->header); break;
 494:..\..\..\lvgl\version_6.1.2\lvgl\src\lv_objx/lv_win.c ****         case LV_WIN_STYLE_BTN_REL: style = ext->style_btn_rel; break;
 495:..\..\..\lvgl\version_6.1.2\lvgl\src\lv_objx/lv_win.c ****         case LV_WIN_STYLE_BTN_PR: style = ext->style_btn_pr; break;
 496:..\..\..\lvgl\version_6.1.2\lvgl\src\lv_objx/lv_win.c ****         default: style = NULL; break;
 497:..\..\..\lvgl\version_6.1.2\lvgl\src\lv_objx/lv_win.c ****     }
 498:..\..\..\lvgl\version_6.1.2\lvgl\src\lv_objx/lv_win.c **** 
 499:..\..\..\lvgl\version_6.1.2\lvgl\src\lv_objx/lv_win.c ****     return style;
 500:..\..\..\lvgl\version_6.1.2\lvgl\src\lv_objx/lv_win.c **** }
 501:..\..\..\lvgl\version_6.1.2\lvgl\src\lv_objx/lv_win.c **** 
 502:..\..\..\lvgl\version_6.1.2\lvgl\src\lv_objx/lv_win.c **** /*=====================
 503:..\..\..\lvgl\version_6.1.2\lvgl\src\lv_objx/lv_win.c ****  * Other functions
 504:..\..\..\lvgl\version_6.1.2\lvgl\src\lv_objx/lv_win.c ****  *====================*/
 505:..\..\..\lvgl\version_6.1.2\lvgl\src\lv_objx/lv_win.c **** 
 506:..\..\..\lvgl\version_6.1.2\lvgl\src\lv_objx/lv_win.c **** /**
 507:..\..\..\lvgl\version_6.1.2\lvgl\src\lv_objx/lv_win.c ****  * Focus on an object. It ensures that the object will be visible in the window.
 508:..\..\..\lvgl\version_6.1.2\lvgl\src\lv_objx/lv_win.c ****  * @param win pointer to a window object
 509:..\..\..\lvgl\version_6.1.2\lvgl\src\lv_objx/lv_win.c ****  * @param obj pointer to an object to focus (must be in the window)
 510:..\..\..\lvgl\version_6.1.2\lvgl\src\lv_objx/lv_win.c ****  * @param anim_en LV_ANIM_ON focus with an animation; LV_ANIM_OFF focus without animation
 511:..\..\..\lvgl\version_6.1.2\lvgl\src\lv_objx/lv_win.c ****  */
 512:..\..\..\lvgl\version_6.1.2\lvgl\src\lv_objx/lv_win.c **** void lv_win_focus(lv_obj_t * win, lv_obj_t * obj, lv_anim_enable_t anim_en)
 513:..\..\..\lvgl\version_6.1.2\lvgl\src\lv_objx/lv_win.c **** {
 514:..\..\..\lvgl\version_6.1.2\lvgl\src\lv_objx/lv_win.c ****     LV_ASSERT_OBJ(win, LV_OBJX_NAME);
 515:..\..\..\lvgl\version_6.1.2\lvgl\src\lv_objx/lv_win.c ****     LV_ASSERT_OBJ(obj, "");
 516:..\..\..\lvgl\version_6.1.2\lvgl\src\lv_objx/lv_win.c **** 
 517:..\..\..\lvgl\version_6.1.2\lvgl\src\lv_objx/lv_win.c **** 
 518:..\..\..\lvgl\version_6.1.2\lvgl\src\lv_objx/lv_win.c ****     lv_win_ext_t * ext = lv_obj_get_ext_attr(win);
 519:..\..\..\lvgl\version_6.1.2\lvgl\src\lv_objx/lv_win.c ****     lv_page_focus(ext->page, obj, anim_en);
 520:..\..\..\lvgl\version_6.1.2\lvgl\src\lv_objx/lv_win.c **** }
 521:..\..\..\lvgl\version_6.1.2\lvgl\src\lv_objx/lv_win.c **** 
 522:..\..\..\lvgl\version_6.1.2\lvgl\src\lv_objx/lv_win.c **** /**********************
 523:..\..\..\lvgl\version_6.1.2\lvgl\src\lv_objx/lv_win.c ****  *   STATIC FUNCTIONS
 524:..\..\..\lvgl\version_6.1.2\lvgl\src\lv_objx/lv_win.c ****  **********************/
 525:..\..\..\lvgl\version_6.1.2\lvgl\src\lv_objx/lv_win.c **** 
 526:..\..\..\lvgl\version_6.1.2\lvgl\src\lv_objx/lv_win.c **** /**
 527:..\..\..\lvgl\version_6.1.2\lvgl\src\lv_objx/lv_win.c ****  * Signal function of the window
 528:..\..\..\lvgl\version_6.1.2\lvgl\src\lv_objx/lv_win.c ****  * @param win pointer to a window object
 529:..\..\..\lvgl\version_6.1.2\lvgl\src\lv_objx/lv_win.c ****  * @param sign a signal type from lv_signal_t enum
 530:..\..\..\lvgl\version_6.1.2\lvgl\src\lv_objx/lv_win.c ****  * @param param pointer to a signal specific variable
 531:..\..\..\lvgl\version_6.1.2\lvgl\src\lv_objx/lv_win.c ****  * @return LV_RES_OK: the object is not deleted in the function; LV_RES_INV: the object is deleted
 532:..\..\..\lvgl\version_6.1.2\lvgl\src\lv_objx/lv_win.c ****  */
 533:..\..\..\lvgl\version_6.1.2\lvgl\src\lv_objx/lv_win.c **** static lv_res_t lv_win_signal(lv_obj_t * win, lv_signal_t sign, void * param)
 534:..\..\..\lvgl\version_6.1.2\lvgl\src\lv_objx/lv_win.c **** {
 535:..\..\..\lvgl\version_6.1.2\lvgl\src\lv_objx/lv_win.c ****     lv_res_t res;
 536:..\..\..\lvgl\version_6.1.2\lvgl\src\lv_objx/lv_win.c **** 
 537:..\..\..\lvgl\version_6.1.2\lvgl\src\lv_objx/lv_win.c ****     /* Include the ancient signal function */
 538:..\..\..\lvgl\version_6.1.2\lvgl\src\lv_objx/lv_win.c ****     res = ancestor_signal(win, sign, param);
 539:..\..\..\lvgl\version_6.1.2\lvgl\src\lv_objx/lv_win.c ****     if(res != LV_RES_OK) return res;
 540:..\..\..\lvgl\version_6.1.2\lvgl\src\lv_objx/lv_win.c ****     if(sign == LV_SIGNAL_GET_TYPE) return lv_obj_handle_get_type_signal(param, LV_OBJX_NAME);
 541:..\..\..\lvgl\version_6.1.2\lvgl\src\lv_objx/lv_win.c **** 
 542:..\..\..\lvgl\version_6.1.2\lvgl\src\lv_objx/lv_win.c ****     lv_win_ext_t * ext = lv_obj_get_ext_attr(win);
 543:..\..\..\lvgl\version_6.1.2\lvgl\src\lv_objx/lv_win.c ****     if(sign == LV_SIGNAL_CHILD_CHG) { /*Move children to the page*/
ARM GAS  C:\Users\pearlstl\AppData\Local\Temp\ccI2fBBa.s 			page 11


 544:..\..\..\lvgl\version_6.1.2\lvgl\src\lv_objx/lv_win.c ****         lv_obj_t * page = ext->page;
 545:..\..\..\lvgl\version_6.1.2\lvgl\src\lv_objx/lv_win.c ****         if(page != NULL) {
 546:..\..\..\lvgl\version_6.1.2\lvgl\src\lv_objx/lv_win.c ****             lv_obj_t * child;
 547:..\..\..\lvgl\version_6.1.2\lvgl\src\lv_objx/lv_win.c ****             child = lv_obj_get_child(win, NULL);
 548:..\..\..\lvgl\version_6.1.2\lvgl\src\lv_objx/lv_win.c ****             while(child != NULL) {
 549:..\..\..\lvgl\version_6.1.2\lvgl\src\lv_objx/lv_win.c ****                 if(lv_obj_is_protected(child, LV_PROTECT_PARENT) == false) {
 550:..\..\..\lvgl\version_6.1.2\lvgl\src\lv_objx/lv_win.c ****                     lv_obj_t * tmp = child;
 551:..\..\..\lvgl\version_6.1.2\lvgl\src\lv_objx/lv_win.c ****                     child          = lv_obj_get_child(win, child); /*Get the next child before move
 552:..\..\..\lvgl\version_6.1.2\lvgl\src\lv_objx/lv_win.c ****                     lv_obj_set_parent(tmp, page);
 553:..\..\..\lvgl\version_6.1.2\lvgl\src\lv_objx/lv_win.c ****                 } else {
 554:..\..\..\lvgl\version_6.1.2\lvgl\src\lv_objx/lv_win.c ****                     child = lv_obj_get_child(win, child);
 555:..\..\..\lvgl\version_6.1.2\lvgl\src\lv_objx/lv_win.c ****                 }
 556:..\..\..\lvgl\version_6.1.2\lvgl\src\lv_objx/lv_win.c ****             }
 557:..\..\..\lvgl\version_6.1.2\lvgl\src\lv_objx/lv_win.c ****         }
 558:..\..\..\lvgl\version_6.1.2\lvgl\src\lv_objx/lv_win.c ****     } else if(sign == LV_SIGNAL_STYLE_CHG) {
 559:..\..\..\lvgl\version_6.1.2\lvgl\src\lv_objx/lv_win.c ****         lv_win_realign(win);
 560:..\..\..\lvgl\version_6.1.2\lvgl\src\lv_objx/lv_win.c ****     } else if(sign == LV_SIGNAL_CORD_CHG) {
 561:..\..\..\lvgl\version_6.1.2\lvgl\src\lv_objx/lv_win.c ****         /*If the size is changed refresh the window*/
 562:..\..\..\lvgl\version_6.1.2\lvgl\src\lv_objx/lv_win.c ****         if(lv_area_get_width(param) != lv_obj_get_width(win) || lv_area_get_height(param) != lv_obj
 563:..\..\..\lvgl\version_6.1.2\lvgl\src\lv_objx/lv_win.c ****             lv_win_realign(win);
 564:..\..\..\lvgl\version_6.1.2\lvgl\src\lv_objx/lv_win.c ****         }
 565:..\..\..\lvgl\version_6.1.2\lvgl\src\lv_objx/lv_win.c ****     } else if(sign == LV_SIGNAL_CLEANUP) {
 566:..\..\..\lvgl\version_6.1.2\lvgl\src\lv_objx/lv_win.c ****         ext->header = NULL; /*These objects were children so they are already invalid*/
 567:..\..\..\lvgl\version_6.1.2\lvgl\src\lv_objx/lv_win.c ****         ext->page   = NULL;
 568:..\..\..\lvgl\version_6.1.2\lvgl\src\lv_objx/lv_win.c ****         ext->title  = NULL;
 569:..\..\..\lvgl\version_6.1.2\lvgl\src\lv_objx/lv_win.c ****     } else if(sign == LV_SIGNAL_CONTROL) {
 570:..\..\..\lvgl\version_6.1.2\lvgl\src\lv_objx/lv_win.c ****         /*Forward all the control signals to the page*/
 571:..\..\..\lvgl\version_6.1.2\lvgl\src\lv_objx/lv_win.c ****         ext->page->signal_cb(ext->page, sign, param);
 572:..\..\..\lvgl\version_6.1.2\lvgl\src\lv_objx/lv_win.c ****     }
 573:..\..\..\lvgl\version_6.1.2\lvgl\src\lv_objx/lv_win.c **** 
 574:..\..\..\lvgl\version_6.1.2\lvgl\src\lv_objx/lv_win.c ****     return res;
 575:..\..\..\lvgl\version_6.1.2\lvgl\src\lv_objx/lv_win.c **** }
 576:..\..\..\lvgl\version_6.1.2\lvgl\src\lv_objx/lv_win.c **** 
 577:..\..\..\lvgl\version_6.1.2\lvgl\src\lv_objx/lv_win.c **** /**
 578:..\..\..\lvgl\version_6.1.2\lvgl\src\lv_objx/lv_win.c ****  * Realign the building elements of a window
 579:..\..\..\lvgl\version_6.1.2\lvgl\src\lv_objx/lv_win.c ****  * @param win pointer to window objectker
 580:..\..\..\lvgl\version_6.1.2\lvgl\src\lv_objx/lv_win.c ****  */
 581:..\..\..\lvgl\version_6.1.2\lvgl\src\lv_objx/lv_win.c **** static void lv_win_realign(lv_obj_t * win)
 582:..\..\..\lvgl\version_6.1.2\lvgl\src\lv_objx/lv_win.c **** {
  28              		.loc 1 582 0
  29              		.cfi_startproc
  30              		@ args = 0, pretend = 0, frame = 0
  31              		@ frame_needed = 0, uses_anonymous_args = 0
  32              	.LVL0:
  33 0000 2DE9F047 		push	{r4, r5, r6, r7, r8, r9, r10, lr}
  34              		.cfi_def_cfa_offset 32
  35              		.cfi_offset 4, -32
  36              		.cfi_offset 5, -28
  37              		.cfi_offset 6, -24
  38              		.cfi_offset 7, -20
  39              		.cfi_offset 8, -16
  40              		.cfi_offset 9, -12
  41              		.cfi_offset 10, -8
  42              		.cfi_offset 14, -4
  43 0004 82B0     		sub	sp, sp, #8
  44              		.cfi_def_cfa_offset 40
  45              		.loc 1 582 0
ARM GAS  C:\Users\pearlstl\AppData\Local\Temp\ccI2fBBa.s 			page 12


  46 0006 8146     		mov	r9, r0
 583:..\..\..\lvgl\version_6.1.2\lvgl\src\lv_objx/lv_win.c ****     lv_win_ext_t * ext = lv_obj_get_ext_attr(win);
  47              		.loc 1 583 0
  48 0008 FFF7FEFF 		bl	lv_obj_get_ext_attr
  49              	.LVL1:
 584:..\..\..\lvgl\version_6.1.2\lvgl\src\lv_objx/lv_win.c **** 
 585:..\..\..\lvgl\version_6.1.2\lvgl\src\lv_objx/lv_win.c ****     if(ext->page == NULL || ext->header == NULL || ext->title == NULL) return;
  50              		.loc 1 585 0
  51 000c 0368     		ldr	r3, [r0]
  52 000e 002B     		cmp	r3, #0
  53 0010 7ED0     		beq	.L1
  54              		.loc 1 585 0 is_stmt 0 discriminator 1
  55 0012 4368     		ldr	r3, [r0, #4]
  56 0014 0546     		mov	r5, r0
  57 0016 002B     		cmp	r3, #0
  58 0018 7AD0     		beq	.L1
  59              		.loc 1 585 0 discriminator 2
  60 001a 8368     		ldr	r3, [r0, #8]
  61 001c 002B     		cmp	r3, #0
  62 001e 77D0     		beq	.L1
  63              	.LVL2:
  64              	.LBB24:
  65              	.LBB25:
 487:..\..\..\lvgl\version_6.1.2\lvgl\src\lv_objx/lv_win.c **** 
  66              		.loc 1 487 0 is_stmt 1
  67 0020 4846     		mov	r0, r9
  68              	.LVL3:
  69 0022 FFF7FEFF 		bl	lv_obj_get_ext_attr
  70              	.LVL4:
 493:..\..\..\lvgl\version_6.1.2\lvgl\src\lv_objx/lv_win.c ****         case LV_WIN_STYLE_BTN_REL: style = ext->style_btn_rel; break;
  71              		.loc 1 493 0
  72 0026 4068     		ldr	r0, [r0, #4]
  73              	.LVL5:
  74 0028 FFF7FEFF 		bl	lv_obj_get_style
  75              	.LVL6:
  76 002c 8046     		mov	r8, r0
  77              	.LVL7:
  78              	.LBE25:
  79              	.LBE24:
 586:..\..\..\lvgl\version_6.1.2\lvgl\src\lv_objx/lv_win.c **** 
 587:..\..\..\lvgl\version_6.1.2\lvgl\src\lv_objx/lv_win.c ****     const lv_style_t * header_style = lv_win_get_style(win, LV_WIN_STYLE_HEADER);
 588:..\..\..\lvgl\version_6.1.2\lvgl\src\lv_objx/lv_win.c ****     lv_obj_set_size(ext->header, lv_obj_get_width(win),
  80              		.loc 1 588 0
  81 002e 4846     		mov	r0, r9
  82 0030 6C68     		ldr	r4, [r5, #4]
  83 0032 FFF7FEFF 		bl	lv_obj_get_width
  84              	.LVL8:
  85 0036 A98A     		ldrh	r1, [r5, #20]
  86 0038 B8F82020 		ldrh	r2, [r8, #32]
  87 003c B8F82230 		ldrh	r3, [r8, #34]
  88 0040 0A44     		add	r2, r2, r1
  89 0042 1A44     		add	r2, r2, r3
  90 0044 0146     		mov	r1, r0
  91 0046 12B2     		sxth	r2, r2
  92 0048 2046     		mov	r0, r4
  93 004a FFF7FEFF 		bl	lv_obj_set_size
  94              	.LVL9:
ARM GAS  C:\Users\pearlstl\AppData\Local\Temp\ccI2fBBa.s 			page 13


 589:..\..\..\lvgl\version_6.1.2\lvgl\src\lv_objx/lv_win.c ****                     ext->btn_size + header_style->body.padding.top + header_style->body.padding.bot
 590:..\..\..\lvgl\version_6.1.2\lvgl\src\lv_objx/lv_win.c **** 
 591:..\..\..\lvgl\version_6.1.2\lvgl\src\lv_objx/lv_win.c ****     bool first_btn = true;
 592:..\..\..\lvgl\version_6.1.2\lvgl\src\lv_objx/lv_win.c ****     lv_obj_t * btn;
 593:..\..\..\lvgl\version_6.1.2\lvgl\src\lv_objx/lv_win.c ****     lv_obj_t * btn_prev = NULL;
 594:..\..\..\lvgl\version_6.1.2\lvgl\src\lv_objx/lv_win.c ****     /*Refresh the size of all control buttons*/
 595:..\..\..\lvgl\version_6.1.2\lvgl\src\lv_objx/lv_win.c ****     btn = lv_obj_get_child_back(ext->header, NULL);
  95              		.loc 1 595 0
  96 004e 0021     		movs	r1, #0
  97 0050 6868     		ldr	r0, [r5, #4]
  98 0052 FFF7FEFF 		bl	lv_obj_get_child_back
  99              	.LVL10:
 596:..\..\..\lvgl\version_6.1.2\lvgl\src\lv_objx/lv_win.c ****     btn = lv_obj_get_child_back(ext->header, btn); /*Skip the title*/
 100              		.loc 1 596 0
 101 0056 0146     		mov	r1, r0
 102 0058 6868     		ldr	r0, [r5, #4]
 103              	.LVL11:
 104 005a FFF7FEFF 		bl	lv_obj_get_child_back
 105              	.LVL12:
 597:..\..\..\lvgl\version_6.1.2\lvgl\src\lv_objx/lv_win.c ****     while(btn != NULL) {
 106              		.loc 1 597 0
 107 005e 0446     		mov	r4, r0
 108 0060 40B3     		cbz	r0, .L7
 109 0062 0027     		movs	r7, #0
 598:..\..\..\lvgl\version_6.1.2\lvgl\src\lv_objx/lv_win.c ****         lv_obj_set_size(btn, ext->btn_size, ext->btn_size);
 599:..\..\..\lvgl\version_6.1.2\lvgl\src\lv_objx/lv_win.c ****         if(first_btn) {
 600:..\..\..\lvgl\version_6.1.2\lvgl\src\lv_objx/lv_win.c ****             lv_obj_align(btn, ext->header, LV_ALIGN_IN_RIGHT_MID, -header_style->body.padding.right
 110              		.loc 1 600 0
 111 0064 BA46     		mov	r10, r7
 597:..\..\..\lvgl\version_6.1.2\lvgl\src\lv_objx/lv_win.c ****     while(btn != NULL) {
 112              		.loc 1 597 0
 113 0066 0126     		movs	r6, #1
 114 0068 10E0     		b	.L6
 115              	.LVL13:
 116              	.L20:
 117              		.loc 1 600 0
 118 006a B8F82630 		ldrh	r3, [r8, #38]
 119 006e 6968     		ldr	r1, [r5, #4]
 120 0070 CDF800A0 		str	r10, [sp]
 121 0074 5B42     		negs	r3, r3
 122 0076 1BB2     		sxth	r3, r3
 123 0078 FFF7FEFF 		bl	lv_obj_align
 124              	.LVL14:
 125              	.L5:
 601:..\..\..\lvgl\version_6.1.2\lvgl\src\lv_objx/lv_win.c ****             first_btn = false;
 602:..\..\..\lvgl\version_6.1.2\lvgl\src\lv_objx/lv_win.c ****         } else {
 603:..\..\..\lvgl\version_6.1.2\lvgl\src\lv_objx/lv_win.c ****             lv_obj_align(btn, btn_prev, LV_ALIGN_OUT_LEFT_MID, -header_style->body.padding.inner, 0
 604:..\..\..\lvgl\version_6.1.2\lvgl\src\lv_objx/lv_win.c ****         }
 605:..\..\..\lvgl\version_6.1.2\lvgl\src\lv_objx/lv_win.c ****         btn_prev = btn;
 606:..\..\..\lvgl\version_6.1.2\lvgl\src\lv_objx/lv_win.c ****         btn      = lv_obj_get_child_back(ext->header, btn);
 126              		.loc 1 606 0
 127 007c 2146     		mov	r1, r4
 128 007e 6868     		ldr	r0, [r5, #4]
 129 0080 FFF7FEFF 		bl	lv_obj_get_child_back
 130              	.LVL15:
 131 0084 2746     		mov	r7, r4
 132 0086 0026     		movs	r6, #0
ARM GAS  C:\Users\pearlstl\AppData\Local\Temp\ccI2fBBa.s 			page 14


 597:..\..\..\lvgl\version_6.1.2\lvgl\src\lv_objx/lv_win.c ****         lv_obj_set_size(btn, ext->btn_size, ext->btn_size);
 133              		.loc 1 597 0
 134 0088 A0B1     		cbz	r0, .L7
 135 008a 0446     		mov	r4, r0
 136              	.LVL16:
 137              	.L6:
 598:..\..\..\lvgl\version_6.1.2\lvgl\src\lv_objx/lv_win.c ****         lv_obj_set_size(btn, ext->btn_size, ext->btn_size);
 138              		.loc 1 598 0
 139 008c B5F91420 		ldrsh	r2, [r5, #20]
 140 0090 2046     		mov	r0, r4
 141 0092 1146     		mov	r1, r2
 142 0094 FFF7FEFF 		bl	lv_obj_set_size
 143              	.LVL17:
 603:..\..\..\lvgl\version_6.1.2\lvgl\src\lv_objx/lv_win.c ****         }
 144              		.loc 1 603 0
 145 0098 3946     		mov	r1, r7
 146 009a 2046     		mov	r0, r4
 600:..\..\..\lvgl\version_6.1.2\lvgl\src\lv_objx/lv_win.c ****             first_btn = false;
 147              		.loc 1 600 0
 148 009c 0822     		movs	r2, #8
 599:..\..\..\lvgl\version_6.1.2\lvgl\src\lv_objx/lv_win.c ****             lv_obj_align(btn, ext->header, LV_ALIGN_IN_RIGHT_MID, -header_style->body.padding.right
 149              		.loc 1 599 0
 150 009e 002E     		cmp	r6, #0
 151 00a0 E3D1     		bne	.L20
 152              	.LVL18:
 603:..\..\..\lvgl\version_6.1.2\lvgl\src\lv_objx/lv_win.c ****         }
 153              		.loc 1 603 0
 154 00a2 B8F82830 		ldrh	r3, [r8, #40]
 155 00a6 0096     		str	r6, [sp]
 156 00a8 5B42     		negs	r3, r3
 157 00aa 1BB2     		sxth	r3, r3
 158 00ac 1022     		movs	r2, #16
 159 00ae FFF7FEFF 		bl	lv_obj_align
 160              	.LVL19:
 161 00b2 E3E7     		b	.L5
 162              	.LVL20:
 163              	.L7:
 164              	.LBB26:
 165              	.LBB27:
 487:..\..\..\lvgl\version_6.1.2\lvgl\src\lv_objx/lv_win.c **** 
 166              		.loc 1 487 0
 167 00b4 4846     		mov	r0, r9
 168              	.LVL21:
 169 00b6 FFF7FEFF 		bl	lv_obj_get_ext_attr
 170              	.LVL22:
 493:..\..\..\lvgl\version_6.1.2\lvgl\src\lv_objx/lv_win.c ****         case LV_WIN_STYLE_BTN_REL: style = ext->style_btn_rel; break;
 171              		.loc 1 493 0
 172 00ba 4068     		ldr	r0, [r0, #4]
 173              	.LVL23:
 174 00bc FFF7FEFF 		bl	lv_obj_get_style
 175              	.LVL24:
 176              	.LBE27:
 177              	.LBE26:
 607:..\..\..\lvgl\version_6.1.2\lvgl\src\lv_objx/lv_win.c ****     }
 608:..\..\..\lvgl\version_6.1.2\lvgl\src\lv_objx/lv_win.c **** 
 609:..\..\..\lvgl\version_6.1.2\lvgl\src\lv_objx/lv_win.c ****     const lv_style_t * style_header = lv_win_get_style(win, LV_WIN_STYLE_HEADER);
 610:..\..\..\lvgl\version_6.1.2\lvgl\src\lv_objx/lv_win.c ****     lv_obj_align(ext->title, NULL, LV_ALIGN_IN_LEFT_MID, style_header->body.padding.left, 0);
ARM GAS  C:\Users\pearlstl\AppData\Local\Temp\ccI2fBBa.s 			page 15


 178              		.loc 1 610 0
 179 00c0 AA68     		ldr	r2, [r5, #8]
 180 00c2 B0F92430 		ldrsh	r3, [r0, #36]
 181 00c6 0024     		movs	r4, #0
 182 00c8 1046     		mov	r0, r2
 183 00ca 2146     		mov	r1, r4
 184 00cc 0722     		movs	r2, #7
 185 00ce 0094     		str	r4, [sp]
 186 00d0 FFF7FEFF 		bl	lv_obj_align
 187              	.LVL25:
 611:..\..\..\lvgl\version_6.1.2\lvgl\src\lv_objx/lv_win.c **** 
 612:..\..\..\lvgl\version_6.1.2\lvgl\src\lv_objx/lv_win.c ****     lv_obj_set_pos(ext->header, 0, 0);
 188              		.loc 1 612 0
 189 00d4 2246     		mov	r2, r4
 190 00d6 2146     		mov	r1, r4
 191 00d8 6868     		ldr	r0, [r5, #4]
 192 00da FFF7FEFF 		bl	lv_obj_set_pos
 193              	.LVL26:
 613:..\..\..\lvgl\version_6.1.2\lvgl\src\lv_objx/lv_win.c **** 
 614:..\..\..\lvgl\version_6.1.2\lvgl\src\lv_objx/lv_win.c ****     lv_obj_set_size(ext->page, lv_obj_get_width(win), lv_obj_get_height(win) - lv_obj_get_height(ex
 194              		.loc 1 614 0
 195 00de 4846     		mov	r0, r9
 196 00e0 2F68     		ldr	r7, [r5]
 197 00e2 FFF7FEFF 		bl	lv_obj_get_width
 198              	.LVL27:
 199 00e6 8046     		mov	r8, r0
 200 00e8 4846     		mov	r0, r9
 201 00ea FFF7FEFF 		bl	lv_obj_get_height
 202              	.LVL28:
 203 00ee 0646     		mov	r6, r0
 204 00f0 6868     		ldr	r0, [r5, #4]
 205 00f2 FFF7FEFF 		bl	lv_obj_get_height
 206              	.LVL29:
 207 00f6 321A     		subs	r2, r6, r0
 208 00f8 12B2     		sxth	r2, r2
 209 00fa 4146     		mov	r1, r8
 210 00fc 3846     		mov	r0, r7
 211 00fe FFF7FEFF 		bl	lv_obj_set_size
 212              	.LVL30:
 615:..\..\..\lvgl\version_6.1.2\lvgl\src\lv_objx/lv_win.c ****     lv_obj_align(ext->page, ext->header, LV_ALIGN_OUT_BOTTOM_LEFT, 0, 0);
 213              		.loc 1 615 0
 214 0102 95E80300 		ldmia	r5, {r0, r1}
 215 0106 2346     		mov	r3, r4
 216 0108 0094     		str	r4, [sp]
 217 010a 0C22     		movs	r2, #12
 218 010c FFF7FEFF 		bl	lv_obj_align
 219              	.LVL31:
 220              	.L1:
 616:..\..\..\lvgl\version_6.1.2\lvgl\src\lv_objx/lv_win.c **** }
 221              		.loc 1 616 0
 222 0110 02B0     		add	sp, sp, #8
 223              		.cfi_def_cfa_offset 32
 224              		@ sp needed
 225 0112 BDE8F087 		pop	{r4, r5, r6, r7, r8, r9, r10, pc}
 226              		.cfi_endproc
 227              	.LFE91:
 228              		.size	lv_win_realign, .-lv_win_realign
ARM GAS  C:\Users\pearlstl\AppData\Local\Temp\ccI2fBBa.s 			page 16


 229 0116 00BF     		.section	.text.lv_win_signal,"ax",%progbits
 230              		.align	2
 231              		.thumb
 232              		.thumb_func
 233              		.type	lv_win_signal, %function
 234              	lv_win_signal:
 235              	.LFB90:
 534:..\..\..\lvgl\version_6.1.2\lvgl\src\lv_objx/lv_win.c ****     lv_res_t res;
 236              		.loc 1 534 0
 237              		.cfi_startproc
 238              		@ args = 0, pretend = 0, frame = 0
 239              		@ frame_needed = 0, uses_anonymous_args = 0
 240              	.LVL32:
 241 0000 F8B5     		push	{r3, r4, r5, r6, r7, lr}
 242              		.cfi_def_cfa_offset 24
 243              		.cfi_offset 3, -24
 244              		.cfi_offset 4, -20
 245              		.cfi_offset 5, -16
 246              		.cfi_offset 6, -12
 247              		.cfi_offset 7, -8
 248              		.cfi_offset 14, -4
 538:..\..\..\lvgl\version_6.1.2\lvgl\src\lv_objx/lv_win.c ****     if(res != LV_RES_OK) return res;
 249              		.loc 1 538 0
 250 0002 324B     		ldr	r3, .L50
 251 0004 1B68     		ldr	r3, [r3]
 534:..\..\..\lvgl\version_6.1.2\lvgl\src\lv_objx/lv_win.c ****     lv_res_t res;
 252              		.loc 1 534 0
 253 0006 0646     		mov	r6, r0
 254 0008 0D46     		mov	r5, r1
 255 000a 1746     		mov	r7, r2
 538:..\..\..\lvgl\version_6.1.2\lvgl\src\lv_objx/lv_win.c ****     if(res != LV_RES_OK) return res;
 256              		.loc 1 538 0
 257 000c 9847     		blx	r3
 258              	.LVL33:
 539:..\..\..\lvgl\version_6.1.2\lvgl\src\lv_objx/lv_win.c ****     if(sign == LV_SIGNAL_GET_TYPE) return lv_obj_handle_get_type_signal(param, LV_OBJX_NAME);
 259              		.loc 1 539 0
 260 000e 0128     		cmp	r0, #1
 538:..\..\..\lvgl\version_6.1.2\lvgl\src\lv_objx/lv_win.c ****     if(res != LV_RES_OK) return res;
 261              		.loc 1 538 0
 262 0010 0446     		mov	r4, r0
 263              	.LVL34:
 539:..\..\..\lvgl\version_6.1.2\lvgl\src\lv_objx/lv_win.c ****     if(sign == LV_SIGNAL_GET_TYPE) return lv_obj_handle_get_type_signal(param, LV_OBJX_NAME);
 264              		.loc 1 539 0
 265 0012 00D0     		beq	.L44
 575:..\..\..\lvgl\version_6.1.2\lvgl\src\lv_objx/lv_win.c **** 
 266              		.loc 1 575 0
 267 0014 F8BD     		pop	{r3, r4, r5, r6, r7, pc}
 268              	.LVL35:
 269              	.L44:
 540:..\..\..\lvgl\version_6.1.2\lvgl\src\lv_objx/lv_win.c **** 
 270              		.loc 1 540 0
 271 0016 072D     		cmp	r5, #7
 272 0018 2DD0     		beq	.L45
 542:..\..\..\lvgl\version_6.1.2\lvgl\src\lv_objx/lv_win.c ****     if(sign == LV_SIGNAL_CHILD_CHG) { /*Move children to the page*/
 273              		.loc 1 542 0
 274 001a 3046     		mov	r0, r6
 275              	.LVL36:
ARM GAS  C:\Users\pearlstl\AppData\Local\Temp\ccI2fBBa.s 			page 17


 276 001c FFF7FEFF 		bl	lv_obj_get_ext_attr
 277              	.LVL37:
 543:..\..\..\lvgl\version_6.1.2\lvgl\src\lv_objx/lv_win.c ****         lv_obj_t * page = ext->page;
 278              		.loc 1 543 0
 279 0020 012D     		cmp	r5, #1
 280 0022 08D0     		beq	.L46
 558:..\..\..\lvgl\version_6.1.2\lvgl\src\lv_objx/lv_win.c ****         lv_win_realign(win);
 281              		.loc 1 558 0
 282 0024 042D     		cmp	r5, #4
 283 0026 45D0     		beq	.L33
 560:..\..\..\lvgl\version_6.1.2\lvgl\src\lv_objx/lv_win.c ****         /*If the size is changed refresh the window*/
 284              		.loc 1 560 0
 285 0028 022D     		cmp	r5, #2
 286 002a 2FD0     		beq	.L47
 565:..\..\..\lvgl\version_6.1.2\lvgl\src\lv_objx/lv_win.c ****         ext->header = NULL; /*These objects were children so they are already invalid*/
 287              		.loc 1 565 0
 288 002c 4DB3     		cbz	r5, .L48
 569:..\..\..\lvgl\version_6.1.2\lvgl\src\lv_objx/lv_win.c ****         /*Forward all the control signals to the page*/
 289              		.loc 1 569 0
 290 002e 122D     		cmp	r5, #18
 291 0030 44D0     		beq	.L49
 292              	.LVL38:
 293              	.L43:
 294 0032 0120     		movs	r0, #1
 295 0034 F8BD     		pop	{r3, r4, r5, r6, r7, pc}
 296              	.LVL39:
 297              	.L46:
 298              	.LBB28:
 544:..\..\..\lvgl\version_6.1.2\lvgl\src\lv_objx/lv_win.c ****         if(page != NULL) {
 299              		.loc 1 544 0
 300 0036 0768     		ldr	r7, [r0]
 301              	.LVL40:
 545:..\..\..\lvgl\version_6.1.2\lvgl\src\lv_objx/lv_win.c ****             lv_obj_t * child;
 302              		.loc 1 545 0
 303 0038 002F     		cmp	r7, #0
 304 003a FAD0     		beq	.L43
 305              	.LBB29:
 547:..\..\..\lvgl\version_6.1.2\lvgl\src\lv_objx/lv_win.c ****             while(child != NULL) {
 306              		.loc 1 547 0
 307 003c 0021     		movs	r1, #0
 308 003e 3046     		mov	r0, r6
 309              	.LVL41:
 310 0040 FFF7FEFF 		bl	lv_obj_get_child
 311              	.LVL42:
 548:..\..\..\lvgl\version_6.1.2\lvgl\src\lv_objx/lv_win.c ****                 if(lv_obj_is_protected(child, LV_PROTECT_PARENT) == false) {
 312              		.loc 1 548 0
 313 0044 0446     		mov	r4, r0
 314              	.LVL43:
 315              	.L42:
 316 0046 002C     		cmp	r4, #0
 317 0048 F3D0     		beq	.L43
 549:..\..\..\lvgl\version_6.1.2\lvgl\src\lv_objx/lv_win.c ****                     lv_obj_t * tmp = child;
 318              		.loc 1 549 0
 319 004a 0221     		movs	r1, #2
 320 004c 2046     		mov	r0, r4
 321 004e FFF7FEFF 		bl	lv_obj_is_protected
 322              	.LVL44:
ARM GAS  C:\Users\pearlstl\AppData\Local\Temp\ccI2fBBa.s 			page 18


 323              	.LBB30:
 551:..\..\..\lvgl\version_6.1.2\lvgl\src\lv_objx/lv_win.c ****                     lv_obj_set_parent(tmp, page);
 324              		.loc 1 551 0
 325 0052 2146     		mov	r1, r4
 326              	.LBE30:
 549:..\..\..\lvgl\version_6.1.2\lvgl\src\lv_objx/lv_win.c ****                     lv_obj_t * tmp = child;
 327              		.loc 1 549 0
 328 0054 48B9     		cbnz	r0, .L27
 329              	.LVL45:
 330              	.LBB31:
 551:..\..\..\lvgl\version_6.1.2\lvgl\src\lv_objx/lv_win.c ****                     lv_obj_set_parent(tmp, page);
 331              		.loc 1 551 0
 332 0056 3046     		mov	r0, r6
 333 0058 FFF7FEFF 		bl	lv_obj_get_child
 334              	.LVL46:
 552:..\..\..\lvgl\version_6.1.2\lvgl\src\lv_objx/lv_win.c ****                 } else {
 335              		.loc 1 552 0
 336 005c 3946     		mov	r1, r7
 551:..\..\..\lvgl\version_6.1.2\lvgl\src\lv_objx/lv_win.c ****                     lv_obj_set_parent(tmp, page);
 337              		.loc 1 551 0
 338 005e 0546     		mov	r5, r0
 339              	.LVL47:
 552:..\..\..\lvgl\version_6.1.2\lvgl\src\lv_objx/lv_win.c ****                 } else {
 340              		.loc 1 552 0
 341 0060 2046     		mov	r0, r4
 342              	.LVL48:
 343 0062 FFF7FEFF 		bl	lv_obj_set_parent
 344              	.LVL49:
 551:..\..\..\lvgl\version_6.1.2\lvgl\src\lv_objx/lv_win.c ****                     lv_obj_set_parent(tmp, page);
 345              		.loc 1 551 0
 346 0066 2C46     		mov	r4, r5
 347              	.LVL50:
 348              	.LBE31:
 349 0068 EDE7     		b	.L42
 350              	.LVL51:
 351              	.L27:
 554:..\..\..\lvgl\version_6.1.2\lvgl\src\lv_objx/lv_win.c ****                 }
 352              		.loc 1 554 0
 353 006a 2146     		mov	r1, r4
 354              	.LVL52:
 355 006c 3046     		mov	r0, r6
 356 006e FFF7FEFF 		bl	lv_obj_get_child
 357              	.LVL53:
 358 0072 0446     		mov	r4, r0
 359              	.LVL54:
 360 0074 E7E7     		b	.L42
 361              	.LVL55:
 362              	.L45:
 363              	.LBE29:
 364              	.LBE28:
 540:..\..\..\lvgl\version_6.1.2\lvgl\src\lv_objx/lv_win.c **** 
 365              		.loc 1 540 0 discriminator 1
 366 0076 3846     		mov	r0, r7
 367              	.LVL56:
 368 0078 1549     		ldr	r1, .L50+4
 575:..\..\..\lvgl\version_6.1.2\lvgl\src\lv_objx/lv_win.c **** 
 369              		.loc 1 575 0 discriminator 1
ARM GAS  C:\Users\pearlstl\AppData\Local\Temp\ccI2fBBa.s 			page 19


 370 007a BDE8F840 		pop	{r3, r4, r5, r6, r7, lr}
 371              		.cfi_remember_state
 372              		.cfi_restore 14
 373              		.cfi_restore 7
 374              		.cfi_restore 6
 375              		.cfi_restore 5
 376              		.cfi_restore 4
 377              		.cfi_restore 3
 378              		.cfi_def_cfa_offset 0
 379              	.LVL57:
 540:..\..\..\lvgl\version_6.1.2\lvgl\src\lv_objx/lv_win.c **** 
 380              		.loc 1 540 0 discriminator 1
 381 007e FFF7FEBF 		b	lv_obj_handle_get_type_signal
 382              	.LVL58:
 383              	.L48:
 384              		.cfi_restore_state
 566:..\..\..\lvgl\version_6.1.2\lvgl\src\lv_objx/lv_win.c ****         ext->page   = NULL;
 385              		.loc 1 566 0
 386 0082 4560     		str	r5, [r0, #4]
 567:..\..\..\lvgl\version_6.1.2\lvgl\src\lv_objx/lv_win.c ****         ext->title  = NULL;
 387              		.loc 1 567 0
 388 0084 0560     		str	r5, [r0]
 568:..\..\..\lvgl\version_6.1.2\lvgl\src\lv_objx/lv_win.c ****     } else if(sign == LV_SIGNAL_CONTROL) {
 389              		.loc 1 568 0
 390 0086 8560     		str	r5, [r0, #8]
 391 0088 2046     		mov	r0, r4
 392              	.LVL59:
 393 008a F8BD     		pop	{r3, r4, r5, r6, r7, pc}
 394              	.LVL60:
 395              	.L47:
 396              	.LBB32:
 397              	.LBB33:
 398              		.file 2 "..\\..\\..\\lvgl\\version_6.1.2\\lvgl\\src\\lv_objx\\../lv_core/../lv_misc/lv_area.h"
   1:..\..\..\lvgl\version_6.1.2\lvgl\src\lv_objx\../lv_core/../lv_misc/lv_area.h **** /**
   2:..\..\..\lvgl\version_6.1.2\lvgl\src\lv_objx\../lv_core/../lv_misc/lv_area.h ****  * @file lv_area.h
   3:..\..\..\lvgl\version_6.1.2\lvgl\src\lv_objx\../lv_core/../lv_misc/lv_area.h ****  *
   4:..\..\..\lvgl\version_6.1.2\lvgl\src\lv_objx\../lv_core/../lv_misc/lv_area.h ****  */
   5:..\..\..\lvgl\version_6.1.2\lvgl\src\lv_objx\../lv_core/../lv_misc/lv_area.h **** 
   6:..\..\..\lvgl\version_6.1.2\lvgl\src\lv_objx\../lv_core/../lv_misc/lv_area.h **** #ifndef LV_AREA_H
   7:..\..\..\lvgl\version_6.1.2\lvgl\src\lv_objx\../lv_core/../lv_misc/lv_area.h **** #define LV_AREA_H
   8:..\..\..\lvgl\version_6.1.2\lvgl\src\lv_objx\../lv_core/../lv_misc/lv_area.h **** 
   9:..\..\..\lvgl\version_6.1.2\lvgl\src\lv_objx\../lv_core/../lv_misc/lv_area.h **** #ifdef __cplusplus
  10:..\..\..\lvgl\version_6.1.2\lvgl\src\lv_objx\../lv_core/../lv_misc/lv_area.h **** extern "C" {
  11:..\..\..\lvgl\version_6.1.2\lvgl\src\lv_objx\../lv_core/../lv_misc/lv_area.h **** #endif
  12:..\..\..\lvgl\version_6.1.2\lvgl\src\lv_objx\../lv_core/../lv_misc/lv_area.h **** 
  13:..\..\..\lvgl\version_6.1.2\lvgl\src\lv_objx\../lv_core/../lv_misc/lv_area.h **** /*********************
  14:..\..\..\lvgl\version_6.1.2\lvgl\src\lv_objx\../lv_core/../lv_misc/lv_area.h ****  *      INCLUDES
  15:..\..\..\lvgl\version_6.1.2\lvgl\src\lv_objx\../lv_core/../lv_misc/lv_area.h ****  *********************/
  16:..\..\..\lvgl\version_6.1.2\lvgl\src\lv_objx\../lv_core/../lv_misc/lv_area.h **** #include <string.h>
  17:..\..\..\lvgl\version_6.1.2\lvgl\src\lv_objx\../lv_core/../lv_misc/lv_area.h **** #include <stdbool.h>
  18:..\..\..\lvgl\version_6.1.2\lvgl\src\lv_objx\../lv_core/../lv_misc/lv_area.h **** #include <stdint.h>
  19:..\..\..\lvgl\version_6.1.2\lvgl\src\lv_objx\../lv_core/../lv_misc/lv_area.h **** #ifdef LV_CONF_INCLUDE_SIMPLE
  20:..\..\..\lvgl\version_6.1.2\lvgl\src\lv_objx\../lv_core/../lv_misc/lv_area.h **** #include "lv_conf.h"
  21:..\..\..\lvgl\version_6.1.2\lvgl\src\lv_objx\../lv_core/../lv_misc/lv_area.h **** #else
  22:..\..\..\lvgl\version_6.1.2\lvgl\src\lv_objx\../lv_core/../lv_misc/lv_area.h **** #include "../../../lv_conf.h"
  23:..\..\..\lvgl\version_6.1.2\lvgl\src\lv_objx\../lv_core/../lv_misc/lv_area.h **** #endif
  24:..\..\..\lvgl\version_6.1.2\lvgl\src\lv_objx\../lv_core/../lv_misc/lv_area.h **** 
ARM GAS  C:\Users\pearlstl\AppData\Local\Temp\ccI2fBBa.s 			page 20


  25:..\..\..\lvgl\version_6.1.2\lvgl\src\lv_objx\../lv_core/../lv_misc/lv_area.h **** /*********************
  26:..\..\..\lvgl\version_6.1.2\lvgl\src\lv_objx\../lv_core/../lv_misc/lv_area.h ****  *      DEFINES
  27:..\..\..\lvgl\version_6.1.2\lvgl\src\lv_objx\../lv_core/../lv_misc/lv_area.h ****  *********************/
  28:..\..\..\lvgl\version_6.1.2\lvgl\src\lv_objx\../lv_core/../lv_misc/lv_area.h **** /*To avoid overflow don't let the max ranges (reduce with 1000) */
  29:..\..\..\lvgl\version_6.1.2\lvgl\src\lv_objx\../lv_core/../lv_misc/lv_area.h **** #define LV_COORD_MAX ((lv_coord_t)((uint32_t)((uint32_t)1 << (8 * sizeof(lv_coord_t) - 1)) - 1000))
  30:..\..\..\lvgl\version_6.1.2\lvgl\src\lv_objx\../lv_core/../lv_misc/lv_area.h **** #define LV_COORD_MIN (-LV_COORD_MAX)
  31:..\..\..\lvgl\version_6.1.2\lvgl\src\lv_objx\../lv_core/../lv_misc/lv_area.h **** 
  32:..\..\..\lvgl\version_6.1.2\lvgl\src\lv_objx\../lv_core/../lv_misc/lv_area.h **** LV_EXPORT_CONST_INT(LV_COORD_MAX);
  33:..\..\..\lvgl\version_6.1.2\lvgl\src\lv_objx\../lv_core/../lv_misc/lv_area.h **** LV_EXPORT_CONST_INT(LV_COORD_MIN);
  34:..\..\..\lvgl\version_6.1.2\lvgl\src\lv_objx\../lv_core/../lv_misc/lv_area.h **** 
  35:..\..\..\lvgl\version_6.1.2\lvgl\src\lv_objx\../lv_core/../lv_misc/lv_area.h **** /**********************
  36:..\..\..\lvgl\version_6.1.2\lvgl\src\lv_objx\../lv_core/../lv_misc/lv_area.h ****  *      TYPEDEFS
  37:..\..\..\lvgl\version_6.1.2\lvgl\src\lv_objx\../lv_core/../lv_misc/lv_area.h ****  **********************/
  38:..\..\..\lvgl\version_6.1.2\lvgl\src\lv_objx\../lv_core/../lv_misc/lv_area.h **** 
  39:..\..\..\lvgl\version_6.1.2\lvgl\src\lv_objx\../lv_core/../lv_misc/lv_area.h **** /**
  40:..\..\..\lvgl\version_6.1.2\lvgl\src\lv_objx\../lv_core/../lv_misc/lv_area.h ****  * Represents a point on the screen.
  41:..\..\..\lvgl\version_6.1.2\lvgl\src\lv_objx\../lv_core/../lv_misc/lv_area.h ****  */
  42:..\..\..\lvgl\version_6.1.2\lvgl\src\lv_objx\../lv_core/../lv_misc/lv_area.h **** typedef struct
  43:..\..\..\lvgl\version_6.1.2\lvgl\src\lv_objx\../lv_core/../lv_misc/lv_area.h **** {
  44:..\..\..\lvgl\version_6.1.2\lvgl\src\lv_objx\../lv_core/../lv_misc/lv_area.h ****     lv_coord_t x;
  45:..\..\..\lvgl\version_6.1.2\lvgl\src\lv_objx\../lv_core/../lv_misc/lv_area.h ****     lv_coord_t y;
  46:..\..\..\lvgl\version_6.1.2\lvgl\src\lv_objx\../lv_core/../lv_misc/lv_area.h **** } lv_point_t;
  47:..\..\..\lvgl\version_6.1.2\lvgl\src\lv_objx\../lv_core/../lv_misc/lv_area.h **** 
  48:..\..\..\lvgl\version_6.1.2\lvgl\src\lv_objx\../lv_core/../lv_misc/lv_area.h **** /** Represents an area of the screen. */
  49:..\..\..\lvgl\version_6.1.2\lvgl\src\lv_objx\../lv_core/../lv_misc/lv_area.h **** typedef struct
  50:..\..\..\lvgl\version_6.1.2\lvgl\src\lv_objx\../lv_core/../lv_misc/lv_area.h **** {
  51:..\..\..\lvgl\version_6.1.2\lvgl\src\lv_objx\../lv_core/../lv_misc/lv_area.h ****     lv_coord_t x1;
  52:..\..\..\lvgl\version_6.1.2\lvgl\src\lv_objx\../lv_core/../lv_misc/lv_area.h ****     lv_coord_t y1;
  53:..\..\..\lvgl\version_6.1.2\lvgl\src\lv_objx\../lv_core/../lv_misc/lv_area.h ****     lv_coord_t x2;
  54:..\..\..\lvgl\version_6.1.2\lvgl\src\lv_objx\../lv_core/../lv_misc/lv_area.h ****     lv_coord_t y2;
  55:..\..\..\lvgl\version_6.1.2\lvgl\src\lv_objx\../lv_core/../lv_misc/lv_area.h **** } lv_area_t;
  56:..\..\..\lvgl\version_6.1.2\lvgl\src\lv_objx\../lv_core/../lv_misc/lv_area.h **** 
  57:..\..\..\lvgl\version_6.1.2\lvgl\src\lv_objx\../lv_core/../lv_misc/lv_area.h **** /**********************
  58:..\..\..\lvgl\version_6.1.2\lvgl\src\lv_objx\../lv_core/../lv_misc/lv_area.h ****  * GLOBAL PROTOTYPES
  59:..\..\..\lvgl\version_6.1.2\lvgl\src\lv_objx\../lv_core/../lv_misc/lv_area.h ****  **********************/
  60:..\..\..\lvgl\version_6.1.2\lvgl\src\lv_objx\../lv_core/../lv_misc/lv_area.h **** 
  61:..\..\..\lvgl\version_6.1.2\lvgl\src\lv_objx\../lv_core/../lv_misc/lv_area.h **** /**
  62:..\..\..\lvgl\version_6.1.2\lvgl\src\lv_objx\../lv_core/../lv_misc/lv_area.h ****  * Initialize an area
  63:..\..\..\lvgl\version_6.1.2\lvgl\src\lv_objx\../lv_core/../lv_misc/lv_area.h ****  * @param area_p pointer to an area
  64:..\..\..\lvgl\version_6.1.2\lvgl\src\lv_objx\../lv_core/../lv_misc/lv_area.h ****  * @param x1 left coordinate of the area
  65:..\..\..\lvgl\version_6.1.2\lvgl\src\lv_objx\../lv_core/../lv_misc/lv_area.h ****  * @param y1 top coordinate of the area
  66:..\..\..\lvgl\version_6.1.2\lvgl\src\lv_objx\../lv_core/../lv_misc/lv_area.h ****  * @param x2 right coordinate of the area
  67:..\..\..\lvgl\version_6.1.2\lvgl\src\lv_objx\../lv_core/../lv_misc/lv_area.h ****  * @param y2 bottom coordinate of the area
  68:..\..\..\lvgl\version_6.1.2\lvgl\src\lv_objx\../lv_core/../lv_misc/lv_area.h ****  */
  69:..\..\..\lvgl\version_6.1.2\lvgl\src\lv_objx\../lv_core/../lv_misc/lv_area.h **** void lv_area_set(lv_area_t * area_p, lv_coord_t x1, lv_coord_t y1, lv_coord_t x2, lv_coord_t y2);
  70:..\..\..\lvgl\version_6.1.2\lvgl\src\lv_objx\../lv_core/../lv_misc/lv_area.h **** 
  71:..\..\..\lvgl\version_6.1.2\lvgl\src\lv_objx\../lv_core/../lv_misc/lv_area.h **** /**
  72:..\..\..\lvgl\version_6.1.2\lvgl\src\lv_objx\../lv_core/../lv_misc/lv_area.h ****  * Copy an area
  73:..\..\..\lvgl\version_6.1.2\lvgl\src\lv_objx\../lv_core/../lv_misc/lv_area.h ****  * @param dest pointer to the destination area
  74:..\..\..\lvgl\version_6.1.2\lvgl\src\lv_objx\../lv_core/../lv_misc/lv_area.h ****  * @param src pointer to the source area
  75:..\..\..\lvgl\version_6.1.2\lvgl\src\lv_objx\../lv_core/../lv_misc/lv_area.h ****  */
  76:..\..\..\lvgl\version_6.1.2\lvgl\src\lv_objx\../lv_core/../lv_misc/lv_area.h **** inline static void lv_area_copy(lv_area_t * dest, const lv_area_t * src)
  77:..\..\..\lvgl\version_6.1.2\lvgl\src\lv_objx\../lv_core/../lv_misc/lv_area.h **** {
  78:..\..\..\lvgl\version_6.1.2\lvgl\src\lv_objx\../lv_core/../lv_misc/lv_area.h ****     memcpy(dest, src, sizeof(lv_area_t));
  79:..\..\..\lvgl\version_6.1.2\lvgl\src\lv_objx\../lv_core/../lv_misc/lv_area.h **** }
  80:..\..\..\lvgl\version_6.1.2\lvgl\src\lv_objx\../lv_core/../lv_misc/lv_area.h **** 
  81:..\..\..\lvgl\version_6.1.2\lvgl\src\lv_objx\../lv_core/../lv_misc/lv_area.h **** /**
ARM GAS  C:\Users\pearlstl\AppData\Local\Temp\ccI2fBBa.s 			page 21


  82:..\..\..\lvgl\version_6.1.2\lvgl\src\lv_objx\../lv_core/../lv_misc/lv_area.h ****  * Get the width of an area
  83:..\..\..\lvgl\version_6.1.2\lvgl\src\lv_objx\../lv_core/../lv_misc/lv_area.h ****  * @param area_p pointer to an area
  84:..\..\..\lvgl\version_6.1.2\lvgl\src\lv_objx\../lv_core/../lv_misc/lv_area.h ****  * @return the width of the area (if x1 == x2 -> width = 1)
  85:..\..\..\lvgl\version_6.1.2\lvgl\src\lv_objx\../lv_core/../lv_misc/lv_area.h ****  */
  86:..\..\..\lvgl\version_6.1.2\lvgl\src\lv_objx\../lv_core/../lv_misc/lv_area.h **** static inline lv_coord_t lv_area_get_width(const lv_area_t * area_p)
  87:..\..\..\lvgl\version_6.1.2\lvgl\src\lv_objx\../lv_core/../lv_misc/lv_area.h **** {
  88:..\..\..\lvgl\version_6.1.2\lvgl\src\lv_objx\../lv_core/../lv_misc/lv_area.h ****     return (lv_coord_t)(area_p->x2 - area_p->x1 + 1);
 399              		.loc 2 88 0
 400 008c BB88     		ldrh	r3, [r7, #4]
 401 008e 3C88     		ldrh	r4, [r7]
 402 0090 0133     		adds	r3, r3, #1
 403              	.LBE33:
 404              	.LBE32:
 562:..\..\..\lvgl\version_6.1.2\lvgl\src\lv_objx/lv_win.c ****             lv_win_realign(win);
 405              		.loc 1 562 0
 406 0092 3046     		mov	r0, r6
 407              	.LVL61:
 408              	.LBB36:
 409              	.LBB34:
 410              		.loc 2 88 0
 411 0094 1C1B     		subs	r4, r3, r4
 412              	.LBE34:
 413              	.LBE36:
 562:..\..\..\lvgl\version_6.1.2\lvgl\src\lv_objx/lv_win.c ****             lv_win_realign(win);
 414              		.loc 1 562 0
 415 0096 FFF7FEFF 		bl	lv_obj_get_width
 416              	.LVL62:
 417              	.LBB37:
 418              	.LBB35:
 419              		.loc 2 88 0
 420 009a 24B2     		sxth	r4, r4
 421              	.LBE35:
 422              	.LBE37:
 562:..\..\..\lvgl\version_6.1.2\lvgl\src\lv_objx/lv_win.c ****             lv_win_realign(win);
 423              		.loc 1 562 0
 424 009c A042     		cmp	r0, r4
 425 009e 09D1     		bne	.L33
 426              	.LVL63:
 427              	.LBB38:
 428              	.LBB39:
  89:..\..\..\lvgl\version_6.1.2\lvgl\src\lv_objx\../lv_core/../lv_misc/lv_area.h **** }
  90:..\..\..\lvgl\version_6.1.2\lvgl\src\lv_objx\../lv_core/../lv_misc/lv_area.h **** 
  91:..\..\..\lvgl\version_6.1.2\lvgl\src\lv_objx\../lv_core/../lv_misc/lv_area.h **** /**
  92:..\..\..\lvgl\version_6.1.2\lvgl\src\lv_objx\../lv_core/../lv_misc/lv_area.h ****  * Get the height of an area
  93:..\..\..\lvgl\version_6.1.2\lvgl\src\lv_objx\../lv_core/../lv_misc/lv_area.h ****  * @param area_p pointer to an area
  94:..\..\..\lvgl\version_6.1.2\lvgl\src\lv_objx\../lv_core/../lv_misc/lv_area.h ****  * @return the height of the area (if y1 == y2 -> height = 1)
  95:..\..\..\lvgl\version_6.1.2\lvgl\src\lv_objx\../lv_core/../lv_misc/lv_area.h ****  */
  96:..\..\..\lvgl\version_6.1.2\lvgl\src\lv_objx\../lv_core/../lv_misc/lv_area.h **** static inline lv_coord_t lv_area_get_height(const lv_area_t * area_p)
  97:..\..\..\lvgl\version_6.1.2\lvgl\src\lv_objx\../lv_core/../lv_misc/lv_area.h **** {
  98:..\..\..\lvgl\version_6.1.2\lvgl\src\lv_objx\../lv_core/../lv_misc/lv_area.h ****     return (lv_coord_t)(area_p->y2 - area_p->y1 + 1);
 429              		.loc 2 98 0 discriminator 1
 430 00a0 FB88     		ldrh	r3, [r7, #6]
 431 00a2 7C88     		ldrh	r4, [r7, #2]
 432 00a4 0133     		adds	r3, r3, #1
 433              	.LBE39:
 434              	.LBE38:
 562:..\..\..\lvgl\version_6.1.2\lvgl\src\lv_objx/lv_win.c ****             lv_win_realign(win);
ARM GAS  C:\Users\pearlstl\AppData\Local\Temp\ccI2fBBa.s 			page 22


 435              		.loc 1 562 0 discriminator 1
 436 00a6 3046     		mov	r0, r6
 437              	.LBB42:
 438              	.LBB40:
 439              		.loc 2 98 0 discriminator 1
 440 00a8 1C1B     		subs	r4, r3, r4
 441              	.LBE40:
 442              	.LBE42:
 562:..\..\..\lvgl\version_6.1.2\lvgl\src\lv_objx/lv_win.c ****             lv_win_realign(win);
 443              		.loc 1 562 0 discriminator 1
 444 00aa FFF7FEFF 		bl	lv_obj_get_height
 445              	.LVL64:
 446              	.LBB43:
 447              	.LBB41:
 448              		.loc 2 98 0 discriminator 1
 449 00ae 24B2     		sxth	r4, r4
 450              	.LBE41:
 451              	.LBE43:
 562:..\..\..\lvgl\version_6.1.2\lvgl\src\lv_objx/lv_win.c ****             lv_win_realign(win);
 452              		.loc 1 562 0 discriminator 1
 453 00b0 A042     		cmp	r0, r4
 454 00b2 BED0     		beq	.L43
 455              	.LVL65:
 456              	.L33:
 559:..\..\..\lvgl\version_6.1.2\lvgl\src\lv_objx/lv_win.c ****     } else if(sign == LV_SIGNAL_CORD_CHG) {
 457              		.loc 1 559 0
 458 00b4 3046     		mov	r0, r6
 459 00b6 FFF7FEFF 		bl	lv_win_realign
 460              	.LVL66:
 461 00ba BAE7     		b	.L43
 462              	.LVL67:
 463              	.L49:
 571:..\..\..\lvgl\version_6.1.2\lvgl\src\lv_objx/lv_win.c ****     }
 464              		.loc 1 571 0
 465 00bc 0068     		ldr	r0, [r0]
 466              	.LVL68:
 467 00be 3A46     		mov	r2, r7
 468 00c0 2946     		mov	r1, r5
 469 00c2 C369     		ldr	r3, [r0, #28]
 470 00c4 9847     		blx	r3
 471              	.LVL69:
 472 00c6 2046     		mov	r0, r4
 473 00c8 F8BD     		pop	{r3, r4, r5, r6, r7, pc}
 474              	.LVL70:
 475              	.L51:
 476 00ca 00BF     		.align	2
 477              	.L50:
 478 00cc 00000000 		.word	.LANCHOR0
 479 00d0 00000000 		.word	.LC0
 480              		.cfi_endproc
 481              	.LFE90:
 482              		.size	lv_win_signal, .-lv_win_signal
 483              		.section	.text.lv_win_create,"ax",%progbits
 484              		.align	2
 485              		.global	lv_win_create
 486              		.thumb
 487              		.thumb_func
ARM GAS  C:\Users\pearlstl\AppData\Local\Temp\ccI2fBBa.s 			page 23


 488              		.type	lv_win_create, %function
 489              	lv_win_create:
 490              	.LFB68:
  51:..\..\..\lvgl\version_6.1.2\lvgl\src\lv_objx/lv_win.c ****     LV_LOG_TRACE("window create started");
 491              		.loc 1 51 0
 492              		.cfi_startproc
 493              		@ args = 0, pretend = 0, frame = 0
 494              		@ frame_needed = 0, uses_anonymous_args = 0
 495              	.LVL71:
 496 0000 2DE9F041 		push	{r4, r5, r6, r7, r8, lr}
 497              		.cfi_def_cfa_offset 24
 498              		.cfi_offset 4, -24
 499              		.cfi_offset 5, -20
 500              		.cfi_offset 6, -16
 501              		.cfi_offset 7, -12
 502              		.cfi_offset 8, -8
 503              		.cfi_offset 14, -4
  51:..\..\..\lvgl\version_6.1.2\lvgl\src\lv_objx/lv_win.c ****     LV_LOG_TRACE("window create started");
 504              		.loc 1 51 0
 505 0004 8046     		mov	r8, r0
 506 0006 0E46     		mov	r6, r1
  55:..\..\..\lvgl\version_6.1.2\lvgl\src\lv_objx/lv_win.c ****     LV_ASSERT_MEM(new_win);
 507              		.loc 1 55 0
 508 0008 FFF7FEFF 		bl	lv_obj_create
 509              	.LVL72:
  57:..\..\..\lvgl\version_6.1.2\lvgl\src\lv_objx/lv_win.c **** 
 510              		.loc 1 57 0
 511 000c 0028     		cmp	r0, #0
 512 000e 00F03A81 		beq	.L56
  59:..\..\..\lvgl\version_6.1.2\lvgl\src\lv_objx/lv_win.c **** 
 513              		.loc 1 59 0
 514 0012 9E4C     		ldr	r4, .L80
 515 0014 2368     		ldr	r3, [r4]
 516 0016 0746     		mov	r7, r0
 517 0018 002B     		cmp	r3, #0
 518 001a 00F00A81 		beq	.L78
 519              	.LVL73:
 520              	.L55:
  62:..\..\..\lvgl\version_6.1.2\lvgl\src\lv_objx/lv_win.c ****     LV_ASSERT_MEM(ext);
 521              		.loc 1 62 0
 522 001e 1821     		movs	r1, #24
 523 0020 3846     		mov	r0, r7
 524 0022 FFF7FEFF 		bl	lv_obj_allocate_ext_attr
 525              	.LVL74:
  64:..\..\..\lvgl\version_6.1.2\lvgl\src\lv_objx/lv_win.c **** 
 526              		.loc 1 64 0
 527 0026 0546     		mov	r5, r0
 528 0028 0028     		cmp	r0, #0
 529 002a 00F02C81 		beq	.L56
  66:..\..\..\lvgl\version_6.1.2\lvgl\src\lv_objx/lv_win.c ****     ext->header        = NULL;
 530              		.loc 1 66 0
 531 002e 0024     		movs	r4, #0
  69:..\..\..\lvgl\version_6.1.2\lvgl\src\lv_objx/lv_win.c ****     ext->style_btn_pr  = &lv_style_btn_pr;
 532              		.loc 1 69 0
 533 0030 9749     		ldr	r1, .L80+4
  70:..\..\..\lvgl\version_6.1.2\lvgl\src\lv_objx/lv_win.c ****     ext->btn_size      = (LV_DPI) / 2;
 534              		.loc 1 70 0
ARM GAS  C:\Users\pearlstl\AppData\Local\Temp\ccI2fBBa.s 			page 24


 535 0032 984A     		ldr	r2, .L80+8
  66:..\..\..\lvgl\version_6.1.2\lvgl\src\lv_objx/lv_win.c ****     ext->header        = NULL;
 536              		.loc 1 66 0
 537 0034 0460     		str	r4, [r0]
  71:..\..\..\lvgl\version_6.1.2\lvgl\src\lv_objx/lv_win.c **** 
 538              		.loc 1 71 0
 539 0036 4B23     		movs	r3, #75
  67:..\..\..\lvgl\version_6.1.2\lvgl\src\lv_objx/lv_win.c ****     ext->title         = NULL;
 540              		.loc 1 67 0
 541 0038 4460     		str	r4, [r0, #4]
  68:..\..\..\lvgl\version_6.1.2\lvgl\src\lv_objx/lv_win.c ****     ext->style_btn_rel = &lv_style_btn_rel;
 542              		.loc 1 68 0
 543 003a 8460     		str	r4, [r0, #8]
  69:..\..\..\lvgl\version_6.1.2\lvgl\src\lv_objx/lv_win.c ****     ext->style_btn_pr  = &lv_style_btn_pr;
 544              		.loc 1 69 0
 545 003c C160     		str	r1, [r0, #12]
  70:..\..\..\lvgl\version_6.1.2\lvgl\src\lv_objx/lv_win.c ****     ext->btn_size      = (LV_DPI) / 2;
 546              		.loc 1 70 0
 547 003e 0261     		str	r2, [r0, #16]
  71:..\..\..\lvgl\version_6.1.2\lvgl\src\lv_objx/lv_win.c **** 
 548              		.loc 1 71 0
 549 0040 8382     		strh	r3, [r0, #20]	@ movhi
  74:..\..\..\lvgl\version_6.1.2\lvgl\src\lv_objx/lv_win.c ****         /* Set a size which fits into the parent.
 550              		.loc 1 74 0
 551 0042 002E     		cmp	r6, #0
 552 0044 45D0     		beq	.L79
 553              	.LBB73:
 126:..\..\..\lvgl\version_6.1.2\lvgl\src\lv_objx/lv_win.c ****         /*Create the objects*/
 554              		.loc 1 126 0
 555 0046 3046     		mov	r0, r6
 556              	.LVL75:
 557 0048 FFF7FEFF 		bl	lv_obj_get_ext_attr
 558              	.LVL76:
 559 004c 8046     		mov	r8, r0
 560              	.LVL77:
 128:..\..\..\lvgl\version_6.1.2\lvgl\src\lv_objx/lv_win.c ****         ext->title    = lv_label_create(ext->header, copy_ext->title);
 561              		.loc 1 128 0
 562 004e 3846     		mov	r0, r7
 563              	.LVL78:
 564 0050 D8F80410 		ldr	r1, [r8, #4]
 565 0054 FFF7FEFF 		bl	lv_obj_create
 566              	.LVL79:
 129:..\..\..\lvgl\version_6.1.2\lvgl\src\lv_objx/lv_win.c ****         ext->page     = lv_page_create(new_win, copy_ext->page);
 567              		.loc 1 129 0
 568 0058 D8F80810 		ldr	r1, [r8, #8]
 128:..\..\..\lvgl\version_6.1.2\lvgl\src\lv_objx/lv_win.c ****         ext->title    = lv_label_create(ext->header, copy_ext->title);
 569              		.loc 1 128 0
 570 005c 6860     		str	r0, [r5, #4]
 129:..\..\..\lvgl\version_6.1.2\lvgl\src\lv_objx/lv_win.c ****         ext->page     = lv_page_create(new_win, copy_ext->page);
 571              		.loc 1 129 0
 572 005e FFF7FEFF 		bl	lv_label_create
 573              	.LVL80:
 130:..\..\..\lvgl\version_6.1.2\lvgl\src\lv_objx/lv_win.c ****         ext->btn_size = copy_ext->btn_size;
 574              		.loc 1 130 0
 575 0062 D8F80010 		ldr	r1, [r8]
 129:..\..\..\lvgl\version_6.1.2\lvgl\src\lv_objx/lv_win.c ****         ext->page     = lv_page_create(new_win, copy_ext->page);
 576              		.loc 1 129 0
ARM GAS  C:\Users\pearlstl\AppData\Local\Temp\ccI2fBBa.s 			page 25


 577 0066 A860     		str	r0, [r5, #8]
 130:..\..\..\lvgl\version_6.1.2\lvgl\src\lv_objx/lv_win.c ****         ext->btn_size = copy_ext->btn_size;
 578              		.loc 1 130 0
 579 0068 3846     		mov	r0, r7
 580 006a FFF7FEFF 		bl	lv_page_create
 581              	.LVL81:
 131:..\..\..\lvgl\version_6.1.2\lvgl\src\lv_objx/lv_win.c **** 
 582              		.loc 1 131 0
 583 006e B8F91430 		ldrsh	r3, [r8, #20]
 584 0072 AB82     		strh	r3, [r5, #20]	@ movhi
 136:..\..\..\lvgl\version_6.1.2\lvgl\src\lv_objx/lv_win.c ****         child = lv_obj_get_child_back(copy_ext->header, child); /*Sip the title*/
 585              		.loc 1 136 0
 586 0074 2146     		mov	r1, r4
 130:..\..\..\lvgl\version_6.1.2\lvgl\src\lv_objx/lv_win.c ****         ext->btn_size = copy_ext->btn_size;
 587              		.loc 1 130 0
 588 0076 2860     		str	r0, [r5]
 136:..\..\..\lvgl\version_6.1.2\lvgl\src\lv_objx/lv_win.c ****         child = lv_obj_get_child_back(copy_ext->header, child); /*Sip the title*/
 589              		.loc 1 136 0
 590 0078 D8F80400 		ldr	r0, [r8, #4]
 591 007c FFF7FEFF 		bl	lv_obj_get_child_back
 592              	.LVL82:
 137:..\..\..\lvgl\version_6.1.2\lvgl\src\lv_objx/lv_win.c ****         while(child != NULL) {
 593              		.loc 1 137 0
 594 0080 0146     		mov	r1, r0
 595 0082 D8F80400 		ldr	r0, [r8, #4]
 596              	.LVL83:
 597 0086 FFF7FEFF 		bl	lv_obj_get_child_back
 598              	.LVL84:
 138:..\..\..\lvgl\version_6.1.2\lvgl\src\lv_objx/lv_win.c ****             cbtn = lv_btn_create(ext->header, child);
 599              		.loc 1 138 0
 600 008a 0446     		mov	r4, r0
 601 008c A0B1     		cbz	r0, .L70
 602              	.LVL85:
 603              	.L69:
 139:..\..\..\lvgl\version_6.1.2\lvgl\src\lv_objx/lv_win.c ****             lv_img_create(cbtn, lv_obj_get_child(child, NULL));
 604              		.loc 1 139 0
 605 008e 2146     		mov	r1, r4
 606 0090 6868     		ldr	r0, [r5, #4]
 607              	.LVL86:
 608 0092 FFF7FEFF 		bl	lv_btn_create
 609              	.LVL87:
 140:..\..\..\lvgl\version_6.1.2\lvgl\src\lv_objx/lv_win.c ****             child = lv_obj_get_child_back(copy_ext->header, child);
 610              		.loc 1 140 0
 611 0096 0021     		movs	r1, #0
 139:..\..\..\lvgl\version_6.1.2\lvgl\src\lv_objx/lv_win.c ****             lv_img_create(cbtn, lv_obj_get_child(child, NULL));
 612              		.loc 1 139 0
 613 0098 0646     		mov	r6, r0
 614              	.LVL88:
 140:..\..\..\lvgl\version_6.1.2\lvgl\src\lv_objx/lv_win.c ****             child = lv_obj_get_child_back(copy_ext->header, child);
 615              		.loc 1 140 0
 616 009a 2046     		mov	r0, r4
 617              	.LVL89:
 618 009c FFF7FEFF 		bl	lv_obj_get_child
 619              	.LVL90:
 620 00a0 0146     		mov	r1, r0
 621 00a2 3046     		mov	r0, r6
 622 00a4 FFF7FEFF 		bl	lv_img_create
ARM GAS  C:\Users\pearlstl\AppData\Local\Temp\ccI2fBBa.s 			page 26


 623              	.LVL91:
 141:..\..\..\lvgl\version_6.1.2\lvgl\src\lv_objx/lv_win.c ****         }
 624              		.loc 1 141 0
 625 00a8 2146     		mov	r1, r4
 626 00aa D8F80400 		ldr	r0, [r8, #4]
 627 00ae FFF7FEFF 		bl	lv_obj_get_child_back
 628              	.LVL92:
 138:..\..\..\lvgl\version_6.1.2\lvgl\src\lv_objx/lv_win.c ****             cbtn = lv_btn_create(ext->header, child);
 629              		.loc 1 138 0
 630 00b2 0446     		mov	r4, r0
 631 00b4 0028     		cmp	r0, #0
 632 00b6 EAD1     		bne	.L69
 633              	.LVL93:
 634              	.L70:
 144:..\..\..\lvgl\version_6.1.2\lvgl\src\lv_objx/lv_win.c ****     }
 635              		.loc 1 144 0
 636 00b8 7749     		ldr	r1, .L80+12
 637 00ba 3846     		mov	r0, r7
 638              	.LVL94:
 639 00bc FFF7FEFF 		bl	lv_obj_set_signal_cb
 640              	.LVL95:
 641              	.L66:
 642              	.LBE73:
 148:..\..\..\lvgl\version_6.1.2\lvgl\src\lv_objx/lv_win.c **** 
 643              		.loc 1 148 0
 644 00c0 3846     		mov	r0, r7
 645 00c2 FFF7FEFF 		bl	lv_obj_refresh_style
 646              	.LVL96:
 150:..\..\..\lvgl\version_6.1.2\lvgl\src\lv_objx/lv_win.c **** 
 647              		.loc 1 150 0
 648 00c6 3846     		mov	r0, r7
 649 00c8 FFF7FEFF 		bl	lv_win_realign
 650              	.LVL97:
 154:..\..\..\lvgl\version_6.1.2\lvgl\src\lv_objx/lv_win.c **** }
 651              		.loc 1 154 0
 652 00cc 3846     		mov	r0, r7
 155:..\..\..\lvgl\version_6.1.2\lvgl\src\lv_objx/lv_win.c **** 
 653              		.loc 1 155 0
 654 00ce BDE8F081 		pop	{r4, r5, r6, r7, r8, pc}
 655              	.LVL98:
 656              	.L79:
 657              	.LBB74:
  80:..\..\..\lvgl\version_6.1.2\lvgl\src\lv_objx/lv_win.c ****             w = lv_obj_get_width_fit(lv_obj_get_parent(new_win));
 658              		.loc 1 80 0
 659 00d2 B8F1000F 		cmp	r8, #0
 660 00d6 00F0CD80 		beq	.L58
  81:..\..\..\lvgl\version_6.1.2\lvgl\src\lv_objx/lv_win.c ****             h = lv_obj_get_height_fit(lv_obj_get_parent(new_win));
 661              		.loc 1 81 0
 662 00da 3846     		mov	r0, r7
 663              	.LVL99:
 664 00dc FFF7FEFF 		bl	lv_obj_get_parent
 665              	.LVL100:
 666 00e0 FFF7FEFF 		bl	lv_obj_get_width_fit
 667              	.LVL101:
 668 00e4 0446     		mov	r4, r0
 669              	.LVL102:
  82:..\..\..\lvgl\version_6.1.2\lvgl\src\lv_objx/lv_win.c ****         } else {
ARM GAS  C:\Users\pearlstl\AppData\Local\Temp\ccI2fBBa.s 			page 27


 670              		.loc 1 82 0
 671 00e6 3846     		mov	r0, r7
 672 00e8 FFF7FEFF 		bl	lv_obj_get_parent
 673              	.LVL103:
 674 00ec FFF7FEFF 		bl	lv_obj_get_height_fit
 675              	.LVL104:
 676 00f0 0246     		mov	r2, r0
 677              	.LVL105:
 678              	.L59:
  88:..\..\..\lvgl\version_6.1.2\lvgl\src\lv_objx/lv_win.c **** 
 679              		.loc 1 88 0
 680 00f2 2146     		mov	r1, r4
 681 00f4 3846     		mov	r0, r7
 682 00f6 FFF7FEFF 		bl	lv_obj_set_size
 683              	.LVL106:
  90:..\..\..\lvgl\version_6.1.2\lvgl\src\lv_objx/lv_win.c **** 
 684              		.loc 1 90 0
 685 00fa 6849     		ldr	r1, .L80+16
 686 00fc 3846     		mov	r0, r7
 687 00fe FFF7FEFF 		bl	lv_obj_set_style
 688              	.LVL107:
  92:..\..\..\lvgl\version_6.1.2\lvgl\src\lv_objx/lv_win.c ****         lv_obj_set_protect(ext->page, LV_PROTECT_PARENT);
 689              		.loc 1 92 0
 690 0102 0021     		movs	r1, #0
 691 0104 3846     		mov	r0, r7
 692 0106 FFF7FEFF 		bl	lv_page_create
 693              	.LVL108:
  93:..\..\..\lvgl\version_6.1.2\lvgl\src\lv_objx/lv_win.c ****         lv_page_set_sb_mode(ext->page, LV_SB_MODE_AUTO);
 694              		.loc 1 93 0
 695 010a 0221     		movs	r1, #2
  92:..\..\..\lvgl\version_6.1.2\lvgl\src\lv_objx/lv_win.c ****         lv_obj_set_protect(ext->page, LV_PROTECT_PARENT);
 696              		.loc 1 92 0
 697 010c 2860     		str	r0, [r5]
  93:..\..\..\lvgl\version_6.1.2\lvgl\src\lv_objx/lv_win.c ****         lv_page_set_sb_mode(ext->page, LV_SB_MODE_AUTO);
 698              		.loc 1 93 0
 699 010e FFF7FEFF 		bl	lv_obj_set_protect
 700              	.LVL109:
  94:..\..\..\lvgl\version_6.1.2\lvgl\src\lv_objx/lv_win.c ****         lv_page_set_style(ext->page, LV_PAGE_STYLE_BG, &lv_style_transp_fit);
 701              		.loc 1 94 0
 702 0112 2868     		ldr	r0, [r5]
 703 0114 0321     		movs	r1, #3
 704 0116 FFF7FEFF 		bl	lv_page_set_sb_mode
 705              	.LVL110:
  95:..\..\..\lvgl\version_6.1.2\lvgl\src\lv_objx/lv_win.c **** 
 706              		.loc 1 95 0
 707 011a 614A     		ldr	r2, .L80+20
 708 011c 2868     		ldr	r0, [r5]
 709 011e 0021     		movs	r1, #0
 710 0120 FFF7FEFF 		bl	lv_page_set_style
 711              	.LVL111:
  98:..\..\..\lvgl\version_6.1.2\lvgl\src\lv_objx/lv_win.c ****         /*Move back the header because it is automatically moved to the scrollable */
 712              		.loc 1 98 0
 713 0124 0021     		movs	r1, #0
 714 0126 3846     		mov	r0, r7
 715 0128 FFF7FEFF 		bl	lv_obj_create
 716              	.LVL112:
 100:..\..\..\lvgl\version_6.1.2\lvgl\src\lv_objx/lv_win.c ****         lv_obj_set_parent(ext->header, new_win);
ARM GAS  C:\Users\pearlstl\AppData\Local\Temp\ccI2fBBa.s 			page 28


 717              		.loc 1 100 0
 718 012c 0221     		movs	r1, #2
  98:..\..\..\lvgl\version_6.1.2\lvgl\src\lv_objx/lv_win.c ****         /*Move back the header because it is automatically moved to the scrollable */
 719              		.loc 1 98 0
 720 012e 6860     		str	r0, [r5, #4]
 100:..\..\..\lvgl\version_6.1.2\lvgl\src\lv_objx/lv_win.c ****         lv_obj_set_parent(ext->header, new_win);
 721              		.loc 1 100 0
 722 0130 FFF7FEFF 		bl	lv_obj_set_protect
 723              	.LVL113:
 101:..\..\..\lvgl\version_6.1.2\lvgl\src\lv_objx/lv_win.c **** 
 724              		.loc 1 101 0
 725 0134 6868     		ldr	r0, [r5, #4]
 726 0136 3946     		mov	r1, r7
 727 0138 FFF7FEFF 		bl	lv_obj_set_parent
 728              	.LVL114:
 104:..\..\..\lvgl\version_6.1.2\lvgl\src\lv_objx/lv_win.c ****         lv_label_set_text(ext->title, "My title");
 729              		.loc 1 104 0
 730 013c 0021     		movs	r1, #0
 731 013e 6868     		ldr	r0, [r5, #4]
 732 0140 FFF7FEFF 		bl	lv_label_create
 733              	.LVL115:
 105:..\..\..\lvgl\version_6.1.2\lvgl\src\lv_objx/lv_win.c **** 
 734              		.loc 1 105 0
 735 0144 5749     		ldr	r1, .L80+24
 104:..\..\..\lvgl\version_6.1.2\lvgl\src\lv_objx/lv_win.c ****         lv_label_set_text(ext->title, "My title");
 736              		.loc 1 104 0
 737 0146 A860     		str	r0, [r5, #8]
 105:..\..\..\lvgl\version_6.1.2\lvgl\src\lv_objx/lv_win.c **** 
 738              		.loc 1 105 0
 739 0148 FFF7FEFF 		bl	lv_label_set_text
 740              	.LVL116:
 107:..\..\..\lvgl\version_6.1.2\lvgl\src\lv_objx/lv_win.c **** 
 741              		.loc 1 107 0
 742 014c 5249     		ldr	r1, .L80+12
 743 014e 3846     		mov	r0, r7
 744 0150 FFF7FEFF 		bl	lv_obj_set_signal_cb
 745              	.LVL117:
 110:..\..\..\lvgl\version_6.1.2\lvgl\src\lv_objx/lv_win.c ****         if(th) {
 746              		.loc 1 110 0
 747 0154 FFF7FEFF 		bl	lv_theme_get_current
 748              	.LVL118:
 111:..\..\..\lvgl\version_6.1.2\lvgl\src\lv_objx/lv_win.c ****             lv_win_set_style(new_win, LV_WIN_STYLE_BG, th->style.win.bg);
 749              		.loc 1 111 0
 750 0158 0546     		mov	r5, r0
 751              	.LVL119:
 752 015a 0028     		cmp	r0, #0
 753 015c 6DD0     		beq	.L60
 112:..\..\..\lvgl\version_6.1.2\lvgl\src\lv_objx/lv_win.c ****             lv_win_set_style(new_win, LV_WIN_STYLE_SB, th->style.win.sb);
 754              		.loc 1 112 0
 755 015e D0F89041 		ldr	r4, [r0, #400]
 756              	.LVL120:
 757              	.LBB75:
 758              	.LBB76:
 316:..\..\..\lvgl\version_6.1.2\lvgl\src\lv_objx/lv_win.c **** 
 759              		.loc 1 316 0
 760 0162 3846     		mov	r0, r7
 761              	.LVL121:
ARM GAS  C:\Users\pearlstl\AppData\Local\Temp\ccI2fBBa.s 			page 29


 762 0164 FFF7FEFF 		bl	lv_obj_get_ext_attr
 763              	.LVL122:
 320:..\..\..\lvgl\version_6.1.2\lvgl\src\lv_objx/lv_win.c ****             lv_win_realign(win);
 764              		.loc 1 320 0
 765 0168 2146     		mov	r1, r4
 766 016a 3846     		mov	r0, r7
 767 016c FFF7FEFF 		bl	lv_obj_set_style
 768              	.LVL123:
 321:..\..\..\lvgl\version_6.1.2\lvgl\src\lv_objx/lv_win.c ****             break;
 769              		.loc 1 321 0
 770 0170 3846     		mov	r0, r7
 771 0172 FFF7FEFF 		bl	lv_win_realign
 772              	.LVL124:
 773              	.LBE76:
 774              	.LBE75:
 775              	.LBB77:
 776              	.LBB78:
 316:..\..\..\lvgl\version_6.1.2\lvgl\src\lv_objx/lv_win.c **** 
 777              		.loc 1 316 0
 778 0176 3846     		mov	r0, r7
 779              	.LBE78:
 780              	.LBE77:
 113:..\..\..\lvgl\version_6.1.2\lvgl\src\lv_objx/lv_win.c ****             lv_win_set_style(new_win, LV_WIN_STYLE_HEADER, th->style.win.header);
 781              		.loc 1 113 0
 782 0178 D5F89441 		ldr	r4, [r5, #404]
 783              	.LVL125:
 784              	.LBB80:
 785              	.LBB79:
 316:..\..\..\lvgl\version_6.1.2\lvgl\src\lv_objx/lv_win.c **** 
 786              		.loc 1 316 0
 787 017c FFF7FEFF 		bl	lv_obj_get_ext_attr
 788              	.LVL126:
 324:..\..\..\lvgl\version_6.1.2\lvgl\src\lv_objx/lv_win.c ****         case LV_WIN_STYLE_HEADER:
 789              		.loc 1 324 0
 790 0180 2246     		mov	r2, r4
 791 0182 0221     		movs	r1, #2
 792 0184 0068     		ldr	r0, [r0]
 793              	.LVL127:
 794 0186 FFF7FEFF 		bl	lv_page_set_style
 795              	.LVL128:
 796              	.LBE79:
 797              	.LBE80:
 798              	.LBB81:
 799              	.LBB82:
 316:..\..\..\lvgl\version_6.1.2\lvgl\src\lv_objx/lv_win.c **** 
 800              		.loc 1 316 0
 801 018a 3846     		mov	r0, r7
 802              	.LBE82:
 803              	.LBE81:
 114:..\..\..\lvgl\version_6.1.2\lvgl\src\lv_objx/lv_win.c ****             lv_win_set_style(new_win, LV_WIN_STYLE_CONTENT, th->style.win.content);
 804              		.loc 1 114 0
 805 018c D5F89841 		ldr	r4, [r5, #408]
 806              	.LVL129:
 807              	.LBB84:
 808              	.LBB83:
 316:..\..\..\lvgl\version_6.1.2\lvgl\src\lv_objx/lv_win.c **** 
 809              		.loc 1 316 0
ARM GAS  C:\Users\pearlstl\AppData\Local\Temp\ccI2fBBa.s 			page 30


 810 0190 FFF7FEFF 		bl	lv_obj_get_ext_attr
 811              	.LVL130:
 326:..\..\..\lvgl\version_6.1.2\lvgl\src\lv_objx/lv_win.c ****             lv_win_realign(win);
 812              		.loc 1 326 0
 813 0194 2146     		mov	r1, r4
 814 0196 4068     		ldr	r0, [r0, #4]
 815              	.LVL131:
 816 0198 FFF7FEFF 		bl	lv_obj_set_style
 817              	.LVL132:
 327:..\..\..\lvgl\version_6.1.2\lvgl\src\lv_objx/lv_win.c ****             break;
 818              		.loc 1 327 0
 819 019c 3846     		mov	r0, r7
 820 019e FFF7FEFF 		bl	lv_win_realign
 821              	.LVL133:
 822              	.LBE83:
 823              	.LBE84:
 824              	.LBB85:
 825              	.LBB86:
 316:..\..\..\lvgl\version_6.1.2\lvgl\src\lv_objx/lv_win.c **** 
 826              		.loc 1 316 0
 827 01a2 3846     		mov	r0, r7
 828              	.LBE86:
 829              	.LBE85:
 115:..\..\..\lvgl\version_6.1.2\lvgl\src\lv_objx/lv_win.c ****             lv_win_set_style(new_win, LV_WIN_STYLE_BTN_REL, th->style.win.btn.rel);
 830              		.loc 1 115 0
 831 01a4 D5F89C41 		ldr	r4, [r5, #412]
 832              	.LVL134:
 833              	.LBB88:
 834              	.LBB87:
 316:..\..\..\lvgl\version_6.1.2\lvgl\src\lv_objx/lv_win.c **** 
 835              		.loc 1 316 0
 836 01a8 FFF7FEFF 		bl	lv_obj_get_ext_attr
 837              	.LVL135:
 323:..\..\..\lvgl\version_6.1.2\lvgl\src\lv_objx/lv_win.c ****         case LV_WIN_STYLE_SB: lv_page_set_style(ext->page, LV_PAGE_STYLE_SB, style); break;
 838              		.loc 1 323 0
 839 01ac 2246     		mov	r2, r4
 840 01ae 0121     		movs	r1, #1
 841 01b0 0068     		ldr	r0, [r0]
 842              	.LVL136:
 843 01b2 FFF7FEFF 		bl	lv_page_set_style
 844              	.LVL137:
 845              	.LBE87:
 846              	.LBE88:
 847              	.LBB89:
 848              	.LBB90:
 316:..\..\..\lvgl\version_6.1.2\lvgl\src\lv_objx/lv_win.c **** 
 849              		.loc 1 316 0
 850 01b6 3846     		mov	r0, r7
 851              	.LBE90:
 852              	.LBE89:
 116:..\..\..\lvgl\version_6.1.2\lvgl\src\lv_objx/lv_win.c ****             lv_win_set_style(new_win, LV_WIN_STYLE_BTN_PR, th->style.win.btn.pr);
 853              		.loc 1 116 0
 854 01b8 D5F8A081 		ldr	r8, [r5, #416]
 855              	.LVL138:
 856              	.LBB94:
 857              	.LBB93:
 316:..\..\..\lvgl\version_6.1.2\lvgl\src\lv_objx/lv_win.c **** 
ARM GAS  C:\Users\pearlstl\AppData\Local\Temp\ccI2fBBa.s 			page 31


 858              		.loc 1 316 0
 859 01bc FFF7FEFF 		bl	lv_obj_get_ext_attr
 860              	.LVL139:
 861              	.LBB91:
 336:..\..\..\lvgl\version_6.1.2\lvgl\src\lv_objx/lv_win.c ****         btn = lv_obj_get_child_back(ext->header, btn); /*Skip the title*/
 862              		.loc 1 336 0
 863 01c0 0021     		movs	r1, #0
 864              	.LBE91:
 316:..\..\..\lvgl\version_6.1.2\lvgl\src\lv_objx/lv_win.c **** 
 865              		.loc 1 316 0
 866 01c2 0646     		mov	r6, r0
 867              	.LVL140:
 329:..\..\..\lvgl\version_6.1.2\lvgl\src\lv_objx/lv_win.c ****         case LV_WIN_STYLE_BTN_PR: ext->style_btn_pr = style; break;
 868              		.loc 1 329 0
 869 01c4 C0F80C80 		str	r8, [r0, #12]
 870              	.LBB92:
 336:..\..\..\lvgl\version_6.1.2\lvgl\src\lv_objx/lv_win.c ****         btn = lv_obj_get_child_back(ext->header, btn); /*Skip the title*/
 871              		.loc 1 336 0
 872 01c8 4068     		ldr	r0, [r0, #4]
 873              	.LVL141:
 874 01ca FFF7FEFF 		bl	lv_obj_get_child_back
 875              	.LVL142:
 337:..\..\..\lvgl\version_6.1.2\lvgl\src\lv_objx/lv_win.c ****         while(btn != NULL) {
 876              		.loc 1 337 0
 877 01ce 0146     		mov	r1, r0
 878 01d0 7068     		ldr	r0, [r6, #4]
 879              	.LVL143:
 880 01d2 FFF7FEFF 		bl	lv_obj_get_child_back
 881              	.LVL144:
 338:..\..\..\lvgl\version_6.1.2\lvgl\src\lv_objx/lv_win.c ****             if(type == LV_WIN_STYLE_BTN_REL)
 882              		.loc 1 338 0
 883 01d6 0446     		mov	r4, r0
 884 01d8 58B1     		cbz	r0, .L65
 885              	.L64:
 340:..\..\..\lvgl\version_6.1.2\lvgl\src\lv_objx/lv_win.c ****             else
 886              		.loc 1 340 0
 887 01da 2046     		mov	r0, r4
 888 01dc 4246     		mov	r2, r8
 889 01de 0021     		movs	r1, #0
 890 01e0 FFF7FEFF 		bl	lv_btn_set_style
 891              	.LVL145:
 343:..\..\..\lvgl\version_6.1.2\lvgl\src\lv_objx/lv_win.c ****         }
 892              		.loc 1 343 0
 893 01e4 2146     		mov	r1, r4
 894 01e6 7068     		ldr	r0, [r6, #4]
 895 01e8 FFF7FEFF 		bl	lv_obj_get_child_back
 896              	.LVL146:
 338:..\..\..\lvgl\version_6.1.2\lvgl\src\lv_objx/lv_win.c ****             if(type == LV_WIN_STYLE_BTN_REL)
 897              		.loc 1 338 0
 898 01ec 0446     		mov	r4, r0
 899 01ee 0028     		cmp	r0, #0
 900 01f0 F3D1     		bne	.L64
 901              	.L65:
 902              	.LVL147:
 903              	.LBE92:
 904              	.LBE93:
 905              	.LBE94:
ARM GAS  C:\Users\pearlstl\AppData\Local\Temp\ccI2fBBa.s 			page 32


 906              	.LBB95:
 907              	.LBB96:
 316:..\..\..\lvgl\version_6.1.2\lvgl\src\lv_objx/lv_win.c **** 
 908              		.loc 1 316 0
 909 01f2 3846     		mov	r0, r7
 910              	.LBE96:
 911              	.LBE95:
 117:..\..\..\lvgl\version_6.1.2\lvgl\src\lv_objx/lv_win.c ****         } else {
 912              		.loc 1 117 0
 913 01f4 D5F8A461 		ldr	r6, [r5, #420]
 914              	.LVL148:
 915              	.LBB100:
 916              	.LBB99:
 316:..\..\..\lvgl\version_6.1.2\lvgl\src\lv_objx/lv_win.c **** 
 917              		.loc 1 316 0
 918 01f8 FFF7FEFF 		bl	lv_obj_get_ext_attr
 919              	.LVL149:
 920              	.LBB97:
 336:..\..\..\lvgl\version_6.1.2\lvgl\src\lv_objx/lv_win.c ****         btn = lv_obj_get_child_back(ext->header, btn); /*Skip the title*/
 921              		.loc 1 336 0
 922 01fc 0021     		movs	r1, #0
 923              	.LBE97:
 316:..\..\..\lvgl\version_6.1.2\lvgl\src\lv_objx/lv_win.c **** 
 924              		.loc 1 316 0
 925 01fe 0546     		mov	r5, r0
 926              	.LVL150:
 330:..\..\..\lvgl\version_6.1.2\lvgl\src\lv_objx/lv_win.c ****     }
 927              		.loc 1 330 0
 928 0200 0661     		str	r6, [r0, #16]
 929              	.LBB98:
 336:..\..\..\lvgl\version_6.1.2\lvgl\src\lv_objx/lv_win.c ****         btn = lv_obj_get_child_back(ext->header, btn); /*Skip the title*/
 930              		.loc 1 336 0
 931 0202 4068     		ldr	r0, [r0, #4]
 932              	.LVL151:
 933 0204 FFF7FEFF 		bl	lv_obj_get_child_back
 934              	.LVL152:
 337:..\..\..\lvgl\version_6.1.2\lvgl\src\lv_objx/lv_win.c ****         while(btn != NULL) {
 935              		.loc 1 337 0
 936 0208 0146     		mov	r1, r0
 937 020a 6868     		ldr	r0, [r5, #4]
 938              	.LVL153:
 939 020c FFF7FEFF 		bl	lv_obj_get_child_back
 940              	.LVL154:
 338:..\..\..\lvgl\version_6.1.2\lvgl\src\lv_objx/lv_win.c ****             if(type == LV_WIN_STYLE_BTN_REL)
 941              		.loc 1 338 0
 942 0210 0446     		mov	r4, r0
 943 0212 0028     		cmp	r0, #0
 944 0214 3FF454AF 		beq	.L66
 945              	.L67:
 342:..\..\..\lvgl\version_6.1.2\lvgl\src\lv_objx/lv_win.c ****             btn = lv_obj_get_child_back(ext->header, btn);
 946              		.loc 1 342 0
 947 0218 2046     		mov	r0, r4
 948 021a 3246     		mov	r2, r6
 949 021c 0121     		movs	r1, #1
 950 021e FFF7FEFF 		bl	lv_btn_set_style
 951              	.LVL155:
 343:..\..\..\lvgl\version_6.1.2\lvgl\src\lv_objx/lv_win.c ****         }
ARM GAS  C:\Users\pearlstl\AppData\Local\Temp\ccI2fBBa.s 			page 33


 952              		.loc 1 343 0
 953 0222 2146     		mov	r1, r4
 954 0224 6868     		ldr	r0, [r5, #4]
 955 0226 FFF7FEFF 		bl	lv_obj_get_child_back
 956              	.LVL156:
 338:..\..\..\lvgl\version_6.1.2\lvgl\src\lv_objx/lv_win.c ****             if(type == LV_WIN_STYLE_BTN_REL)
 957              		.loc 1 338 0
 958 022a 0446     		mov	r4, r0
 959 022c 0028     		cmp	r0, #0
 960 022e F3D1     		bne	.L67
 961 0230 46E7     		b	.L66
 962              	.LVL157:
 963              	.L78:
 964              	.LBE98:
 965              	.LBE99:
 966              	.LBE100:
 967              	.LBE74:
  59:..\..\..\lvgl\version_6.1.2\lvgl\src\lv_objx/lv_win.c **** 
 968              		.loc 1 59 0 discriminator 1
 969 0232 FFF7FEFF 		bl	lv_obj_get_signal_cb
 970              	.LVL158:
 971 0236 2060     		str	r0, [r4]
 972 0238 F1E6     		b	.L55
 973              	.LVL159:
 974              	.L60:
 975              	.LBB107:
 976              	.LBB101:
 977              	.LBB102:
 316:..\..\..\lvgl\version_6.1.2\lvgl\src\lv_objx/lv_win.c **** 
 978              		.loc 1 316 0
 979 023a 3846     		mov	r0, r7
 980              	.LVL160:
 981 023c FFF7FEFF 		bl	lv_obj_get_ext_attr
 982              	.LVL161:
 320:..\..\..\lvgl\version_6.1.2\lvgl\src\lv_objx/lv_win.c ****             lv_win_realign(win);
 983              		.loc 1 320 0
 984 0240 1949     		ldr	r1, .L80+28
 985 0242 3846     		mov	r0, r7
 986 0244 FFF7FEFF 		bl	lv_obj_set_style
 987              	.LVL162:
 321:..\..\..\lvgl\version_6.1.2\lvgl\src\lv_objx/lv_win.c ****             break;
 988              		.loc 1 321 0
 989 0248 3846     		mov	r0, r7
 990 024a FFF7FEFF 		bl	lv_win_realign
 991              	.LVL163:
 992              	.LBE102:
 993              	.LBE101:
 994              	.LBB103:
 995              	.LBB104:
 316:..\..\..\lvgl\version_6.1.2\lvgl\src\lv_objx/lv_win.c **** 
 996              		.loc 1 316 0
 997 024e 3846     		mov	r0, r7
 998 0250 FFF7FEFF 		bl	lv_obj_get_ext_attr
 999              	.LVL164:
 323:..\..\..\lvgl\version_6.1.2\lvgl\src\lv_objx/lv_win.c ****         case LV_WIN_STYLE_SB: lv_page_set_style(ext->page, LV_PAGE_STYLE_SB, style); break;
 1000              		.loc 1 323 0
 1001 0254 154A     		ldr	r2, .L80+32
ARM GAS  C:\Users\pearlstl\AppData\Local\Temp\ccI2fBBa.s 			page 34


 1002 0256 0068     		ldr	r0, [r0]
 1003              	.LVL165:
 1004 0258 0121     		movs	r1, #1
 1005 025a FFF7FEFF 		bl	lv_page_set_style
 1006              	.LVL166:
 1007              	.LBE104:
 1008              	.LBE103:
 1009              	.LBB105:
 1010              	.LBB106:
 316:..\..\..\lvgl\version_6.1.2\lvgl\src\lv_objx/lv_win.c **** 
 1011              		.loc 1 316 0
 1012 025e 3846     		mov	r0, r7
 1013 0260 FFF7FEFF 		bl	lv_obj_get_ext_attr
 1014              	.LVL167:
 326:..\..\..\lvgl\version_6.1.2\lvgl\src\lv_objx/lv_win.c ****             lv_win_realign(win);
 1015              		.loc 1 326 0
 1016 0264 1249     		ldr	r1, .L80+36
 1017 0266 4068     		ldr	r0, [r0, #4]
 1018              	.LVL168:
 1019 0268 FFF7FEFF 		bl	lv_obj_set_style
 1020              	.LVL169:
 327:..\..\..\lvgl\version_6.1.2\lvgl\src\lv_objx/lv_win.c ****             break;
 1021              		.loc 1 327 0
 1022 026c 3846     		mov	r0, r7
 1023 026e FFF7FEFF 		bl	lv_win_realign
 1024              	.LVL170:
 1025 0272 25E7     		b	.L66
 1026              	.LVL171:
 1027              	.L58:
 1028              	.LBE106:
 1029              	.LBE105:
  84:..\..\..\lvgl\version_6.1.2\lvgl\src\lv_objx/lv_win.c ****             h = lv_disp_get_ver_res(NULL);
 1030              		.loc 1 84 0
 1031 0274 4046     		mov	r0, r8
 1032              	.LVL172:
 1033 0276 FFF7FEFF 		bl	lv_disp_get_hor_res
 1034              	.LVL173:
 1035 027a 0446     		mov	r4, r0
 1036              	.LVL174:
  85:..\..\..\lvgl\version_6.1.2\lvgl\src\lv_objx/lv_win.c ****         }
 1037              		.loc 1 85 0
 1038 027c 4046     		mov	r0, r8
 1039 027e FFF7FEFF 		bl	lv_disp_get_ver_res
 1040              	.LVL175:
 1041 0282 0246     		mov	r2, r0
 1042              	.LVL176:
 1043 0284 35E7     		b	.L59
 1044              	.LVL177:
 1045              	.L56:
 1046              	.LBE107:
  57:..\..\..\lvgl\version_6.1.2\lvgl\src\lv_objx/lv_win.c **** 
 1047              		.loc 1 57 0
 1048 0286 0020     		movs	r0, #0
 1049 0288 BDE8F081 		pop	{r4, r5, r6, r7, r8, pc}
 1050              	.LVL178:
 1051              	.L81:
 1052              		.align	2
ARM GAS  C:\Users\pearlstl\AppData\Local\Temp\ccI2fBBa.s 			page 35


 1053              	.L80:
 1054 028c 00000000 		.word	.LANCHOR0
 1055 0290 00000000 		.word	lv_style_btn_rel
 1056 0294 00000000 		.word	lv_style_btn_pr
 1057 0298 00000000 		.word	lv_win_signal
 1058 029c 00000000 		.word	lv_style_pretty
 1059 02a0 00000000 		.word	lv_style_transp_fit
 1060 02a4 08000000 		.word	.LC1
 1061 02a8 00000000 		.word	lv_style_plain
 1062 02ac 00000000 		.word	lv_style_transp
 1063 02b0 00000000 		.word	lv_style_plain_color
 1064              		.cfi_endproc
 1065              	.LFE68:
 1066              		.size	lv_win_create, .-lv_win_create
 1067              		.section	.text.lv_win_clean,"ax",%progbits
 1068              		.align	2
 1069              		.global	lv_win_clean
 1070              		.thumb
 1071              		.thumb_func
 1072              		.type	lv_win_clean, %function
 1073              	lv_win_clean:
 1074              	.LFB69:
 162:..\..\..\lvgl\version_6.1.2\lvgl\src\lv_objx/lv_win.c ****     LV_ASSERT_OBJ(win, LV_OBJX_NAME);
 1075              		.loc 1 162 0
 1076              		.cfi_startproc
 1077              		@ args = 0, pretend = 0, frame = 0
 1078              		@ frame_needed = 0, uses_anonymous_args = 0
 1079              	.LVL179:
 1080 0000 08B5     		push	{r3, lr}
 1081              		.cfi_def_cfa_offset 8
 1082              		.cfi_offset 3, -8
 1083              		.cfi_offset 14, -4
 165:..\..\..\lvgl\version_6.1.2\lvgl\src\lv_objx/lv_win.c ****     lv_obj_clean(scrl);
 1084              		.loc 1 165 0
 1085 0002 FFF7FEFF 		bl	lv_page_get_scrl
 1086              	.LVL180:
 167:..\..\..\lvgl\version_6.1.2\lvgl\src\lv_objx/lv_win.c **** 
 1087              		.loc 1 167 0
 1088 0006 BDE80840 		pop	{r3, lr}
 1089              		.cfi_restore 14
 1090              		.cfi_restore 3
 1091              		.cfi_def_cfa_offset 0
 166:..\..\..\lvgl\version_6.1.2\lvgl\src\lv_objx/lv_win.c **** }
 1092              		.loc 1 166 0
 1093 000a FFF7FEBF 		b	lv_obj_clean
 1094              	.LVL181:
 1095              		.cfi_endproc
 1096              	.LFE69:
 1097              		.size	lv_win_clean, .-lv_win_clean
 1098 000e 00BF     		.section	.text.lv_win_add_btn,"ax",%progbits
 1099              		.align	2
 1100              		.global	lv_win_add_btn
 1101              		.thumb
 1102              		.thumb_func
 1103              		.type	lv_win_add_btn, %function
 1104              	lv_win_add_btn:
 1105              	.LFB70:
ARM GAS  C:\Users\pearlstl\AppData\Local\Temp\ccI2fBBa.s 			page 36


 180:..\..\..\lvgl\version_6.1.2\lvgl\src\lv_objx/lv_win.c ****     LV_ASSERT_OBJ(win, LV_OBJX_NAME);
 1106              		.loc 1 180 0
 1107              		.cfi_startproc
 1108              		@ args = 0, pretend = 0, frame = 0
 1109              		@ frame_needed = 0, uses_anonymous_args = 0
 1110              	.LVL182:
 1111 0000 F8B5     		push	{r3, r4, r5, r6, r7, lr}
 1112              		.cfi_def_cfa_offset 24
 1113              		.cfi_offset 3, -24
 1114              		.cfi_offset 4, -20
 1115              		.cfi_offset 5, -16
 1116              		.cfi_offset 6, -12
 1117              		.cfi_offset 7, -8
 1118              		.cfi_offset 14, -4
 180:..\..\..\lvgl\version_6.1.2\lvgl\src\lv_objx/lv_win.c ****     LV_ASSERT_OBJ(win, LV_OBJX_NAME);
 1119              		.loc 1 180 0
 1120 0002 0F46     		mov	r7, r1
 1121 0004 0646     		mov	r6, r0
 184:..\..\..\lvgl\version_6.1.2\lvgl\src\lv_objx/lv_win.c **** 
 1122              		.loc 1 184 0
 1123 0006 FFF7FEFF 		bl	lv_obj_get_ext_attr
 1124              	.LVL183:
 186:..\..\..\lvgl\version_6.1.2\lvgl\src\lv_objx/lv_win.c ****     lv_btn_set_style(btn, LV_BTN_STYLE_REL, ext->style_btn_rel);
 1125              		.loc 1 186 0
 1126 000a 0021     		movs	r1, #0
 184:..\..\..\lvgl\version_6.1.2\lvgl\src\lv_objx/lv_win.c **** 
 1127              		.loc 1 184 0
 1128 000c 0546     		mov	r5, r0
 1129              	.LVL184:
 186:..\..\..\lvgl\version_6.1.2\lvgl\src\lv_objx/lv_win.c ****     lv_btn_set_style(btn, LV_BTN_STYLE_REL, ext->style_btn_rel);
 1130              		.loc 1 186 0
 1131 000e 4068     		ldr	r0, [r0, #4]
 1132              	.LVL185:
 1133 0010 FFF7FEFF 		bl	lv_btn_create
 1134              	.LVL186:
 187:..\..\..\lvgl\version_6.1.2\lvgl\src\lv_objx/lv_win.c ****     lv_btn_set_style(btn, LV_BTN_STYLE_PR, ext->style_btn_pr);
 1135              		.loc 1 187 0
 1136 0014 EA68     		ldr	r2, [r5, #12]
 186:..\..\..\lvgl\version_6.1.2\lvgl\src\lv_objx/lv_win.c ****     lv_btn_set_style(btn, LV_BTN_STYLE_REL, ext->style_btn_rel);
 1137              		.loc 1 186 0
 1138 0016 0446     		mov	r4, r0
 1139              	.LVL187:
 187:..\..\..\lvgl\version_6.1.2\lvgl\src\lv_objx/lv_win.c ****     lv_btn_set_style(btn, LV_BTN_STYLE_PR, ext->style_btn_pr);
 1140              		.loc 1 187 0
 1141 0018 0021     		movs	r1, #0
 1142 001a FFF7FEFF 		bl	lv_btn_set_style
 1143              	.LVL188:
 188:..\..\..\lvgl\version_6.1.2\lvgl\src\lv_objx/lv_win.c ****     lv_obj_set_size(btn, ext->btn_size, ext->btn_size);
 1144              		.loc 1 188 0
 1145 001e 2A69     		ldr	r2, [r5, #16]
 1146 0020 2046     		mov	r0, r4
 1147 0022 0121     		movs	r1, #1
 1148 0024 FFF7FEFF 		bl	lv_btn_set_style
 1149              	.LVL189:
 189:..\..\..\lvgl\version_6.1.2\lvgl\src\lv_objx/lv_win.c **** 
 1150              		.loc 1 189 0
 1151 0028 B5F91420 		ldrsh	r2, [r5, #20]
ARM GAS  C:\Users\pearlstl\AppData\Local\Temp\ccI2fBBa.s 			page 37


 1152 002c 2046     		mov	r0, r4
 1153 002e 1146     		mov	r1, r2
 1154 0030 FFF7FEFF 		bl	lv_obj_set_size
 1155              	.LVL190:
 191:..\..\..\lvgl\version_6.1.2\lvgl\src\lv_objx/lv_win.c ****     lv_obj_set_click(img, false);
 1156              		.loc 1 191 0
 1157 0034 2046     		mov	r0, r4
 1158 0036 0021     		movs	r1, #0
 1159 0038 FFF7FEFF 		bl	lv_img_create
 1160              	.LVL191:
 192:..\..\..\lvgl\version_6.1.2\lvgl\src\lv_objx/lv_win.c ****     lv_img_set_src(img, img_src);
 1161              		.loc 1 192 0
 1162 003c 0021     		movs	r1, #0
 191:..\..\..\lvgl\version_6.1.2\lvgl\src\lv_objx/lv_win.c ****     lv_obj_set_click(img, false);
 1163              		.loc 1 191 0
 1164 003e 0546     		mov	r5, r0
 1165              	.LVL192:
 192:..\..\..\lvgl\version_6.1.2\lvgl\src\lv_objx/lv_win.c ****     lv_img_set_src(img, img_src);
 1166              		.loc 1 192 0
 1167 0040 FFF7FEFF 		bl	lv_obj_set_click
 1168              	.LVL193:
 193:..\..\..\lvgl\version_6.1.2\lvgl\src\lv_objx/lv_win.c **** 
 1169              		.loc 1 193 0
 1170 0044 3946     		mov	r1, r7
 1171 0046 2846     		mov	r0, r5
 1172 0048 FFF7FEFF 		bl	lv_img_set_src
 1173              	.LVL194:
 195:..\..\..\lvgl\version_6.1.2\lvgl\src\lv_objx/lv_win.c **** 
 1174              		.loc 1 195 0
 1175 004c 3046     		mov	r0, r6
 1176 004e FFF7FEFF 		bl	lv_win_realign
 1177              	.LVL195:
 198:..\..\..\lvgl\version_6.1.2\lvgl\src\lv_objx/lv_win.c **** 
 1178              		.loc 1 198 0
 1179 0052 2046     		mov	r0, r4
 1180 0054 F8BD     		pop	{r3, r4, r5, r6, r7, pc}
 1181              		.cfi_endproc
 1182              	.LFE70:
 1183              		.size	lv_win_add_btn, .-lv_win_add_btn
 1184 0056 00BF     		.section	.text.lv_win_close_event_cb,"ax",%progbits
 1185              		.align	2
 1186              		.global	lv_win_close_event_cb
 1187              		.thumb
 1188              		.thumb_func
 1189              		.type	lv_win_close_event_cb, %function
 1190              	lv_win_close_event_cb:
 1191              	.LFB71:
 210:..\..\..\lvgl\version_6.1.2\lvgl\src\lv_objx/lv_win.c ****     LV_ASSERT_OBJ(btn, "lv_btn");
 1192              		.loc 1 210 0
 1193              		.cfi_startproc
 1194              		@ args = 0, pretend = 0, frame = 0
 1195              		@ frame_needed = 0, uses_anonymous_args = 0
 1196              	.LVL196:
 213:..\..\..\lvgl\version_6.1.2\lvgl\src\lv_objx/lv_win.c ****         lv_obj_t * win = lv_win_get_from_btn(btn);
 1197              		.loc 1 213 0
 1198 0000 0729     		cmp	r1, #7
 1199 0002 00D0     		beq	.L90
ARM GAS  C:\Users\pearlstl\AppData\Local\Temp\ccI2fBBa.s 			page 38


 1200 0004 7047     		bx	lr
 1201              	.L90:
 210:..\..\..\lvgl\version_6.1.2\lvgl\src\lv_objx/lv_win.c ****     LV_ASSERT_OBJ(btn, "lv_btn");
 1202              		.loc 1 210 0
 1203 0006 08B5     		push	{r3, lr}
 1204              		.cfi_def_cfa_offset 8
 1205              		.cfi_offset 3, -8
 1206              		.cfi_offset 14, -4
 1207              	.LBB108:
 1208              	.LBB109:
 1209              	.LBB110:
 416:..\..\..\lvgl\version_6.1.2\lvgl\src\lv_objx/lv_win.c ****     lv_obj_t * win    = lv_obj_get_parent(header);
 1210              		.loc 1 416 0
 1211 0008 FFF7FEFF 		bl	lv_obj_get_parent
 1212              	.LVL197:
 417:..\..\..\lvgl\version_6.1.2\lvgl\src\lv_objx/lv_win.c **** 
 1213              		.loc 1 417 0
 1214 000c FFF7FEFF 		bl	lv_obj_get_parent
 1215              	.LVL198:
 1216              	.LBE110:
 1217              	.LBE109:
 1218              	.LBE108:
 218:..\..\..\lvgl\version_6.1.2\lvgl\src\lv_objx/lv_win.c **** 
 1219              		.loc 1 218 0
 1220 0010 BDE80840 		pop	{r3, lr}
 1221              		.cfi_restore 14
 1222              		.cfi_restore 3
 1223              		.cfi_def_cfa_offset 0
 1224              	.LBB111:
 216:..\..\..\lvgl\version_6.1.2\lvgl\src\lv_objx/lv_win.c ****     }
 1225              		.loc 1 216 0
 1226 0014 FFF7FEBF 		b	lv_obj_del
 1227              	.LVL199:
 1228              	.LBE111:
 1229              		.cfi_endproc
 1230              	.LFE71:
 1231              		.size	lv_win_close_event_cb, .-lv_win_close_event_cb
 1232              		.section	.text.lv_win_set_title,"ax",%progbits
 1233              		.align	2
 1234              		.global	lv_win_set_title
 1235              		.thumb
 1236              		.thumb_func
 1237              		.type	lv_win_set_title, %function
 1238              	lv_win_set_title:
 1239              	.LFB72:
 226:..\..\..\lvgl\version_6.1.2\lvgl\src\lv_objx/lv_win.c ****     LV_ASSERT_OBJ(win, LV_OBJX_NAME);
 1240              		.loc 1 226 0
 1241              		.cfi_startproc
 1242              		@ args = 0, pretend = 0, frame = 0
 1243              		@ frame_needed = 0, uses_anonymous_args = 0
 1244              	.LVL200:
 1245 0000 38B5     		push	{r3, r4, r5, lr}
 1246              		.cfi_def_cfa_offset 16
 1247              		.cfi_offset 3, -16
 1248              		.cfi_offset 4, -12
 1249              		.cfi_offset 5, -8
 1250              		.cfi_offset 14, -4
ARM GAS  C:\Users\pearlstl\AppData\Local\Temp\ccI2fBBa.s 			page 39


 226:..\..\..\lvgl\version_6.1.2\lvgl\src\lv_objx/lv_win.c ****     LV_ASSERT_OBJ(win, LV_OBJX_NAME);
 1251              		.loc 1 226 0
 1252 0002 0D46     		mov	r5, r1
 1253 0004 0446     		mov	r4, r0
 230:..\..\..\lvgl\version_6.1.2\lvgl\src\lv_objx/lv_win.c **** 
 1254              		.loc 1 230 0
 1255 0006 FFF7FEFF 		bl	lv_obj_get_ext_attr
 1256              	.LVL201:
 232:..\..\..\lvgl\version_6.1.2\lvgl\src\lv_objx/lv_win.c ****     lv_win_realign(win);
 1257              		.loc 1 232 0
 1258 000a 2946     		mov	r1, r5
 1259 000c 8068     		ldr	r0, [r0, #8]
 1260              	.LVL202:
 1261 000e FFF7FEFF 		bl	lv_label_set_text
 1262              	.LVL203:
 233:..\..\..\lvgl\version_6.1.2\lvgl\src\lv_objx/lv_win.c **** }
 1263              		.loc 1 233 0
 1264 0012 2046     		mov	r0, r4
 234:..\..\..\lvgl\version_6.1.2\lvgl\src\lv_objx/lv_win.c **** 
 1265              		.loc 1 234 0
 1266 0014 BDE83840 		pop	{r3, r4, r5, lr}
 1267              		.cfi_restore 14
 1268              		.cfi_restore 5
 1269              		.cfi_restore 4
 1270              		.cfi_restore 3
 1271              		.cfi_def_cfa_offset 0
 1272              	.LVL204:
 233:..\..\..\lvgl\version_6.1.2\lvgl\src\lv_objx/lv_win.c **** }
 1273              		.loc 1 233 0
 1274 0018 FFF7FEBF 		b	lv_win_realign
 1275              	.LVL205:
 1276              		.cfi_endproc
 1277              	.LFE72:
 1278              		.size	lv_win_set_title, .-lv_win_set_title
 1279              		.section	.text.lv_win_set_btn_size,"ax",%progbits
 1280              		.align	2
 1281              		.global	lv_win_set_btn_size
 1282              		.thumb
 1283              		.thumb_func
 1284              		.type	lv_win_set_btn_size, %function
 1285              	lv_win_set_btn_size:
 1286              	.LFB73:
 242:..\..\..\lvgl\version_6.1.2\lvgl\src\lv_objx/lv_win.c ****     LV_ASSERT_OBJ(win, LV_OBJX_NAME);
 1287              		.loc 1 242 0
 1288              		.cfi_startproc
 1289              		@ args = 0, pretend = 0, frame = 0
 1290              		@ frame_needed = 0, uses_anonymous_args = 0
 1291              	.LVL206:
 1292 0000 38B5     		push	{r3, r4, r5, lr}
 1293              		.cfi_def_cfa_offset 16
 1294              		.cfi_offset 3, -16
 1295              		.cfi_offset 4, -12
 1296              		.cfi_offset 5, -8
 1297              		.cfi_offset 14, -4
 242:..\..\..\lvgl\version_6.1.2\lvgl\src\lv_objx/lv_win.c ****     LV_ASSERT_OBJ(win, LV_OBJX_NAME);
 1298              		.loc 1 242 0
 1299 0002 0C46     		mov	r4, r1
ARM GAS  C:\Users\pearlstl\AppData\Local\Temp\ccI2fBBa.s 			page 40


 1300 0004 0546     		mov	r5, r0
 245:..\..\..\lvgl\version_6.1.2\lvgl\src\lv_objx/lv_win.c ****     if(ext->btn_size == size) return;
 1301              		.loc 1 245 0
 1302 0006 FFF7FEFF 		bl	lv_obj_get_ext_attr
 1303              	.LVL207:
 246:..\..\..\lvgl\version_6.1.2\lvgl\src\lv_objx/lv_win.c **** 
 1304              		.loc 1 246 0
 1305 000a B0F91430 		ldrsh	r3, [r0, #20]
 1306 000e A342     		cmp	r3, r4
 1307 0010 05D0     		beq	.L93
 248:..\..\..\lvgl\version_6.1.2\lvgl\src\lv_objx/lv_win.c **** 
 1308              		.loc 1 248 0
 1309 0012 8482     		strh	r4, [r0, #20]	@ movhi
 250:..\..\..\lvgl\version_6.1.2\lvgl\src\lv_objx/lv_win.c **** }
 1310              		.loc 1 250 0
 1311 0014 2846     		mov	r0, r5
 1312              	.LVL208:
 251:..\..\..\lvgl\version_6.1.2\lvgl\src\lv_objx/lv_win.c **** 
 1313              		.loc 1 251 0
 1314 0016 BDE83840 		pop	{r3, r4, r5, lr}
 1315              		.cfi_remember_state
 1316              		.cfi_restore 14
 1317              		.cfi_restore 5
 1318              		.cfi_restore 4
 1319              		.cfi_restore 3
 1320              		.cfi_def_cfa_offset 0
 1321              	.LVL209:
 250:..\..\..\lvgl\version_6.1.2\lvgl\src\lv_objx/lv_win.c **** }
 1322              		.loc 1 250 0
 1323 001a FFF7FEBF 		b	lv_win_realign
 1324              	.LVL210:
 1325              	.L93:
 1326              		.cfi_restore_state
 1327 001e 38BD     		pop	{r3, r4, r5, pc}
 1328              		.cfi_endproc
 1329              	.LFE73:
 1330              		.size	lv_win_set_btn_size, .-lv_win_set_btn_size
 1331              		.section	.text.lv_win_set_content_size,"ax",%progbits
 1332              		.align	2
 1333              		.global	lv_win_set_content_size
 1334              		.thumb
 1335              		.thumb_func
 1336              		.type	lv_win_set_content_size, %function
 1337              	lv_win_set_content_size:
 1338              	.LFB74:
 260:..\..\..\lvgl\version_6.1.2\lvgl\src\lv_objx/lv_win.c ****     LV_ASSERT_OBJ(win, LV_OBJX_NAME);
 1339              		.loc 1 260 0
 1340              		.cfi_startproc
 1341              		@ args = 0, pretend = 0, frame = 0
 1342              		@ frame_needed = 0, uses_anonymous_args = 0
 1343              	.LVL211:
 1344 0000 70B5     		push	{r4, r5, r6, lr}
 1345              		.cfi_def_cfa_offset 16
 1346              		.cfi_offset 4, -16
 1347              		.cfi_offset 5, -12
 1348              		.cfi_offset 6, -8
 1349              		.cfi_offset 14, -4
ARM GAS  C:\Users\pearlstl\AppData\Local\Temp\ccI2fBBa.s 			page 41


 260:..\..\..\lvgl\version_6.1.2\lvgl\src\lv_objx/lv_win.c ****     LV_ASSERT_OBJ(win, LV_OBJX_NAME);
 1350              		.loc 1 260 0
 1351 0002 0E46     		mov	r6, r1
 1352 0004 1446     		mov	r4, r2
 1353 0006 0546     		mov	r5, r0
 263:..\..\..\lvgl\version_6.1.2\lvgl\src\lv_objx/lv_win.c ****     h += lv_obj_get_height(ext->header);
 1354              		.loc 1 263 0
 1355 0008 FFF7FEFF 		bl	lv_obj_get_ext_attr
 1356              	.LVL212:
 264:..\..\..\lvgl\version_6.1.2\lvgl\src\lv_objx/lv_win.c **** 
 1357              		.loc 1 264 0
 1358 000c 4068     		ldr	r0, [r0, #4]
 1359              	.LVL213:
 1360 000e FFF7FEFF 		bl	lv_obj_get_height
 1361              	.LVL214:
 1362 0012 0219     		adds	r2, r0, r4
 1363              	.LVL215:
 266:..\..\..\lvgl\version_6.1.2\lvgl\src\lv_objx/lv_win.c **** }
 1364              		.loc 1 266 0
 1365 0014 3146     		mov	r1, r6
 1366 0016 2846     		mov	r0, r5
 1367 0018 12B2     		sxth	r2, r2
 267:..\..\..\lvgl\version_6.1.2\lvgl\src\lv_objx/lv_win.c **** 
 1368              		.loc 1 267 0
 1369 001a BDE87040 		pop	{r4, r5, r6, lr}
 1370              		.cfi_restore 14
 1371              		.cfi_restore 6
 1372              		.cfi_restore 5
 1373              		.cfi_restore 4
 1374              		.cfi_def_cfa_offset 0
 1375              	.LVL216:
 266:..\..\..\lvgl\version_6.1.2\lvgl\src\lv_objx/lv_win.c **** }
 1376              		.loc 1 266 0
 1377 001e FFF7FEBF 		b	lv_obj_set_size
 1378              	.LVL217:
 1379              		.cfi_endproc
 1380              	.LFE74:
 1381              		.size	lv_win_set_content_size, .-lv_win_set_content_size
 1382 0022 00BF     		.section	.text.lv_win_set_layout,"ax",%progbits
 1383              		.align	2
 1384              		.global	lv_win_set_layout
 1385              		.thumb
 1386              		.thumb_func
 1387              		.type	lv_win_set_layout, %function
 1388              	lv_win_set_layout:
 1389              	.LFB75:
 275:..\..\..\lvgl\version_6.1.2\lvgl\src\lv_objx/lv_win.c ****     LV_ASSERT_OBJ(win, LV_OBJX_NAME);
 1390              		.loc 1 275 0
 1391              		.cfi_startproc
 1392              		@ args = 0, pretend = 0, frame = 0
 1393              		@ frame_needed = 0, uses_anonymous_args = 0
 1394              	.LVL218:
 1395 0000 10B5     		push	{r4, lr}
 1396              		.cfi_def_cfa_offset 8
 1397              		.cfi_offset 4, -8
 1398              		.cfi_offset 14, -4
 275:..\..\..\lvgl\version_6.1.2\lvgl\src\lv_objx/lv_win.c ****     LV_ASSERT_OBJ(win, LV_OBJX_NAME);
ARM GAS  C:\Users\pearlstl\AppData\Local\Temp\ccI2fBBa.s 			page 42


 1399              		.loc 1 275 0
 1400 0002 0C46     		mov	r4, r1
 278:..\..\..\lvgl\version_6.1.2\lvgl\src\lv_objx/lv_win.c ****     lv_page_set_scrl_layout(ext->page, layout);
 1401              		.loc 1 278 0
 1402 0004 FFF7FEFF 		bl	lv_obj_get_ext_attr
 1403              	.LVL219:
 1404              	.LBB112:
 1405              	.LBB113:
 1406              		.file 3 "..\\..\\..\\lvgl\\version_6.1.2\\lvgl\\src\\lv_objx\\lv_page.h"
   1:..\..\..\lvgl\version_6.1.2\lvgl\src\lv_objx/lv_page.h **** /**
   2:..\..\..\lvgl\version_6.1.2\lvgl\src\lv_objx/lv_page.h ****  * @file lv_page.h
   3:..\..\..\lvgl\version_6.1.2\lvgl\src\lv_objx/lv_page.h ****  *
   4:..\..\..\lvgl\version_6.1.2\lvgl\src\lv_objx/lv_page.h ****  */
   5:..\..\..\lvgl\version_6.1.2\lvgl\src\lv_objx/lv_page.h **** 
   6:..\..\..\lvgl\version_6.1.2\lvgl\src\lv_objx/lv_page.h **** #ifndef LV_PAGE_H
   7:..\..\..\lvgl\version_6.1.2\lvgl\src\lv_objx/lv_page.h **** #define LV_PAGE_H
   8:..\..\..\lvgl\version_6.1.2\lvgl\src\lv_objx/lv_page.h **** 
   9:..\..\..\lvgl\version_6.1.2\lvgl\src\lv_objx/lv_page.h **** #ifdef __cplusplus
  10:..\..\..\lvgl\version_6.1.2\lvgl\src\lv_objx/lv_page.h **** extern "C" {
  11:..\..\..\lvgl\version_6.1.2\lvgl\src\lv_objx/lv_page.h **** #endif
  12:..\..\..\lvgl\version_6.1.2\lvgl\src\lv_objx/lv_page.h **** 
  13:..\..\..\lvgl\version_6.1.2\lvgl\src\lv_objx/lv_page.h **** /*********************
  14:..\..\..\lvgl\version_6.1.2\lvgl\src\lv_objx/lv_page.h ****  *      INCLUDES
  15:..\..\..\lvgl\version_6.1.2\lvgl\src\lv_objx/lv_page.h ****  *********************/
  16:..\..\..\lvgl\version_6.1.2\lvgl\src\lv_objx/lv_page.h **** #ifdef LV_CONF_INCLUDE_SIMPLE
  17:..\..\..\lvgl\version_6.1.2\lvgl\src\lv_objx/lv_page.h **** #include "lv_conf.h"
  18:..\..\..\lvgl\version_6.1.2\lvgl\src\lv_objx/lv_page.h **** #else
  19:..\..\..\lvgl\version_6.1.2\lvgl\src\lv_objx/lv_page.h **** #include "../../../lv_conf.h"
  20:..\..\..\lvgl\version_6.1.2\lvgl\src\lv_objx/lv_page.h **** #endif
  21:..\..\..\lvgl\version_6.1.2\lvgl\src\lv_objx/lv_page.h **** 
  22:..\..\..\lvgl\version_6.1.2\lvgl\src\lv_objx/lv_page.h **** #if LV_USE_PAGE != 0
  23:..\..\..\lvgl\version_6.1.2\lvgl\src\lv_objx/lv_page.h **** 
  24:..\..\..\lvgl\version_6.1.2\lvgl\src\lv_objx/lv_page.h **** /*Testing of dependencies*/
  25:..\..\..\lvgl\version_6.1.2\lvgl\src\lv_objx/lv_page.h **** #if LV_USE_CONT == 0
  26:..\..\..\lvgl\version_6.1.2\lvgl\src\lv_objx/lv_page.h **** #error "lv_page: lv_cont is required. Enable it in lv_conf.h (LV_USE_CONT  1) "
  27:..\..\..\lvgl\version_6.1.2\lvgl\src\lv_objx/lv_page.h **** #endif
  28:..\..\..\lvgl\version_6.1.2\lvgl\src\lv_objx/lv_page.h **** 
  29:..\..\..\lvgl\version_6.1.2\lvgl\src\lv_objx/lv_page.h **** #include "lv_cont.h"
  30:..\..\..\lvgl\version_6.1.2\lvgl\src\lv_objx/lv_page.h **** #include "../lv_core/lv_indev.h"
  31:..\..\..\lvgl\version_6.1.2\lvgl\src\lv_objx/lv_page.h **** #include "../lv_misc/lv_anim.h"
  32:..\..\..\lvgl\version_6.1.2\lvgl\src\lv_objx/lv_page.h **** 
  33:..\..\..\lvgl\version_6.1.2\lvgl\src\lv_objx/lv_page.h **** /*********************
  34:..\..\..\lvgl\version_6.1.2\lvgl\src\lv_objx/lv_page.h ****  *      DEFINES
  35:..\..\..\lvgl\version_6.1.2\lvgl\src\lv_objx/lv_page.h ****  *********************/
  36:..\..\..\lvgl\version_6.1.2\lvgl\src\lv_objx/lv_page.h **** 
  37:..\..\..\lvgl\version_6.1.2\lvgl\src\lv_objx/lv_page.h **** /**********************
  38:..\..\..\lvgl\version_6.1.2\lvgl\src\lv_objx/lv_page.h ****  *      TYPEDEFS
  39:..\..\..\lvgl\version_6.1.2\lvgl\src\lv_objx/lv_page.h ****  **********************/
  40:..\..\..\lvgl\version_6.1.2\lvgl\src\lv_objx/lv_page.h **** 
  41:..\..\..\lvgl\version_6.1.2\lvgl\src\lv_objx/lv_page.h **** /** Scrollbar modes: shows when should the scrollbars be visible*/
  42:..\..\..\lvgl\version_6.1.2\lvgl\src\lv_objx/lv_page.h **** enum {
  43:..\..\..\lvgl\version_6.1.2\lvgl\src\lv_objx/lv_page.h ****     LV_SB_MODE_OFF    = 0x0, /**< Never show scrollbars*/
  44:..\..\..\lvgl\version_6.1.2\lvgl\src\lv_objx/lv_page.h ****     LV_SB_MODE_ON     = 0x1, /**< Always show scrollbars*/
  45:..\..\..\lvgl\version_6.1.2\lvgl\src\lv_objx/lv_page.h ****     LV_SB_MODE_DRAG   = 0x2, /**< Show scrollbars when page is being dragged*/
  46:..\..\..\lvgl\version_6.1.2\lvgl\src\lv_objx/lv_page.h ****     LV_SB_MODE_AUTO   = 0x3, /**< Show scrollbars when the scrollable container is large enough to 
  47:..\..\..\lvgl\version_6.1.2\lvgl\src\lv_objx/lv_page.h ****     LV_SB_MODE_HIDE   = 0x4, /**< Hide the scroll bar temporally*/
  48:..\..\..\lvgl\version_6.1.2\lvgl\src\lv_objx/lv_page.h ****     LV_SB_MODE_UNHIDE = 0x5, /**< Unhide the previously hidden scrollbar. Recover it's type too*/
ARM GAS  C:\Users\pearlstl\AppData\Local\Temp\ccI2fBBa.s 			page 43


  49:..\..\..\lvgl\version_6.1.2\lvgl\src\lv_objx/lv_page.h **** };
  50:..\..\..\lvgl\version_6.1.2\lvgl\src\lv_objx/lv_page.h **** typedef uint8_t lv_sb_mode_t;
  51:..\..\..\lvgl\version_6.1.2\lvgl\src\lv_objx/lv_page.h **** 
  52:..\..\..\lvgl\version_6.1.2\lvgl\src\lv_objx/lv_page.h **** /** Edges: describes the four edges of the page*/
  53:..\..\..\lvgl\version_6.1.2\lvgl\src\lv_objx/lv_page.h **** enum { LV_PAGE_EDGE_LEFT = 0x1, LV_PAGE_EDGE_TOP = 0x2, LV_PAGE_EDGE_RIGHT = 0x4, LV_PAGE_EDGE_BOTT
  54:..\..\..\lvgl\version_6.1.2\lvgl\src\lv_objx/lv_page.h **** typedef uint8_t lv_page_edge_t;
  55:..\..\..\lvgl\version_6.1.2\lvgl\src\lv_objx/lv_page.h **** 
  56:..\..\..\lvgl\version_6.1.2\lvgl\src\lv_objx/lv_page.h **** /*Data of page*/
  57:..\..\..\lvgl\version_6.1.2\lvgl\src\lv_objx/lv_page.h **** typedef struct
  58:..\..\..\lvgl\version_6.1.2\lvgl\src\lv_objx/lv_page.h **** {
  59:..\..\..\lvgl\version_6.1.2\lvgl\src\lv_objx/lv_page.h ****     lv_cont_ext_t bg; /*Ext. of ancestor*/
  60:..\..\..\lvgl\version_6.1.2\lvgl\src\lv_objx/lv_page.h ****     /*New data for this type */
  61:..\..\..\lvgl\version_6.1.2\lvgl\src\lv_objx/lv_page.h ****     lv_obj_t * scrl; /*The scrollable object on the background*/
  62:..\..\..\lvgl\version_6.1.2\lvgl\src\lv_objx/lv_page.h ****     struct
  63:..\..\..\lvgl\version_6.1.2\lvgl\src\lv_objx/lv_page.h ****     {
  64:..\..\..\lvgl\version_6.1.2\lvgl\src\lv_objx/lv_page.h ****         const lv_style_t * style; /*Style of scrollbars*/
  65:..\..\..\lvgl\version_6.1.2\lvgl\src\lv_objx/lv_page.h ****         lv_area_t hor_area;       /*Horizontal scrollbar area relative to the page. (Handled by the
  66:..\..\..\lvgl\version_6.1.2\lvgl\src\lv_objx/lv_page.h ****         lv_area_t ver_area;       /*Vertical scrollbar area relative to the page (Handled by the li
  67:..\..\..\lvgl\version_6.1.2\lvgl\src\lv_objx/lv_page.h ****         uint8_t hor_draw : 1;     /*1: horizontal scrollbar is visible now (Handled by the library)
  68:..\..\..\lvgl\version_6.1.2\lvgl\src\lv_objx/lv_page.h ****         uint8_t ver_draw : 1;     /*1: vertical scrollbar is visible now (Handled by the library)*/
  69:..\..\..\lvgl\version_6.1.2\lvgl\src\lv_objx/lv_page.h ****         lv_sb_mode_t mode : 3;    /*Scrollbar visibility from 'lv_page_sb_mode_t'*/
  70:..\..\..\lvgl\version_6.1.2\lvgl\src\lv_objx/lv_page.h ****     } sb;
  71:..\..\..\lvgl\version_6.1.2\lvgl\src\lv_objx/lv_page.h **** #if LV_USE_ANIMATION
  72:..\..\..\lvgl\version_6.1.2\lvgl\src\lv_objx/lv_page.h ****     struct
  73:..\..\..\lvgl\version_6.1.2\lvgl\src\lv_objx/lv_page.h ****     {
  74:..\..\..\lvgl\version_6.1.2\lvgl\src\lv_objx/lv_page.h ****         lv_anim_value_t state;    /*Store the current size of the edge flash effect*/
  75:..\..\..\lvgl\version_6.1.2\lvgl\src\lv_objx/lv_page.h ****         const lv_style_t * style; /*Style of edge flash effect (usually homogeneous circle)*/
  76:..\..\..\lvgl\version_6.1.2\lvgl\src\lv_objx/lv_page.h ****         uint8_t enabled : 1;      /*1: Show a flash animation on the edge*/
  77:..\..\..\lvgl\version_6.1.2\lvgl\src\lv_objx/lv_page.h ****         uint8_t top_ip : 1;       /*Used internally to show that top most position is reached (flas
  78:..\..\..\lvgl\version_6.1.2\lvgl\src\lv_objx/lv_page.h ****                                      Progress)*/
  79:..\..\..\lvgl\version_6.1.2\lvgl\src\lv_objx/lv_page.h ****         uint8_t bottom_ip : 1;    /*Used internally to show that bottom most position is reached (f
  80:..\..\..\lvgl\version_6.1.2\lvgl\src\lv_objx/lv_page.h ****                                      is In Progress)*/
  81:..\..\..\lvgl\version_6.1.2\lvgl\src\lv_objx/lv_page.h ****         uint8_t right_ip : 1;     /*Used internally to show that right most position is reached (fl
  82:..\..\..\lvgl\version_6.1.2\lvgl\src\lv_objx/lv_page.h ****                                      is In Progress)*/
  83:..\..\..\lvgl\version_6.1.2\lvgl\src\lv_objx/lv_page.h ****         uint8_t left_ip : 1;      /*Used internally to show that left most position is reached (fla
  84:..\..\..\lvgl\version_6.1.2\lvgl\src\lv_objx/lv_page.h ****                                      In Progress)*/
  85:..\..\..\lvgl\version_6.1.2\lvgl\src\lv_objx/lv_page.h ****     } edge_flash;
  86:..\..\..\lvgl\version_6.1.2\lvgl\src\lv_objx/lv_page.h **** 
  87:..\..\..\lvgl\version_6.1.2\lvgl\src\lv_objx/lv_page.h ****     uint16_t anim_time; /*Scroll animation time*/
  88:..\..\..\lvgl\version_6.1.2\lvgl\src\lv_objx/lv_page.h **** #endif
  89:..\..\..\lvgl\version_6.1.2\lvgl\src\lv_objx/lv_page.h **** 
  90:..\..\..\lvgl\version_6.1.2\lvgl\src\lv_objx/lv_page.h ****     uint8_t scroll_prop : 1;    /*1: Propagate the scrolling the the parent if the edge is reached*
  91:..\..\..\lvgl\version_6.1.2\lvgl\src\lv_objx/lv_page.h ****     uint8_t scroll_prop_ip : 1; /*1: Scroll propagation is in progress (used by the library)*/
  92:..\..\..\lvgl\version_6.1.2\lvgl\src\lv_objx/lv_page.h **** } lv_page_ext_t;
  93:..\..\..\lvgl\version_6.1.2\lvgl\src\lv_objx/lv_page.h **** 
  94:..\..\..\lvgl\version_6.1.2\lvgl\src\lv_objx/lv_page.h **** enum {
  95:..\..\..\lvgl\version_6.1.2\lvgl\src\lv_objx/lv_page.h ****     LV_PAGE_STYLE_BG,
  96:..\..\..\lvgl\version_6.1.2\lvgl\src\lv_objx/lv_page.h ****     LV_PAGE_STYLE_SCRL,
  97:..\..\..\lvgl\version_6.1.2\lvgl\src\lv_objx/lv_page.h ****     LV_PAGE_STYLE_SB,
  98:..\..\..\lvgl\version_6.1.2\lvgl\src\lv_objx/lv_page.h ****     LV_PAGE_STYLE_EDGE_FLASH,
  99:..\..\..\lvgl\version_6.1.2\lvgl\src\lv_objx/lv_page.h **** };
 100:..\..\..\lvgl\version_6.1.2\lvgl\src\lv_objx/lv_page.h **** typedef uint8_t lv_page_style_t;
 101:..\..\..\lvgl\version_6.1.2\lvgl\src\lv_objx/lv_page.h **** 
 102:..\..\..\lvgl\version_6.1.2\lvgl\src\lv_objx/lv_page.h **** /**********************
 103:..\..\..\lvgl\version_6.1.2\lvgl\src\lv_objx/lv_page.h ****  * GLOBAL PROTOTYPES
 104:..\..\..\lvgl\version_6.1.2\lvgl\src\lv_objx/lv_page.h ****  **********************/
 105:..\..\..\lvgl\version_6.1.2\lvgl\src\lv_objx/lv_page.h **** 
ARM GAS  C:\Users\pearlstl\AppData\Local\Temp\ccI2fBBa.s 			page 44


 106:..\..\..\lvgl\version_6.1.2\lvgl\src\lv_objx/lv_page.h **** /**
 107:..\..\..\lvgl\version_6.1.2\lvgl\src\lv_objx/lv_page.h ****  * Create a page objects
 108:..\..\..\lvgl\version_6.1.2\lvgl\src\lv_objx/lv_page.h ****  * @param par pointer to an object, it will be the parent of the new page
 109:..\..\..\lvgl\version_6.1.2\lvgl\src\lv_objx/lv_page.h ****  * @param copy pointer to a page object, if not NULL then the new object will be copied from it
 110:..\..\..\lvgl\version_6.1.2\lvgl\src\lv_objx/lv_page.h ****  * @return pointer to the created page
 111:..\..\..\lvgl\version_6.1.2\lvgl\src\lv_objx/lv_page.h ****  */
 112:..\..\..\lvgl\version_6.1.2\lvgl\src\lv_objx/lv_page.h **** lv_obj_t * lv_page_create(lv_obj_t * par, const lv_obj_t * copy);
 113:..\..\..\lvgl\version_6.1.2\lvgl\src\lv_objx/lv_page.h **** 
 114:..\..\..\lvgl\version_6.1.2\lvgl\src\lv_objx/lv_page.h **** /**
 115:..\..\..\lvgl\version_6.1.2\lvgl\src\lv_objx/lv_page.h ****  * Delete all children of the scrl object, without deleting scrl child.
 116:..\..\..\lvgl\version_6.1.2\lvgl\src\lv_objx/lv_page.h ****  * @param page pointer to an object
 117:..\..\..\lvgl\version_6.1.2\lvgl\src\lv_objx/lv_page.h ****  */
 118:..\..\..\lvgl\version_6.1.2\lvgl\src\lv_objx/lv_page.h **** void lv_page_clean(lv_obj_t * page);
 119:..\..\..\lvgl\version_6.1.2\lvgl\src\lv_objx/lv_page.h **** 
 120:..\..\..\lvgl\version_6.1.2\lvgl\src\lv_objx/lv_page.h **** /**
 121:..\..\..\lvgl\version_6.1.2\lvgl\src\lv_objx/lv_page.h ****  * Get the scrollable object of a page
 122:..\..\..\lvgl\version_6.1.2\lvgl\src\lv_objx/lv_page.h ****  * @param page pointer to a page object
 123:..\..\..\lvgl\version_6.1.2\lvgl\src\lv_objx/lv_page.h ****  * @return pointer to a container which is the scrollable part of the page
 124:..\..\..\lvgl\version_6.1.2\lvgl\src\lv_objx/lv_page.h ****  */
 125:..\..\..\lvgl\version_6.1.2\lvgl\src\lv_objx/lv_page.h **** lv_obj_t * lv_page_get_scrl(const lv_obj_t * page);
 126:..\..\..\lvgl\version_6.1.2\lvgl\src\lv_objx/lv_page.h **** 
 127:..\..\..\lvgl\version_6.1.2\lvgl\src\lv_objx/lv_page.h **** /**
 128:..\..\..\lvgl\version_6.1.2\lvgl\src\lv_objx/lv_page.h ****  * Get the animation time
 129:..\..\..\lvgl\version_6.1.2\lvgl\src\lv_objx/lv_page.h ****  * @param page pointer to a page object
 130:..\..\..\lvgl\version_6.1.2\lvgl\src\lv_objx/lv_page.h ****  * @return the animation time in milliseconds
 131:..\..\..\lvgl\version_6.1.2\lvgl\src\lv_objx/lv_page.h ****  */
 132:..\..\..\lvgl\version_6.1.2\lvgl\src\lv_objx/lv_page.h **** uint16_t lv_page_get_anim_time(const lv_obj_t * page);
 133:..\..\..\lvgl\version_6.1.2\lvgl\src\lv_objx/lv_page.h **** 
 134:..\..\..\lvgl\version_6.1.2\lvgl\src\lv_objx/lv_page.h **** /*=====================
 135:..\..\..\lvgl\version_6.1.2\lvgl\src\lv_objx/lv_page.h ****  * Setter functions
 136:..\..\..\lvgl\version_6.1.2\lvgl\src\lv_objx/lv_page.h ****  *====================*/
 137:..\..\..\lvgl\version_6.1.2\lvgl\src\lv_objx/lv_page.h **** 
 138:..\..\..\lvgl\version_6.1.2\lvgl\src\lv_objx/lv_page.h **** /**
 139:..\..\..\lvgl\version_6.1.2\lvgl\src\lv_objx/lv_page.h ****  * Set the scroll bar mode on a page
 140:..\..\..\lvgl\version_6.1.2\lvgl\src\lv_objx/lv_page.h ****  * @param page pointer to a page object
 141:..\..\..\lvgl\version_6.1.2\lvgl\src\lv_objx/lv_page.h ****  * @param sb_mode the new mode from 'lv_page_sb.mode_t' enum
 142:..\..\..\lvgl\version_6.1.2\lvgl\src\lv_objx/lv_page.h ****  */
 143:..\..\..\lvgl\version_6.1.2\lvgl\src\lv_objx/lv_page.h **** void lv_page_set_sb_mode(lv_obj_t * page, lv_sb_mode_t sb_mode);
 144:..\..\..\lvgl\version_6.1.2\lvgl\src\lv_objx/lv_page.h **** 
 145:..\..\..\lvgl\version_6.1.2\lvgl\src\lv_objx/lv_page.h **** /**
 146:..\..\..\lvgl\version_6.1.2\lvgl\src\lv_objx/lv_page.h ****  * Set the animation time for the page
 147:..\..\..\lvgl\version_6.1.2\lvgl\src\lv_objx/lv_page.h ****  * @param page pointer to a page object
 148:..\..\..\lvgl\version_6.1.2\lvgl\src\lv_objx/lv_page.h ****  * @param anim_time animation time in milliseconds
 149:..\..\..\lvgl\version_6.1.2\lvgl\src\lv_objx/lv_page.h ****  */
 150:..\..\..\lvgl\version_6.1.2\lvgl\src\lv_objx/lv_page.h **** void lv_page_set_anim_time(lv_obj_t * page, uint16_t anim_time);
 151:..\..\..\lvgl\version_6.1.2\lvgl\src\lv_objx/lv_page.h **** 
 152:..\..\..\lvgl\version_6.1.2\lvgl\src\lv_objx/lv_page.h **** /**
 153:..\..\..\lvgl\version_6.1.2\lvgl\src\lv_objx/lv_page.h ****  * Enable the scroll propagation feature. If enabled then the page will move its parent if there is
 154:..\..\..\lvgl\version_6.1.2\lvgl\src\lv_objx/lv_page.h ****  * no more space to scroll.
 155:..\..\..\lvgl\version_6.1.2\lvgl\src\lv_objx/lv_page.h ****  * @param page pointer to a Page
 156:..\..\..\lvgl\version_6.1.2\lvgl\src\lv_objx/lv_page.h ****  * @param en true or false to enable/disable scroll propagation
 157:..\..\..\lvgl\version_6.1.2\lvgl\src\lv_objx/lv_page.h ****  */
 158:..\..\..\lvgl\version_6.1.2\lvgl\src\lv_objx/lv_page.h **** void lv_page_set_scroll_propagation(lv_obj_t * page, bool en);
 159:..\..\..\lvgl\version_6.1.2\lvgl\src\lv_objx/lv_page.h **** 
 160:..\..\..\lvgl\version_6.1.2\lvgl\src\lv_objx/lv_page.h **** /**
 161:..\..\..\lvgl\version_6.1.2\lvgl\src\lv_objx/lv_page.h ****  * Enable the edge flash effect. (Show an arc when the an edge is reached)
 162:..\..\..\lvgl\version_6.1.2\lvgl\src\lv_objx/lv_page.h ****  * @param page pointer to a Page
ARM GAS  C:\Users\pearlstl\AppData\Local\Temp\ccI2fBBa.s 			page 45


 163:..\..\..\lvgl\version_6.1.2\lvgl\src\lv_objx/lv_page.h ****  * @param en true or false to enable/disable end flash
 164:..\..\..\lvgl\version_6.1.2\lvgl\src\lv_objx/lv_page.h ****  */
 165:..\..\..\lvgl\version_6.1.2\lvgl\src\lv_objx/lv_page.h **** void lv_page_set_edge_flash(lv_obj_t * page, bool en);
 166:..\..\..\lvgl\version_6.1.2\lvgl\src\lv_objx/lv_page.h **** 
 167:..\..\..\lvgl\version_6.1.2\lvgl\src\lv_objx/lv_page.h **** /**
 168:..\..\..\lvgl\version_6.1.2\lvgl\src\lv_objx/lv_page.h ****  * Set the fit policy in all 4 directions separately.
 169:..\..\..\lvgl\version_6.1.2\lvgl\src\lv_objx/lv_page.h ****  * It tell how to change the page size automatically.
 170:..\..\..\lvgl\version_6.1.2\lvgl\src\lv_objx/lv_page.h ****  * @param page pointer to a page object
 171:..\..\..\lvgl\version_6.1.2\lvgl\src\lv_objx/lv_page.h ****  * @param left left fit policy from `lv_fit_t`
 172:..\..\..\lvgl\version_6.1.2\lvgl\src\lv_objx/lv_page.h ****  * @param right right fit policy from `lv_fit_t`
 173:..\..\..\lvgl\version_6.1.2\lvgl\src\lv_objx/lv_page.h ****  * @param top bottom fit policy from `lv_fit_t`
 174:..\..\..\lvgl\version_6.1.2\lvgl\src\lv_objx/lv_page.h ****  * @param bottom bottom fit policy from `lv_fit_t`
 175:..\..\..\lvgl\version_6.1.2\lvgl\src\lv_objx/lv_page.h ****  */
 176:..\..\..\lvgl\version_6.1.2\lvgl\src\lv_objx/lv_page.h **** static inline void lv_page_set_scrl_fit4(lv_obj_t * page, lv_fit_t left, lv_fit_t right, lv_fit_t t
 177:..\..\..\lvgl\version_6.1.2\lvgl\src\lv_objx/lv_page.h **** {
 178:..\..\..\lvgl\version_6.1.2\lvgl\src\lv_objx/lv_page.h ****     lv_cont_set_fit4(lv_page_get_scrl(page), left, right, top, bottom);
 179:..\..\..\lvgl\version_6.1.2\lvgl\src\lv_objx/lv_page.h **** }
 180:..\..\..\lvgl\version_6.1.2\lvgl\src\lv_objx/lv_page.h **** 
 181:..\..\..\lvgl\version_6.1.2\lvgl\src\lv_objx/lv_page.h **** /**
 182:..\..\..\lvgl\version_6.1.2\lvgl\src\lv_objx/lv_page.h ****  * Set the fit policy horizontally and vertically separately.
 183:..\..\..\lvgl\version_6.1.2\lvgl\src\lv_objx/lv_page.h ****  * It tell how to change the page size automatically.
 184:..\..\..\lvgl\version_6.1.2\lvgl\src\lv_objx/lv_page.h ****  * @param page pointer to a page object
 185:..\..\..\lvgl\version_6.1.2\lvgl\src\lv_objx/lv_page.h ****  * @param hot horizontal fit policy from `lv_fit_t`
 186:..\..\..\lvgl\version_6.1.2\lvgl\src\lv_objx/lv_page.h ****  * @param ver vertical fit policy from `lv_fit_t`
 187:..\..\..\lvgl\version_6.1.2\lvgl\src\lv_objx/lv_page.h ****  */
 188:..\..\..\lvgl\version_6.1.2\lvgl\src\lv_objx/lv_page.h **** static inline void lv_page_set_scrl_fit2(lv_obj_t * page, lv_fit_t hor, lv_fit_t ver)
 189:..\..\..\lvgl\version_6.1.2\lvgl\src\lv_objx/lv_page.h **** {
 190:..\..\..\lvgl\version_6.1.2\lvgl\src\lv_objx/lv_page.h ****     lv_cont_set_fit2(lv_page_get_scrl(page), hor, ver);
 191:..\..\..\lvgl\version_6.1.2\lvgl\src\lv_objx/lv_page.h **** }
 192:..\..\..\lvgl\version_6.1.2\lvgl\src\lv_objx/lv_page.h **** 
 193:..\..\..\lvgl\version_6.1.2\lvgl\src\lv_objx/lv_page.h **** /**
 194:..\..\..\lvgl\version_6.1.2\lvgl\src\lv_objx/lv_page.h ****  * Set the fit policyin all 4 direction at once.
 195:..\..\..\lvgl\version_6.1.2\lvgl\src\lv_objx/lv_page.h ****  * It tell how to change the page size automatically.
 196:..\..\..\lvgl\version_6.1.2\lvgl\src\lv_objx/lv_page.h ****  * @param page pointer to a button object
 197:..\..\..\lvgl\version_6.1.2\lvgl\src\lv_objx/lv_page.h ****  * @param fit fit policy from `lv_fit_t`
 198:..\..\..\lvgl\version_6.1.2\lvgl\src\lv_objx/lv_page.h ****  */
 199:..\..\..\lvgl\version_6.1.2\lvgl\src\lv_objx/lv_page.h **** static inline void lv_page_set_scrl_fit(lv_obj_t * page, lv_fit_t fit)
 200:..\..\..\lvgl\version_6.1.2\lvgl\src\lv_objx/lv_page.h **** {
 201:..\..\..\lvgl\version_6.1.2\lvgl\src\lv_objx/lv_page.h ****     lv_cont_set_fit(lv_page_get_scrl(page), fit);
 202:..\..\..\lvgl\version_6.1.2\lvgl\src\lv_objx/lv_page.h **** }
 203:..\..\..\lvgl\version_6.1.2\lvgl\src\lv_objx/lv_page.h **** 
 204:..\..\..\lvgl\version_6.1.2\lvgl\src\lv_objx/lv_page.h **** /**
 205:..\..\..\lvgl\version_6.1.2\lvgl\src\lv_objx/lv_page.h ****  * Set width of the scrollable part of a page
 206:..\..\..\lvgl\version_6.1.2\lvgl\src\lv_objx/lv_page.h ****  * @param page pointer to a page object
 207:..\..\..\lvgl\version_6.1.2\lvgl\src\lv_objx/lv_page.h ****  * @param w the new width of the scrollable (it ha no effect is horizontal fit is enabled)
 208:..\..\..\lvgl\version_6.1.2\lvgl\src\lv_objx/lv_page.h ****  */
 209:..\..\..\lvgl\version_6.1.2\lvgl\src\lv_objx/lv_page.h **** static inline void lv_page_set_scrl_width(lv_obj_t * page, lv_coord_t w)
 210:..\..\..\lvgl\version_6.1.2\lvgl\src\lv_objx/lv_page.h **** {
 211:..\..\..\lvgl\version_6.1.2\lvgl\src\lv_objx/lv_page.h ****     lv_obj_set_width(lv_page_get_scrl(page), w);
 212:..\..\..\lvgl\version_6.1.2\lvgl\src\lv_objx/lv_page.h **** }
 213:..\..\..\lvgl\version_6.1.2\lvgl\src\lv_objx/lv_page.h **** 
 214:..\..\..\lvgl\version_6.1.2\lvgl\src\lv_objx/lv_page.h **** /**
 215:..\..\..\lvgl\version_6.1.2\lvgl\src\lv_objx/lv_page.h ****  * Set height of the scrollable part of a page
 216:..\..\..\lvgl\version_6.1.2\lvgl\src\lv_objx/lv_page.h ****  * @param page pointer to a page object
 217:..\..\..\lvgl\version_6.1.2\lvgl\src\lv_objx/lv_page.h ****  * @param h the new height of the scrollable (it ha no effect is vertical fit is enabled)
 218:..\..\..\lvgl\version_6.1.2\lvgl\src\lv_objx/lv_page.h ****  */
 219:..\..\..\lvgl\version_6.1.2\lvgl\src\lv_objx/lv_page.h **** static inline void lv_page_set_scrl_height(lv_obj_t * page, lv_coord_t h)
ARM GAS  C:\Users\pearlstl\AppData\Local\Temp\ccI2fBBa.s 			page 46


 220:..\..\..\lvgl\version_6.1.2\lvgl\src\lv_objx/lv_page.h **** {
 221:..\..\..\lvgl\version_6.1.2\lvgl\src\lv_objx/lv_page.h ****     lv_obj_set_height(lv_page_get_scrl(page), h);
 222:..\..\..\lvgl\version_6.1.2\lvgl\src\lv_objx/lv_page.h **** }
 223:..\..\..\lvgl\version_6.1.2\lvgl\src\lv_objx/lv_page.h **** 
 224:..\..\..\lvgl\version_6.1.2\lvgl\src\lv_objx/lv_page.h **** /**
 225:..\..\..\lvgl\version_6.1.2\lvgl\src\lv_objx/lv_page.h ****  * Set the layout of the scrollable part of the page
 226:..\..\..\lvgl\version_6.1.2\lvgl\src\lv_objx/lv_page.h ****  * @param page pointer to a page object
 227:..\..\..\lvgl\version_6.1.2\lvgl\src\lv_objx/lv_page.h ****  * @param layout a layout from 'lv_cont_layout_t'
 228:..\..\..\lvgl\version_6.1.2\lvgl\src\lv_objx/lv_page.h ****  */
 229:..\..\..\lvgl\version_6.1.2\lvgl\src\lv_objx/lv_page.h **** static inline void lv_page_set_scrl_layout(lv_obj_t * page, lv_layout_t layout)
 230:..\..\..\lvgl\version_6.1.2\lvgl\src\lv_objx/lv_page.h **** {
 231:..\..\..\lvgl\version_6.1.2\lvgl\src\lv_objx/lv_page.h ****     lv_cont_set_layout(lv_page_get_scrl(page), layout);
 1407              		.loc 3 231 0
 1408 0008 0068     		ldr	r0, [r0]
 1409              	.LVL220:
 1410 000a FFF7FEFF 		bl	lv_page_get_scrl
 1411              	.LVL221:
 1412 000e 2146     		mov	r1, r4
 1413              	.LBE113:
 1414              	.LBE112:
 280:..\..\..\lvgl\version_6.1.2\lvgl\src\lv_objx/lv_win.c **** 
 1415              		.loc 1 280 0
 1416 0010 BDE81040 		pop	{r4, lr}
 1417              		.cfi_restore 14
 1418              		.cfi_restore 4
 1419              		.cfi_def_cfa_offset 0
 1420              	.LVL222:
 1421              	.LBB115:
 1422              	.LBB114:
 1423              		.loc 3 231 0
 1424 0014 FFF7FEBF 		b	lv_cont_set_layout
 1425              	.LVL223:
 1426              	.LBE114:
 1427              	.LBE115:
 1428              		.cfi_endproc
 1429              	.LFE75:
 1430              		.size	lv_win_set_layout, .-lv_win_set_layout
 1431              		.section	.text.lv_win_set_sb_mode,"ax",%progbits
 1432              		.align	2
 1433              		.global	lv_win_set_sb_mode
 1434              		.thumb
 1435              		.thumb_func
 1436              		.type	lv_win_set_sb_mode, %function
 1437              	lv_win_set_sb_mode:
 1438              	.LFB76:
 288:..\..\..\lvgl\version_6.1.2\lvgl\src\lv_objx/lv_win.c ****     LV_ASSERT_OBJ(win, LV_OBJX_NAME);
 1439              		.loc 1 288 0
 1440              		.cfi_startproc
 1441              		@ args = 0, pretend = 0, frame = 0
 1442              		@ frame_needed = 0, uses_anonymous_args = 0
 1443              	.LVL224:
 1444 0000 10B5     		push	{r4, lr}
 1445              		.cfi_def_cfa_offset 8
 1446              		.cfi_offset 4, -8
 1447              		.cfi_offset 14, -4
 288:..\..\..\lvgl\version_6.1.2\lvgl\src\lv_objx/lv_win.c ****     LV_ASSERT_OBJ(win, LV_OBJX_NAME);
 1448              		.loc 1 288 0
ARM GAS  C:\Users\pearlstl\AppData\Local\Temp\ccI2fBBa.s 			page 47


 1449 0002 0C46     		mov	r4, r1
 291:..\..\..\lvgl\version_6.1.2\lvgl\src\lv_objx/lv_win.c ****     lv_page_set_sb_mode(ext->page, sb_mode);
 1450              		.loc 1 291 0
 1451 0004 FFF7FEFF 		bl	lv_obj_get_ext_attr
 1452              	.LVL225:
 292:..\..\..\lvgl\version_6.1.2\lvgl\src\lv_objx/lv_win.c **** }
 1453              		.loc 1 292 0
 1454 0008 2146     		mov	r1, r4
 1455 000a 0068     		ldr	r0, [r0]
 1456              	.LVL226:
 293:..\..\..\lvgl\version_6.1.2\lvgl\src\lv_objx/lv_win.c **** /**
 1457              		.loc 1 293 0
 1458 000c BDE81040 		pop	{r4, lr}
 1459              		.cfi_restore 14
 1460              		.cfi_restore 4
 1461              		.cfi_def_cfa_offset 0
 292:..\..\..\lvgl\version_6.1.2\lvgl\src\lv_objx/lv_win.c **** }
 1462              		.loc 1 292 0
 1463 0010 FFF7FEBF 		b	lv_page_set_sb_mode
 1464              	.LVL227:
 1465              		.cfi_endproc
 1466              	.LFE76:
 1467              		.size	lv_win_set_sb_mode, .-lv_win_set_sb_mode
 1468              		.section	.text.lv_win_set_anim_time,"ax",%progbits
 1469              		.align	2
 1470              		.global	lv_win_set_anim_time
 1471              		.thumb
 1472              		.thumb_func
 1473              		.type	lv_win_set_anim_time, %function
 1474              	lv_win_set_anim_time:
 1475              	.LFB77:
 300:..\..\..\lvgl\version_6.1.2\lvgl\src\lv_objx/lv_win.c ****     LV_ASSERT_OBJ(win, LV_OBJX_NAME);
 1476              		.loc 1 300 0
 1477              		.cfi_startproc
 1478              		@ args = 0, pretend = 0, frame = 0
 1479              		@ frame_needed = 0, uses_anonymous_args = 0
 1480              	.LVL228:
 1481 0000 10B5     		push	{r4, lr}
 1482              		.cfi_def_cfa_offset 8
 1483              		.cfi_offset 4, -8
 1484              		.cfi_offset 14, -4
 300:..\..\..\lvgl\version_6.1.2\lvgl\src\lv_objx/lv_win.c ****     LV_ASSERT_OBJ(win, LV_OBJX_NAME);
 1485              		.loc 1 300 0
 1486 0002 0C46     		mov	r4, r1
 1487              	.LBB116:
 1488              	.LBB117:
 389:..\..\..\lvgl\version_6.1.2\lvgl\src\lv_objx/lv_win.c ****     return ext->page;
 1489              		.loc 1 389 0
 1490 0004 FFF7FEFF 		bl	lv_obj_get_ext_attr
 1491              	.LVL229:
 1492              	.LBE117:
 1493              	.LBE116:
 303:..\..\..\lvgl\version_6.1.2\lvgl\src\lv_objx/lv_win.c **** }
 1494              		.loc 1 303 0
 1495 0008 2146     		mov	r1, r4
 1496 000a 0068     		ldr	r0, [r0]
 304:..\..\..\lvgl\version_6.1.2\lvgl\src\lv_objx/lv_win.c **** 
ARM GAS  C:\Users\pearlstl\AppData\Local\Temp\ccI2fBBa.s 			page 48


 1497              		.loc 1 304 0
 1498 000c BDE81040 		pop	{r4, lr}
 1499              		.cfi_restore 14
 1500              		.cfi_restore 4
 1501              		.cfi_def_cfa_offset 0
 303:..\..\..\lvgl\version_6.1.2\lvgl\src\lv_objx/lv_win.c **** }
 1502              		.loc 1 303 0
 1503 0010 FFF7FEBF 		b	lv_page_set_anim_time
 1504              	.LVL230:
 1505              		.cfi_endproc
 1506              	.LFE77:
 1507              		.size	lv_win_set_anim_time, .-lv_win_set_anim_time
 1508              		.section	.text.lv_win_set_style,"ax",%progbits
 1509              		.align	2
 1510              		.global	lv_win_set_style
 1511              		.thumb
 1512              		.thumb_func
 1513              		.type	lv_win_set_style, %function
 1514              	lv_win_set_style:
 1515              	.LFB78:
 313:..\..\..\lvgl\version_6.1.2\lvgl\src\lv_objx/lv_win.c ****     LV_ASSERT_OBJ(win, LV_OBJX_NAME);
 1516              		.loc 1 313 0
 1517              		.cfi_startproc
 1518              		@ args = 0, pretend = 0, frame = 0
 1519              		@ frame_needed = 0, uses_anonymous_args = 0
 1520              	.LVL231:
 1521 0000 F8B5     		push	{r3, r4, r5, r6, r7, lr}
 1522              		.cfi_def_cfa_offset 24
 1523              		.cfi_offset 3, -24
 1524              		.cfi_offset 4, -20
 1525              		.cfi_offset 5, -16
 1526              		.cfi_offset 6, -12
 1527              		.cfi_offset 7, -8
 1528              		.cfi_offset 14, -4
 313:..\..\..\lvgl\version_6.1.2\lvgl\src\lv_objx/lv_win.c ****     LV_ASSERT_OBJ(win, LV_OBJX_NAME);
 1529              		.loc 1 313 0
 1530 0002 0F46     		mov	r7, r1
 1531 0004 1646     		mov	r6, r2
 1532 0006 0446     		mov	r4, r0
 316:..\..\..\lvgl\version_6.1.2\lvgl\src\lv_objx/lv_win.c **** 
 1533              		.loc 1 316 0
 1534 0008 FFF7FEFF 		bl	lv_obj_get_ext_attr
 1535              	.LVL232:
 1536 000c 0546     		mov	r5, r0
 1537              	.LVL233:
 318:..\..\..\lvgl\version_6.1.2\lvgl\src\lv_objx/lv_win.c ****         case LV_WIN_STYLE_BG:
 1538              		.loc 1 318 0
 1539 000e 052F     		cmp	r7, #5
 1540 0010 49D8     		bhi	.L105
 1541 0012 DFE807F0 		tbb	[pc, r7]
 1542              	.L107:
 1543 0016 1C       		.byte	(.L106-.L107)/2
 1544 0017 25       		.byte	(.L108-.L107)/2
 1545 0018 2C       		.byte	(.L109-.L107)/2
 1546 0019 33       		.byte	(.L110-.L107)/2
 1547 001a 3C       		.byte	(.L111-.L107)/2
 1548 001b 03       		.byte	(.L112-.L107)/2
ARM GAS  C:\Users\pearlstl\AppData\Local\Temp\ccI2fBBa.s 			page 49


 1549              		.p2align 1
 1550              	.L112:
 330:..\..\..\lvgl\version_6.1.2\lvgl\src\lv_objx/lv_win.c ****     }
 1551              		.loc 1 330 0
 1552 001c 0661     		str	r6, [r0, #16]
 1553              	.LBB118:
 336:..\..\..\lvgl\version_6.1.2\lvgl\src\lv_objx/lv_win.c ****         btn = lv_obj_get_child_back(ext->header, btn); /*Skip the title*/
 1554              		.loc 1 336 0
 1555 001e 0021     		movs	r1, #0
 1556 0020 4068     		ldr	r0, [r0, #4]
 1557              	.LVL234:
 1558 0022 FFF7FEFF 		bl	lv_obj_get_child_back
 1559              	.LVL235:
 337:..\..\..\lvgl\version_6.1.2\lvgl\src\lv_objx/lv_win.c ****         while(btn != NULL) {
 1560              		.loc 1 337 0
 1561 0026 0146     		mov	r1, r0
 1562 0028 6868     		ldr	r0, [r5, #4]
 1563              	.LVL236:
 1564 002a FFF7FEFF 		bl	lv_obj_get_child_back
 1565              	.LVL237:
 338:..\..\..\lvgl\version_6.1.2\lvgl\src\lv_objx/lv_win.c ****             if(type == LV_WIN_STYLE_BTN_REL)
 1566              		.loc 1 338 0
 1567 002e 0446     		mov	r4, r0
 1568              	.LVL238:
 1569 0030 0028     		cmp	r0, #0
 1570 0032 55D0     		beq	.L127
 1571              	.L117:
 342:..\..\..\lvgl\version_6.1.2\lvgl\src\lv_objx/lv_win.c ****             btn = lv_obj_get_child_back(ext->header, btn);
 1572              		.loc 1 342 0
 1573 0034 2046     		mov	r0, r4
 1574 0036 3246     		mov	r2, r6
 1575 0038 0121     		movs	r1, #1
 1576 003a FFF7FEFF 		bl	lv_btn_set_style
 1577              	.LVL239:
 343:..\..\..\lvgl\version_6.1.2\lvgl\src\lv_objx/lv_win.c ****         }
 1578              		.loc 1 343 0
 1579 003e 2146     		mov	r1, r4
 1580 0040 6868     		ldr	r0, [r5, #4]
 1581 0042 FFF7FEFF 		bl	lv_obj_get_child_back
 1582              	.LVL240:
 338:..\..\..\lvgl\version_6.1.2\lvgl\src\lv_objx/lv_win.c ****             if(type == LV_WIN_STYLE_BTN_REL)
 1583              		.loc 1 338 0
 1584 0046 0446     		mov	r4, r0
 1585 0048 0028     		cmp	r0, #0
 1586 004a F3D1     		bne	.L117
 1587 004c F8BD     		pop	{r3, r4, r5, r6, r7, pc}
 1588              	.LVL241:
 1589              	.L106:
 1590              	.LBE118:
 320:..\..\..\lvgl\version_6.1.2\lvgl\src\lv_objx/lv_win.c ****             lv_win_realign(win);
 1591              		.loc 1 320 0
 1592 004e 2046     		mov	r0, r4
 1593              	.LVL242:
 1594 0050 3146     		mov	r1, r6
 1595 0052 FFF7FEFF 		bl	lv_obj_set_style
 1596              	.LVL243:
 321:..\..\..\lvgl\version_6.1.2\lvgl\src\lv_objx/lv_win.c ****             break;
ARM GAS  C:\Users\pearlstl\AppData\Local\Temp\ccI2fBBa.s 			page 50


 1597              		.loc 1 321 0
 1598 0056 2046     		mov	r0, r4
 346:..\..\..\lvgl\version_6.1.2\lvgl\src\lv_objx/lv_win.c **** 
 1599              		.loc 1 346 0
 1600 0058 BDE8F840 		pop	{r3, r4, r5, r6, r7, lr}
 1601              		.cfi_remember_state
 1602              		.cfi_restore 14
 1603              		.cfi_restore 7
 1604              		.cfi_restore 6
 1605              		.cfi_restore 5
 1606              		.cfi_restore 4
 1607              		.cfi_restore 3
 1608              		.cfi_def_cfa_offset 0
 1609              	.LVL244:
 321:..\..\..\lvgl\version_6.1.2\lvgl\src\lv_objx/lv_win.c ****             break;
 1610              		.loc 1 321 0
 1611 005c FFF7FEBF 		b	lv_win_realign
 1612              	.LVL245:
 1613              	.L108:
 1614              		.cfi_restore_state
 323:..\..\..\lvgl\version_6.1.2\lvgl\src\lv_objx/lv_win.c ****         case LV_WIN_STYLE_SB: lv_page_set_style(ext->page, LV_PAGE_STYLE_SB, style); break;
 1615              		.loc 1 323 0
 1616 0060 3246     		mov	r2, r6
 1617 0062 0068     		ldr	r0, [r0]
 1618              	.LVL246:
 1619 0064 0121     		movs	r1, #1
 346:..\..\..\lvgl\version_6.1.2\lvgl\src\lv_objx/lv_win.c **** 
 1620              		.loc 1 346 0
 1621 0066 BDE8F840 		pop	{r3, r4, r5, r6, r7, lr}
 1622              		.cfi_remember_state
 1623              		.cfi_restore 14
 1624              		.cfi_restore 7
 1625              		.cfi_restore 6
 1626              		.cfi_restore 5
 1627              		.cfi_restore 4
 1628              		.cfi_restore 3
 1629              		.cfi_def_cfa_offset 0
 1630              	.LVL247:
 323:..\..\..\lvgl\version_6.1.2\lvgl\src\lv_objx/lv_win.c ****         case LV_WIN_STYLE_SB: lv_page_set_style(ext->page, LV_PAGE_STYLE_SB, style); break;
 1631              		.loc 1 323 0
 1632 006a FFF7FEBF 		b	lv_page_set_style
 1633              	.LVL248:
 1634              	.L109:
 1635              		.cfi_restore_state
 324:..\..\..\lvgl\version_6.1.2\lvgl\src\lv_objx/lv_win.c ****         case LV_WIN_STYLE_HEADER:
 1636              		.loc 1 324 0
 1637 006e 3246     		mov	r2, r6
 1638 0070 0068     		ldr	r0, [r0]
 1639              	.LVL249:
 1640 0072 0221     		movs	r1, #2
 346:..\..\..\lvgl\version_6.1.2\lvgl\src\lv_objx/lv_win.c **** 
 1641              		.loc 1 346 0
 1642 0074 BDE8F840 		pop	{r3, r4, r5, r6, r7, lr}
 1643              		.cfi_remember_state
 1644              		.cfi_restore 14
 1645              		.cfi_restore 7
 1646              		.cfi_restore 6
ARM GAS  C:\Users\pearlstl\AppData\Local\Temp\ccI2fBBa.s 			page 51


 1647              		.cfi_restore 5
 1648              		.cfi_restore 4
 1649              		.cfi_restore 3
 1650              		.cfi_def_cfa_offset 0
 1651              	.LVL250:
 324:..\..\..\lvgl\version_6.1.2\lvgl\src\lv_objx/lv_win.c ****         case LV_WIN_STYLE_HEADER:
 1652              		.loc 1 324 0
 1653 0078 FFF7FEBF 		b	lv_page_set_style
 1654              	.LVL251:
 1655              	.L110:
 1656              		.cfi_restore_state
 326:..\..\..\lvgl\version_6.1.2\lvgl\src\lv_objx/lv_win.c ****             lv_win_realign(win);
 1657              		.loc 1 326 0
 1658 007c 3146     		mov	r1, r6
 1659 007e 4068     		ldr	r0, [r0, #4]
 1660              	.LVL252:
 1661 0080 FFF7FEFF 		bl	lv_obj_set_style
 1662              	.LVL253:
 327:..\..\..\lvgl\version_6.1.2\lvgl\src\lv_objx/lv_win.c ****             break;
 1663              		.loc 1 327 0
 1664 0084 2046     		mov	r0, r4
 346:..\..\..\lvgl\version_6.1.2\lvgl\src\lv_objx/lv_win.c **** 
 1665              		.loc 1 346 0
 1666 0086 BDE8F840 		pop	{r3, r4, r5, r6, r7, lr}
 1667              		.cfi_remember_state
 1668              		.cfi_restore 14
 1669              		.cfi_restore 7
 1670              		.cfi_restore 6
 1671              		.cfi_restore 5
 1672              		.cfi_restore 4
 1673              		.cfi_restore 3
 1674              		.cfi_def_cfa_offset 0
 1675              	.LVL254:
 327:..\..\..\lvgl\version_6.1.2\lvgl\src\lv_objx/lv_win.c ****             break;
 1676              		.loc 1 327 0
 1677 008a FFF7FEBF 		b	lv_win_realign
 1678              	.LVL255:
 1679              	.L111:
 1680              		.cfi_restore_state
 329:..\..\..\lvgl\version_6.1.2\lvgl\src\lv_objx/lv_win.c ****         case LV_WIN_STYLE_BTN_PR: ext->style_btn_pr = style; break;
 1681              		.loc 1 329 0
 1682 008e C660     		str	r6, [r0, #12]
 1683              	.LBB119:
 336:..\..\..\lvgl\version_6.1.2\lvgl\src\lv_objx/lv_win.c ****         btn = lv_obj_get_child_back(ext->header, btn); /*Skip the title*/
 1684              		.loc 1 336 0
 1685 0090 0021     		movs	r1, #0
 1686 0092 4068     		ldr	r0, [r0, #4]
 1687              	.LVL256:
 1688 0094 FFF7FEFF 		bl	lv_obj_get_child_back
 1689              	.LVL257:
 337:..\..\..\lvgl\version_6.1.2\lvgl\src\lv_objx/lv_win.c ****         while(btn != NULL) {
 1690              		.loc 1 337 0
 1691 0098 0146     		mov	r1, r0
 1692 009a 6868     		ldr	r0, [r5, #4]
 1693              	.LVL258:
 1694 009c FFF7FEFF 		bl	lv_obj_get_child_back
 1695              	.LVL259:
ARM GAS  C:\Users\pearlstl\AppData\Local\Temp\ccI2fBBa.s 			page 52


 338:..\..\..\lvgl\version_6.1.2\lvgl\src\lv_objx/lv_win.c ****             if(type == LV_WIN_STYLE_BTN_REL)
 1696              		.loc 1 338 0
 1697 00a0 0446     		mov	r4, r0
 1698              	.LVL260:
 1699 00a2 80B9     		cbnz	r0, .L118
 1700              	.LVL261:
 1701              	.L104:
 1702 00a4 F8BD     		pop	{r3, r4, r5, r6, r7, pc}
 1703              	.LVL262:
 1704              	.L105:
 1705              	.LBE119:
 334:..\..\..\lvgl\version_6.1.2\lvgl\src\lv_objx/lv_win.c ****         lv_obj_t * btn;
 1706              		.loc 1 334 0
 1707 00a6 3B1F     		subs	r3, r7, #4
 1708 00a8 012B     		cmp	r3, #1
 1709 00aa FBD8     		bhi	.L104
 1710              	.LBB120:
 336:..\..\..\lvgl\version_6.1.2\lvgl\src\lv_objx/lv_win.c ****         btn = lv_obj_get_child_back(ext->header, btn); /*Skip the title*/
 1711              		.loc 1 336 0
 1712 00ac 0021     		movs	r1, #0
 1713 00ae 4068     		ldr	r0, [r0, #4]
 1714              	.LVL263:
 1715 00b0 FFF7FEFF 		bl	lv_obj_get_child_back
 1716              	.LVL264:
 337:..\..\..\lvgl\version_6.1.2\lvgl\src\lv_objx/lv_win.c ****         while(btn != NULL) {
 1717              		.loc 1 337 0
 1718 00b4 0146     		mov	r1, r0
 1719 00b6 6868     		ldr	r0, [r5, #4]
 1720              	.LVL265:
 1721 00b8 FFF7FEFF 		bl	lv_obj_get_child_back
 1722              	.LVL266:
 338:..\..\..\lvgl\version_6.1.2\lvgl\src\lv_objx/lv_win.c ****             if(type == LV_WIN_STYLE_BTN_REL)
 1723              		.loc 1 338 0
 1724 00bc 0446     		mov	r4, r0
 1725              	.LVL267:
 1726 00be 0028     		cmp	r0, #0
 1727 00c0 F0D0     		beq	.L104
 1728 00c2 042F     		cmp	r7, #4
 1729 00c4 B6D1     		bne	.L117
 1730              	.L118:
 340:..\..\..\lvgl\version_6.1.2\lvgl\src\lv_objx/lv_win.c ****             else
 1731              		.loc 1 340 0
 1732 00c6 2046     		mov	r0, r4
 1733 00c8 3246     		mov	r2, r6
 1734 00ca 0021     		movs	r1, #0
 1735 00cc FFF7FEFF 		bl	lv_btn_set_style
 1736              	.LVL268:
 343:..\..\..\lvgl\version_6.1.2\lvgl\src\lv_objx/lv_win.c ****         }
 1737              		.loc 1 343 0
 1738 00d0 2146     		mov	r1, r4
 1739 00d2 6868     		ldr	r0, [r5, #4]
 1740 00d4 FFF7FEFF 		bl	lv_obj_get_child_back
 1741              	.LVL269:
 338:..\..\..\lvgl\version_6.1.2\lvgl\src\lv_objx/lv_win.c ****             if(type == LV_WIN_STYLE_BTN_REL)
 1742              		.loc 1 338 0
 1743 00d8 0446     		mov	r4, r0
 1744 00da 0028     		cmp	r0, #0
ARM GAS  C:\Users\pearlstl\AppData\Local\Temp\ccI2fBBa.s 			page 53


 1745 00dc F3D1     		bne	.L118
 1746 00de F8BD     		pop	{r3, r4, r5, r6, r7, pc}
 1747              	.LVL270:
 1748              	.L127:
 1749 00e0 F8BD     		pop	{r3, r4, r5, r6, r7, pc}
 1750              	.LBE120:
 1751              		.cfi_endproc
 1752              	.LFE78:
 1753              		.size	lv_win_set_style, .-lv_win_set_style
 1754 00e2 00BF     		.section	.text.lv_win_set_drag,"ax",%progbits
 1755              		.align	2
 1756              		.global	lv_win_set_drag
 1757              		.thumb
 1758              		.thumb_func
 1759              		.type	lv_win_set_drag, %function
 1760              	lv_win_set_drag:
 1761              	.LFB79:
 354:..\..\..\lvgl\version_6.1.2\lvgl\src\lv_objx/lv_win.c ****     LV_ASSERT_OBJ(win, LV_OBJX_NAME);
 1762              		.loc 1 354 0
 1763              		.cfi_startproc
 1764              		@ args = 0, pretend = 0, frame = 0
 1765              		@ frame_needed = 0, uses_anonymous_args = 0
 1766              	.LVL271:
 1767 0000 38B5     		push	{r3, r4, r5, lr}
 1768              		.cfi_def_cfa_offset 16
 1769              		.cfi_offset 3, -16
 1770              		.cfi_offset 4, -12
 1771              		.cfi_offset 5, -8
 1772              		.cfi_offset 14, -4
 354:..\..\..\lvgl\version_6.1.2\lvgl\src\lv_objx/lv_win.c ****     LV_ASSERT_OBJ(win, LV_OBJX_NAME);
 1773              		.loc 1 354 0
 1774 0002 0C46     		mov	r4, r1
 1775 0004 0546     		mov	r5, r0
 357:..\..\..\lvgl\version_6.1.2\lvgl\src\lv_objx/lv_win.c ****     lv_obj_t * win_header = ext->header;
 1776              		.loc 1 357 0
 1777 0006 FFF7FEFF 		bl	lv_obj_get_ext_attr
 1778              	.LVL272:
 359:..\..\..\lvgl\version_6.1.2\lvgl\src\lv_objx/lv_win.c ****     lv_obj_set_drag(win, en);
 1779              		.loc 1 359 0
 1780 000a 2146     		mov	r1, r4
 1781 000c 4068     		ldr	r0, [r0, #4]
 1782              	.LVL273:
 1783 000e FFF7FEFF 		bl	lv_obj_set_drag_parent
 1784              	.LVL274:
 360:..\..\..\lvgl\version_6.1.2\lvgl\src\lv_objx/lv_win.c **** }
 1785              		.loc 1 360 0
 1786 0012 2146     		mov	r1, r4
 1787 0014 2846     		mov	r0, r5
 361:..\..\..\lvgl\version_6.1.2\lvgl\src\lv_objx/lv_win.c **** 
 1788              		.loc 1 361 0
 1789 0016 BDE83840 		pop	{r3, r4, r5, lr}
 1790              		.cfi_restore 14
 1791              		.cfi_restore 5
 1792              		.cfi_restore 4
 1793              		.cfi_restore 3
 1794              		.cfi_def_cfa_offset 0
 1795              	.LVL275:
ARM GAS  C:\Users\pearlstl\AppData\Local\Temp\ccI2fBBa.s 			page 54


 360:..\..\..\lvgl\version_6.1.2\lvgl\src\lv_objx/lv_win.c **** }
 1796              		.loc 1 360 0
 1797 001a FFF7FEBF 		b	lv_obj_set_drag
 1798              	.LVL276:
 1799              		.cfi_endproc
 1800              	.LFE79:
 1801              		.size	lv_win_set_drag, .-lv_win_set_drag
 1802 001e 00BF     		.section	.text.lv_win_get_title,"ax",%progbits
 1803              		.align	2
 1804              		.global	lv_win_get_title
 1805              		.thumb
 1806              		.thumb_func
 1807              		.type	lv_win_get_title, %function
 1808              	lv_win_get_title:
 1809              	.LFB80:
 373:..\..\..\lvgl\version_6.1.2\lvgl\src\lv_objx/lv_win.c ****     LV_ASSERT_OBJ(win, LV_OBJX_NAME);
 1810              		.loc 1 373 0
 1811              		.cfi_startproc
 1812              		@ args = 0, pretend = 0, frame = 0
 1813              		@ frame_needed = 0, uses_anonymous_args = 0
 1814              	.LVL277:
 1815 0000 08B5     		push	{r3, lr}
 1816              		.cfi_def_cfa_offset 8
 1817              		.cfi_offset 3, -8
 1818              		.cfi_offset 14, -4
 376:..\..\..\lvgl\version_6.1.2\lvgl\src\lv_objx/lv_win.c ****     return lv_label_get_text(ext->title);
 1819              		.loc 1 376 0
 1820 0002 FFF7FEFF 		bl	lv_obj_get_ext_attr
 1821              	.LVL278:
 378:..\..\..\lvgl\version_6.1.2\lvgl\src\lv_objx/lv_win.c **** 
 1822              		.loc 1 378 0
 1823 0006 BDE80840 		pop	{r3, lr}
 1824              		.cfi_restore 14
 1825              		.cfi_restore 3
 1826              		.cfi_def_cfa_offset 0
 377:..\..\..\lvgl\version_6.1.2\lvgl\src\lv_objx/lv_win.c **** }
 1827              		.loc 1 377 0
 1828 000a 8068     		ldr	r0, [r0, #8]
 1829              	.LVL279:
 1830 000c FFF7FEBF 		b	lv_label_get_text
 1831              	.LVL280:
 1832              		.cfi_endproc
 1833              	.LFE80:
 1834              		.size	lv_win_get_title, .-lv_win_get_title
 1835              		.section	.text.lv_win_get_content,"ax",%progbits
 1836              		.align	2
 1837              		.global	lv_win_get_content
 1838              		.thumb
 1839              		.thumb_func
 1840              		.type	lv_win_get_content, %function
 1841              	lv_win_get_content:
 1842              	.LFB81:
 386:..\..\..\lvgl\version_6.1.2\lvgl\src\lv_objx/lv_win.c ****     LV_ASSERT_OBJ(win, LV_OBJX_NAME);
 1843              		.loc 1 386 0
 1844              		.cfi_startproc
 1845              		@ args = 0, pretend = 0, frame = 0
 1846              		@ frame_needed = 0, uses_anonymous_args = 0
ARM GAS  C:\Users\pearlstl\AppData\Local\Temp\ccI2fBBa.s 			page 55


 1847              	.LVL281:
 1848 0000 08B5     		push	{r3, lr}
 1849              		.cfi_def_cfa_offset 8
 1850              		.cfi_offset 3, -8
 1851              		.cfi_offset 14, -4
 389:..\..\..\lvgl\version_6.1.2\lvgl\src\lv_objx/lv_win.c ****     return ext->page;
 1852              		.loc 1 389 0
 1853 0002 FFF7FEFF 		bl	lv_obj_get_ext_attr
 1854              	.LVL282:
 391:..\..\..\lvgl\version_6.1.2\lvgl\src\lv_objx/lv_win.c **** 
 1855              		.loc 1 391 0
 1856 0006 0068     		ldr	r0, [r0]
 1857              	.LVL283:
 1858 0008 08BD     		pop	{r3, pc}
 1859              		.cfi_endproc
 1860              	.LFE81:
 1861              		.size	lv_win_get_content, .-lv_win_get_content
 1862 000a 00BF     		.section	.text.lv_win_get_btn_size,"ax",%progbits
 1863              		.align	2
 1864              		.global	lv_win_get_btn_size
 1865              		.thumb
 1866              		.thumb_func
 1867              		.type	lv_win_get_btn_size, %function
 1868              	lv_win_get_btn_size:
 1869              	.LFB82:
 399:..\..\..\lvgl\version_6.1.2\lvgl\src\lv_objx/lv_win.c ****     LV_ASSERT_OBJ(win, LV_OBJX_NAME);
 1870              		.loc 1 399 0
 1871              		.cfi_startproc
 1872              		@ args = 0, pretend = 0, frame = 0
 1873              		@ frame_needed = 0, uses_anonymous_args = 0
 1874              	.LVL284:
 1875 0000 08B5     		push	{r3, lr}
 1876              		.cfi_def_cfa_offset 8
 1877              		.cfi_offset 3, -8
 1878              		.cfi_offset 14, -4
 402:..\..\..\lvgl\version_6.1.2\lvgl\src\lv_objx/lv_win.c ****     return ext->btn_size;
 1879              		.loc 1 402 0
 1880 0002 FFF7FEFF 		bl	lv_obj_get_ext_attr
 1881              	.LVL285:
 404:..\..\..\lvgl\version_6.1.2\lvgl\src\lv_objx/lv_win.c **** 
 1882              		.loc 1 404 0
 1883 0006 B0F91400 		ldrsh	r0, [r0, #20]
 1884              	.LVL286:
 1885 000a 08BD     		pop	{r3, pc}
 1886              		.cfi_endproc
 1887              	.LFE82:
 1888              		.size	lv_win_get_btn_size, .-lv_win_get_btn_size
 1889              		.section	.text.lv_win_get_from_btn,"ax",%progbits
 1890              		.align	2
 1891              		.global	lv_win_get_from_btn
 1892              		.thumb
 1893              		.thumb_func
 1894              		.type	lv_win_get_from_btn, %function
 1895              	lv_win_get_from_btn:
 1896              	.LFB83:
 413:..\..\..\lvgl\version_6.1.2\lvgl\src\lv_objx/lv_win.c ****     LV_ASSERT_OBJ(ctrl_btn, "lv_btn");
 1897              		.loc 1 413 0
ARM GAS  C:\Users\pearlstl\AppData\Local\Temp\ccI2fBBa.s 			page 56


 1898              		.cfi_startproc
 1899              		@ args = 0, pretend = 0, frame = 0
 1900              		@ frame_needed = 0, uses_anonymous_args = 0
 1901              	.LVL287:
 1902 0000 08B5     		push	{r3, lr}
 1903              		.cfi_def_cfa_offset 8
 1904              		.cfi_offset 3, -8
 1905              		.cfi_offset 14, -4
 416:..\..\..\lvgl\version_6.1.2\lvgl\src\lv_objx/lv_win.c ****     lv_obj_t * win    = lv_obj_get_parent(header);
 1906              		.loc 1 416 0
 1907 0002 FFF7FEFF 		bl	lv_obj_get_parent
 1908              	.LVL288:
 420:..\..\..\lvgl\version_6.1.2\lvgl\src\lv_objx/lv_win.c **** 
 1909              		.loc 1 420 0
 1910 0006 BDE80840 		pop	{r3, lr}
 1911              		.cfi_restore 14
 1912              		.cfi_restore 3
 1913              		.cfi_def_cfa_offset 0
 417:..\..\..\lvgl\version_6.1.2\lvgl\src\lv_objx/lv_win.c **** 
 1914              		.loc 1 417 0
 1915 000a FFF7FEBF 		b	lv_obj_get_parent
 1916              	.LVL289:
 1917              		.cfi_endproc
 1918              	.LFE83:
 1919              		.size	lv_win_get_from_btn, .-lv_win_get_from_btn
 1920 000e 00BF     		.section	.text.lv_win_get_layout,"ax",%progbits
 1921              		.align	2
 1922              		.global	lv_win_get_layout
 1923              		.thumb
 1924              		.thumb_func
 1925              		.type	lv_win_get_layout, %function
 1926              	lv_win_get_layout:
 1927              	.LFB84:
 428:..\..\..\lvgl\version_6.1.2\lvgl\src\lv_objx/lv_win.c ****     LV_ASSERT_OBJ(win, LV_OBJX_NAME);
 1928              		.loc 1 428 0
 1929              		.cfi_startproc
 1930              		@ args = 0, pretend = 0, frame = 0
 1931              		@ frame_needed = 0, uses_anonymous_args = 0
 1932              	.LVL290:
 1933 0000 08B5     		push	{r3, lr}
 1934              		.cfi_def_cfa_offset 8
 1935              		.cfi_offset 3, -8
 1936              		.cfi_offset 14, -4
 431:..\..\..\lvgl\version_6.1.2\lvgl\src\lv_objx/lv_win.c ****     return lv_page_get_scrl_layout(ext->page);
 1937              		.loc 1 431 0
 1938 0002 FFF7FEFF 		bl	lv_obj_get_ext_attr
 1939              	.LVL291:
 1940              	.LBB121:
 1941              	.LBB122:
 232:..\..\..\lvgl\version_6.1.2\lvgl\src\lv_objx/lv_page.h **** }
 233:..\..\..\lvgl\version_6.1.2\lvgl\src\lv_objx/lv_page.h **** 
 234:..\..\..\lvgl\version_6.1.2\lvgl\src\lv_objx/lv_page.h **** /**
 235:..\..\..\lvgl\version_6.1.2\lvgl\src\lv_objx/lv_page.h ****  * Set a style of a page
 236:..\..\..\lvgl\version_6.1.2\lvgl\src\lv_objx/lv_page.h ****  * @param page pointer to a page object
 237:..\..\..\lvgl\version_6.1.2\lvgl\src\lv_objx/lv_page.h ****  * @param type which style should be set
 238:..\..\..\lvgl\version_6.1.2\lvgl\src\lv_objx/lv_page.h ****  * @param style pointer to a style
 239:..\..\..\lvgl\version_6.1.2\lvgl\src\lv_objx/lv_page.h ****  */
ARM GAS  C:\Users\pearlstl\AppData\Local\Temp\ccI2fBBa.s 			page 57


 240:..\..\..\lvgl\version_6.1.2\lvgl\src\lv_objx/lv_page.h **** void lv_page_set_style(lv_obj_t * page, lv_page_style_t type, const lv_style_t * style);
 241:..\..\..\lvgl\version_6.1.2\lvgl\src\lv_objx/lv_page.h **** 
 242:..\..\..\lvgl\version_6.1.2\lvgl\src\lv_objx/lv_page.h **** /*=====================
 243:..\..\..\lvgl\version_6.1.2\lvgl\src\lv_objx/lv_page.h ****  * Getter functions
 244:..\..\..\lvgl\version_6.1.2\lvgl\src\lv_objx/lv_page.h ****  *====================*/
 245:..\..\..\lvgl\version_6.1.2\lvgl\src\lv_objx/lv_page.h **** 
 246:..\..\..\lvgl\version_6.1.2\lvgl\src\lv_objx/lv_page.h **** /**
 247:..\..\..\lvgl\version_6.1.2\lvgl\src\lv_objx/lv_page.h ****  * Set the scroll bar mode on a page
 248:..\..\..\lvgl\version_6.1.2\lvgl\src\lv_objx/lv_page.h ****  * @param page pointer to a page object
 249:..\..\..\lvgl\version_6.1.2\lvgl\src\lv_objx/lv_page.h ****  * @return the mode from 'lv_page_sb.mode_t' enum
 250:..\..\..\lvgl\version_6.1.2\lvgl\src\lv_objx/lv_page.h ****  */
 251:..\..\..\lvgl\version_6.1.2\lvgl\src\lv_objx/lv_page.h **** lv_sb_mode_t lv_page_get_sb_mode(const lv_obj_t * page);
 252:..\..\..\lvgl\version_6.1.2\lvgl\src\lv_objx/lv_page.h **** 
 253:..\..\..\lvgl\version_6.1.2\lvgl\src\lv_objx/lv_page.h **** /**
 254:..\..\..\lvgl\version_6.1.2\lvgl\src\lv_objx/lv_page.h ****  * Get the scroll propagation property
 255:..\..\..\lvgl\version_6.1.2\lvgl\src\lv_objx/lv_page.h ****  * @param page pointer to a Page
 256:..\..\..\lvgl\version_6.1.2\lvgl\src\lv_objx/lv_page.h ****  * @return true or false
 257:..\..\..\lvgl\version_6.1.2\lvgl\src\lv_objx/lv_page.h ****  */
 258:..\..\..\lvgl\version_6.1.2\lvgl\src\lv_objx/lv_page.h **** bool lv_page_get_scroll_propagation(lv_obj_t * page);
 259:..\..\..\lvgl\version_6.1.2\lvgl\src\lv_objx/lv_page.h **** 
 260:..\..\..\lvgl\version_6.1.2\lvgl\src\lv_objx/lv_page.h **** /**
 261:..\..\..\lvgl\version_6.1.2\lvgl\src\lv_objx/lv_page.h ****  * Get the edge flash effect property.
 262:..\..\..\lvgl\version_6.1.2\lvgl\src\lv_objx/lv_page.h ****  * @param page pointer to a Page
 263:..\..\..\lvgl\version_6.1.2\lvgl\src\lv_objx/lv_page.h ****  * return true or false
 264:..\..\..\lvgl\version_6.1.2\lvgl\src\lv_objx/lv_page.h ****  */
 265:..\..\..\lvgl\version_6.1.2\lvgl\src\lv_objx/lv_page.h **** bool lv_page_get_edge_flash(lv_obj_t * page);
 266:..\..\..\lvgl\version_6.1.2\lvgl\src\lv_objx/lv_page.h **** 
 267:..\..\..\lvgl\version_6.1.2\lvgl\src\lv_objx/lv_page.h **** /**
 268:..\..\..\lvgl\version_6.1.2\lvgl\src\lv_objx/lv_page.h ****  * Get that width which can be set to the children to still not cause overflow (show scrollbars)
 269:..\..\..\lvgl\version_6.1.2\lvgl\src\lv_objx/lv_page.h ****  * @param page pointer to a page object
 270:..\..\..\lvgl\version_6.1.2\lvgl\src\lv_objx/lv_page.h ****  * @return the width which still fits into the page
 271:..\..\..\lvgl\version_6.1.2\lvgl\src\lv_objx/lv_page.h ****  */
 272:..\..\..\lvgl\version_6.1.2\lvgl\src\lv_objx/lv_page.h **** lv_coord_t lv_page_get_fit_width(lv_obj_t * page);
 273:..\..\..\lvgl\version_6.1.2\lvgl\src\lv_objx/lv_page.h **** 
 274:..\..\..\lvgl\version_6.1.2\lvgl\src\lv_objx/lv_page.h **** /**
 275:..\..\..\lvgl\version_6.1.2\lvgl\src\lv_objx/lv_page.h ****  * Get that height which can be set to the children to still not cause overflow (show scrollbars)
 276:..\..\..\lvgl\version_6.1.2\lvgl\src\lv_objx/lv_page.h ****  * @param page pointer to a page object
 277:..\..\..\lvgl\version_6.1.2\lvgl\src\lv_objx/lv_page.h ****  * @return the height which still fits into the page
 278:..\..\..\lvgl\version_6.1.2\lvgl\src\lv_objx/lv_page.h ****  */
 279:..\..\..\lvgl\version_6.1.2\lvgl\src\lv_objx/lv_page.h **** lv_coord_t lv_page_get_fit_height(lv_obj_t * page);
 280:..\..\..\lvgl\version_6.1.2\lvgl\src\lv_objx/lv_page.h **** 
 281:..\..\..\lvgl\version_6.1.2\lvgl\src\lv_objx/lv_page.h **** /**
 282:..\..\..\lvgl\version_6.1.2\lvgl\src\lv_objx/lv_page.h ****  * Get width of the scrollable part of a page
 283:..\..\..\lvgl\version_6.1.2\lvgl\src\lv_objx/lv_page.h ****  * @param page pointer to a page object
 284:..\..\..\lvgl\version_6.1.2\lvgl\src\lv_objx/lv_page.h ****  * @return the width of the scrollable
 285:..\..\..\lvgl\version_6.1.2\lvgl\src\lv_objx/lv_page.h ****  */
 286:..\..\..\lvgl\version_6.1.2\lvgl\src\lv_objx/lv_page.h **** static inline lv_coord_t lv_page_get_scrl_width(const lv_obj_t * page)
 287:..\..\..\lvgl\version_6.1.2\lvgl\src\lv_objx/lv_page.h **** {
 288:..\..\..\lvgl\version_6.1.2\lvgl\src\lv_objx/lv_page.h ****     return lv_obj_get_width(lv_page_get_scrl(page));
 289:..\..\..\lvgl\version_6.1.2\lvgl\src\lv_objx/lv_page.h **** }
 290:..\..\..\lvgl\version_6.1.2\lvgl\src\lv_objx/lv_page.h **** 
 291:..\..\..\lvgl\version_6.1.2\lvgl\src\lv_objx/lv_page.h **** /**
 292:..\..\..\lvgl\version_6.1.2\lvgl\src\lv_objx/lv_page.h ****  * Get height of the scrollable part of a page
 293:..\..\..\lvgl\version_6.1.2\lvgl\src\lv_objx/lv_page.h ****  * @param page pointer to a page object
 294:..\..\..\lvgl\version_6.1.2\lvgl\src\lv_objx/lv_page.h ****  * @return the height of the scrollable
 295:..\..\..\lvgl\version_6.1.2\lvgl\src\lv_objx/lv_page.h ****  */
 296:..\..\..\lvgl\version_6.1.2\lvgl\src\lv_objx/lv_page.h **** static inline lv_coord_t lv_page_get_scrl_height(const lv_obj_t * page)
ARM GAS  C:\Users\pearlstl\AppData\Local\Temp\ccI2fBBa.s 			page 58


 297:..\..\..\lvgl\version_6.1.2\lvgl\src\lv_objx/lv_page.h **** {
 298:..\..\..\lvgl\version_6.1.2\lvgl\src\lv_objx/lv_page.h ****     return lv_obj_get_height(lv_page_get_scrl(page));
 299:..\..\..\lvgl\version_6.1.2\lvgl\src\lv_objx/lv_page.h **** }
 300:..\..\..\lvgl\version_6.1.2\lvgl\src\lv_objx/lv_page.h **** 
 301:..\..\..\lvgl\version_6.1.2\lvgl\src\lv_objx/lv_page.h **** /**
 302:..\..\..\lvgl\version_6.1.2\lvgl\src\lv_objx/lv_page.h ****  * Get the layout of the scrollable part of a page
 303:..\..\..\lvgl\version_6.1.2\lvgl\src\lv_objx/lv_page.h ****  * @param page pointer to page object
 304:..\..\..\lvgl\version_6.1.2\lvgl\src\lv_objx/lv_page.h ****  * @return the layout from 'lv_cont_layout_t'
 305:..\..\..\lvgl\version_6.1.2\lvgl\src\lv_objx/lv_page.h ****  */
 306:..\..\..\lvgl\version_6.1.2\lvgl\src\lv_objx/lv_page.h **** static inline lv_layout_t lv_page_get_scrl_layout(const lv_obj_t * page)
 307:..\..\..\lvgl\version_6.1.2\lvgl\src\lv_objx/lv_page.h **** {
 308:..\..\..\lvgl\version_6.1.2\lvgl\src\lv_objx/lv_page.h ****     return lv_cont_get_layout(lv_page_get_scrl(page));
 1942              		.loc 3 308 0
 1943 0006 0068     		ldr	r0, [r0]
 1944              	.LVL292:
 1945 0008 FFF7FEFF 		bl	lv_page_get_scrl
 1946              	.LVL293:
 1947              	.LBE122:
 1948              	.LBE121:
 433:..\..\..\lvgl\version_6.1.2\lvgl\src\lv_objx/lv_win.c **** 
 1949              		.loc 1 433 0
 1950 000c BDE80840 		pop	{r3, lr}
 1951              		.cfi_restore 14
 1952              		.cfi_restore 3
 1953              		.cfi_def_cfa_offset 0
 1954              	.LBB124:
 1955              	.LBB123:
 1956              		.loc 3 308 0
 1957 0010 FFF7FEBF 		b	lv_cont_get_layout
 1958              	.LVL294:
 1959              	.LBE123:
 1960              	.LBE124:
 1961              		.cfi_endproc
 1962              	.LFE84:
 1963              		.size	lv_win_get_layout, .-lv_win_get_layout
 1964              		.section	.text.lv_win_get_sb_mode,"ax",%progbits
 1965              		.align	2
 1966              		.global	lv_win_get_sb_mode
 1967              		.thumb
 1968              		.thumb_func
 1969              		.type	lv_win_get_sb_mode, %function
 1970              	lv_win_get_sb_mode:
 1971              	.LFB85:
 441:..\..\..\lvgl\version_6.1.2\lvgl\src\lv_objx/lv_win.c ****     LV_ASSERT_OBJ(win, LV_OBJX_NAME);
 1972              		.loc 1 441 0
 1973              		.cfi_startproc
 1974              		@ args = 0, pretend = 0, frame = 0
 1975              		@ frame_needed = 0, uses_anonymous_args = 0
 1976              	.LVL295:
 1977 0000 08B5     		push	{r3, lr}
 1978              		.cfi_def_cfa_offset 8
 1979              		.cfi_offset 3, -8
 1980              		.cfi_offset 14, -4
 444:..\..\..\lvgl\version_6.1.2\lvgl\src\lv_objx/lv_win.c ****     return lv_page_get_sb_mode(ext->page);
 1981              		.loc 1 444 0
 1982 0002 FFF7FEFF 		bl	lv_obj_get_ext_attr
 1983              	.LVL296:
ARM GAS  C:\Users\pearlstl\AppData\Local\Temp\ccI2fBBa.s 			page 59


 446:..\..\..\lvgl\version_6.1.2\lvgl\src\lv_objx/lv_win.c **** 
 1984              		.loc 1 446 0
 1985 0006 BDE80840 		pop	{r3, lr}
 1986              		.cfi_restore 14
 1987              		.cfi_restore 3
 1988              		.cfi_def_cfa_offset 0
 445:..\..\..\lvgl\version_6.1.2\lvgl\src\lv_objx/lv_win.c **** }
 1989              		.loc 1 445 0
 1990 000a 0068     		ldr	r0, [r0]
 1991              	.LVL297:
 1992 000c FFF7FEBF 		b	lv_page_get_sb_mode
 1993              	.LVL298:
 1994              		.cfi_endproc
 1995              	.LFE85:
 1996              		.size	lv_win_get_sb_mode, .-lv_win_get_sb_mode
 1997              		.section	.text.lv_win_get_anim_time,"ax",%progbits
 1998              		.align	2
 1999              		.global	lv_win_get_anim_time
 2000              		.thumb
 2001              		.thumb_func
 2002              		.type	lv_win_get_anim_time, %function
 2003              	lv_win_get_anim_time:
 2004              	.LFB86:
 454:..\..\..\lvgl\version_6.1.2\lvgl\src\lv_objx/lv_win.c ****     LV_ASSERT_OBJ(win, LV_OBJX_NAME);
 2005              		.loc 1 454 0
 2006              		.cfi_startproc
 2007              		@ args = 0, pretend = 0, frame = 0
 2008              		@ frame_needed = 0, uses_anonymous_args = 0
 2009              	.LVL299:
 2010 0000 08B5     		push	{r3, lr}
 2011              		.cfi_def_cfa_offset 8
 2012              		.cfi_offset 3, -8
 2013              		.cfi_offset 14, -4
 2014              	.LBB125:
 2015              	.LBB126:
 389:..\..\..\lvgl\version_6.1.2\lvgl\src\lv_objx/lv_win.c ****     return ext->page;
 2016              		.loc 1 389 0
 2017 0002 FFF7FEFF 		bl	lv_obj_get_ext_attr
 2018              	.LVL300:
 2019              	.LBE126:
 2020              	.LBE125:
 458:..\..\..\lvgl\version_6.1.2\lvgl\src\lv_objx/lv_win.c **** 
 2021              		.loc 1 458 0
 2022 0006 BDE80840 		pop	{r3, lr}
 2023              		.cfi_restore 14
 2024              		.cfi_restore 3
 2025              		.cfi_def_cfa_offset 0
 457:..\..\..\lvgl\version_6.1.2\lvgl\src\lv_objx/lv_win.c **** }
 2026              		.loc 1 457 0
 2027 000a 0068     		ldr	r0, [r0]
 2028 000c FFF7FEBF 		b	lv_page_get_anim_time
 2029              	.LVL301:
 2030              		.cfi_endproc
 2031              	.LFE86:
 2032              		.size	lv_win_get_anim_time, .-lv_win_get_anim_time
 2033              		.section	.text.lv_win_get_width,"ax",%progbits
 2034              		.align	2
ARM GAS  C:\Users\pearlstl\AppData\Local\Temp\ccI2fBBa.s 			page 60


 2035              		.global	lv_win_get_width
 2036              		.thumb
 2037              		.thumb_func
 2038              		.type	lv_win_get_width, %function
 2039              	lv_win_get_width:
 2040              	.LFB87:
 466:..\..\..\lvgl\version_6.1.2\lvgl\src\lv_objx/lv_win.c ****     LV_ASSERT_OBJ(win, LV_OBJX_NAME);
 2041              		.loc 1 466 0
 2042              		.cfi_startproc
 2043              		@ args = 0, pretend = 0, frame = 0
 2044              		@ frame_needed = 0, uses_anonymous_args = 0
 2045              	.LVL302:
 2046 0000 38B5     		push	{r3, r4, r5, lr}
 2047              		.cfi_def_cfa_offset 16
 2048              		.cfi_offset 3, -16
 2049              		.cfi_offset 4, -12
 2050              		.cfi_offset 5, -8
 2051              		.cfi_offset 14, -4
 469:..\..\..\lvgl\version_6.1.2\lvgl\src\lv_objx/lv_win.c ****     lv_obj_t * scrl               = lv_page_get_scrl(ext->page);
 2052              		.loc 1 469 0
 2053 0002 FFF7FEFF 		bl	lv_obj_get_ext_attr
 2054              	.LVL303:
 470:..\..\..\lvgl\version_6.1.2\lvgl\src\lv_objx/lv_win.c ****     const lv_style_t * style_scrl = lv_obj_get_style(scrl);
 2055              		.loc 1 470 0
 2056 0006 0068     		ldr	r0, [r0]
 2057              	.LVL304:
 2058 0008 FFF7FEFF 		bl	lv_page_get_scrl
 2059              	.LVL305:
 2060 000c 0546     		mov	r5, r0
 2061              	.LVL306:
 471:..\..\..\lvgl\version_6.1.2\lvgl\src\lv_objx/lv_win.c **** 
 2062              		.loc 1 471 0
 2063 000e FFF7FEFF 		bl	lv_obj_get_style
 2064              	.LVL307:
 2065 0012 0446     		mov	r4, r0
 2066              	.LVL308:
 473:..\..\..\lvgl\version_6.1.2\lvgl\src\lv_objx/lv_win.c **** }
 2067              		.loc 1 473 0
 2068 0014 2846     		mov	r0, r5
 2069              	.LVL309:
 2070 0016 FFF7FEFF 		bl	lv_obj_get_width
 2071              	.LVL310:
 2072 001a A38C     		ldrh	r3, [r4, #36]
 2073 001c E28C     		ldrh	r2, [r4, #38]
 2074 001e C01A     		subs	r0, r0, r3
 2075 0020 801A     		subs	r0, r0, r2
 474:..\..\..\lvgl\version_6.1.2\lvgl\src\lv_objx/lv_win.c **** 
 2076              		.loc 1 474 0
 2077 0022 00B2     		sxth	r0, r0
 2078 0024 38BD     		pop	{r3, r4, r5, pc}
 2079              		.cfi_endproc
 2080              	.LFE87:
 2081              		.size	lv_win_get_width, .-lv_win_get_width
 2082 0026 00BF     		.section	.text.lv_win_get_style,"ax",%progbits
 2083              		.align	2
 2084              		.global	lv_win_get_style
 2085              		.thumb
ARM GAS  C:\Users\pearlstl\AppData\Local\Temp\ccI2fBBa.s 			page 61


 2086              		.thumb_func
 2087              		.type	lv_win_get_style, %function
 2088              	lv_win_get_style:
 2089              	.LFB88:
 483:..\..\..\lvgl\version_6.1.2\lvgl\src\lv_objx/lv_win.c ****     LV_ASSERT_OBJ(win, LV_OBJX_NAME);
 2090              		.loc 1 483 0
 2091              		.cfi_startproc
 2092              		@ args = 0, pretend = 0, frame = 0
 2093              		@ frame_needed = 0, uses_anonymous_args = 0
 2094              	.LVL311:
 2095 0000 38B5     		push	{r3, r4, r5, lr}
 2096              		.cfi_def_cfa_offset 16
 2097              		.cfi_offset 3, -16
 2098              		.cfi_offset 4, -12
 2099              		.cfi_offset 5, -8
 2100              		.cfi_offset 14, -4
 483:..\..\..\lvgl\version_6.1.2\lvgl\src\lv_objx/lv_win.c ****     LV_ASSERT_OBJ(win, LV_OBJX_NAME);
 2101              		.loc 1 483 0
 2102 0002 0C46     		mov	r4, r1
 2103 0004 0546     		mov	r5, r0
 487:..\..\..\lvgl\version_6.1.2\lvgl\src\lv_objx/lv_win.c **** 
 2104              		.loc 1 487 0
 2105 0006 FFF7FEFF 		bl	lv_obj_get_ext_attr
 2106              	.LVL312:
 489:..\..\..\lvgl\version_6.1.2\lvgl\src\lv_objx/lv_win.c ****         case LV_WIN_STYLE_BG: style = lv_obj_get_style(win); break;
 2107              		.loc 1 489 0
 2108 000a 052C     		cmp	r4, #5
 2109 000c 1ED8     		bhi	.L155
 2110 000e DFE804F0 		tbb	[pc, r4]
 2111              	.L149:
 2112 0012 05       		.byte	(.L148-.L149)/2
 2113 0013 0A       		.byte	(.L150-.L149)/2
 2114 0014 10       		.byte	(.L151-.L149)/2
 2115 0015 16       		.byte	(.L152-.L149)/2
 2116 0016 1B       		.byte	(.L153-.L149)/2
 2117 0017 03       		.byte	(.L154-.L149)/2
 2118              		.p2align 1
 2119              	.L154:
 495:..\..\..\lvgl\version_6.1.2\lvgl\src\lv_objx/lv_win.c ****         default: style = NULL; break;
 2120              		.loc 1 495 0
 2121 0018 0069     		ldr	r0, [r0, #16]
 2122              	.LVL313:
 2123 001a 38BD     		pop	{r3, r4, r5, pc}
 2124              	.LVL314:
 2125              	.L148:
 490:..\..\..\lvgl\version_6.1.2\lvgl\src\lv_objx/lv_win.c ****         case LV_WIN_STYLE_CONTENT: style = lv_page_get_style(ext->page, LV_PAGE_STYLE_SCRL); break;
 2126              		.loc 1 490 0
 2127 001c 2846     		mov	r0, r5
 2128              	.LVL315:
 500:..\..\..\lvgl\version_6.1.2\lvgl\src\lv_objx/lv_win.c **** 
 2129              		.loc 1 500 0
 2130 001e BDE83840 		pop	{r3, r4, r5, lr}
 2131              		.cfi_remember_state
 2132              		.cfi_restore 14
 2133              		.cfi_restore 5
 2134              		.cfi_restore 4
 2135              		.cfi_restore 3
ARM GAS  C:\Users\pearlstl\AppData\Local\Temp\ccI2fBBa.s 			page 62


 2136              		.cfi_def_cfa_offset 0
 2137              	.LVL316:
 490:..\..\..\lvgl\version_6.1.2\lvgl\src\lv_objx/lv_win.c ****         case LV_WIN_STYLE_CONTENT: style = lv_page_get_style(ext->page, LV_PAGE_STYLE_SCRL); break;
 2138              		.loc 1 490 0
 2139 0022 FFF7FEBF 		b	lv_obj_get_style
 2140              	.LVL317:
 2141              	.L150:
 2142              		.cfi_restore_state
 491:..\..\..\lvgl\version_6.1.2\lvgl\src\lv_objx/lv_win.c ****         case LV_WIN_STYLE_SB: style = lv_page_get_style(ext->page, LV_PAGE_STYLE_SB); break;
 2143              		.loc 1 491 0
 2144 0026 0068     		ldr	r0, [r0]
 2145              	.LVL318:
 2146 0028 0121     		movs	r1, #1
 500:..\..\..\lvgl\version_6.1.2\lvgl\src\lv_objx/lv_win.c **** 
 2147              		.loc 1 500 0
 2148 002a BDE83840 		pop	{r3, r4, r5, lr}
 2149              		.cfi_remember_state
 2150              		.cfi_restore 14
 2151              		.cfi_restore 5
 2152              		.cfi_restore 4
 2153              		.cfi_restore 3
 2154              		.cfi_def_cfa_offset 0
 2155              	.LVL319:
 491:..\..\..\lvgl\version_6.1.2\lvgl\src\lv_objx/lv_win.c ****         case LV_WIN_STYLE_SB: style = lv_page_get_style(ext->page, LV_PAGE_STYLE_SB); break;
 2156              		.loc 1 491 0
 2157 002e FFF7FEBF 		b	lv_page_get_style
 2158              	.LVL320:
 2159              	.L151:
 2160              		.cfi_restore_state
 492:..\..\..\lvgl\version_6.1.2\lvgl\src\lv_objx/lv_win.c ****         case LV_WIN_STYLE_HEADER: style = lv_obj_get_style(ext->header); break;
 2161              		.loc 1 492 0
 2162 0032 0068     		ldr	r0, [r0]
 2163              	.LVL321:
 2164 0034 0221     		movs	r1, #2
 500:..\..\..\lvgl\version_6.1.2\lvgl\src\lv_objx/lv_win.c **** 
 2165              		.loc 1 500 0
 2166 0036 BDE83840 		pop	{r3, r4, r5, lr}
 2167              		.cfi_remember_state
 2168              		.cfi_restore 14
 2169              		.cfi_restore 5
 2170              		.cfi_restore 4
 2171              		.cfi_restore 3
 2172              		.cfi_def_cfa_offset 0
 2173              	.LVL322:
 492:..\..\..\lvgl\version_6.1.2\lvgl\src\lv_objx/lv_win.c ****         case LV_WIN_STYLE_HEADER: style = lv_obj_get_style(ext->header); break;
 2174              		.loc 1 492 0
 2175 003a FFF7FEBF 		b	lv_page_get_style
 2176              	.LVL323:
 2177              	.L152:
 2178              		.cfi_restore_state
 493:..\..\..\lvgl\version_6.1.2\lvgl\src\lv_objx/lv_win.c ****         case LV_WIN_STYLE_BTN_REL: style = ext->style_btn_rel; break;
 2179              		.loc 1 493 0
 2180 003e 4068     		ldr	r0, [r0, #4]
 2181              	.LVL324:
 500:..\..\..\lvgl\version_6.1.2\lvgl\src\lv_objx/lv_win.c **** 
 2182              		.loc 1 500 0
 2183 0040 BDE83840 		pop	{r3, r4, r5, lr}
ARM GAS  C:\Users\pearlstl\AppData\Local\Temp\ccI2fBBa.s 			page 63


 2184              		.cfi_remember_state
 2185              		.cfi_restore 14
 2186              		.cfi_restore 5
 2187              		.cfi_restore 4
 2188              		.cfi_restore 3
 2189              		.cfi_def_cfa_offset 0
 2190              	.LVL325:
 493:..\..\..\lvgl\version_6.1.2\lvgl\src\lv_objx/lv_win.c ****         case LV_WIN_STYLE_BTN_REL: style = ext->style_btn_rel; break;
 2191              		.loc 1 493 0
 2192 0044 FFF7FEBF 		b	lv_obj_get_style
 2193              	.LVL326:
 2194              	.L153:
 2195              		.cfi_restore_state
 494:..\..\..\lvgl\version_6.1.2\lvgl\src\lv_objx/lv_win.c ****         case LV_WIN_STYLE_BTN_PR: style = ext->style_btn_pr; break;
 2196              		.loc 1 494 0
 2197 0048 C068     		ldr	r0, [r0, #12]
 2198              	.LVL327:
 2199 004a 38BD     		pop	{r3, r4, r5, pc}
 2200              	.LVL328:
 2201              	.L155:
 496:..\..\..\lvgl\version_6.1.2\lvgl\src\lv_objx/lv_win.c ****     }
 2202              		.loc 1 496 0
 2203 004c 0020     		movs	r0, #0
 2204              	.LVL329:
 500:..\..\..\lvgl\version_6.1.2\lvgl\src\lv_objx/lv_win.c **** 
 2205              		.loc 1 500 0
 2206 004e 38BD     		pop	{r3, r4, r5, pc}
 2207              		.cfi_endproc
 2208              	.LFE88:
 2209              		.size	lv_win_get_style, .-lv_win_get_style
 2210              		.section	.text.lv_win_focus,"ax",%progbits
 2211              		.align	2
 2212              		.global	lv_win_focus
 2213              		.thumb
 2214              		.thumb_func
 2215              		.type	lv_win_focus, %function
 2216              	lv_win_focus:
 2217              	.LFB89:
 513:..\..\..\lvgl\version_6.1.2\lvgl\src\lv_objx/lv_win.c ****     LV_ASSERT_OBJ(win, LV_OBJX_NAME);
 2218              		.loc 1 513 0
 2219              		.cfi_startproc
 2220              		@ args = 0, pretend = 0, frame = 0
 2221              		@ frame_needed = 0, uses_anonymous_args = 0
 2222              	.LVL330:
 2223 0000 38B5     		push	{r3, r4, r5, lr}
 2224              		.cfi_def_cfa_offset 16
 2225              		.cfi_offset 3, -16
 2226              		.cfi_offset 4, -12
 2227              		.cfi_offset 5, -8
 2228              		.cfi_offset 14, -4
 513:..\..\..\lvgl\version_6.1.2\lvgl\src\lv_objx/lv_win.c ****     LV_ASSERT_OBJ(win, LV_OBJX_NAME);
 2229              		.loc 1 513 0
 2230 0002 0C46     		mov	r4, r1
 2231 0004 1546     		mov	r5, r2
 518:..\..\..\lvgl\version_6.1.2\lvgl\src\lv_objx/lv_win.c ****     lv_page_focus(ext->page, obj, anim_en);
 2232              		.loc 1 518 0
 2233 0006 FFF7FEFF 		bl	lv_obj_get_ext_attr
ARM GAS  C:\Users\pearlstl\AppData\Local\Temp\ccI2fBBa.s 			page 64


 2234              	.LVL331:
 519:..\..\..\lvgl\version_6.1.2\lvgl\src\lv_objx/lv_win.c **** }
 2235              		.loc 1 519 0
 2236 000a 2A46     		mov	r2, r5
 2237 000c 2146     		mov	r1, r4
 2238 000e 0068     		ldr	r0, [r0]
 2239              	.LVL332:
 520:..\..\..\lvgl\version_6.1.2\lvgl\src\lv_objx/lv_win.c **** 
 2240              		.loc 1 520 0
 2241 0010 BDE83840 		pop	{r3, r4, r5, lr}
 2242              		.cfi_restore 14
 2243              		.cfi_restore 5
 2244              		.cfi_restore 4
 2245              		.cfi_restore 3
 2246              		.cfi_def_cfa_offset 0
 2247              	.LVL333:
 519:..\..\..\lvgl\version_6.1.2\lvgl\src\lv_objx/lv_win.c **** }
 2248              		.loc 1 519 0
 2249 0014 FFF7FEBF 		b	lv_page_focus
 2250              	.LVL334:
 2251              		.cfi_endproc
 2252              	.LFE89:
 2253              		.size	lv_win_focus, .-lv_win_focus
 2254              		.section	.rodata.str1.4,"aMS",%progbits,1
 2255              		.align	2
 2256              	.LC0:
 2257 0000 6C765F77 		.ascii	"lv_win\000"
 2257      696E00
 2258 0007 00       		.space	1
 2259              	.LC1:
 2260 0008 4D792074 		.ascii	"My title\000"
 2260      69746C65 
 2260      00
 2261              		.bss
 2262              		.align	2
 2263              		.set	.LANCHOR0,. + 0
 2264              		.type	ancestor_signal, %object
 2265              		.size	ancestor_signal, 4
 2266              	ancestor_signal:
 2267 0000 00000000 		.space	4
 2268              		.text
 2269              	.Letext0:
 2270              		.file 4 "c:\\program files (x86)\\cypress\\psoc creator\\4.2\\psoc creator\\import\\gnu\\arm\\5.4.
 2271              		.file 5 "c:\\program files (x86)\\cypress\\psoc creator\\4.2\\psoc creator\\import\\gnu\\arm\\5.4.
 2272              		.file 6 "..\\..\\..\\lvgl\\version_6.1.2\\lvgl\\src\\lv_objx\\../../../lv_conf.h"
 2273              		.file 7 "..\\..\\..\\lvgl\\version_6.1.2\\lvgl\\src\\lv_objx\\../lv_core/../lv_font/lv_font.h"
 2274              		.file 8 "..\\..\\..\\lvgl\\version_6.1.2\\lvgl\\src\\lv_objx\\../lv_core/../lv_misc/lv_color.h"
 2275              		.file 9 "..\\..\\..\\lvgl\\version_6.1.2\\lvgl\\src\\lv_objx\\../lv_core/../lv_misc/lv_anim.h"
 2276              		.file 10 "..\\..\\..\\lvgl\\version_6.1.2\\lvgl\\src\\lv_objx\\../lv_core/lv_style.h"
 2277              		.file 11 "..\\..\\..\\lvgl\\version_6.1.2\\lvgl\\src\\lv_objx\\../lv_core/../lv_misc/lv_types.h"
 2278              		.file 12 "..\\..\\..\\lvgl\\version_6.1.2\\lvgl\\src\\lv_objx\\../lv_core/../lv_misc/lv_ll.h"
 2279              		.file 13 "..\\..\\..\\lvgl\\version_6.1.2\\lvgl\\src\\lv_objx\\../lv_core/../lv_misc/lv_bidi.h"
 2280              		.file 14 "..\\..\\..\\lvgl\\version_6.1.2\\lvgl\\src\\lv_objx\\../lv_core/lv_obj.h"
 2281              		.file 15 "..\\..\\..\\lvgl\\version_6.1.2\\lvgl\\src\\lv_objx\\lv_cont.h"
 2282              		.file 16 "..\\..\\..\\lvgl\\version_6.1.2\\lvgl\\src\\lv_objx\\lv_btn.h"
 2283              		.file 17 "..\\..\\..\\lvgl\\version_6.1.2\\lvgl\\src\\lv_objx\\lv_win.h"
 2284              		.file 18 "..\\..\\..\\lvgl\\version_6.1.2\\lvgl\\src\\lv_objx\\../lv_themes/lv_theme.h"
ARM GAS  C:\Users\pearlstl\AppData\Local\Temp\ccI2fBBa.s 			page 65


 2285              		.file 19 "..\\..\\..\\lvgl\\version_6.1.2\\lvgl\\src\\lv_objx\\lv_label.h"
 2286              		.file 20 "..\\..\\..\\lvgl\\version_6.1.2\\lvgl\\src\\lv_objx\\lv_img.h"
 2287              		.file 21 "..\\..\\..\\lvgl\\version_6.1.2\\lvgl\\src\\lv_objx\\../lv_core/../lv_hal/lv_hal_disp.h"
 2288              		.section	.debug_info,"",%progbits
 2289              	.Ldebug_info0:
 2290 0000 B62E0000 		.4byte	0x2eb6
 2291 0004 0400     		.2byte	0x4
 2292 0006 00000000 		.4byte	.Ldebug_abbrev0
 2293 000a 04       		.byte	0x4
 2294 000b 01       		.uleb128 0x1
 2295 000c 8B020000 		.4byte	.LASF372
 2296 0010 0C       		.byte	0xc
 2297 0011 26050000 		.4byte	.LASF373
 2298 0015 3B110000 		.4byte	.LASF374
 2299 0019 80010000 		.4byte	.Ldebug_ranges0+0x180
 2300 001d 00000000 		.4byte	0
 2301 0021 00000000 		.4byte	.Ldebug_line0
 2302 0025 02       		.uleb128 0x2
 2303 0026 FA0D0000 		.4byte	.LASF0
 2304 002a 04       		.byte	0x4
 2305 002b 1B       		.byte	0x1b
 2306 002c 30000000 		.4byte	0x30
 2307 0030 03       		.uleb128 0x3
 2308 0031 01       		.byte	0x1
 2309 0032 06       		.byte	0x6
 2310 0033 23040000 		.4byte	.LASF2
 2311 0037 02       		.uleb128 0x2
 2312 0038 6D030000 		.4byte	.LASF1
 2313 003c 04       		.byte	0x4
 2314 003d 1D       		.byte	0x1d
 2315 003e 42000000 		.4byte	0x42
 2316 0042 03       		.uleb128 0x3
 2317 0043 01       		.byte	0x1
 2318 0044 08       		.byte	0x8
 2319 0045 8C040000 		.4byte	.LASF3
 2320 0049 02       		.uleb128 0x2
 2321 004a FA0E0000 		.4byte	.LASF4
 2322 004e 04       		.byte	0x4
 2323 004f 29       		.byte	0x29
 2324 0050 54000000 		.4byte	0x54
 2325 0054 03       		.uleb128 0x3
 2326 0055 02       		.byte	0x2
 2327 0056 05       		.byte	0x5
 2328 0057 BF100000 		.4byte	.LASF5
 2329 005b 02       		.uleb128 0x2
 2330 005c CC050000 		.4byte	.LASF6
 2331 0060 04       		.byte	0x4
 2332 0061 2B       		.byte	0x2b
 2333 0062 66000000 		.4byte	0x66
 2334 0066 03       		.uleb128 0x3
 2335 0067 02       		.byte	0x2
 2336 0068 07       		.byte	0x7
 2337 0069 E2130000 		.4byte	.LASF7
 2338 006d 03       		.uleb128 0x3
 2339 006e 04       		.byte	0x4
 2340 006f 05       		.byte	0x5
 2341 0070 AC030000 		.4byte	.LASF8
ARM GAS  C:\Users\pearlstl\AppData\Local\Temp\ccI2fBBa.s 			page 66


 2342 0074 02       		.uleb128 0x2
 2343 0075 9E090000 		.4byte	.LASF9
 2344 0079 04       		.byte	0x4
 2345 007a 41       		.byte	0x41
 2346 007b 7F000000 		.4byte	0x7f
 2347 007f 03       		.uleb128 0x3
 2348 0080 04       		.byte	0x4
 2349 0081 07       		.byte	0x7
 2350 0082 72080000 		.4byte	.LASF10
 2351 0086 03       		.uleb128 0x3
 2352 0087 08       		.byte	0x8
 2353 0088 05       		.byte	0x5
 2354 0089 C0090000 		.4byte	.LASF11
 2355 008d 03       		.uleb128 0x3
 2356 008e 08       		.byte	0x8
 2357 008f 07       		.byte	0x7
 2358 0090 240E0000 		.4byte	.LASF12
 2359 0094 04       		.uleb128 0x4
 2360 0095 04       		.byte	0x4
 2361 0096 05       		.byte	0x5
 2362 0097 696E7400 		.ascii	"int\000"
 2363 009b 03       		.uleb128 0x3
 2364 009c 04       		.byte	0x4
 2365 009d 07       		.byte	0x7
 2366 009e DC0A0000 		.4byte	.LASF13
 2367 00a2 02       		.uleb128 0x2
 2368 00a3 0D000000 		.4byte	.LASF14
 2369 00a7 05       		.byte	0x5
 2370 00a8 14       		.byte	0x14
 2371 00a9 25000000 		.4byte	0x25
 2372 00ad 02       		.uleb128 0x2
 2373 00ae 2F040000 		.4byte	.LASF15
 2374 00b2 05       		.byte	0x5
 2375 00b3 18       		.byte	0x18
 2376 00b4 37000000 		.4byte	0x37
 2377 00b8 02       		.uleb128 0x2
 2378 00b9 33110000 		.4byte	.LASF16
 2379 00bd 05       		.byte	0x5
 2380 00be 20       		.byte	0x20
 2381 00bf 49000000 		.4byte	0x49
 2382 00c3 02       		.uleb128 0x2
 2383 00c4 690E0000 		.4byte	.LASF17
 2384 00c8 05       		.byte	0x5
 2385 00c9 24       		.byte	0x24
 2386 00ca 5B000000 		.4byte	0x5b
 2387 00ce 02       		.uleb128 0x2
 2388 00cf 3A130000 		.4byte	.LASF18
 2389 00d3 05       		.byte	0x5
 2390 00d4 30       		.byte	0x30
 2391 00d5 74000000 		.4byte	0x74
 2392 00d9 02       		.uleb128 0x2
 2393 00da 20140000 		.4byte	.LASF19
 2394 00de 06       		.byte	0x6
 2395 00df 3A       		.byte	0x3a
 2396 00e0 B8000000 		.4byte	0xb8
 2397 00e4 05       		.uleb128 0x5
 2398 00e5 04       		.byte	0x4
ARM GAS  C:\Users\pearlstl\AppData\Local\Temp\ccI2fBBa.s 			page 67


 2399 00e6 03       		.uleb128 0x3
 2400 00e7 08       		.byte	0x8
 2401 00e8 04       		.byte	0x4
 2402 00e9 BA0C0000 		.4byte	.LASF20
 2403 00ed 06       		.uleb128 0x6
 2404 00ee 08       		.byte	0x8
 2405 00ef 07       		.byte	0x7
 2406 00f0 2E       		.byte	0x2e
 2407 00f1 3E010000 		.4byte	0x13e
 2408 00f5 07       		.uleb128 0x7
 2409 00f6 35000000 		.4byte	.LASF21
 2410 00fa 07       		.byte	0x7
 2411 00fb 30       		.byte	0x30
 2412 00fc C3000000 		.4byte	0xc3
 2413 0100 00       		.byte	0
 2414 0101 07       		.uleb128 0x7
 2415 0102 B9100000 		.4byte	.LASF22
 2416 0106 07       		.byte	0x7
 2417 0107 31       		.byte	0x31
 2418 0108 AD000000 		.4byte	0xad
 2419 010c 02       		.byte	0x2
 2420 010d 07       		.uleb128 0x7
 2421 010e 8C100000 		.4byte	.LASF23
 2422 0112 07       		.byte	0x7
 2423 0113 32       		.byte	0x32
 2424 0114 AD000000 		.4byte	0xad
 2425 0118 03       		.byte	0x3
 2426 0119 07       		.uleb128 0x7
 2427 011a 13050000 		.4byte	.LASF24
 2428 011e 07       		.byte	0x7
 2429 011f 33       		.byte	0x33
 2430 0120 A2000000 		.4byte	0xa2
 2431 0124 04       		.byte	0x4
 2432 0125 07       		.uleb128 0x7
 2433 0126 19050000 		.4byte	.LASF25
 2434 012a 07       		.byte	0x7
 2435 012b 34       		.byte	0x34
 2436 012c A2000000 		.4byte	0xa2
 2437 0130 05       		.byte	0x5
 2438 0131 08       		.uleb128 0x8
 2439 0132 62707000 		.ascii	"bpp\000"
 2440 0136 07       		.byte	0x7
 2441 0137 35       		.byte	0x35
 2442 0138 AD000000 		.4byte	0xad
 2443 013c 06       		.byte	0x6
 2444 013d 00       		.byte	0
 2445 013e 02       		.uleb128 0x2
 2446 013f A00B0000 		.4byte	.LASF26
 2447 0143 07       		.byte	0x7
 2448 0144 36       		.byte	0x36
 2449 0145 ED000000 		.4byte	0xed
 2450 0149 09       		.uleb128 0x9
 2451 014a 26150000 		.4byte	.LASF82
 2452 014e 10       		.byte	0x10
 2453 014f 07       		.byte	0x7
 2454 0150 44       		.byte	0x44
 2455 0151 A1010000 		.4byte	0x1a1
ARM GAS  C:\Users\pearlstl\AppData\Local\Temp\ccI2fBBa.s 			page 68


 2456 0155 07       		.uleb128 0x7
 2457 0156 57140000 		.4byte	.LASF27
 2458 015a 07       		.byte	0x7
 2459 015b 47       		.byte	0x47
 2460 015c D7010000 		.4byte	0x1d7
 2461 0160 00       		.byte	0
 2462 0161 07       		.uleb128 0x7
 2463 0162 58040000 		.4byte	.LASF28
 2464 0166 07       		.byte	0x7
 2465 0167 4A       		.byte	0x4a
 2466 0168 FC010000 		.4byte	0x1fc
 2467 016c 04       		.byte	0x4
 2468 016d 07       		.uleb128 0x7
 2469 016e 2F010000 		.4byte	.LASF29
 2470 0172 07       		.byte	0x7
 2471 0173 4D       		.byte	0x4d
 2472 0174 AD000000 		.4byte	0xad
 2473 0178 08       		.byte	0x8
 2474 0179 07       		.uleb128 0x7
 2475 017a DD100000 		.4byte	.LASF30
 2476 017e 07       		.byte	0x7
 2477 017f 4E       		.byte	0x4e
 2478 0180 A2000000 		.4byte	0xa2
 2479 0184 09       		.byte	0x9
 2480 0185 0A       		.uleb128 0xa
 2481 0186 2E0D0000 		.4byte	.LASF65
 2482 018a 07       		.byte	0x7
 2483 018b 4F       		.byte	0x4f
 2484 018c AD000000 		.4byte	0xad
 2485 0190 01       		.byte	0x1
 2486 0191 02       		.byte	0x2
 2487 0192 06       		.byte	0x6
 2488 0193 0A       		.byte	0xa
 2489 0194 08       		.uleb128 0x8
 2490 0195 64736300 		.ascii	"dsc\000"
 2491 0199 07       		.byte	0x7
 2492 019a 50       		.byte	0x50
 2493 019b E4000000 		.4byte	0xe4
 2494 019f 0C       		.byte	0xc
 2495 01a0 00       		.byte	0
 2496 01a1 0B       		.uleb128 0xb
 2497 01a2 BF010000 		.4byte	0x1bf
 2498 01a6 BF010000 		.4byte	0x1bf
 2499 01aa 0C       		.uleb128 0xc
 2500 01ab C6010000 		.4byte	0x1c6
 2501 01af 0C       		.uleb128 0xc
 2502 01b0 D1010000 		.4byte	0x1d1
 2503 01b4 0C       		.uleb128 0xc
 2504 01b5 CE000000 		.4byte	0xce
 2505 01b9 0C       		.uleb128 0xc
 2506 01ba CE000000 		.4byte	0xce
 2507 01be 00       		.byte	0
 2508 01bf 03       		.uleb128 0x3
 2509 01c0 01       		.byte	0x1
 2510 01c1 02       		.byte	0x2
 2511 01c2 75050000 		.4byte	.LASF31
 2512 01c6 0D       		.uleb128 0xd
ARM GAS  C:\Users\pearlstl\AppData\Local\Temp\ccI2fBBa.s 			page 69


 2513 01c7 04       		.byte	0x4
 2514 01c8 CC010000 		.4byte	0x1cc
 2515 01cc 0E       		.uleb128 0xe
 2516 01cd 49010000 		.4byte	0x149
 2517 01d1 0D       		.uleb128 0xd
 2518 01d2 04       		.byte	0x4
 2519 01d3 3E010000 		.4byte	0x13e
 2520 01d7 0D       		.uleb128 0xd
 2521 01d8 04       		.byte	0x4
 2522 01d9 A1010000 		.4byte	0x1a1
 2523 01dd 0B       		.uleb128 0xb
 2524 01de F1010000 		.4byte	0x1f1
 2525 01e2 F1010000 		.4byte	0x1f1
 2526 01e6 0C       		.uleb128 0xc
 2527 01e7 C6010000 		.4byte	0x1c6
 2528 01eb 0C       		.uleb128 0xc
 2529 01ec CE000000 		.4byte	0xce
 2530 01f0 00       		.byte	0
 2531 01f1 0D       		.uleb128 0xd
 2532 01f2 04       		.byte	0x4
 2533 01f3 F7010000 		.4byte	0x1f7
 2534 01f7 0E       		.uleb128 0xe
 2535 01f8 AD000000 		.4byte	0xad
 2536 01fc 0D       		.uleb128 0xd
 2537 01fd 04       		.byte	0x4
 2538 01fe DD010000 		.4byte	0x1dd
 2539 0202 02       		.uleb128 0x2
 2540 0203 AA130000 		.4byte	.LASF32
 2541 0207 07       		.byte	0x7
 2542 0208 56       		.byte	0x56
 2543 0209 49010000 		.4byte	0x149
 2544 020d 06       		.uleb128 0x6
 2545 020e 04       		.byte	0x4
 2546 020f 08       		.byte	0x8
 2547 0210 F3       		.byte	0xf3
 2548 0211 46020000 		.4byte	0x246
 2549 0215 07       		.uleb128 0x7
 2550 0216 6E040000 		.4byte	.LASF33
 2551 021a 08       		.byte	0x8
 2552 021b F5       		.byte	0xf5
 2553 021c AD000000 		.4byte	0xad
 2554 0220 00       		.byte	0
 2555 0221 07       		.uleb128 0x7
 2556 0222 A4130000 		.4byte	.LASF34
 2557 0226 08       		.byte	0x8
 2558 0227 F6       		.byte	0xf6
 2559 0228 AD000000 		.4byte	0xad
 2560 022c 01       		.byte	0x1
 2561 022d 08       		.uleb128 0x8
 2562 022e 72656400 		.ascii	"red\000"
 2563 0232 08       		.byte	0x8
 2564 0233 F7       		.byte	0xf7
 2565 0234 AD000000 		.4byte	0xad
 2566 0238 02       		.byte	0x2
 2567 0239 07       		.uleb128 0x7
 2568 023a 77030000 		.4byte	.LASF35
 2569 023e 08       		.byte	0x8
ARM GAS  C:\Users\pearlstl\AppData\Local\Temp\ccI2fBBa.s 			page 70


 2570 023f F8       		.byte	0xf8
 2571 0240 AD000000 		.4byte	0xad
 2572 0244 03       		.byte	0x3
 2573 0245 00       		.byte	0
 2574 0246 0F       		.uleb128 0xf
 2575 0247 04       		.byte	0x4
 2576 0248 08       		.byte	0x8
 2577 0249 F1       		.byte	0xf1
 2578 024a 64020000 		.4byte	0x264
 2579 024e 10       		.uleb128 0x10
 2580 024f 636800   		.ascii	"ch\000"
 2581 0252 08       		.byte	0x8
 2582 0253 F9       		.byte	0xf9
 2583 0254 0D020000 		.4byte	0x20d
 2584 0258 11       		.uleb128 0x11
 2585 0259 750F0000 		.4byte	.LASF36
 2586 025d 08       		.byte	0x8
 2587 025e FA       		.byte	0xfa
 2588 025f CE000000 		.4byte	0xce
 2589 0263 00       		.byte	0
 2590 0264 02       		.uleb128 0x2
 2591 0265 4E000000 		.4byte	.LASF37
 2592 0269 08       		.byte	0x8
 2593 026a FB       		.byte	0xfb
 2594 026b 46020000 		.4byte	0x246
 2595 026f 12       		.uleb128 0x12
 2596 0270 7C0E0000 		.4byte	.LASF38
 2597 0274 08       		.byte	0x8
 2598 0275 0801     		.2byte	0x108
 2599 0277 64020000 		.4byte	0x264
 2600 027b 12       		.uleb128 0x12
 2601 027c A6000000 		.4byte	.LASF39
 2602 0280 08       		.byte	0x8
 2603 0281 0D01     		.2byte	0x10d
 2604 0283 AD000000 		.4byte	0xad
 2605 0287 03       		.uleb128 0x3
 2606 0288 04       		.byte	0x4
 2607 0289 07       		.byte	0x7
 2608 028a 45000000 		.4byte	.LASF40
 2609 028e 03       		.uleb128 0x3
 2610 028f 01       		.byte	0x1
 2611 0290 08       		.byte	0x8
 2612 0291 A6050000 		.4byte	.LASF41
 2613 0295 0D       		.uleb128 0xd
 2614 0296 04       		.byte	0x4
 2615 0297 9B020000 		.4byte	0x29b
 2616 029b 0E       		.uleb128 0xe
 2617 029c 8E020000 		.4byte	0x28e
 2618 02a0 06       		.uleb128 0x6
 2619 02a1 08       		.byte	0x8
 2620 02a2 02       		.byte	0x2
 2621 02a3 31       		.byte	0x31
 2622 02a4 D5020000 		.4byte	0x2d5
 2623 02a8 08       		.uleb128 0x8
 2624 02a9 783100   		.ascii	"x1\000"
 2625 02ac 02       		.byte	0x2
 2626 02ad 33       		.byte	0x33
ARM GAS  C:\Users\pearlstl\AppData\Local\Temp\ccI2fBBa.s 			page 71


 2627 02ae D9000000 		.4byte	0xd9
 2628 02b2 00       		.byte	0
 2629 02b3 08       		.uleb128 0x8
 2630 02b4 793100   		.ascii	"y1\000"
 2631 02b7 02       		.byte	0x2
 2632 02b8 34       		.byte	0x34
 2633 02b9 D9000000 		.4byte	0xd9
 2634 02bd 02       		.byte	0x2
 2635 02be 08       		.uleb128 0x8
 2636 02bf 783200   		.ascii	"x2\000"
 2637 02c2 02       		.byte	0x2
 2638 02c3 35       		.byte	0x35
 2639 02c4 D9000000 		.4byte	0xd9
 2640 02c8 04       		.byte	0x4
 2641 02c9 08       		.uleb128 0x8
 2642 02ca 793200   		.ascii	"y2\000"
 2643 02cd 02       		.byte	0x2
 2644 02ce 36       		.byte	0x36
 2645 02cf D9000000 		.4byte	0xd9
 2646 02d3 06       		.byte	0x6
 2647 02d4 00       		.byte	0
 2648 02d5 02       		.uleb128 0x2
 2649 02d6 48070000 		.4byte	.LASF42
 2650 02da 02       		.byte	0x2
 2651 02db 37       		.byte	0x37
 2652 02dc A0020000 		.4byte	0x2a0
 2653 02e0 02       		.uleb128 0x2
 2654 02e1 0B090000 		.4byte	.LASF43
 2655 02e5 09       		.byte	0x9
 2656 02e6 28       		.byte	0x28
 2657 02e7 AD000000 		.4byte	0xad
 2658 02eb 02       		.uleb128 0x2
 2659 02ec 7E140000 		.4byte	.LASF44
 2660 02f0 0A       		.byte	0xa
 2661 02f1 2C       		.byte	0x2c
 2662 02f2 AD000000 		.4byte	0xad
 2663 02f6 02       		.uleb128 0x2
 2664 02f7 E20F0000 		.4byte	.LASF45
 2665 02fb 0A       		.byte	0xa
 2666 02fc 33       		.byte	0x33
 2667 02fd AD000000 		.4byte	0xad
 2668 0301 06       		.uleb128 0x6
 2669 0302 08       		.byte	0x8
 2670 0303 0A       		.byte	0xa
 2671 0304 48       		.byte	0x48
 2672 0305 3A030000 		.4byte	0x33a
 2673 0309 07       		.uleb128 0x7
 2674 030a A50F0000 		.4byte	.LASF46
 2675 030e 0A       		.byte	0xa
 2676 030f 4A       		.byte	0x4a
 2677 0310 6F020000 		.4byte	0x26f
 2678 0314 00       		.byte	0
 2679 0315 07       		.uleb128 0x7
 2680 0316 E7090000 		.4byte	.LASF47
 2681 031a 0A       		.byte	0xa
 2682 031b 4B       		.byte	0x4b
 2683 031c D9000000 		.4byte	0xd9
ARM GAS  C:\Users\pearlstl\AppData\Local\Temp\ccI2fBBa.s 			page 72


 2684 0320 04       		.byte	0x4
 2685 0321 07       		.uleb128 0x7
 2686 0322 36150000 		.4byte	.LASF48
 2687 0326 0A       		.byte	0xa
 2688 0327 4C       		.byte	0x4c
 2689 0328 EB020000 		.4byte	0x2eb
 2690 032c 06       		.byte	0x6
 2691 032d 08       		.uleb128 0x8
 2692 032e 6F706100 		.ascii	"opa\000"
 2693 0332 0A       		.byte	0xa
 2694 0333 4D       		.byte	0x4d
 2695 0334 7B020000 		.4byte	0x27b
 2696 0338 07       		.byte	0x7
 2697 0339 00       		.byte	0
 2698 033a 06       		.uleb128 0x6
 2699 033b 08       		.byte	0x8
 2700 033c 0A       		.byte	0xa
 2701 033d 51       		.byte	0x51
 2702 033e 67030000 		.4byte	0x367
 2703 0342 07       		.uleb128 0x7
 2704 0343 A50F0000 		.4byte	.LASF46
 2705 0347 0A       		.byte	0xa
 2706 0348 53       		.byte	0x53
 2707 0349 6F020000 		.4byte	0x26f
 2708 034d 00       		.byte	0
 2709 034e 07       		.uleb128 0x7
 2710 034f E7090000 		.4byte	.LASF47
 2711 0353 0A       		.byte	0xa
 2712 0354 54       		.byte	0x54
 2713 0355 D9000000 		.4byte	0xd9
 2714 0359 04       		.byte	0x4
 2715 035a 07       		.uleb128 0x7
 2716 035b 17020000 		.4byte	.LASF49
 2717 035f 0A       		.byte	0xa
 2718 0360 55       		.byte	0x55
 2719 0361 F6020000 		.4byte	0x2f6
 2720 0365 06       		.byte	0x6
 2721 0366 00       		.byte	0
 2722 0367 06       		.uleb128 0x6
 2723 0368 0A       		.byte	0xa
 2724 0369 0A       		.byte	0xa
 2725 036a 58       		.byte	0x58
 2726 036b AC030000 		.4byte	0x3ac
 2727 036f 08       		.uleb128 0x8
 2728 0370 746F7000 		.ascii	"top\000"
 2729 0374 0A       		.byte	0xa
 2730 0375 5A       		.byte	0x5a
 2731 0376 D9000000 		.4byte	0xd9
 2732 037a 00       		.byte	0
 2733 037b 07       		.uleb128 0x7
 2734 037c 150A0000 		.4byte	.LASF50
 2735 0380 0A       		.byte	0xa
 2736 0381 5B       		.byte	0x5b
 2737 0382 D9000000 		.4byte	0xd9
 2738 0386 02       		.byte	0x2
 2739 0387 07       		.uleb128 0x7
 2740 0388 9E070000 		.4byte	.LASF51
ARM GAS  C:\Users\pearlstl\AppData\Local\Temp\ccI2fBBa.s 			page 73


 2741 038c 0A       		.byte	0xa
 2742 038d 5C       		.byte	0x5c
 2743 038e D9000000 		.4byte	0xd9
 2744 0392 04       		.byte	0x4
 2745 0393 07       		.uleb128 0x7
 2746 0394 B2090000 		.4byte	.LASF52
 2747 0398 0A       		.byte	0xa
 2748 0399 5D       		.byte	0x5d
 2749 039a D9000000 		.4byte	0xd9
 2750 039e 06       		.byte	0x6
 2751 039f 07       		.uleb128 0x7
 2752 03a0 35080000 		.4byte	.LASF53
 2753 03a4 0A       		.byte	0xa
 2754 03a5 5E       		.byte	0x5e
 2755 03a6 D9000000 		.4byte	0xd9
 2756 03aa 08       		.byte	0x8
 2757 03ab 00       		.byte	0
 2758 03ac 06       		.uleb128 0x6
 2759 03ad 28       		.byte	0x28
 2760 03ae 0A       		.byte	0xa
 2761 03af 41       		.byte	0x41
 2762 03b0 09040000 		.4byte	0x409
 2763 03b4 07       		.uleb128 0x7
 2764 03b5 DB0D0000 		.4byte	.LASF54
 2765 03b9 0A       		.byte	0xa
 2766 03ba 43       		.byte	0x43
 2767 03bb 6F020000 		.4byte	0x26f
 2768 03bf 00       		.byte	0
 2769 03c0 07       		.uleb128 0x7
 2770 03c1 DB0B0000 		.4byte	.LASF55
 2771 03c5 0A       		.byte	0xa
 2772 03c6 44       		.byte	0x44
 2773 03c7 6F020000 		.4byte	0x26f
 2774 03cb 04       		.byte	0x4
 2775 03cc 07       		.uleb128 0x7
 2776 03cd 1B010000 		.4byte	.LASF56
 2777 03d1 0A       		.byte	0xa
 2778 03d2 45       		.byte	0x45
 2779 03d3 D9000000 		.4byte	0xd9
 2780 03d7 08       		.byte	0x8
 2781 03d8 08       		.uleb128 0x8
 2782 03d9 6F706100 		.ascii	"opa\000"
 2783 03dd 0A       		.byte	0xa
 2784 03de 46       		.byte	0x46
 2785 03df 7B020000 		.4byte	0x27b
 2786 03e3 0A       		.byte	0xa
 2787 03e4 07       		.uleb128 0x7
 2788 03e5 4A140000 		.4byte	.LASF57
 2789 03e9 0A       		.byte	0xa
 2790 03ea 4E       		.byte	0x4e
 2791 03eb 01030000 		.4byte	0x301
 2792 03ef 0C       		.byte	0xc
 2793 03f0 07       		.uleb128 0x7
 2794 03f1 3E120000 		.4byte	.LASF58
 2795 03f5 0A       		.byte	0xa
 2796 03f6 56       		.byte	0x56
 2797 03f7 3A030000 		.4byte	0x33a
ARM GAS  C:\Users\pearlstl\AppData\Local\Temp\ccI2fBBa.s 			page 74


 2798 03fb 14       		.byte	0x14
 2799 03fc 07       		.uleb128 0x7
 2800 03fd 28130000 		.4byte	.LASF59
 2801 0401 0A       		.byte	0xa
 2802 0402 5F       		.byte	0x5f
 2803 0403 67030000 		.4byte	0x367
 2804 0407 1C       		.byte	0x1c
 2805 0408 00       		.byte	0
 2806 0409 06       		.uleb128 0x6
 2807 040a 14       		.byte	0x14
 2808 040b 0A       		.byte	0xa
 2809 040c 63       		.byte	0x63
 2810 040d 5A040000 		.4byte	0x45a
 2811 0411 07       		.uleb128 0x7
 2812 0412 A50F0000 		.4byte	.LASF46
 2813 0416 0A       		.byte	0xa
 2814 0417 65       		.byte	0x65
 2815 0418 6F020000 		.4byte	0x26f
 2816 041c 00       		.byte	0
 2817 041d 07       		.uleb128 0x7
 2818 041e 09150000 		.4byte	.LASF60
 2819 0422 0A       		.byte	0xa
 2820 0423 66       		.byte	0x66
 2821 0424 6F020000 		.4byte	0x26f
 2822 0428 04       		.byte	0x4
 2823 0429 07       		.uleb128 0x7
 2824 042a 3D100000 		.4byte	.LASF61
 2825 042e 0A       		.byte	0xa
 2826 042f 67       		.byte	0x67
 2827 0430 5A040000 		.4byte	0x45a
 2828 0434 08       		.byte	0x8
 2829 0435 07       		.uleb128 0x7
 2830 0436 42100000 		.4byte	.LASF62
 2831 043a 0A       		.byte	0xa
 2832 043b 68       		.byte	0x68
 2833 043c D9000000 		.4byte	0xd9
 2834 0440 0C       		.byte	0xc
 2835 0441 07       		.uleb128 0x7
 2836 0442 AB0F0000 		.4byte	.LASF63
 2837 0446 0A       		.byte	0xa
 2838 0447 69       		.byte	0x69
 2839 0448 D9000000 		.4byte	0xd9
 2840 044c 0E       		.byte	0xe
 2841 044d 08       		.uleb128 0x8
 2842 044e 6F706100 		.ascii	"opa\000"
 2843 0452 0A       		.byte	0xa
 2844 0453 6A       		.byte	0x6a
 2845 0454 7B020000 		.4byte	0x27b
 2846 0458 10       		.byte	0x10
 2847 0459 00       		.byte	0
 2848 045a 0D       		.uleb128 0xd
 2849 045b 04       		.byte	0x4
 2850 045c 60040000 		.4byte	0x460
 2851 0460 0E       		.uleb128 0xe
 2852 0461 02020000 		.4byte	0x202
 2853 0465 06       		.uleb128 0x6
 2854 0466 08       		.byte	0x8
ARM GAS  C:\Users\pearlstl\AppData\Local\Temp\ccI2fBBa.s 			page 75


 2855 0467 0A       		.byte	0xa
 2856 0468 6E       		.byte	0x6e
 2857 0469 92040000 		.4byte	0x492
 2858 046d 07       		.uleb128 0x7
 2859 046e A50F0000 		.4byte	.LASF46
 2860 0472 0A       		.byte	0xa
 2861 0473 70       		.byte	0x70
 2862 0474 6F020000 		.4byte	0x26f
 2863 0478 00       		.byte	0
 2864 0479 07       		.uleb128 0x7
 2865 047a AF000000 		.4byte	.LASF64
 2866 047e 0A       		.byte	0xa
 2867 047f 71       		.byte	0x71
 2868 0480 7B020000 		.4byte	0x27b
 2869 0484 04       		.byte	0x4
 2870 0485 08       		.uleb128 0x8
 2871 0486 6F706100 		.ascii	"opa\000"
 2872 048a 0A       		.byte	0xa
 2873 048b 72       		.byte	0x72
 2874 048c 7B020000 		.4byte	0x27b
 2875 0490 05       		.byte	0x5
 2876 0491 00       		.byte	0
 2877 0492 06       		.uleb128 0x6
 2878 0493 08       		.byte	0x8
 2879 0494 0A       		.byte	0xa
 2880 0495 76       		.byte	0x76
 2881 0496 CE040000 		.4byte	0x4ce
 2882 049a 07       		.uleb128 0x7
 2883 049b A50F0000 		.4byte	.LASF46
 2884 049f 0A       		.byte	0xa
 2885 04a0 78       		.byte	0x78
 2886 04a1 6F020000 		.4byte	0x26f
 2887 04a5 00       		.byte	0
 2888 04a6 07       		.uleb128 0x7
 2889 04a7 E7090000 		.4byte	.LASF47
 2890 04ab 0A       		.byte	0xa
 2891 04ac 79       		.byte	0x79
 2892 04ad D9000000 		.4byte	0xd9
 2893 04b1 04       		.byte	0x4
 2894 04b2 08       		.uleb128 0x8
 2895 04b3 6F706100 		.ascii	"opa\000"
 2896 04b7 0A       		.byte	0xa
 2897 04b8 7A       		.byte	0x7a
 2898 04b9 7B020000 		.4byte	0x27b
 2899 04bd 06       		.byte	0x6
 2900 04be 0A       		.uleb128 0xa
 2901 04bf 0C070000 		.4byte	.LASF66
 2902 04c3 0A       		.byte	0xa
 2903 04c4 7B       		.byte	0x7b
 2904 04c5 AD000000 		.4byte	0xad
 2905 04c9 01       		.byte	0x1
 2906 04ca 01       		.byte	0x1
 2907 04cb 07       		.byte	0x7
 2908 04cc 07       		.byte	0x7
 2909 04cd 00       		.byte	0
 2910 04ce 06       		.uleb128 0x6
 2911 04cf 50       		.byte	0x50
ARM GAS  C:\Users\pearlstl\AppData\Local\Temp\ccI2fBBa.s 			page 76


 2912 04d0 0A       		.byte	0xa
 2913 04d1 3C       		.byte	0x3c
 2914 04d2 16050000 		.4byte	0x516
 2915 04d6 0A       		.uleb128 0xa
 2916 04d7 AF0A0000 		.4byte	.LASF67
 2917 04db 0A       		.byte	0xa
 2918 04dc 3E       		.byte	0x3e
 2919 04dd AD000000 		.4byte	0xad
 2920 04e1 01       		.byte	0x1
 2921 04e2 01       		.byte	0x1
 2922 04e3 07       		.byte	0x7
 2923 04e4 00       		.byte	0
 2924 04e5 07       		.uleb128 0x7
 2925 04e6 AB050000 		.4byte	.LASF68
 2926 04ea 0A       		.byte	0xa
 2927 04eb 60       		.byte	0x60
 2928 04ec AC030000 		.4byte	0x3ac
 2929 04f0 04       		.byte	0x4
 2930 04f1 07       		.uleb128 0x7
 2931 04f2 DB060000 		.4byte	.LASF69
 2932 04f6 0A       		.byte	0xa
 2933 04f7 6B       		.byte	0x6b
 2934 04f8 09040000 		.4byte	0x409
 2935 04fc 2C       		.byte	0x2c
 2936 04fd 07       		.uleb128 0x7
 2937 04fe 06070000 		.4byte	.LASF70
 2938 0502 0A       		.byte	0xa
 2939 0503 73       		.byte	0x73
 2940 0504 65040000 		.4byte	0x465
 2941 0508 40       		.byte	0x40
 2942 0509 07       		.uleb128 0x7
 2943 050a C2080000 		.4byte	.LASF71
 2944 050e 0A       		.byte	0xa
 2945 050f 7C       		.byte	0x7c
 2946 0510 92040000 		.4byte	0x492
 2947 0514 48       		.byte	0x48
 2948 0515 00       		.byte	0
 2949 0516 02       		.uleb128 0x2
 2950 0517 2A080000 		.4byte	.LASF72
 2951 051b 0A       		.byte	0xa
 2952 051c 84       		.byte	0x84
 2953 051d CE040000 		.4byte	0x4ce
 2954 0521 0D       		.uleb128 0xd
 2955 0522 04       		.byte	0x4
 2956 0523 16050000 		.4byte	0x516
 2957 0527 13       		.uleb128 0x13
 2958 0528 01       		.byte	0x1
 2959 0529 42000000 		.4byte	0x42
 2960 052d 0B       		.byte	0xb
 2961 052e 27       		.byte	0x27
 2962 052f 40050000 		.4byte	0x540
 2963 0533 14       		.uleb128 0x14
 2964 0534 D2010000 		.4byte	.LASF73
 2965 0538 00       		.byte	0
 2966 0539 14       		.uleb128 0x14
 2967 053a 720E0000 		.4byte	.LASF74
 2968 053e 01       		.byte	0x1
ARM GAS  C:\Users\pearlstl\AppData\Local\Temp\ccI2fBBa.s 			page 77


 2969 053f 00       		.byte	0
 2970 0540 02       		.uleb128 0x2
 2971 0541 880C0000 		.4byte	.LASF75
 2972 0545 0B       		.byte	0xb
 2973 0546 2C       		.byte	0x2c
 2974 0547 AD000000 		.4byte	0xad
 2975 054b 02       		.uleb128 0x2
 2976 054c 14000000 		.4byte	.LASF76
 2977 0550 0C       		.byte	0xc
 2978 0551 1E       		.byte	0x1e
 2979 0552 AD000000 		.4byte	0xad
 2980 0556 06       		.uleb128 0x6
 2981 0557 0C       		.byte	0xc
 2982 0558 0C       		.byte	0xc
 2983 0559 21       		.byte	0x21
 2984 055a 83050000 		.4byte	0x583
 2985 055e 07       		.uleb128 0x7
 2986 055f 4F150000 		.4byte	.LASF77
 2987 0563 0C       		.byte	0xc
 2988 0564 23       		.byte	0x23
 2989 0565 CE000000 		.4byte	0xce
 2990 0569 00       		.byte	0
 2991 056a 07       		.uleb128 0x7
 2992 056b E9030000 		.4byte	.LASF78
 2993 056f 0C       		.byte	0xc
 2994 0570 24       		.byte	0x24
 2995 0571 83050000 		.4byte	0x583
 2996 0575 04       		.byte	0x4
 2997 0576 07       		.uleb128 0x7
 2998 0577 7E000000 		.4byte	.LASF79
 2999 057b 0C       		.byte	0xc
 3000 057c 25       		.byte	0x25
 3001 057d 83050000 		.4byte	0x583
 3002 0581 08       		.byte	0x8
 3003 0582 00       		.byte	0
 3004 0583 0D       		.uleb128 0xd
 3005 0584 04       		.byte	0x4
 3006 0585 4B050000 		.4byte	0x54b
 3007 0589 02       		.uleb128 0x2
 3008 058a E7100000 		.4byte	.LASF80
 3009 058e 0C       		.byte	0xc
 3010 058f 26       		.byte	0x26
 3011 0590 56050000 		.4byte	0x556
 3012 0594 02       		.uleb128 0x2
 3013 0595 2D070000 		.4byte	.LASF81
 3014 0599 0D       		.byte	0xd
 3015 059a 30       		.byte	0x30
 3016 059b AD000000 		.4byte	0xad
 3017 059f 0D       		.uleb128 0xd
 3018 05a0 04       		.byte	0x4
 3019 05a1 A5050000 		.4byte	0x5a5
 3020 05a5 0E       		.uleb128 0xe
 3021 05a6 D5020000 		.4byte	0x2d5
 3022 05aa 09       		.uleb128 0x9
 3023 05ab 1E100000 		.4byte	.LASF83
 3024 05af 40       		.byte	0x40
 3025 05b0 0E       		.byte	0xe
ARM GAS  C:\Users\pearlstl\AppData\Local\Temp\ccI2fBBa.s 			page 78


 3026 05b1 BB       		.byte	0xbb
 3027 05b2 EC060000 		.4byte	0x6ec
 3028 05b6 08       		.uleb128 0x8
 3029 05b7 70617200 		.ascii	"par\000"
 3030 05bb 0E       		.byte	0xe
 3031 05bc BD       		.byte	0xbd
 3032 05bd EC060000 		.4byte	0x6ec
 3033 05c1 00       		.byte	0
 3034 05c2 07       		.uleb128 0x7
 3035 05c3 1C0A0000 		.4byte	.LASF84
 3036 05c7 0E       		.byte	0xe
 3037 05c8 BE       		.byte	0xbe
 3038 05c9 89050000 		.4byte	0x589
 3039 05cd 04       		.byte	0x4
 3040 05ce 07       		.uleb128 0x7
 3041 05cf D1110000 		.4byte	.LASF85
 3042 05d3 0E       		.byte	0xe
 3043 05d4 C0       		.byte	0xc0
 3044 05d5 D5020000 		.4byte	0x2d5
 3045 05d9 10       		.byte	0x10
 3046 05da 07       		.uleb128 0x7
 3047 05db A9090000 		.4byte	.LASF86
 3048 05df 0E       		.byte	0xe
 3049 05e0 C2       		.byte	0xc2
 3050 05e1 B7070000 		.4byte	0x7b7
 3051 05e5 18       		.byte	0x18
 3052 05e6 07       		.uleb128 0x7
 3053 05e7 30130000 		.4byte	.LASF87
 3054 05eb 0E       		.byte	0xe
 3055 05ec C3       		.byte	0xc3
 3056 05ed 68080000 		.4byte	0x868
 3057 05f1 1C       		.byte	0x1c
 3058 05f2 07       		.uleb128 0x7
 3059 05f3 6F060000 		.4byte	.LASF88
 3060 05f7 0E       		.byte	0xe
 3061 05f8 C4       		.byte	0xc4
 3062 05f9 FD060000 		.4byte	0x6fd
 3063 05fd 20       		.byte	0x20
 3064 05fe 07       		.uleb128 0x7
 3065 05ff DA0C0000 		.4byte	.LASF89
 3066 0603 0E       		.byte	0xe
 3067 0604 C6       		.byte	0xc6
 3068 0605 E4000000 		.4byte	0xe4
 3069 0609 24       		.byte	0x24
 3070 060a 07       		.uleb128 0x7
 3071 060b B8090000 		.4byte	.LASF90
 3072 060f 0E       		.byte	0xe
 3073 0610 C7       		.byte	0xc7
 3074 0611 A0090000 		.4byte	0x9a0
 3075 0615 28       		.byte	0x28
 3076 0616 0A       		.uleb128 0xa
 3077 0617 3B010000 		.4byte	.LASF91
 3078 061b 0E       		.byte	0xe
 3079 061c D7       		.byte	0xd7
 3080 061d AD000000 		.4byte	0xad
 3081 0621 01       		.byte	0x1
 3082 0622 01       		.byte	0x1
ARM GAS  C:\Users\pearlstl\AppData\Local\Temp\ccI2fBBa.s 			page 79


 3083 0623 07       		.byte	0x7
 3084 0624 2C       		.byte	0x2c
 3085 0625 0A       		.uleb128 0xa
 3086 0626 F30F0000 		.4byte	.LASF92
 3087 062a 0E       		.byte	0xe
 3088 062b D8       		.byte	0xd8
 3089 062c AD000000 		.4byte	0xad
 3090 0630 01       		.byte	0x1
 3091 0631 01       		.byte	0x1
 3092 0632 06       		.byte	0x6
 3093 0633 2C       		.byte	0x2c
 3094 0634 0A       		.uleb128 0xa
 3095 0635 14070000 		.4byte	.LASF93
 3096 0639 0E       		.byte	0xe
 3097 063a D9       		.byte	0xd9
 3098 063b AD000000 		.4byte	0xad
 3099 063f 01       		.byte	0x1
 3100 0640 01       		.byte	0x1
 3101 0641 05       		.byte	0x5
 3102 0642 2C       		.byte	0x2c
 3103 0643 0A       		.uleb128 0xa
 3104 0644 A0120000 		.4byte	.LASF94
 3105 0648 0E       		.byte	0xe
 3106 0649 DA       		.byte	0xda
 3107 064a AD000000 		.4byte	0xad
 3108 064e 01       		.byte	0x1
 3109 064f 01       		.byte	0x1
 3110 0650 04       		.byte	0x4
 3111 0651 2C       		.byte	0x2c
 3112 0652 0A       		.uleb128 0xa
 3113 0653 8F030000 		.4byte	.LASF95
 3114 0657 0E       		.byte	0xe
 3115 0658 DB       		.byte	0xdb
 3116 0659 AD000000 		.4byte	0xad
 3117 065d 01       		.byte	0x1
 3118 065e 01       		.byte	0x1
 3119 065f 03       		.byte	0x3
 3120 0660 2C       		.byte	0x2c
 3121 0661 15       		.uleb128 0x15
 3122 0662 746F7000 		.ascii	"top\000"
 3123 0666 0E       		.byte	0xe
 3124 0667 DC       		.byte	0xdc
 3125 0668 AD000000 		.4byte	0xad
 3126 066c 01       		.byte	0x1
 3127 066d 01       		.byte	0x1
 3128 066e 02       		.byte	0x2
 3129 066f 2C       		.byte	0x2c
 3130 0670 0A       		.uleb128 0xa
 3131 0671 19120000 		.4byte	.LASF96
 3132 0675 0E       		.byte	0xe
 3133 0676 DD       		.byte	0xdd
 3134 0677 AD000000 		.4byte	0xad
 3135 067b 01       		.byte	0x1
 3136 067c 01       		.byte	0x1
 3137 067d 01       		.byte	0x1
 3138 067e 2C       		.byte	0x2c
 3139 067f 0A       		.uleb128 0xa
ARM GAS  C:\Users\pearlstl\AppData\Local\Temp\ccI2fBBa.s 			page 80


 3140 0680 570A0000 		.4byte	.LASF97
 3141 0684 0E       		.byte	0xe
 3142 0685 DE       		.byte	0xde
 3143 0686 AD000000 		.4byte	0xad
 3144 068a 01       		.byte	0x1
 3145 068b 01       		.byte	0x1
 3146 068c 00       		.byte	0
 3147 068d 2C       		.byte	0x2c
 3148 068e 0A       		.uleb128 0xa
 3149 068f C7040000 		.4byte	.LASF98
 3150 0693 0E       		.byte	0xe
 3151 0694 DF       		.byte	0xdf
 3152 0695 95090000 		.4byte	0x995
 3153 0699 01       		.byte	0x1
 3154 069a 02       		.byte	0x2
 3155 069b 06       		.byte	0x6
 3156 069c 2D       		.byte	0x2d
 3157 069d 0A       		.uleb128 0xa
 3158 069e 58100000 		.4byte	.LASF99
 3159 06a2 0E       		.byte	0xe
 3160 06a3 E0       		.byte	0xe0
 3161 06a4 94050000 		.4byte	0x594
 3162 06a8 01       		.byte	0x1
 3163 06a9 02       		.byte	0x2
 3164 06aa 04       		.byte	0x4
 3165 06ab 2D       		.byte	0x2d
 3166 06ac 0A       		.uleb128 0xa
 3167 06ad B4130000 		.4byte	.LASF100
 3168 06b1 0E       		.byte	0xe
 3169 06b2 E1       		.byte	0xe1
 3170 06b3 AD000000 		.4byte	0xad
 3171 06b7 01       		.byte	0x1
 3172 06b8 03       		.byte	0x3
 3173 06b9 01       		.byte	0x1
 3174 06ba 2D       		.byte	0x2d
 3175 06bb 07       		.uleb128 0x7
 3176 06bc 2B0A0000 		.4byte	.LASF101
 3177 06c0 0E       		.byte	0xe
 3178 06c1 E2       		.byte	0xe2
 3179 06c2 AD000000 		.4byte	0xad
 3180 06c6 2E       		.byte	0x2e
 3181 06c7 07       		.uleb128 0x7
 3182 06c8 A5150000 		.4byte	.LASF102
 3183 06cc 0E       		.byte	0xe
 3184 06cd E4       		.byte	0xe4
 3185 06ce 7B020000 		.4byte	0x27b
 3186 06d2 2F       		.byte	0x2f
 3187 06d3 07       		.uleb128 0x7
 3188 06d4 3B070000 		.4byte	.LASF103
 3189 06d8 0E       		.byte	0xe
 3190 06d9 E6       		.byte	0xe6
 3191 06da D9000000 		.4byte	0xd9
 3192 06de 30       		.byte	0x30
 3193 06df 07       		.uleb128 0x7
 3194 06e0 BD070000 		.4byte	.LASF104
 3195 06e4 0E       		.byte	0xe
 3196 06e5 E9       		.byte	0xe9
ARM GAS  C:\Users\pearlstl\AppData\Local\Temp\ccI2fBBa.s 			page 81


 3197 06e6 8A090000 		.4byte	0x98a
 3198 06ea 34       		.byte	0x34
 3199 06eb 00       		.byte	0
 3200 06ec 0D       		.uleb128 0xd
 3201 06ed 04       		.byte	0x4
 3202 06ee AA050000 		.4byte	0x5aa
 3203 06f2 02       		.uleb128 0x2
 3204 06f3 1D0D0000 		.4byte	.LASF105
 3205 06f7 0E       		.byte	0xe
 3206 06f8 42       		.byte	0x42
 3207 06f9 AD000000 		.4byte	0xad
 3208 06fd 02       		.uleb128 0x2
 3209 06fe 81150000 		.4byte	.LASF106
 3210 0702 0E       		.byte	0xe
 3211 0703 48       		.byte	0x48
 3212 0704 08070000 		.4byte	0x708
 3213 0708 0D       		.uleb128 0xd
 3214 0709 04       		.byte	0x4
 3215 070a 0E070000 		.4byte	0x70e
 3216 070e 0B       		.uleb128 0xb
 3217 070f BF010000 		.4byte	0x1bf
 3218 0713 27070000 		.4byte	0x727
 3219 0717 0C       		.uleb128 0xc
 3220 0718 EC060000 		.4byte	0x6ec
 3221 071c 0C       		.uleb128 0xc
 3222 071d 9F050000 		.4byte	0x59f
 3223 0721 0C       		.uleb128 0xc
 3224 0722 F2060000 		.4byte	0x6f2
 3225 0726 00       		.byte	0
 3226 0727 13       		.uleb128 0x13
 3227 0728 01       		.byte	0x1
 3228 0729 42000000 		.4byte	0x42
 3229 072d 0E       		.byte	0xe
 3230 072e 4A       		.byte	0x4a
 3231 072f AC070000 		.4byte	0x7ac
 3232 0733 14       		.uleb128 0x14
 3233 0734 760D0000 		.4byte	.LASF107
 3234 0738 00       		.byte	0
 3235 0739 14       		.uleb128 0x14
 3236 073a E60B0000 		.4byte	.LASF108
 3237 073e 01       		.byte	0x1
 3238 073f 14       		.uleb128 0x14
 3239 0740 2B140000 		.4byte	.LASF109
 3240 0744 02       		.byte	0x2
 3241 0745 14       		.uleb128 0x14
 3242 0746 460C0000 		.4byte	.LASF110
 3243 074a 03       		.byte	0x3
 3244 074b 14       		.uleb128 0x14
 3245 074c 24020000 		.4byte	.LASF111
 3246 0750 04       		.byte	0x4
 3247 0751 14       		.uleb128 0x14
 3248 0752 5D0C0000 		.4byte	.LASF112
 3249 0756 05       		.byte	0x5
 3250 0757 14       		.uleb128 0x14
 3251 0758 8D070000 		.4byte	.LASF113
 3252 075c 06       		.byte	0x6
 3253 075d 14       		.uleb128 0x14
ARM GAS  C:\Users\pearlstl\AppData\Local\Temp\ccI2fBBa.s 			page 82


 3254 075e 6F150000 		.4byte	.LASF114
 3255 0762 07       		.byte	0x7
 3256 0763 14       		.uleb128 0x14
 3257 0764 F2060000 		.4byte	.LASF115
 3258 0768 08       		.byte	0x8
 3259 0769 14       		.uleb128 0x14
 3260 076a 340D0000 		.4byte	.LASF116
 3261 076e 09       		.byte	0x9
 3262 076f 14       		.uleb128 0x14
 3263 0770 C5070000 		.4byte	.LASF117
 3264 0774 0A       		.byte	0xa
 3265 0775 14       		.uleb128 0x14
 3266 0776 13140000 		.4byte	.LASF118
 3267 077a 0B       		.byte	0xb
 3268 077b 14       		.uleb128 0x14
 3269 077c C3060000 		.4byte	.LASF119
 3270 0780 0C       		.byte	0xc
 3271 0781 14       		.uleb128 0x14
 3272 0782 45120000 		.4byte	.LASF120
 3273 0786 0D       		.byte	0xd
 3274 0787 14       		.uleb128 0x14
 3275 0788 480B0000 		.4byte	.LASF121
 3276 078c 0E       		.byte	0xe
 3277 078d 14       		.uleb128 0x14
 3278 078e D0000000 		.4byte	.LASF122
 3279 0792 0F       		.byte	0xf
 3280 0793 14       		.uleb128 0x14
 3281 0794 FA080000 		.4byte	.LASF123
 3282 0798 10       		.byte	0x10
 3283 0799 14       		.uleb128 0x14
 3284 079a AE070000 		.4byte	.LASF124
 3285 079e 11       		.byte	0x11
 3286 079f 14       		.uleb128 0x14
 3287 07a0 A10D0000 		.4byte	.LASF125
 3288 07a4 12       		.byte	0x12
 3289 07a5 14       		.uleb128 0x14
 3290 07a6 CC0A0000 		.4byte	.LASF126
 3291 07aa 13       		.byte	0x13
 3292 07ab 00       		.byte	0
 3293 07ac 02       		.uleb128 0x2
 3294 07ad 8C010000 		.4byte	.LASF127
 3295 07b1 0E       		.byte	0xe
 3296 07b2 61       		.byte	0x61
 3297 07b3 AD000000 		.4byte	0xad
 3298 07b7 02       		.uleb128 0x2
 3299 07b8 C4140000 		.4byte	.LASF128
 3300 07bc 0E       		.byte	0xe
 3301 07bd 68       		.byte	0x68
 3302 07be C2070000 		.4byte	0x7c2
 3303 07c2 0D       		.uleb128 0xd
 3304 07c3 04       		.byte	0x4
 3305 07c4 C8070000 		.4byte	0x7c8
 3306 07c8 16       		.uleb128 0x16
 3307 07c9 D8070000 		.4byte	0x7d8
 3308 07cd 0C       		.uleb128 0xc
 3309 07ce EC060000 		.4byte	0x6ec
 3310 07d2 0C       		.uleb128 0xc
ARM GAS  C:\Users\pearlstl\AppData\Local\Temp\ccI2fBBa.s 			page 83


 3311 07d3 AC070000 		.4byte	0x7ac
 3312 07d7 00       		.byte	0
 3313 07d8 13       		.uleb128 0x13
 3314 07d9 01       		.byte	0x1
 3315 07da 42000000 		.4byte	0x42
 3316 07de 0E       		.byte	0xe
 3317 07df 6D       		.byte	0x6d
 3318 07e0 5D080000 		.4byte	0x85d
 3319 07e4 14       		.uleb128 0x14
 3320 07e5 640A0000 		.4byte	.LASF129
 3321 07e9 00       		.byte	0
 3322 07ea 14       		.uleb128 0x14
 3323 07eb E90A0000 		.4byte	.LASF130
 3324 07ef 01       		.byte	0x1
 3325 07f0 14       		.uleb128 0x14
 3326 07f1 BE110000 		.4byte	.LASF131
 3327 07f5 02       		.byte	0x2
 3328 07f6 14       		.uleb128 0x14
 3329 07f7 870D0000 		.4byte	.LASF132
 3330 07fb 03       		.byte	0x3
 3331 07fc 14       		.uleb128 0x14
 3332 07fd 92000000 		.4byte	.LASF133
 3333 0801 04       		.byte	0x4
 3334 0802 14       		.uleb128 0x14
 3335 0803 AC120000 		.4byte	.LASF134
 3336 0807 05       		.byte	0x5
 3337 0808 14       		.uleb128 0x14
 3338 0809 AB040000 		.4byte	.LASF135
 3339 080d 06       		.byte	0x6
 3340 080e 14       		.uleb128 0x14
 3341 080f 12080000 		.4byte	.LASF136
 3342 0813 07       		.byte	0x7
 3343 0814 14       		.uleb128 0x14
 3344 0815 F4010000 		.4byte	.LASF137
 3345 0819 08       		.byte	0x8
 3346 081a 14       		.uleb128 0x14
 3347 081b 330C0000 		.4byte	.LASF138
 3348 081f 09       		.byte	0x9
 3349 0820 14       		.uleb128 0x14
 3350 0821 460D0000 		.4byte	.LASF139
 3351 0825 0A       		.byte	0xa
 3352 0826 14       		.uleb128 0x14
 3353 0827 B10D0000 		.4byte	.LASF140
 3354 082b 0B       		.byte	0xb
 3355 082c 14       		.uleb128 0x14
 3356 082d 06010000 		.4byte	.LASF141
 3357 0831 0C       		.byte	0xc
 3358 0832 14       		.uleb128 0x14
 3359 0833 73040000 		.4byte	.LASF142
 3360 0837 0D       		.byte	0xd
 3361 0838 14       		.uleb128 0x14
 3362 0839 4C010000 		.4byte	.LASF143
 3363 083d 0E       		.byte	0xe
 3364 083e 14       		.uleb128 0x14
 3365 083f 630D0000 		.4byte	.LASF144
 3366 0843 0F       		.byte	0xf
 3367 0844 14       		.uleb128 0x14
ARM GAS  C:\Users\pearlstl\AppData\Local\Temp\ccI2fBBa.s 			page 84


 3368 0845 D9080000 		.4byte	.LASF145
 3369 0849 10       		.byte	0x10
 3370 084a 14       		.uleb128 0x14
 3371 084b B1060000 		.4byte	.LASF146
 3372 084f 11       		.byte	0x11
 3373 0850 14       		.uleb128 0x14
 3374 0851 030A0000 		.4byte	.LASF147
 3375 0855 12       		.byte	0x12
 3376 0856 14       		.uleb128 0x14
 3377 0857 66090000 		.4byte	.LASF148
 3378 085b 13       		.byte	0x13
 3379 085c 00       		.byte	0
 3380 085d 02       		.uleb128 0x2
 3381 085e 030E0000 		.4byte	.LASF149
 3382 0862 0E       		.byte	0xe
 3383 0863 88       		.byte	0x88
 3384 0864 AD000000 		.4byte	0xad
 3385 0868 02       		.uleb128 0x2
 3386 0869 88050000 		.4byte	.LASF150
 3387 086d 0E       		.byte	0xe
 3388 086e 8A       		.byte	0x8a
 3389 086f 73080000 		.4byte	0x873
 3390 0873 0D       		.uleb128 0xd
 3391 0874 04       		.byte	0x4
 3392 0875 79080000 		.4byte	0x879
 3393 0879 0B       		.uleb128 0xb
 3394 087a 40050000 		.4byte	0x540
 3395 087e 92080000 		.4byte	0x892
 3396 0882 0C       		.uleb128 0xc
 3397 0883 EC060000 		.4byte	0x6ec
 3398 0887 0C       		.uleb128 0xc
 3399 0888 5D080000 		.4byte	0x85d
 3400 088c 0C       		.uleb128 0xc
 3401 088d E4000000 		.4byte	0xe4
 3402 0891 00       		.byte	0
 3403 0892 13       		.uleb128 0x13
 3404 0893 01       		.byte	0x1
 3405 0894 42000000 		.4byte	0x42
 3406 0898 0E       		.byte	0xe
 3407 0899 8D       		.byte	0x8d
 3408 089a 1D090000 		.4byte	0x91d
 3409 089e 14       		.uleb128 0x14
 3410 089f 380B0000 		.4byte	.LASF151
 3411 08a3 00       		.byte	0
 3412 08a4 14       		.uleb128 0x14
 3413 08a5 28100000 		.4byte	.LASF152
 3414 08a9 01       		.byte	0x1
 3415 08aa 14       		.uleb128 0x14
 3416 08ab E60D0000 		.4byte	.LASF153
 3417 08af 02       		.byte	0x2
 3418 08b0 14       		.uleb128 0x14
 3419 08b1 ED090000 		.4byte	.LASF154
 3420 08b5 03       		.byte	0x3
 3421 08b6 14       		.uleb128 0x14
 3422 08b7 860A0000 		.4byte	.LASF155
 3423 08bb 04       		.byte	0x4
 3424 08bc 14       		.uleb128 0x14
ARM GAS  C:\Users\pearlstl\AppData\Local\Temp\ccI2fBBa.s 			page 85


 3425 08bd BE030000 		.4byte	.LASF156
 3426 08c1 05       		.byte	0x5
 3427 08c2 14       		.uleb128 0x14
 3428 08c3 DF070000 		.4byte	.LASF157
 3429 08c7 06       		.byte	0x6
 3430 08c8 14       		.uleb128 0x14
 3431 08c9 8B120000 		.4byte	.LASF158
 3432 08cd 07       		.byte	0x7
 3433 08ce 14       		.uleb128 0x14
 3434 08cf 8F0F0000 		.4byte	.LASF159
 3435 08d3 08       		.byte	0x8
 3436 08d4 14       		.uleb128 0x14
 3437 08d5 F30C0000 		.4byte	.LASF160
 3438 08d9 09       		.byte	0x9
 3439 08da 14       		.uleb128 0x14
 3440 08db E0120000 		.4byte	.LASF161
 3441 08df 0A       		.byte	0xa
 3442 08e0 14       		.uleb128 0x14
 3443 08e1 0E110000 		.4byte	.LASF162
 3444 08e5 0B       		.byte	0xb
 3445 08e6 14       		.uleb128 0x14
 3446 08e7 85090000 		.4byte	.LASF163
 3447 08eb 0C       		.byte	0xc
 3448 08ec 14       		.uleb128 0x14
 3449 08ed 5A080000 		.4byte	.LASF164
 3450 08f1 0D       		.byte	0xd
 3451 08f2 14       		.uleb128 0x14
 3452 08f3 F8070000 		.4byte	.LASF165
 3453 08f7 0E       		.byte	0xe
 3454 08f8 14       		.uleb128 0x14
 3455 08f9 6B130000 		.4byte	.LASF166
 3456 08fd 0F       		.byte	0xf
 3457 08fe 14       		.uleb128 0x14
 3458 08ff 18060000 		.4byte	.LASF167
 3459 0903 10       		.byte	0x10
 3460 0904 14       		.uleb128 0x14
 3461 0905 CE090000 		.4byte	.LASF168
 3462 0909 11       		.byte	0x11
 3463 090a 14       		.uleb128 0x14
 3464 090b 520E0000 		.4byte	.LASF169
 3465 090f 12       		.byte	0x12
 3466 0910 14       		.uleb128 0x14
 3467 0911 DD010000 		.4byte	.LASF170
 3468 0915 13       		.byte	0x13
 3469 0916 14       		.uleb128 0x14
 3470 0917 910C0000 		.4byte	.LASF171
 3471 091b 14       		.byte	0x14
 3472 091c 00       		.byte	0
 3473 091d 02       		.uleb128 0x2
 3474 091e 41010000 		.4byte	.LASF172
 3475 0922 0E       		.byte	0xe
 3476 0923 A4       		.byte	0xa4
 3477 0924 AD000000 		.4byte	0xad
 3478 0928 06       		.uleb128 0x6
 3479 0929 0C       		.byte	0xc
 3480 092a 0E       		.byte	0xe
 3481 092b A7       		.byte	0xa7
ARM GAS  C:\Users\pearlstl\AppData\Local\Temp\ccI2fBBa.s 			page 86


 3482 092c 7F090000 		.4byte	0x97f
 3483 0930 07       		.uleb128 0x7
 3484 0931 B4100000 		.4byte	.LASF173
 3485 0935 0E       		.byte	0xe
 3486 0936 A9       		.byte	0xa9
 3487 0937 7F090000 		.4byte	0x97f
 3488 093b 00       		.byte	0
 3489 093c 07       		.uleb128 0x7
 3490 093d B60F0000 		.4byte	.LASF174
 3491 0941 0E       		.byte	0xe
 3492 0942 AA       		.byte	0xaa
 3493 0943 D9000000 		.4byte	0xd9
 3494 0947 04       		.byte	0x4
 3495 0948 07       		.uleb128 0x7
 3496 0949 BA050000 		.4byte	.LASF175
 3497 094d 0E       		.byte	0xe
 3498 094e AB       		.byte	0xab
 3499 094f D9000000 		.4byte	0xd9
 3500 0953 06       		.byte	0x6
 3501 0954 07       		.uleb128 0x7
 3502 0955 800A0000 		.4byte	.LASF176
 3503 0959 0E       		.byte	0xe
 3504 095a AC       		.byte	0xac
 3505 095b 1D090000 		.4byte	0x91d
 3506 095f 08       		.byte	0x8
 3507 0960 0A       		.uleb128 0xa
 3508 0961 840B0000 		.4byte	.LASF177
 3509 0965 0E       		.byte	0xe
 3510 0966 AD       		.byte	0xad
 3511 0967 AD000000 		.4byte	0xad
 3512 096b 01       		.byte	0x1
 3513 096c 01       		.byte	0x1
 3514 096d 07       		.byte	0x7
 3515 096e 09       		.byte	0x9
 3516 096f 0A       		.uleb128 0xa
 3517 0970 E3140000 		.4byte	.LASF178
 3518 0974 0E       		.byte	0xe
 3519 0975 AE       		.byte	0xae
 3520 0976 AD000000 		.4byte	0xad
 3521 097a 01       		.byte	0x1
 3522 097b 01       		.byte	0x1
 3523 097c 06       		.byte	0x6
 3524 097d 09       		.byte	0x9
 3525 097e 00       		.byte	0
 3526 097f 0D       		.uleb128 0xd
 3527 0980 04       		.byte	0x4
 3528 0981 85090000 		.4byte	0x985
 3529 0985 0E       		.uleb128 0xe
 3530 0986 AA050000 		.4byte	0x5aa
 3531 098a 02       		.uleb128 0x2
 3532 098b 22010000 		.4byte	.LASF179
 3533 098f 0E       		.byte	0xe
 3534 0990 B0       		.byte	0xb0
 3535 0991 28090000 		.4byte	0x928
 3536 0995 02       		.uleb128 0x2
 3537 0996 C60C0000 		.4byte	.LASF180
 3538 099a 0E       		.byte	0xe
ARM GAS  C:\Users\pearlstl\AppData\Local\Temp\ccI2fBBa.s 			page 87


 3539 099b B9       		.byte	0xb9
 3540 099c AD000000 		.4byte	0xad
 3541 09a0 0D       		.uleb128 0xd
 3542 09a1 04       		.byte	0x4
 3543 09a2 A6090000 		.4byte	0x9a6
 3544 09a6 0E       		.uleb128 0xe
 3545 09a7 16050000 		.4byte	0x516
 3546 09ab 02       		.uleb128 0x2
 3547 09ac D90F0000 		.4byte	.LASF181
 3548 09b0 0E       		.byte	0xe
 3549 09b1 F0       		.byte	0xf0
 3550 09b2 AA050000 		.4byte	0x5aa
 3551 09b6 13       		.uleb128 0x13
 3552 09b7 01       		.byte	0x1
 3553 09b8 42000000 		.4byte	0x42
 3554 09bc 0E       		.byte	0xe
 3555 09bd F3       		.byte	0xf3
 3556 09be ED090000 		.4byte	0x9ed
 3557 09c2 14       		.uleb128 0x14
 3558 09c3 E30C0000 		.4byte	.LASF182
 3559 09c7 00       		.byte	0
 3560 09c8 14       		.uleb128 0x14
 3561 09c9 61100000 		.4byte	.LASF183
 3562 09cd 01       		.byte	0x1
 3563 09ce 14       		.uleb128 0x14
 3564 09cf E6040000 		.4byte	.LASF184
 3565 09d3 02       		.byte	0x2
 3566 09d4 14       		.uleb128 0x14
 3567 09d5 83000000 		.4byte	.LASF185
 3568 09d9 04       		.byte	0x4
 3569 09da 14       		.uleb128 0x14
 3570 09db 52070000 		.4byte	.LASF186
 3571 09df 08       		.byte	0x8
 3572 09e0 14       		.uleb128 0x14
 3573 09e1 76100000 		.4byte	.LASF187
 3574 09e5 10       		.byte	0x10
 3575 09e6 14       		.uleb128 0x14
 3576 09e7 3B0E0000 		.4byte	.LASF188
 3577 09eb 20       		.byte	0x20
 3578 09ec 00       		.byte	0
 3579 09ed 02       		.uleb128 0x2
 3580 09ee 6D120000 		.4byte	.LASF189
 3581 09f2 0F       		.byte	0xf
 3582 09f3 30       		.byte	0x30
 3583 09f4 AD000000 		.4byte	0xad
 3584 09f8 13       		.uleb128 0x13
 3585 09f9 01       		.byte	0x1
 3586 09fa 42000000 		.4byte	0x42
 3587 09fe 10       		.byte	0x10
 3588 09ff 2A       		.byte	0x2a
 3589 0a00 290A0000 		.4byte	0xa29
 3590 0a04 14       		.uleb128 0x14
 3591 0a05 43030000 		.4byte	.LASF190
 3592 0a09 00       		.byte	0
 3593 0a0a 14       		.uleb128 0x14
 3594 0a0b 140E0000 		.4byte	.LASF191
 3595 0a0f 01       		.byte	0x1
ARM GAS  C:\Users\pearlstl\AppData\Local\Temp\ccI2fBBa.s 			page 88


 3596 0a10 14       		.uleb128 0x14
 3597 0a11 8F080000 		.4byte	.LASF192
 3598 0a15 02       		.byte	0x2
 3599 0a16 14       		.uleb128 0x14
 3600 0a17 21000000 		.4byte	.LASF193
 3601 0a1b 03       		.byte	0x3
 3602 0a1c 14       		.uleb128 0x14
 3603 0a1d 5F0B0000 		.4byte	.LASF194
 3604 0a21 04       		.byte	0x4
 3605 0a22 14       		.uleb128 0x14
 3606 0a23 56150000 		.4byte	.LASF195
 3607 0a27 05       		.byte	0x5
 3608 0a28 00       		.byte	0
 3609 0a29 13       		.uleb128 0x13
 3610 0a2a 01       		.byte	0x1
 3611 0a2b 42000000 		.4byte	0x42
 3612 0a2f 10       		.byte	0x10
 3613 0a30 5C       		.byte	0x5c
 3614 0a31 540A0000 		.4byte	0xa54
 3615 0a35 14       		.uleb128 0x14
 3616 0a36 00040000 		.4byte	.LASF196
 3617 0a3a 00       		.byte	0
 3618 0a3b 14       		.uleb128 0x14
 3619 0a3c 08060000 		.4byte	.LASF197
 3620 0a40 01       		.byte	0x1
 3621 0a41 14       		.uleb128 0x14
 3622 0a42 EF140000 		.4byte	.LASF198
 3623 0a46 02       		.byte	0x2
 3624 0a47 14       		.uleb128 0x14
 3625 0a48 CE130000 		.4byte	.LASF199
 3626 0a4c 03       		.byte	0x3
 3627 0a4d 14       		.uleb128 0x14
 3628 0a4e 9E0A0000 		.4byte	.LASF200
 3629 0a52 04       		.byte	0x4
 3630 0a53 00       		.byte	0
 3631 0a54 0D       		.uleb128 0xd
 3632 0a55 04       		.byte	0x4
 3633 0a56 5A0A0000 		.4byte	0xa5a
 3634 0a5a 17       		.uleb128 0x17
 3635 0a5b 13       		.uleb128 0x13
 3636 0a5c 01       		.byte	0x1
 3637 0a5d 42000000 		.4byte	0x42
 3638 0a61 03       		.byte	0x3
 3639 0a62 2A       		.byte	0x2a
 3640 0a63 8C0A0000 		.4byte	0xa8c
 3641 0a67 14       		.uleb128 0x14
 3642 0a68 330A0000 		.4byte	.LASF201
 3643 0a6c 00       		.byte	0
 3644 0a6d 14       		.uleb128 0x14
 3645 0a6e 7A0C0000 		.4byte	.LASF202
 3646 0a72 01       		.byte	0x1
 3647 0a73 14       		.uleb128 0x14
 3648 0a74 5B130000 		.4byte	.LASF203
 3649 0a78 02       		.byte	0x2
 3650 0a79 14       		.uleb128 0x14
 3651 0a7a 2E060000 		.4byte	.LASF204
 3652 0a7e 03       		.byte	0x3
ARM GAS  C:\Users\pearlstl\AppData\Local\Temp\ccI2fBBa.s 			page 89


 3653 0a7f 14       		.uleb128 0x14
 3654 0a80 41040000 		.4byte	.LASF205
 3655 0a84 04       		.byte	0x4
 3656 0a85 14       		.uleb128 0x14
 3657 0a86 AC010000 		.4byte	.LASF206
 3658 0a8a 05       		.byte	0x5
 3659 0a8b 00       		.byte	0
 3660 0a8c 02       		.uleb128 0x2
 3661 0a8d F5130000 		.4byte	.LASF207
 3662 0a91 03       		.byte	0x3
 3663 0a92 32       		.byte	0x32
 3664 0a93 AD000000 		.4byte	0xad
 3665 0a97 0D       		.uleb128 0xd
 3666 0a98 04       		.byte	0x4
 3667 0a99 AB090000 		.4byte	0x9ab
 3668 0a9d 13       		.uleb128 0x13
 3669 0a9e 01       		.byte	0x1
 3670 0a9f 42000000 		.4byte	0x42
 3671 0aa3 03       		.byte	0x3
 3672 0aa4 5E       		.byte	0x5e
 3673 0aa5 C20A0000 		.4byte	0xac2
 3674 0aa9 14       		.uleb128 0x14
 3675 0aaa A3100000 		.4byte	.LASF208
 3676 0aae 00       		.byte	0
 3677 0aaf 14       		.uleb128 0x14
 3678 0ab0 C70E0000 		.4byte	.LASF209
 3679 0ab4 01       		.byte	0x1
 3680 0ab5 14       		.uleb128 0x14
 3681 0ab6 7C070000 		.4byte	.LASF210
 3682 0aba 02       		.byte	0x2
 3683 0abb 14       		.uleb128 0x14
 3684 0abc B7000000 		.4byte	.LASF211
 3685 0ac0 03       		.byte	0x3
 3686 0ac1 00       		.byte	0
 3687 0ac2 06       		.uleb128 0x6
 3688 0ac3 18       		.byte	0x18
 3689 0ac4 11       		.byte	0x11
 3690 0ac5 39       		.byte	0x39
 3691 0ac6 130B0000 		.4byte	0xb13
 3692 0aca 07       		.uleb128 0x7
 3693 0acb F80B0000 		.4byte	.LASF212
 3694 0acf 11       		.byte	0x11
 3695 0ad0 3D       		.byte	0x3d
 3696 0ad1 970A0000 		.4byte	0xa97
 3697 0ad5 00       		.byte	0
 3698 0ad6 07       		.uleb128 0x7
 3699 0ad7 1F050000 		.4byte	.LASF213
 3700 0adb 11       		.byte	0x11
 3701 0adc 3E       		.byte	0x3e
 3702 0add 970A0000 		.4byte	0xa97
 3703 0ae1 04       		.byte	0x4
 3704 0ae2 07       		.uleb128 0x7
 3705 0ae3 BD130000 		.4byte	.LASF214
 3706 0ae7 11       		.byte	0x11
 3707 0ae8 3F       		.byte	0x3f
 3708 0ae9 970A0000 		.4byte	0xa97
 3709 0aed 08       		.byte	0x8
ARM GAS  C:\Users\pearlstl\AppData\Local\Temp\ccI2fBBa.s 			page 90


 3710 0aee 07       		.uleb128 0x7
 3711 0aef E0000000 		.4byte	.LASF215
 3712 0af3 11       		.byte	0x11
 3713 0af4 40       		.byte	0x40
 3714 0af5 A0090000 		.4byte	0x9a0
 3715 0af9 0C       		.byte	0xc
 3716 0afa 07       		.uleb128 0x7
 3717 0afb 7B050000 		.4byte	.LASF216
 3718 0aff 11       		.byte	0x11
 3719 0b00 41       		.byte	0x41
 3720 0b01 A0090000 		.4byte	0x9a0
 3721 0b05 10       		.byte	0x10
 3722 0b06 07       		.uleb128 0x7
 3723 0b07 9D050000 		.4byte	.LASF217
 3724 0b0b 11       		.byte	0x11
 3725 0b0c 42       		.byte	0x42
 3726 0b0d D9000000 		.4byte	0xd9
 3727 0b11 14       		.byte	0x14
 3728 0b12 00       		.byte	0
 3729 0b13 02       		.uleb128 0x2
 3730 0b14 B5080000 		.4byte	.LASF218
 3731 0b18 11       		.byte	0x11
 3732 0b19 43       		.byte	0x43
 3733 0b1a C20A0000 		.4byte	0xac2
 3734 0b1e 13       		.uleb128 0x13
 3735 0b1f 01       		.byte	0x1
 3736 0b20 42000000 		.4byte	0x42
 3737 0b24 11       		.byte	0x11
 3738 0b25 46       		.byte	0x46
 3739 0b26 4F0B0000 		.4byte	0xb4f
 3740 0b2a 14       		.uleb128 0x14
 3741 0b2b 530F0000 		.4byte	.LASF219
 3742 0b2f 00       		.byte	0
 3743 0b30 14       		.uleb128 0x14
 3744 0b31 1E0C0000 		.4byte	.LASF220
 3745 0b35 01       		.byte	0x1
 3746 0b36 14       		.uleb128 0x14
 3747 0b37 3A020000 		.4byte	.LASF221
 3748 0b3b 02       		.byte	0x2
 3749 0b3c 14       		.uleb128 0x14
 3750 0b3d 700B0000 		.4byte	.LASF222
 3751 0b41 03       		.byte	0x3
 3752 0b42 14       		.uleb128 0x14
 3753 0b43 F4110000 		.4byte	.LASF223
 3754 0b47 04       		.byte	0x4
 3755 0b48 14       		.uleb128 0x14
 3756 0b49 F4050000 		.4byte	.LASF224
 3757 0b4d 05       		.byte	0x5
 3758 0b4e 00       		.byte	0
 3759 0b4f 02       		.uleb128 0x2
 3760 0b50 4A020000 		.4byte	.LASF225
 3761 0b54 11       		.byte	0x11
 3762 0b55 4E       		.byte	0x4e
 3763 0b56 AD000000 		.4byte	0xad
 3764 0b5a 06       		.uleb128 0x6
 3765 0b5b 14       		.byte	0x14
 3766 0b5c 12       		.byte	0x12
ARM GAS  C:\Users\pearlstl\AppData\Local\Temp\ccI2fBBa.s 			page 91


 3767 0b5d 34       		.byte	0x34
 3768 0b5e 9E0B0000 		.4byte	0xb9e
 3769 0b62 08       		.uleb128 0x8
 3770 0b63 72656C00 		.ascii	"rel\000"
 3771 0b67 12       		.byte	0x12
 3772 0b68 36       		.byte	0x36
 3773 0b69 21050000 		.4byte	0x521
 3774 0b6d 00       		.byte	0
 3775 0b6e 08       		.uleb128 0x8
 3776 0b6f 707200   		.ascii	"pr\000"
 3777 0b72 12       		.byte	0x12
 3778 0b73 37       		.byte	0x37
 3779 0b74 21050000 		.4byte	0x521
 3780 0b78 04       		.byte	0x4
 3781 0b79 07       		.uleb128 0x7
 3782 0b7a 300B0000 		.4byte	.LASF226
 3783 0b7e 12       		.byte	0x12
 3784 0b7f 38       		.byte	0x38
 3785 0b80 21050000 		.4byte	0x521
 3786 0b84 08       		.byte	0x8
 3787 0b85 07       		.uleb128 0x7
 3788 0b86 51040000 		.4byte	.LASF227
 3789 0b8a 12       		.byte	0x12
 3790 0b8b 39       		.byte	0x39
 3791 0b8c 21050000 		.4byte	0x521
 3792 0b90 0C       		.byte	0xc
 3793 0b91 08       		.uleb128 0x8
 3794 0b92 696E6100 		.ascii	"ina\000"
 3795 0b96 12       		.byte	0x12
 3796 0b97 3A       		.byte	0x3a
 3797 0b98 21050000 		.4byte	0x521
 3798 0b9c 10       		.byte	0x10
 3799 0b9d 00       		.byte	0
 3800 0b9e 06       		.uleb128 0x6
 3801 0b9f 14       		.byte	0x14
 3802 0ba0 12       		.byte	0x12
 3803 0ba1 3F       		.byte	0x3f
 3804 0ba2 E20B0000 		.4byte	0xbe2
 3805 0ba6 08       		.uleb128 0x8
 3806 0ba7 72656C00 		.ascii	"rel\000"
 3807 0bab 12       		.byte	0x12
 3808 0bac 41       		.byte	0x41
 3809 0bad 21050000 		.4byte	0x521
 3810 0bb1 00       		.byte	0
 3811 0bb2 08       		.uleb128 0x8
 3812 0bb3 707200   		.ascii	"pr\000"
 3813 0bb6 12       		.byte	0x12
 3814 0bb7 42       		.byte	0x42
 3815 0bb8 21050000 		.4byte	0x521
 3816 0bbc 04       		.byte	0x4
 3817 0bbd 07       		.uleb128 0x7
 3818 0bbe 300B0000 		.4byte	.LASF226
 3819 0bc2 12       		.byte	0x12
 3820 0bc3 43       		.byte	0x43
 3821 0bc4 21050000 		.4byte	0x521
 3822 0bc8 08       		.byte	0x8
 3823 0bc9 07       		.uleb128 0x7
ARM GAS  C:\Users\pearlstl\AppData\Local\Temp\ccI2fBBa.s 			page 92


 3824 0bca 51040000 		.4byte	.LASF227
 3825 0bce 12       		.byte	0x12
 3826 0bcf 44       		.byte	0x44
 3827 0bd0 21050000 		.4byte	0x521
 3828 0bd4 0C       		.byte	0xc
 3829 0bd5 08       		.uleb128 0x8
 3830 0bd6 696E6100 		.ascii	"ina\000"
 3831 0bda 12       		.byte	0x12
 3832 0bdb 45       		.byte	0x45
 3833 0bdc 21050000 		.4byte	0x521
 3834 0be0 10       		.byte	0x10
 3835 0be1 00       		.byte	0
 3836 0be2 06       		.uleb128 0x6
 3837 0be3 0C       		.byte	0xc
 3838 0be4 12       		.byte	0x12
 3839 0be5 4A       		.byte	0x4a
 3840 0be6 0F0C0000 		.4byte	0xc0f
 3841 0bea 07       		.uleb128 0x7
 3842 0beb 3E030000 		.4byte	.LASF228
 3843 0bef 12       		.byte	0x12
 3844 0bf0 4C       		.byte	0x4c
 3845 0bf1 21050000 		.4byte	0x521
 3846 0bf5 00       		.byte	0
 3847 0bf6 08       		.uleb128 0x8
 3848 0bf7 73656300 		.ascii	"sec\000"
 3849 0bfb 12       		.byte	0x12
 3850 0bfc 4D       		.byte	0x4d
 3851 0bfd 21050000 		.4byte	0x521
 3852 0c01 04       		.byte	0x4
 3853 0c02 07       		.uleb128 0x7
 3854 0c03 84080000 		.4byte	.LASF229
 3855 0c07 12       		.byte	0x12
 3856 0c08 4E       		.byte	0x4e
 3857 0c09 21050000 		.4byte	0x521
 3858 0c0d 08       		.byte	0x8
 3859 0c0e 00       		.byte	0
 3860 0c0f 06       		.uleb128 0x6
 3861 0c10 08       		.byte	0x8
 3862 0c11 12       		.byte	0x12
 3863 0c12 53       		.byte	0x53
 3864 0c13 300C0000 		.4byte	0xc30
 3865 0c17 07       		.uleb128 0x7
 3866 0c18 6F020000 		.4byte	.LASF230
 3867 0c1c 12       		.byte	0x12
 3868 0c1d 55       		.byte	0x55
 3869 0c1e 21050000 		.4byte	0x521
 3870 0c22 00       		.byte	0
 3871 0c23 07       		.uleb128 0x7
 3872 0c24 9F130000 		.4byte	.LASF231
 3873 0c28 12       		.byte	0x12
 3874 0c29 56       		.byte	0x56
 3875 0c2a 21050000 		.4byte	0x521
 3876 0c2e 04       		.byte	0x4
 3877 0c2f 00       		.byte	0
 3878 0c30 06       		.uleb128 0x6
 3879 0c31 04       		.byte	0x4
 3880 0c32 12       		.byte	0x12
ARM GAS  C:\Users\pearlstl\AppData\Local\Temp\ccI2fBBa.s 			page 93


 3881 0c33 5B       		.byte	0x5b
 3882 0c34 450C0000 		.4byte	0xc45
 3883 0c38 07       		.uleb128 0x7
 3884 0c39 DA0E0000 		.4byte	.LASF232
 3885 0c3d 12       		.byte	0x12
 3886 0c3e 5D       		.byte	0x5d
 3887 0c3f 21050000 		.4byte	0x521
 3888 0c43 00       		.byte	0
 3889 0c44 00       		.byte	0
 3890 0c45 06       		.uleb128 0x6
 3891 0c46 08       		.byte	0x8
 3892 0c47 12       		.byte	0x12
 3893 0c48 66       		.byte	0x66
 3894 0c49 650C0000 		.4byte	0xc65
 3895 0c4d 08       		.uleb128 0x8
 3896 0c4e 626700   		.ascii	"bg\000"
 3897 0c51 12       		.byte	0x12
 3898 0c52 68       		.byte	0x68
 3899 0c53 21050000 		.4byte	0x521
 3900 0c57 00       		.byte	0
 3901 0c58 07       		.uleb128 0x7
 3902 0c59 250A0000 		.4byte	.LASF233
 3903 0c5d 12       		.byte	0x12
 3904 0c5e 69       		.byte	0x69
 3905 0c5f 21050000 		.4byte	0x521
 3906 0c63 04       		.byte	0x4
 3907 0c64 00       		.byte	0
 3908 0c65 06       		.uleb128 0x6
 3909 0c66 0C       		.byte	0xc
 3910 0c67 12       		.byte	0x12
 3911 0c68 6E       		.byte	0x6e
 3912 0c69 910C0000 		.4byte	0xc91
 3913 0c6d 08       		.uleb128 0x8
 3914 0c6e 626700   		.ascii	"bg\000"
 3915 0c71 12       		.byte	0x12
 3916 0c72 70       		.byte	0x70
 3917 0c73 21050000 		.4byte	0x521
 3918 0c77 00       		.byte	0
 3919 0c78 07       		.uleb128 0x7
 3920 0c79 250A0000 		.4byte	.LASF233
 3921 0c7d 12       		.byte	0x12
 3922 0c7e 71       		.byte	0x71
 3923 0c7f 21050000 		.4byte	0x521
 3924 0c83 04       		.byte	0x4
 3925 0c84 07       		.uleb128 0x7
 3926 0c85 04150000 		.4byte	.LASF234
 3927 0c89 12       		.byte	0x12
 3928 0c8a 72       		.byte	0x72
 3929 0c8b 21050000 		.4byte	0x521
 3930 0c8f 08       		.byte	0x8
 3931 0c90 00       		.byte	0
 3932 0c91 06       		.uleb128 0x6
 3933 0c92 10       		.byte	0x10
 3934 0c93 12       		.byte	0x12
 3935 0c94 87       		.byte	0x87
 3936 0c95 C90C0000 		.4byte	0xcc9
 3937 0c99 08       		.uleb128 0x8
ARM GAS  C:\Users\pearlstl\AppData\Local\Temp\ccI2fBBa.s 			page 94


 3938 0c9a 626700   		.ascii	"bg\000"
 3939 0c9d 12       		.byte	0x12
 3940 0c9e 89       		.byte	0x89
 3941 0c9f 21050000 		.4byte	0x521
 3942 0ca3 00       		.byte	0
 3943 0ca4 07       		.uleb128 0x7
 3944 0ca5 250A0000 		.4byte	.LASF233
 3945 0ca9 12       		.byte	0x12
 3946 0caa 8A       		.byte	0x8a
 3947 0cab 21050000 		.4byte	0x521
 3948 0caf 04       		.byte	0x4
 3949 0cb0 07       		.uleb128 0x7
 3950 0cb1 0F0C0000 		.4byte	.LASF235
 3951 0cb5 12       		.byte	0x12
 3952 0cb6 8B       		.byte	0x8b
 3953 0cb7 21050000 		.4byte	0x521
 3954 0cbb 08       		.byte	0x8
 3955 0cbc 07       		.uleb128 0x7
 3956 0cbd F8040000 		.4byte	.LASF236
 3957 0cc1 12       		.byte	0x12
 3958 0cc2 8C       		.byte	0x8c
 3959 0cc3 21050000 		.4byte	0x521
 3960 0cc7 0C       		.byte	0xc
 3961 0cc8 00       		.byte	0
 3962 0cc9 06       		.uleb128 0x6
 3963 0cca 20       		.byte	0x20
 3964 0ccb 12       		.byte	0x12
 3965 0ccc 95       		.byte	0x95
 3966 0ccd 310D0000 		.4byte	0xd31
 3967 0cd1 08       		.uleb128 0x8
 3968 0cd2 626700   		.ascii	"bg\000"
 3969 0cd5 12       		.byte	0x12
 3970 0cd6 97       		.byte	0x97
 3971 0cd7 21050000 		.4byte	0x521
 3972 0cdb 00       		.byte	0
 3973 0cdc 07       		.uleb128 0x7
 3974 0cdd 1F050000 		.4byte	.LASF213
 3975 0ce1 12       		.byte	0x12
 3976 0ce2 98       		.byte	0x98
 3977 0ce3 21050000 		.4byte	0x521
 3978 0ce7 04       		.byte	0x4
 3979 0ce8 07       		.uleb128 0x7
 3980 0ce9 3B000000 		.4byte	.LASF237
 3981 0ced 12       		.byte	0x12
 3982 0cee 99       		.byte	0x99
 3983 0cef 21050000 		.4byte	0x521
 3984 0cf3 08       		.byte	0x8
 3985 0cf4 07       		.uleb128 0x7
 3986 0cf5 26120000 		.4byte	.LASF238
 3987 0cf9 12       		.byte	0x12
 3988 0cfa 9A       		.byte	0x9a
 3989 0cfb 21050000 		.4byte	0x521
 3990 0cff 0C       		.byte	0xc
 3991 0d00 07       		.uleb128 0x7
 3992 0d01 61010000 		.4byte	.LASF239
 3993 0d05 12       		.byte	0x12
 3994 0d06 9B       		.byte	0x9b
ARM GAS  C:\Users\pearlstl\AppData\Local\Temp\ccI2fBBa.s 			page 95


 3995 0d07 21050000 		.4byte	0x521
 3996 0d0b 10       		.byte	0x10
 3997 0d0c 07       		.uleb128 0x7
 3998 0d0d 1F070000 		.4byte	.LASF240
 3999 0d11 12       		.byte	0x12
 4000 0d12 9C       		.byte	0x9c
 4001 0d13 21050000 		.4byte	0x521
 4002 0d17 14       		.byte	0x14
 4003 0d18 07       		.uleb128 0x7
 4004 0d19 D7050000 		.4byte	.LASF241
 4005 0d1d 12       		.byte	0x12
 4006 0d1e 9D       		.byte	0x9d
 4007 0d1f 21050000 		.4byte	0x521
 4008 0d23 18       		.byte	0x18
 4009 0d24 07       		.uleb128 0x7
 4010 0d25 37040000 		.4byte	.LASF242
 4011 0d29 12       		.byte	0x12
 4012 0d2a 9E       		.byte	0x9e
 4013 0d2b 21050000 		.4byte	0x521
 4014 0d2f 1C       		.byte	0x1c
 4015 0d30 00       		.byte	0
 4016 0d31 06       		.uleb128 0x6
 4017 0d32 14       		.byte	0x14
 4018 0d33 12       		.byte	0x12
 4019 0d34 A6       		.byte	0xa6
 4020 0d35 750D0000 		.4byte	0xd75
 4021 0d39 08       		.uleb128 0x8
 4022 0d3a 72656C00 		.ascii	"rel\000"
 4023 0d3e 12       		.byte	0x12
 4024 0d3f A8       		.byte	0xa8
 4025 0d40 21050000 		.4byte	0x521
 4026 0d44 00       		.byte	0
 4027 0d45 08       		.uleb128 0x8
 4028 0d46 707200   		.ascii	"pr\000"
 4029 0d49 12       		.byte	0x12
 4030 0d4a A9       		.byte	0xa9
 4031 0d4b 21050000 		.4byte	0x521
 4032 0d4f 04       		.byte	0x4
 4033 0d50 07       		.uleb128 0x7
 4034 0d51 300B0000 		.4byte	.LASF226
 4035 0d55 12       		.byte	0x12
 4036 0d56 AA       		.byte	0xaa
 4037 0d57 21050000 		.4byte	0x521
 4038 0d5b 08       		.byte	0x8
 4039 0d5c 07       		.uleb128 0x7
 4040 0d5d 51040000 		.4byte	.LASF227
 4041 0d61 12       		.byte	0x12
 4042 0d62 AB       		.byte	0xab
 4043 0d63 21050000 		.4byte	0x521
 4044 0d67 0C       		.byte	0xc
 4045 0d68 08       		.uleb128 0x8
 4046 0d69 696E6100 		.ascii	"ina\000"
 4047 0d6d 12       		.byte	0x12
 4048 0d6e AC       		.byte	0xac
 4049 0d6f 21050000 		.4byte	0x521
 4050 0d73 10       		.byte	0x10
 4051 0d74 00       		.byte	0
ARM GAS  C:\Users\pearlstl\AppData\Local\Temp\ccI2fBBa.s 			page 96


 4052 0d75 06       		.uleb128 0x6
 4053 0d76 18       		.byte	0x18
 4054 0d77 12       		.byte	0x12
 4055 0d78 A3       		.byte	0xa3
 4056 0d79 950D0000 		.4byte	0xd95
 4057 0d7d 08       		.uleb128 0x8
 4058 0d7e 626700   		.ascii	"bg\000"
 4059 0d81 12       		.byte	0x12
 4060 0d82 A5       		.byte	0xa5
 4061 0d83 21050000 		.4byte	0x521
 4062 0d87 00       		.byte	0
 4063 0d88 08       		.uleb128 0x8
 4064 0d89 626F7800 		.ascii	"box\000"
 4065 0d8d 12       		.byte	0x12
 4066 0d8e AD       		.byte	0xad
 4067 0d8f 310D0000 		.4byte	0xd31
 4068 0d93 04       		.byte	0x4
 4069 0d94 00       		.byte	0
 4070 0d95 06       		.uleb128 0x6
 4071 0d96 14       		.byte	0x14
 4072 0d97 12       		.byte	0x12
 4073 0d98 B5       		.byte	0xb5
 4074 0d99 D90D0000 		.4byte	0xdd9
 4075 0d9d 08       		.uleb128 0x8
 4076 0d9e 72656C00 		.ascii	"rel\000"
 4077 0da2 12       		.byte	0x12
 4078 0da3 B7       		.byte	0xb7
 4079 0da4 21050000 		.4byte	0x521
 4080 0da8 00       		.byte	0
 4081 0da9 08       		.uleb128 0x8
 4082 0daa 707200   		.ascii	"pr\000"
 4083 0dad 12       		.byte	0x12
 4084 0dae B8       		.byte	0xb8
 4085 0daf 21050000 		.4byte	0x521
 4086 0db3 04       		.byte	0x4
 4087 0db4 07       		.uleb128 0x7
 4088 0db5 300B0000 		.4byte	.LASF226
 4089 0db9 12       		.byte	0x12
 4090 0dba B9       		.byte	0xb9
 4091 0dbb 21050000 		.4byte	0x521
 4092 0dbf 08       		.byte	0x8
 4093 0dc0 07       		.uleb128 0x7
 4094 0dc1 51040000 		.4byte	.LASF227
 4095 0dc5 12       		.byte	0x12
 4096 0dc6 BA       		.byte	0xba
 4097 0dc7 21050000 		.4byte	0x521
 4098 0dcb 0C       		.byte	0xc
 4099 0dcc 08       		.uleb128 0x8
 4100 0dcd 696E6100 		.ascii	"ina\000"
 4101 0dd1 12       		.byte	0x12
 4102 0dd2 BB       		.byte	0xbb
 4103 0dd3 21050000 		.4byte	0x521
 4104 0dd7 10       		.byte	0x10
 4105 0dd8 00       		.byte	0
 4106 0dd9 06       		.uleb128 0x6
 4107 0dda 18       		.byte	0x18
 4108 0ddb 12       		.byte	0x12
ARM GAS  C:\Users\pearlstl\AppData\Local\Temp\ccI2fBBa.s 			page 97


 4109 0ddc B2       		.byte	0xb2
 4110 0ddd F90D0000 		.4byte	0xdf9
 4111 0de1 08       		.uleb128 0x8
 4112 0de2 626700   		.ascii	"bg\000"
 4113 0de5 12       		.byte	0x12
 4114 0de6 B4       		.byte	0xb4
 4115 0de7 21050000 		.4byte	0x521
 4116 0deb 00       		.byte	0
 4117 0dec 08       		.uleb128 0x8
 4118 0ded 62746E00 		.ascii	"btn\000"
 4119 0df1 12       		.byte	0x12
 4120 0df2 BC       		.byte	0xbc
 4121 0df3 950D0000 		.4byte	0xd95
 4122 0df7 04       		.byte	0x4
 4123 0df8 00       		.byte	0
 4124 0df9 06       		.uleb128 0x6
 4125 0dfa 14       		.byte	0x14
 4126 0dfb 12       		.byte	0x12
 4127 0dfc C4       		.byte	0xc4
 4128 0dfd 3D0E0000 		.4byte	0xe3d
 4129 0e01 08       		.uleb128 0x8
 4130 0e02 72656C00 		.ascii	"rel\000"
 4131 0e06 12       		.byte	0x12
 4132 0e07 C6       		.byte	0xc6
 4133 0e08 21050000 		.4byte	0x521
 4134 0e0c 00       		.byte	0
 4135 0e0d 08       		.uleb128 0x8
 4136 0e0e 707200   		.ascii	"pr\000"
 4137 0e11 12       		.byte	0x12
 4138 0e12 C7       		.byte	0xc7
 4139 0e13 21050000 		.4byte	0x521
 4140 0e17 04       		.byte	0x4
 4141 0e18 07       		.uleb128 0x7
 4142 0e19 300B0000 		.4byte	.LASF226
 4143 0e1d 12       		.byte	0x12
 4144 0e1e C8       		.byte	0xc8
 4145 0e1f 21050000 		.4byte	0x521
 4146 0e23 08       		.byte	0x8
 4147 0e24 07       		.uleb128 0x7
 4148 0e25 51040000 		.4byte	.LASF227
 4149 0e29 12       		.byte	0x12
 4150 0e2a C9       		.byte	0xc9
 4151 0e2b 21050000 		.4byte	0x521
 4152 0e2f 0C       		.byte	0xc
 4153 0e30 08       		.uleb128 0x8
 4154 0e31 696E6100 		.ascii	"ina\000"
 4155 0e35 12       		.byte	0x12
 4156 0e36 CA       		.byte	0xca
 4157 0e37 21050000 		.4byte	0x521
 4158 0e3b 10       		.byte	0x10
 4159 0e3c 00       		.byte	0
 4160 0e3d 06       		.uleb128 0x6
 4161 0e3e 18       		.byte	0x18
 4162 0e3f 12       		.byte	0x12
 4163 0e40 C1       		.byte	0xc1
 4164 0e41 5D0E0000 		.4byte	0xe5d
 4165 0e45 08       		.uleb128 0x8
ARM GAS  C:\Users\pearlstl\AppData\Local\Temp\ccI2fBBa.s 			page 98


 4166 0e46 626700   		.ascii	"bg\000"
 4167 0e49 12       		.byte	0x12
 4168 0e4a C3       		.byte	0xc3
 4169 0e4b 21050000 		.4byte	0x521
 4170 0e4f 00       		.byte	0
 4171 0e50 08       		.uleb128 0x8
 4172 0e51 62746E00 		.ascii	"btn\000"
 4173 0e55 12       		.byte	0x12
 4174 0e56 CB       		.byte	0xcb
 4175 0e57 F90D0000 		.4byte	0xdf9
 4176 0e5b 04       		.byte	0x4
 4177 0e5c 00       		.byte	0
 4178 0e5d 06       		.uleb128 0x6
 4179 0e5e 0C       		.byte	0xc
 4180 0e5f 12       		.byte	0x12
 4181 0e60 D3       		.byte	0xd3
 4182 0e61 880E0000 		.4byte	0xe88
 4183 0e65 08       		.uleb128 0x8
 4184 0e66 626700   		.ascii	"bg\000"
 4185 0e69 12       		.byte	0x12
 4186 0e6a D5       		.byte	0xd5
 4187 0e6b 21050000 		.4byte	0x521
 4188 0e6f 00       		.byte	0
 4189 0e70 08       		.uleb128 0x8
 4190 0e71 72656C00 		.ascii	"rel\000"
 4191 0e75 12       		.byte	0x12
 4192 0e76 D6       		.byte	0xd6
 4193 0e77 21050000 		.4byte	0x521
 4194 0e7b 04       		.byte	0x4
 4195 0e7c 08       		.uleb128 0x8
 4196 0e7d 707200   		.ascii	"pr\000"
 4197 0e80 12       		.byte	0x12
 4198 0e81 D7       		.byte	0xd7
 4199 0e82 21050000 		.4byte	0x521
 4200 0e86 08       		.byte	0x8
 4201 0e87 00       		.byte	0
 4202 0e88 06       		.uleb128 0x6
 4203 0e89 10       		.byte	0x10
 4204 0e8a 12       		.byte	0x12
 4205 0e8b D0       		.byte	0xd0
 4206 0e8c A80E0000 		.4byte	0xea8
 4207 0e90 08       		.uleb128 0x8
 4208 0e91 626700   		.ascii	"bg\000"
 4209 0e94 12       		.byte	0x12
 4210 0e95 D2       		.byte	0xd2
 4211 0e96 21050000 		.4byte	0x521
 4212 0e9a 00       		.byte	0
 4213 0e9b 08       		.uleb128 0x8
 4214 0e9c 62746E00 		.ascii	"btn\000"
 4215 0ea0 12       		.byte	0x12
 4216 0ea1 D8       		.byte	0xd8
 4217 0ea2 5D0E0000 		.4byte	0xe5d
 4218 0ea6 04       		.byte	0x4
 4219 0ea7 00       		.byte	0
 4220 0ea8 06       		.uleb128 0x6
 4221 0ea9 0C       		.byte	0xc
 4222 0eaa 12       		.byte	0x12
ARM GAS  C:\Users\pearlstl\AppData\Local\Temp\ccI2fBBa.s 			page 99


 4223 0eab DD       		.byte	0xdd
 4224 0eac D30E0000 		.4byte	0xed3
 4225 0eb0 08       		.uleb128 0x8
 4226 0eb1 626700   		.ascii	"bg\000"
 4227 0eb4 12       		.byte	0x12
 4228 0eb5 DF       		.byte	0xdf
 4229 0eb6 21050000 		.4byte	0x521
 4230 0eba 00       		.byte	0
 4231 0ebb 07       		.uleb128 0x7
 4232 0ebc 69040000 		.4byte	.LASF243
 4233 0ec0 12       		.byte	0x12
 4234 0ec1 E0       		.byte	0xe0
 4235 0ec2 21050000 		.4byte	0x521
 4236 0ec6 04       		.byte	0x4
 4237 0ec7 08       		.uleb128 0x8
 4238 0ec8 736200   		.ascii	"sb\000"
 4239 0ecb 12       		.byte	0x12
 4240 0ecc E1       		.byte	0xe1
 4241 0ecd 21050000 		.4byte	0x521
 4242 0ed1 08       		.byte	0x8
 4243 0ed2 00       		.byte	0
 4244 0ed3 06       		.uleb128 0x6
 4245 0ed4 10       		.byte	0x10
 4246 0ed5 12       		.byte	0x12
 4247 0ed6 E6       		.byte	0xe6
 4248 0ed7 0B0F0000 		.4byte	0xf0b
 4249 0edb 07       		.uleb128 0x7
 4250 0edc 25080000 		.4byte	.LASF244
 4251 0ee0 12       		.byte	0x12
 4252 0ee1 E8       		.byte	0xe8
 4253 0ee2 21050000 		.4byte	0x521
 4254 0ee6 00       		.byte	0
 4255 0ee7 07       		.uleb128 0x7
 4256 0ee8 7D090000 		.4byte	.LASF245
 4257 0eec 12       		.byte	0x12
 4258 0eed E9       		.byte	0xe9
 4259 0eee 21050000 		.4byte	0x521
 4260 0ef2 04       		.byte	0x4
 4261 0ef3 07       		.uleb128 0x7
 4262 0ef4 68150000 		.4byte	.LASF246
 4263 0ef8 12       		.byte	0x12
 4264 0ef9 EA       		.byte	0xea
 4265 0efa 21050000 		.4byte	0x521
 4266 0efe 08       		.byte	0x8
 4267 0eff 08       		.uleb128 0x8
 4268 0f00 736200   		.ascii	"sb\000"
 4269 0f03 12       		.byte	0x12
 4270 0f04 EB       		.byte	0xeb
 4271 0f05 21050000 		.4byte	0x521
 4272 0f09 0C       		.byte	0xc
 4273 0f0a 00       		.byte	0
 4274 0f0b 06       		.uleb128 0x6
 4275 0f0c 0C       		.byte	0xc
 4276 0f0d 12       		.byte	0x12
 4277 0f0e F0       		.byte	0xf0
 4278 0f0f 360F0000 		.4byte	0xf36
 4279 0f13 08       		.uleb128 0x8
ARM GAS  C:\Users\pearlstl\AppData\Local\Temp\ccI2fBBa.s 			page 100


 4280 0f14 626700   		.ascii	"bg\000"
 4281 0f17 12       		.byte	0x12
 4282 0f18 F2       		.byte	0xf2
 4283 0f19 21050000 		.4byte	0x521
 4284 0f1d 00       		.byte	0
 4285 0f1e 07       		.uleb128 0x7
 4286 0f1f 68150000 		.4byte	.LASF246
 4287 0f23 12       		.byte	0x12
 4288 0f24 F3       		.byte	0xf3
 4289 0f25 21050000 		.4byte	0x521
 4290 0f29 04       		.byte	0x4
 4291 0f2a 08       		.uleb128 0x8
 4292 0f2b 736200   		.ascii	"sb\000"
 4293 0f2e 12       		.byte	0x12
 4294 0f2f F4       		.byte	0xf4
 4295 0f30 21050000 		.4byte	0x521
 4296 0f34 08       		.byte	0x8
 4297 0f35 00       		.byte	0
 4298 0f36 06       		.uleb128 0x6
 4299 0f37 14       		.byte	0x14
 4300 0f38 12       		.byte	0x12
 4301 0f39 FE       		.byte	0xfe
 4302 0f3a 7F0F0000 		.4byte	0xf7f
 4303 0f3e 18       		.uleb128 0x18
 4304 0f3f 72656C00 		.ascii	"rel\000"
 4305 0f43 12       		.byte	0x12
 4306 0f44 0001     		.2byte	0x100
 4307 0f46 21050000 		.4byte	0x521
 4308 0f4a 00       		.byte	0
 4309 0f4b 18       		.uleb128 0x18
 4310 0f4c 707200   		.ascii	"pr\000"
 4311 0f4f 12       		.byte	0x12
 4312 0f50 0101     		.2byte	0x101
 4313 0f52 21050000 		.4byte	0x521
 4314 0f56 04       		.byte	0x4
 4315 0f57 19       		.uleb128 0x19
 4316 0f58 300B0000 		.4byte	.LASF226
 4317 0f5c 12       		.byte	0x12
 4318 0f5d 0201     		.2byte	0x102
 4319 0f5f 21050000 		.4byte	0x521
 4320 0f63 08       		.byte	0x8
 4321 0f64 19       		.uleb128 0x19
 4322 0f65 51040000 		.4byte	.LASF227
 4323 0f69 12       		.byte	0x12
 4324 0f6a 0301     		.2byte	0x103
 4325 0f6c 21050000 		.4byte	0x521
 4326 0f70 0C       		.byte	0xc
 4327 0f71 18       		.uleb128 0x18
 4328 0f72 696E6100 		.ascii	"ina\000"
 4329 0f76 12       		.byte	0x12
 4330 0f77 0401     		.2byte	0x104
 4331 0f79 21050000 		.4byte	0x521
 4332 0f7d 10       		.byte	0x10
 4333 0f7e 00       		.byte	0
 4334 0f7f 06       		.uleb128 0x6
 4335 0f80 20       		.byte	0x20
 4336 0f81 12       		.byte	0x12
ARM GAS  C:\Users\pearlstl\AppData\Local\Temp\ccI2fBBa.s 			page 101


 4337 0f82 F9       		.byte	0xf9
 4338 0f83 B70F0000 		.4byte	0xfb7
 4339 0f87 08       		.uleb128 0x8
 4340 0f88 626700   		.ascii	"bg\000"
 4341 0f8b 12       		.byte	0x12
 4342 0f8c FB       		.byte	0xfb
 4343 0f8d 21050000 		.4byte	0x521
 4344 0f91 00       		.byte	0
 4345 0f92 07       		.uleb128 0x7
 4346 0f93 69040000 		.4byte	.LASF243
 4347 0f97 12       		.byte	0x12
 4348 0f98 FC       		.byte	0xfc
 4349 0f99 21050000 		.4byte	0x521
 4350 0f9d 04       		.byte	0x4
 4351 0f9e 08       		.uleb128 0x8
 4352 0f9f 736200   		.ascii	"sb\000"
 4353 0fa2 12       		.byte	0x12
 4354 0fa3 FD       		.byte	0xfd
 4355 0fa4 21050000 		.4byte	0x521
 4356 0fa8 08       		.byte	0x8
 4357 0fa9 18       		.uleb128 0x18
 4358 0faa 62746E00 		.ascii	"btn\000"
 4359 0fae 12       		.byte	0x12
 4360 0faf 0501     		.2byte	0x105
 4361 0fb1 360F0000 		.4byte	0xf36
 4362 0fb5 0C       		.byte	0xc
 4363 0fb6 00       		.byte	0
 4364 0fb7 1A       		.uleb128 0x1a
 4365 0fb8 0C       		.byte	0xc
 4366 0fb9 12       		.byte	0x12
 4367 0fba 0A01     		.2byte	0x10a
 4368 0fbc E60F0000 		.4byte	0xfe6
 4369 0fc0 18       		.uleb128 0x18
 4370 0fc1 626700   		.ascii	"bg\000"
 4371 0fc4 12       		.byte	0x12
 4372 0fc5 0C01     		.2byte	0x10c
 4373 0fc7 21050000 		.4byte	0x521
 4374 0fcb 00       		.byte	0
 4375 0fcc 18       		.uleb128 0x18
 4376 0fcd 73656C00 		.ascii	"sel\000"
 4377 0fd1 12       		.byte	0x12
 4378 0fd2 0D01     		.2byte	0x10d
 4379 0fd4 21050000 		.4byte	0x521
 4380 0fd8 04       		.byte	0x4
 4381 0fd9 18       		.uleb128 0x18
 4382 0fda 736200   		.ascii	"sb\000"
 4383 0fdd 12       		.byte	0x12
 4384 0fde 0E01     		.2byte	0x10e
 4385 0fe0 21050000 		.4byte	0x521
 4386 0fe4 08       		.byte	0x8
 4387 0fe5 00       		.byte	0
 4388 0fe6 1A       		.uleb128 0x1a
 4389 0fe7 08       		.byte	0x8
 4390 0fe8 12       		.byte	0x12
 4391 0fe9 1301     		.2byte	0x113
 4392 0feb 09100000 		.4byte	0x1009
 4393 0fef 18       		.uleb128 0x18
ARM GAS  C:\Users\pearlstl\AppData\Local\Temp\ccI2fBBa.s 			page 102


 4394 0ff0 626700   		.ascii	"bg\000"
 4395 0ff3 12       		.byte	0x12
 4396 0ff4 1501     		.2byte	0x115
 4397 0ff6 21050000 		.4byte	0x521
 4398 0ffa 00       		.byte	0
 4399 0ffb 18       		.uleb128 0x18
 4400 0ffc 73656C00 		.ascii	"sel\000"
 4401 1000 12       		.byte	0x12
 4402 1001 1601     		.2byte	0x116
 4403 1003 21050000 		.4byte	0x521
 4404 1007 04       		.byte	0x4
 4405 1008 00       		.byte	0
 4406 1009 1A       		.uleb128 0x1a
 4407 100a 14       		.byte	0x14
 4408 100b 12       		.byte	0x12
 4409 100c 1F01     		.2byte	0x11f
 4410 100e 52100000 		.4byte	0x1052
 4411 1012 18       		.uleb128 0x18
 4412 1013 626700   		.ascii	"bg\000"
 4413 1016 12       		.byte	0x12
 4414 1017 2101     		.2byte	0x121
 4415 1019 21050000 		.4byte	0x521
 4416 101d 00       		.byte	0
 4417 101e 18       		.uleb128 0x18
 4418 101f 72656C00 		.ascii	"rel\000"
 4419 1023 12       		.byte	0x12
 4420 1024 2201     		.2byte	0x122
 4421 1026 21050000 		.4byte	0x521
 4422 102a 04       		.byte	0x4
 4423 102b 18       		.uleb128 0x18
 4424 102c 707200   		.ascii	"pr\000"
 4425 102f 12       		.byte	0x12
 4426 1030 2301     		.2byte	0x123
 4427 1032 21050000 		.4byte	0x521
 4428 1036 08       		.byte	0x8
 4429 1037 19       		.uleb128 0x19
 4430 1038 300B0000 		.4byte	.LASF226
 4431 103c 12       		.byte	0x12
 4432 103d 2401     		.2byte	0x124
 4433 103f 21050000 		.4byte	0x521
 4434 1043 0C       		.byte	0xc
 4435 1044 19       		.uleb128 0x19
 4436 1045 51040000 		.4byte	.LASF227
 4437 1049 12       		.byte	0x12
 4438 104a 2501     		.2byte	0x125
 4439 104c 21050000 		.4byte	0x521
 4440 1050 10       		.byte	0x10
 4441 1051 00       		.byte	0
 4442 1052 1A       		.uleb128 0x1a
 4443 1053 1C       		.byte	0x1c
 4444 1054 12       		.byte	0x12
 4445 1055 1B01     		.2byte	0x11b
 4446 1057 82100000 		.4byte	0x1082
 4447 105b 18       		.uleb128 0x18
 4448 105c 626700   		.ascii	"bg\000"
 4449 105f 12       		.byte	0x12
 4450 1060 1D01     		.2byte	0x11d
ARM GAS  C:\Users\pearlstl\AppData\Local\Temp\ccI2fBBa.s 			page 103


 4451 1062 21050000 		.4byte	0x521
 4452 1066 00       		.byte	0
 4453 1067 19       		.uleb128 0x19
 4454 1068 250A0000 		.4byte	.LASF233
 4455 106c 12       		.byte	0x12
 4456 106d 1E01     		.2byte	0x11e
 4457 106f 21050000 		.4byte	0x521
 4458 1073 04       		.byte	0x4
 4459 1074 18       		.uleb128 0x18
 4460 1075 62746E00 		.ascii	"btn\000"
 4461 1079 12       		.byte	0x12
 4462 107a 2601     		.2byte	0x126
 4463 107c 09100000 		.4byte	0x1009
 4464 1080 08       		.byte	0x8
 4465 1081 00       		.byte	0
 4466 1082 1A       		.uleb128 0x1a
 4467 1083 0C       		.byte	0xc
 4468 1084 12       		.byte	0x12
 4469 1085 2B01     		.2byte	0x12b
 4470 1087 B1100000 		.4byte	0x10b1
 4471 108b 18       		.uleb128 0x18
 4472 108c 626700   		.ascii	"bg\000"
 4473 108f 12       		.byte	0x12
 4474 1090 2D01     		.2byte	0x12d
 4475 1092 21050000 		.4byte	0x521
 4476 1096 00       		.byte	0
 4477 1097 19       		.uleb128 0x19
 4478 1098 69040000 		.4byte	.LASF243
 4479 109c 12       		.byte	0x12
 4480 109d 2E01     		.2byte	0x12e
 4481 109f 21050000 		.4byte	0x521
 4482 10a3 04       		.byte	0x4
 4483 10a4 18       		.uleb128 0x18
 4484 10a5 736200   		.ascii	"sb\000"
 4485 10a8 12       		.byte	0x12
 4486 10a9 2F01     		.2byte	0x12f
 4487 10ab 21050000 		.4byte	0x521
 4488 10af 08       		.byte	0x8
 4489 10b0 00       		.byte	0
 4490 10b1 1A       		.uleb128 0x1a
 4491 10b2 08       		.byte	0x8
 4492 10b3 12       		.byte	0x12
 4493 10b4 3401     		.2byte	0x134
 4494 10b6 D4100000 		.4byte	0x10d4
 4495 10ba 18       		.uleb128 0x18
 4496 10bb 626700   		.ascii	"bg\000"
 4497 10be 12       		.byte	0x12
 4498 10bf 3601     		.2byte	0x136
 4499 10c1 21050000 		.4byte	0x521
 4500 10c5 00       		.byte	0
 4501 10c6 19       		.uleb128 0x19
 4502 10c7 5B000000 		.4byte	.LASF247
 4503 10cb 12       		.byte	0x12
 4504 10cc 3701     		.2byte	0x137
 4505 10ce 21050000 		.4byte	0x521
 4506 10d2 04       		.byte	0x4
 4507 10d3 00       		.byte	0
ARM GAS  C:\Users\pearlstl\AppData\Local\Temp\ccI2fBBa.s 			page 104


 4508 10d4 1A       		.uleb128 0x1a
 4509 10d5 08       		.byte	0x8
 4510 10d6 12       		.byte	0x12
 4511 10d7 4201     		.2byte	0x142
 4512 10d9 F7100000 		.4byte	0x10f7
 4513 10dd 18       		.uleb128 0x18
 4514 10de 72656C00 		.ascii	"rel\000"
 4515 10e2 12       		.byte	0x12
 4516 10e3 4401     		.2byte	0x144
 4517 10e5 21050000 		.4byte	0x521
 4518 10e9 00       		.byte	0
 4519 10ea 18       		.uleb128 0x18
 4520 10eb 707200   		.ascii	"pr\000"
 4521 10ee 12       		.byte	0x12
 4522 10ef 4501     		.2byte	0x145
 4523 10f1 21050000 		.4byte	0x521
 4524 10f5 04       		.byte	0x4
 4525 10f6 00       		.byte	0
 4526 10f7 1A       		.uleb128 0x1a
 4527 10f8 18       		.byte	0x18
 4528 10f9 12       		.byte	0x12
 4529 10fa 3C01     		.2byte	0x13c
 4530 10fc 40110000 		.4byte	0x1140
 4531 1100 18       		.uleb128 0x18
 4532 1101 626700   		.ascii	"bg\000"
 4533 1104 12       		.byte	0x12
 4534 1105 3E01     		.2byte	0x13e
 4535 1107 21050000 		.4byte	0x521
 4536 110b 00       		.byte	0
 4537 110c 18       		.uleb128 0x18
 4538 110d 736200   		.ascii	"sb\000"
 4539 1110 12       		.byte	0x12
 4540 1111 3F01     		.2byte	0x13f
 4541 1113 21050000 		.4byte	0x521
 4542 1117 04       		.byte	0x4
 4543 1118 19       		.uleb128 0x19
 4544 1119 1F050000 		.4byte	.LASF213
 4545 111d 12       		.byte	0x12
 4546 111e 4001     		.2byte	0x140
 4547 1120 21050000 		.4byte	0x521
 4548 1124 08       		.byte	0x8
 4549 1125 19       		.uleb128 0x19
 4550 1126 20130000 		.4byte	.LASF248
 4551 112a 12       		.byte	0x12
 4552 112b 4101     		.2byte	0x141
 4553 112d 21050000 		.4byte	0x521
 4554 1131 0C       		.byte	0xc
 4555 1132 18       		.uleb128 0x18
 4556 1133 62746E00 		.ascii	"btn\000"
 4557 1137 12       		.byte	0x12
 4558 1138 4601     		.2byte	0x146
 4559 113a D4100000 		.4byte	0x10d4
 4560 113e 10       		.byte	0x10
 4561 113f 00       		.byte	0
 4562 1140 1B       		.uleb128 0x1b
 4563 1141 A801     		.2byte	0x1a8
 4564 1143 12       		.byte	0x12
ARM GAS  C:\Users\pearlstl\AppData\Local\Temp\ccI2fBBa.s 			page 105


 4565 1144 29       		.byte	0x29
 4566 1145 E2120000 		.4byte	0x12e2
 4567 1149 08       		.uleb128 0x8
 4568 114a 73637200 		.ascii	"scr\000"
 4569 114e 12       		.byte	0x12
 4570 114f 2B       		.byte	0x2b
 4571 1150 21050000 		.4byte	0x521
 4572 1154 00       		.byte	0
 4573 1155 08       		.uleb128 0x8
 4574 1156 626700   		.ascii	"bg\000"
 4575 1159 12       		.byte	0x12
 4576 115a 2C       		.byte	0x2c
 4577 115b 21050000 		.4byte	0x521
 4578 115f 04       		.byte	0x4
 4579 1160 07       		.uleb128 0x7
 4580 1161 140F0000 		.4byte	.LASF249
 4581 1165 12       		.byte	0x12
 4582 1166 2D       		.byte	0x2d
 4583 1167 21050000 		.4byte	0x521
 4584 116b 08       		.byte	0x8
 4585 116c 07       		.uleb128 0x7
 4586 116d 86020000 		.4byte	.LASF250
 4587 1171 12       		.byte	0x12
 4588 1172 30       		.byte	0x30
 4589 1173 21050000 		.4byte	0x521
 4590 1177 0C       		.byte	0xc
 4591 1178 08       		.uleb128 0x8
 4592 1179 62746E00 		.ascii	"btn\000"
 4593 117d 12       		.byte	0x12
 4594 117e 3B       		.byte	0x3b
 4595 117f 5A0B0000 		.4byte	0xb5a
 4596 1183 10       		.byte	0x10
 4597 1184 07       		.uleb128 0x7
 4598 1185 E00E0000 		.4byte	.LASF251
 4599 1189 12       		.byte	0x12
 4600 118a 46       		.byte	0x46
 4601 118b 9E0B0000 		.4byte	0xb9e
 4602 118f 24       		.byte	0x24
 4603 1190 07       		.uleb128 0x7
 4604 1191 51140000 		.4byte	.LASF252
 4605 1195 12       		.byte	0x12
 4606 1196 4F       		.byte	0x4f
 4607 1197 E20B0000 		.4byte	0xbe2
 4608 119b 38       		.byte	0x38
 4609 119c 08       		.uleb128 0x8
 4610 119d 696D6700 		.ascii	"img\000"
 4611 11a1 12       		.byte	0x12
 4612 11a2 57       		.byte	0x57
 4613 11a3 0F0C0000 		.4byte	0xc0f
 4614 11a7 44       		.byte	0x44
 4615 11a8 07       		.uleb128 0x7
 4616 11a9 C2080000 		.4byte	.LASF71
 4617 11ad 12       		.byte	0x12
 4618 11ae 5E       		.byte	0x5e
 4619 11af 300C0000 		.4byte	0xc30
 4620 11b3 4C       		.byte	0x4c
 4621 11b4 08       		.uleb128 0x8
ARM GAS  C:\Users\pearlstl\AppData\Local\Temp\ccI2fBBa.s 			page 106


 4622 11b5 6C656400 		.ascii	"led\000"
 4623 11b9 12       		.byte	0x12
 4624 11ba 62       		.byte	0x62
 4625 11bb 21050000 		.4byte	0x521
 4626 11bf 50       		.byte	0x50
 4627 11c0 08       		.uleb128 0x8
 4628 11c1 62617200 		.ascii	"bar\000"
 4629 11c5 12       		.byte	0x12
 4630 11c6 6A       		.byte	0x6a
 4631 11c7 450C0000 		.4byte	0xc45
 4632 11cb 54       		.byte	0x54
 4633 11cc 07       		.uleb128 0x7
 4634 11cd 65140000 		.4byte	.LASF253
 4635 11d1 12       		.byte	0x12
 4636 11d2 73       		.byte	0x73
 4637 11d3 650C0000 		.4byte	0xc65
 4638 11d7 5C       		.byte	0x5c
 4639 11d8 07       		.uleb128 0x7
 4640 11d9 FF000000 		.4byte	.LASF254
 4641 11dd 12       		.byte	0x12
 4642 11de 77       		.byte	0x77
 4643 11df 21050000 		.4byte	0x521
 4644 11e3 68       		.byte	0x68
 4645 11e4 07       		.uleb128 0x7
 4646 11e5 180C0000 		.4byte	.LASF255
 4647 11e9 12       		.byte	0x12
 4648 11ea 7B       		.byte	0x7b
 4649 11eb 21050000 		.4byte	0x521
 4650 11ef 6C       		.byte	0x6c
 4651 11f0 08       		.uleb128 0x8
 4652 11f1 61726300 		.ascii	"arc\000"
 4653 11f5 12       		.byte	0x12
 4654 11f6 7F       		.byte	0x7f
 4655 11f7 21050000 		.4byte	0x521
 4656 11fb 70       		.byte	0x70
 4657 11fc 07       		.uleb128 0x7
 4658 11fd D2140000 		.4byte	.LASF256
 4659 1201 12       		.byte	0x12
 4660 1202 83       		.byte	0x83
 4661 1203 21050000 		.4byte	0x521
 4662 1207 74       		.byte	0x74
 4663 1208 08       		.uleb128 0x8
 4664 1209 737700   		.ascii	"sw\000"
 4665 120c 12       		.byte	0x12
 4666 120d 8D       		.byte	0x8d
 4667 120e 910C0000 		.4byte	0xc91
 4668 1212 78       		.byte	0x78
 4669 1213 07       		.uleb128 0x7
 4670 1214 54030000 		.4byte	.LASF257
 4671 1218 12       		.byte	0x12
 4672 1219 91       		.byte	0x91
 4673 121a 21050000 		.4byte	0x521
 4674 121e 88       		.byte	0x88
 4675 121f 07       		.uleb128 0x7
 4676 1220 4F100000 		.4byte	.LASF258
 4677 1224 12       		.byte	0x12
 4678 1225 9F       		.byte	0x9f
ARM GAS  C:\Users\pearlstl\AppData\Local\Temp\ccI2fBBa.s 			page 107


 4679 1226 C90C0000 		.4byte	0xcc9
 4680 122a 8C       		.byte	0x8c
 4681 122b 08       		.uleb128 0x8
 4682 122c 636200   		.ascii	"cb\000"
 4683 122f 12       		.byte	0x12
 4684 1230 AE       		.byte	0xae
 4685 1231 750D0000 		.4byte	0xd75
 4686 1235 AC       		.byte	0xac
 4687 1236 07       		.uleb128 0x7
 4688 1237 11040000 		.4byte	.LASF259
 4689 123b 12       		.byte	0x12
 4690 123c BD       		.byte	0xbd
 4691 123d D90D0000 		.4byte	0xdd9
 4692 1241 C4       		.byte	0xc4
 4693 1242 08       		.uleb128 0x8
 4694 1243 6B6200   		.ascii	"kb\000"
 4695 1246 12       		.byte	0x12
 4696 1247 CC       		.byte	0xcc
 4697 1248 3D0E0000 		.4byte	0xe3d
 4698 124c DC       		.byte	0xdc
 4699 124d 07       		.uleb128 0x7
 4700 124e 130B0000 		.4byte	.LASF260
 4701 1252 12       		.byte	0x12
 4702 1253 D9       		.byte	0xd9
 4703 1254 880E0000 		.4byte	0xe88
 4704 1258 F4       		.byte	0xf4
 4705 1259 1C       		.uleb128 0x1c
 4706 125a F80B0000 		.4byte	.LASF212
 4707 125e 12       		.byte	0x12
 4708 125f E2       		.byte	0xe2
 4709 1260 A80E0000 		.4byte	0xea8
 4710 1264 0401     		.2byte	0x104
 4711 1266 1D       		.uleb128 0x1d
 4712 1267 746100   		.ascii	"ta\000"
 4713 126a 12       		.byte	0x12
 4714 126b EC       		.byte	0xec
 4715 126c D30E0000 		.4byte	0xed3
 4716 1270 1001     		.2byte	0x110
 4717 1272 1C       		.uleb128 0x1c
 4718 1273 EC110000 		.4byte	.LASF261
 4719 1277 12       		.byte	0x12
 4720 1278 F5       		.byte	0xf5
 4721 1279 0B0F0000 		.4byte	0xf0b
 4722 127d 2001     		.2byte	0x120
 4723 127f 1E       		.uleb128 0x1e
 4724 1280 C70B0000 		.4byte	.LASF262
 4725 1284 12       		.byte	0x12
 4726 1285 0601     		.2byte	0x106
 4727 1287 7F0F0000 		.4byte	0xf7f
 4728 128b 2C01     		.2byte	0x12c
 4729 128d 1E       		.uleb128 0x1e
 4730 128e D4060000 		.4byte	.LASF263
 4731 1292 12       		.byte	0x12
 4732 1293 0F01     		.2byte	0x10f
 4733 1295 B70F0000 		.4byte	0xfb7
 4734 1299 4C01     		.2byte	0x14c
 4735 129b 1E       		.uleb128 0x1e
ARM GAS  C:\Users\pearlstl\AppData\Local\Temp\ccI2fBBa.s 			page 108


 4736 129c AF150000 		.4byte	.LASF264
 4737 12a0 12       		.byte	0x12
 4738 12a1 1701     		.2byte	0x117
 4739 12a3 E60F0000 		.4byte	0xfe6
 4740 12a7 5801     		.2byte	0x158
 4741 12a9 1E       		.uleb128 0x1e
 4742 12aa 4F0A0000 		.4byte	.LASF265
 4743 12ae 12       		.byte	0x12
 4744 12af 2701     		.2byte	0x127
 4745 12b1 52100000 		.4byte	0x1052
 4746 12b5 6001     		.2byte	0x160
 4747 12b7 1E       		.uleb128 0x1e
 4748 12b8 B5030000 		.4byte	.LASF266
 4749 12bc 12       		.byte	0x12
 4750 12bd 3001     		.2byte	0x130
 4751 12bf 82100000 		.4byte	0x1082
 4752 12c3 7C01     		.2byte	0x17c
 4753 12c5 1E       		.uleb128 0x1e
 4754 12c6 97050000 		.4byte	.LASF267
 4755 12ca 12       		.byte	0x12
 4756 12cb 3801     		.2byte	0x138
 4757 12cd B1100000 		.4byte	0x10b1
 4758 12d1 8801     		.2byte	0x188
 4759 12d3 1F       		.uleb128 0x1f
 4760 12d4 77696E00 		.ascii	"win\000"
 4761 12d8 12       		.byte	0x12
 4762 12d9 4701     		.2byte	0x147
 4763 12db F7100000 		.4byte	0x10f7
 4764 12df 9001     		.2byte	0x190
 4765 12e1 00       		.byte	0
 4766 12e2 1B       		.uleb128 0x1b
 4767 12e3 A801     		.2byte	0x1a8
 4768 12e5 12       		.byte	0x12
 4769 12e6 27       		.byte	0x27
 4770 12e7 F9120000 		.4byte	0x12f9
 4771 12eb 19       		.uleb128 0x19
 4772 12ec D40C0000 		.4byte	.LASF268
 4773 12f0 12       		.byte	0x12
 4774 12f1 4901     		.2byte	0x149
 4775 12f3 40110000 		.4byte	0x1140
 4776 12f7 00       		.byte	0
 4777 12f8 00       		.byte	0
 4778 12f9 12       		.uleb128 0x12
 4779 12fa A3070000 		.4byte	.LASF269
 4780 12fe 12       		.byte	0x12
 4781 12ff 5401     		.2byte	0x154
 4782 1301 E2120000 		.4byte	0x12e2
 4783 1305 20       		.uleb128 0x20
 4784 1306 79120000 		.4byte	.LASF270
 4785 130a 02       		.byte	0x2
 4786 130b 56       		.byte	0x56
 4787 130c D9000000 		.4byte	0xd9
 4788 1310 03       		.byte	0x3
 4789 1311 21130000 		.4byte	0x1321
 4790 1315 21       		.uleb128 0x21
 4791 1316 DA030000 		.4byte	.LASF272
 4792 131a 02       		.byte	0x2
ARM GAS  C:\Users\pearlstl\AppData\Local\Temp\ccI2fBBa.s 			page 109


 4793 131b 56       		.byte	0x56
 4794 131c 9F050000 		.4byte	0x59f
 4795 1320 00       		.byte	0
 4796 1321 20       		.uleb128 0x20
 4797 1322 A40E0000 		.4byte	.LASF271
 4798 1326 02       		.byte	0x2
 4799 1327 60       		.byte	0x60
 4800 1328 D9000000 		.4byte	0xd9
 4801 132c 03       		.byte	0x3
 4802 132d 3D130000 		.4byte	0x133d
 4803 1331 21       		.uleb128 0x21
 4804 1332 DA030000 		.4byte	.LASF272
 4805 1336 02       		.byte	0x2
 4806 1337 60       		.byte	0x60
 4807 1338 9F050000 		.4byte	0x59f
 4808 133c 00       		.byte	0
 4809 133d 22       		.uleb128 0x22
 4810 133e 31090000 		.4byte	.LASF375
 4811 1342 03       		.byte	0x3
 4812 1343 E5       		.byte	0xe5
 4813 1344 03       		.byte	0x3
 4814 1345 60130000 		.4byte	0x1360
 4815 1349 21       		.uleb128 0x21
 4816 134a F80B0000 		.4byte	.LASF212
 4817 134e 03       		.byte	0x3
 4818 134f E5       		.byte	0xe5
 4819 1350 970A0000 		.4byte	0xa97
 4820 1354 21       		.uleb128 0x21
 4821 1355 480A0000 		.4byte	.LASF273
 4822 1359 03       		.byte	0x3
 4823 135a E5       		.byte	0xe5
 4824 135b ED090000 		.4byte	0x9ed
 4825 135f 00       		.byte	0
 4826 1360 23       		.uleb128 0x23
 4827 1361 8F140000 		.4byte	.LASF274
 4828 1365 01       		.byte	0x1
 4829 1366 8101     		.2byte	0x181
 4830 1368 970A0000 		.4byte	0xa97
 4831 136c 01       		.byte	0x1
 4832 136d 8A130000 		.4byte	0x138a
 4833 1371 24       		.uleb128 0x24
 4834 1372 77696E00 		.ascii	"win\000"
 4835 1376 01       		.byte	0x1
 4836 1377 8101     		.2byte	0x181
 4837 1379 8A130000 		.4byte	0x138a
 4838 137d 25       		.uleb128 0x25
 4839 137e 65787400 		.ascii	"ext\000"
 4840 1382 01       		.byte	0x1
 4841 1383 8501     		.2byte	0x185
 4842 1385 95130000 		.4byte	0x1395
 4843 1389 00       		.byte	0
 4844 138a 0D       		.uleb128 0xd
 4845 138b 04       		.byte	0x4
 4846 138c 90130000 		.4byte	0x1390
 4847 1390 0E       		.uleb128 0xe
 4848 1391 AB090000 		.4byte	0x9ab
 4849 1395 0D       		.uleb128 0xd
ARM GAS  C:\Users\pearlstl\AppData\Local\Temp\ccI2fBBa.s 			page 110


 4850 1396 04       		.byte	0x4
 4851 1397 130B0000 		.4byte	0xb13
 4852 139b 23       		.uleb128 0x23
 4853 139c C9100000 		.4byte	.LASF275
 4854 13a0 01       		.byte	0x1
 4855 13a1 9C01     		.2byte	0x19c
 4856 13a3 970A0000 		.4byte	0xa97
 4857 13a7 01       		.byte	0x1
 4858 13a8 D1130000 		.4byte	0x13d1
 4859 13ac 26       		.uleb128 0x26
 4860 13ad DA140000 		.4byte	.LASF276
 4861 13b1 01       		.byte	0x1
 4862 13b2 9C01     		.2byte	0x19c
 4863 13b4 8A130000 		.4byte	0x138a
 4864 13b8 27       		.uleb128 0x27
 4865 13b9 1F050000 		.4byte	.LASF213
 4866 13bd 01       		.byte	0x1
 4867 13be A001     		.2byte	0x1a0
 4868 13c0 970A0000 		.4byte	0xa97
 4869 13c4 25       		.uleb128 0x25
 4870 13c5 77696E00 		.ascii	"win\000"
 4871 13c9 01       		.byte	0x1
 4872 13ca A101     		.2byte	0x1a1
 4873 13cc 970A0000 		.4byte	0xa97
 4874 13d0 00       		.byte	0
 4875 13d1 28       		.uleb128 0x28
 4876 13d2 180B0000 		.4byte	.LASF277
 4877 13d6 03       		.byte	0x3
 4878 13d7 3201     		.2byte	0x132
 4879 13d9 ED090000 		.4byte	0x9ed
 4880 13dd 03       		.byte	0x3
 4881 13de EF130000 		.4byte	0x13ef
 4882 13e2 26       		.uleb128 0x26
 4883 13e3 F80B0000 		.4byte	.LASF212
 4884 13e7 03       		.byte	0x3
 4885 13e8 3201     		.2byte	0x132
 4886 13ea 8A130000 		.4byte	0x138a
 4887 13ee 00       		.byte	0
 4888 13ef 23       		.uleb128 0x23
 4889 13f0 EE000000 		.4byte	.LASF278
 4890 13f4 01       		.byte	0x1
 4891 13f5 E201     		.2byte	0x1e2
 4892 13f7 A0090000 		.4byte	0x9a0
 4893 13fb 01       		.byte	0x1
 4894 13fc 31140000 		.4byte	0x1431
 4895 1400 24       		.uleb128 0x24
 4896 1401 77696E00 		.ascii	"win\000"
 4897 1405 01       		.byte	0x1
 4898 1406 E201     		.2byte	0x1e2
 4899 1408 8A130000 		.4byte	0x138a
 4900 140c 26       		.uleb128 0x26
 4901 140d 17020000 		.4byte	.LASF49
 4902 1411 01       		.byte	0x1
 4903 1412 E201     		.2byte	0x1e2
 4904 1414 4F0B0000 		.4byte	0xb4f
 4905 1418 27       		.uleb128 0x27
 4906 1419 D40C0000 		.4byte	.LASF268
ARM GAS  C:\Users\pearlstl\AppData\Local\Temp\ccI2fBBa.s 			page 111


 4907 141d 01       		.byte	0x1
 4908 141e E601     		.2byte	0x1e6
 4909 1420 A0090000 		.4byte	0x9a0
 4910 1424 25       		.uleb128 0x25
 4911 1425 65787400 		.ascii	"ext\000"
 4912 1429 01       		.byte	0x1
 4913 142a E701     		.2byte	0x1e7
 4914 142c 95130000 		.4byte	0x1395
 4915 1430 00       		.byte	0
 4916 1431 29       		.uleb128 0x29
 4917 1432 3E060000 		.4byte	.LASF376
 4918 1436 01       		.byte	0x1
 4919 1437 4502     		.2byte	0x245
 4920 1439 00000000 		.4byte	.LFB91
 4921 143d 16010000 		.4byte	.LFE91-.LFB91
 4922 1441 01       		.uleb128 0x1
 4923 1442 9C       		.byte	0x9c
 4924 1443 CE160000 		.4byte	0x16ce
 4925 1447 2A       		.uleb128 0x2a
 4926 1448 77696E00 		.ascii	"win\000"
 4927 144c 01       		.byte	0x1
 4928 144d 4502     		.2byte	0x245
 4929 144f 970A0000 		.4byte	0xa97
 4930 1453 00000000 		.4byte	.LLST0
 4931 1457 2B       		.uleb128 0x2b
 4932 1458 65787400 		.ascii	"ext\000"
 4933 145c 01       		.byte	0x1
 4934 145d 4702     		.2byte	0x247
 4935 145f 95130000 		.4byte	0x1395
 4936 1463 1E000000 		.4byte	.LLST1
 4937 1467 2C       		.uleb128 0x2c
 4938 1468 460F0000 		.4byte	.LASF279
 4939 146c 01       		.byte	0x1
 4940 146d 4B02     		.2byte	0x24b
 4941 146f A0090000 		.4byte	0x9a0
 4942 1473 01       		.uleb128 0x1
 4943 1474 58       		.byte	0x58
 4944 1475 2D       		.uleb128 0x2d
 4945 1476 760A0000 		.4byte	.LASF280
 4946 147a 01       		.byte	0x1
 4947 147b 4F02     		.2byte	0x24f
 4948 147d BF010000 		.4byte	0x1bf
 4949 1481 3C000000 		.4byte	.LLST2
 4950 1485 2B       		.uleb128 0x2b
 4951 1486 62746E00 		.ascii	"btn\000"
 4952 148a 01       		.byte	0x1
 4953 148b 5002     		.2byte	0x250
 4954 148d 970A0000 		.4byte	0xa97
 4955 1491 73000000 		.4byte	.LLST3
 4956 1495 2D       		.uleb128 0x2d
 4957 1496 D7120000 		.4byte	.LASF281
 4958 149a 01       		.byte	0x1
 4959 149b 5102     		.2byte	0x251
 4960 149d 970A0000 		.4byte	0xa97
 4961 14a1 DE000000 		.4byte	.LLST4
 4962 14a5 27       		.uleb128 0x27
 4963 14a6 00000000 		.4byte	.LASF282
ARM GAS  C:\Users\pearlstl\AppData\Local\Temp\ccI2fBBa.s 			page 112


 4964 14aa 01       		.byte	0x1
 4965 14ab 6102     		.2byte	0x261
 4966 14ad A0090000 		.4byte	0x9a0
 4967 14b1 2E       		.uleb128 0x2e
 4968 14b2 EF130000 		.4byte	0x13ef
 4969 14b6 20000000 		.4byte	.LBB24
 4970 14ba 0E000000 		.4byte	.LBE24-.LBB24
 4971 14be 01       		.byte	0x1
 4972 14bf 4B02     		.2byte	0x24b
 4973 14c1 11150000 		.4byte	0x1511
 4974 14c5 2F       		.uleb128 0x2f
 4975 14c6 0C140000 		.4byte	0x140c
 4976 14ca FD000000 		.4byte	.LLST5
 4977 14ce 2F       		.uleb128 0x2f
 4978 14cf 00140000 		.4byte	0x1400
 4979 14d3 11010000 		.4byte	.LLST6
 4980 14d7 30       		.uleb128 0x30
 4981 14d8 20000000 		.4byte	.LBB25
 4982 14dc 0E000000 		.4byte	.LBE25-.LBB25
 4983 14e0 31       		.uleb128 0x31
 4984 14e1 18140000 		.4byte	0x1418
 4985 14e5 24010000 		.4byte	.LLST7
 4986 14e9 31       		.uleb128 0x31
 4987 14ea 24140000 		.4byte	0x1424
 4988 14ee 38010000 		.4byte	.LLST8
 4989 14f2 32       		.uleb128 0x32
 4990 14f3 26000000 		.4byte	.LVL4
 4991 14f7 8B2C0000 		.4byte	0x2c8b
 4992 14fb 06150000 		.4byte	0x1506
 4993 14ff 33       		.uleb128 0x33
 4994 1500 01       		.uleb128 0x1
 4995 1501 50       		.byte	0x50
 4996 1502 02       		.uleb128 0x2
 4997 1503 79       		.byte	0x79
 4998 1504 00       		.sleb128 0
 4999 1505 00       		.byte	0
 5000 1506 34       		.uleb128 0x34
 5001 1507 2C000000 		.4byte	.LVL6
 5002 150b 972C0000 		.4byte	0x2c97
 5003 150f 00       		.byte	0
 5004 1510 00       		.byte	0
 5005 1511 2E       		.uleb128 0x2e
 5006 1512 EF130000 		.4byte	0x13ef
 5007 1516 B4000000 		.4byte	.LBB26
 5008 151a 0C000000 		.4byte	.LBE26-.LBB26
 5009 151e 01       		.byte	0x1
 5010 151f 6102     		.2byte	0x261
 5011 1521 71150000 		.4byte	0x1571
 5012 1525 2F       		.uleb128 0x2f
 5013 1526 0C140000 		.4byte	0x140c
 5014 152a 4B010000 		.4byte	.LLST9
 5015 152e 2F       		.uleb128 0x2f
 5016 152f 00140000 		.4byte	0x1400
 5017 1533 5F010000 		.4byte	.LLST10
 5018 1537 30       		.uleb128 0x30
 5019 1538 B4000000 		.4byte	.LBB27
 5020 153c 0C000000 		.4byte	.LBE27-.LBB27
ARM GAS  C:\Users\pearlstl\AppData\Local\Temp\ccI2fBBa.s 			page 113


 5021 1540 31       		.uleb128 0x31
 5022 1541 18140000 		.4byte	0x1418
 5023 1545 72010000 		.4byte	.LLST11
 5024 1549 31       		.uleb128 0x31
 5025 154a 24140000 		.4byte	0x1424
 5026 154e 86010000 		.4byte	.LLST12
 5027 1552 32       		.uleb128 0x32
 5028 1553 BA000000 		.4byte	.LVL22
 5029 1557 8B2C0000 		.4byte	0x2c8b
 5030 155b 66150000 		.4byte	0x1566
 5031 155f 33       		.uleb128 0x33
 5032 1560 01       		.uleb128 0x1
 5033 1561 50       		.byte	0x50
 5034 1562 02       		.uleb128 0x2
 5035 1563 79       		.byte	0x79
 5036 1564 00       		.sleb128 0
 5037 1565 00       		.byte	0
 5038 1566 34       		.uleb128 0x34
 5039 1567 C0000000 		.4byte	.LVL24
 5040 156b 972C0000 		.4byte	0x2c97
 5041 156f 00       		.byte	0
 5042 1570 00       		.byte	0
 5043 1571 32       		.uleb128 0x32
 5044 1572 0C000000 		.4byte	.LVL1
 5045 1576 8B2C0000 		.4byte	0x2c8b
 5046 157a 85150000 		.4byte	0x1585
 5047 157e 33       		.uleb128 0x33
 5048 157f 01       		.uleb128 0x1
 5049 1580 50       		.byte	0x50
 5050 1581 02       		.uleb128 0x2
 5051 1582 79       		.byte	0x79
 5052 1583 00       		.sleb128 0
 5053 1584 00       		.byte	0
 5054 1585 32       		.uleb128 0x32
 5055 1586 36000000 		.4byte	.LVL8
 5056 158a A32C0000 		.4byte	0x2ca3
 5057 158e 99150000 		.4byte	0x1599
 5058 1592 33       		.uleb128 0x33
 5059 1593 01       		.uleb128 0x1
 5060 1594 50       		.byte	0x50
 5061 1595 02       		.uleb128 0x2
 5062 1596 79       		.byte	0x79
 5063 1597 00       		.sleb128 0
 5064 1598 00       		.byte	0
 5065 1599 32       		.uleb128 0x32
 5066 159a 4E000000 		.4byte	.LVL9
 5067 159e AF2C0000 		.4byte	0x2caf
 5068 15a2 AD150000 		.4byte	0x15ad
 5069 15a6 33       		.uleb128 0x33
 5070 15a7 01       		.uleb128 0x1
 5071 15a8 50       		.byte	0x50
 5072 15a9 02       		.uleb128 0x2
 5073 15aa 74       		.byte	0x74
 5074 15ab 00       		.sleb128 0
 5075 15ac 00       		.byte	0
 5076 15ad 32       		.uleb128 0x32
 5077 15ae 56000000 		.4byte	.LVL10
ARM GAS  C:\Users\pearlstl\AppData\Local\Temp\ccI2fBBa.s 			page 114


 5078 15b2 BB2C0000 		.4byte	0x2cbb
 5079 15b6 C0150000 		.4byte	0x15c0
 5080 15ba 33       		.uleb128 0x33
 5081 15bb 01       		.uleb128 0x1
 5082 15bc 51       		.byte	0x51
 5083 15bd 01       		.uleb128 0x1
 5084 15be 30       		.byte	0x30
 5085 15bf 00       		.byte	0
 5086 15c0 34       		.uleb128 0x34
 5087 15c1 5E000000 		.4byte	.LVL12
 5088 15c5 BB2C0000 		.4byte	0x2cbb
 5089 15c9 32       		.uleb128 0x32
 5090 15ca 7C000000 		.4byte	.LVL14
 5091 15ce C72C0000 		.4byte	0x2cc7
 5092 15d2 DE150000 		.4byte	0x15de
 5093 15d6 33       		.uleb128 0x33
 5094 15d7 02       		.uleb128 0x2
 5095 15d8 7D       		.byte	0x7d
 5096 15d9 00       		.sleb128 0
 5097 15da 02       		.uleb128 0x2
 5098 15db 7A       		.byte	0x7a
 5099 15dc 00       		.sleb128 0
 5100 15dd 00       		.byte	0
 5101 15de 32       		.uleb128 0x32
 5102 15df 84000000 		.4byte	.LVL15
 5103 15e3 BB2C0000 		.4byte	0x2cbb
 5104 15e7 F2150000 		.4byte	0x15f2
 5105 15eb 33       		.uleb128 0x33
 5106 15ec 01       		.uleb128 0x1
 5107 15ed 51       		.byte	0x51
 5108 15ee 02       		.uleb128 0x2
 5109 15ef 74       		.byte	0x74
 5110 15f0 00       		.sleb128 0
 5111 15f1 00       		.byte	0
 5112 15f2 32       		.uleb128 0x32
 5113 15f3 98000000 		.4byte	.LVL17
 5114 15f7 AF2C0000 		.4byte	0x2caf
 5115 15fb 06160000 		.4byte	0x1606
 5116 15ff 33       		.uleb128 0x33
 5117 1600 01       		.uleb128 0x1
 5118 1601 50       		.byte	0x50
 5119 1602 02       		.uleb128 0x2
 5120 1603 74       		.byte	0x74
 5121 1604 00       		.sleb128 0
 5122 1605 00       		.byte	0
 5123 1606 32       		.uleb128 0x32
 5124 1607 B2000000 		.4byte	.LVL19
 5125 160b C72C0000 		.4byte	0x2cc7
 5126 160f 2C160000 		.4byte	0x162c
 5127 1613 33       		.uleb128 0x33
 5128 1614 01       		.uleb128 0x1
 5129 1615 50       		.byte	0x50
 5130 1616 02       		.uleb128 0x2
 5131 1617 74       		.byte	0x74
 5132 1618 00       		.sleb128 0
 5133 1619 33       		.uleb128 0x33
 5134 161a 01       		.uleb128 0x1
ARM GAS  C:\Users\pearlstl\AppData\Local\Temp\ccI2fBBa.s 			page 115


 5135 161b 51       		.byte	0x51
 5136 161c 02       		.uleb128 0x2
 5137 161d 77       		.byte	0x77
 5138 161e 00       		.sleb128 0
 5139 161f 33       		.uleb128 0x33
 5140 1620 01       		.uleb128 0x1
 5141 1621 52       		.byte	0x52
 5142 1622 01       		.uleb128 0x1
 5143 1623 40       		.byte	0x40
 5144 1624 33       		.uleb128 0x33
 5145 1625 02       		.uleb128 0x2
 5146 1626 7D       		.byte	0x7d
 5147 1627 00       		.sleb128 0
 5148 1628 02       		.uleb128 0x2
 5149 1629 76       		.byte	0x76
 5150 162a 00       		.sleb128 0
 5151 162b 00       		.byte	0
 5152 162c 32       		.uleb128 0x32
 5153 162d D4000000 		.4byte	.LVL25
 5154 1631 C72C0000 		.4byte	0x2cc7
 5155 1635 4C160000 		.4byte	0x164c
 5156 1639 33       		.uleb128 0x33
 5157 163a 01       		.uleb128 0x1
 5158 163b 51       		.byte	0x51
 5159 163c 02       		.uleb128 0x2
 5160 163d 74       		.byte	0x74
 5161 163e 00       		.sleb128 0
 5162 163f 33       		.uleb128 0x33
 5163 1640 01       		.uleb128 0x1
 5164 1641 52       		.byte	0x52
 5165 1642 01       		.uleb128 0x1
 5166 1643 37       		.byte	0x37
 5167 1644 33       		.uleb128 0x33
 5168 1645 02       		.uleb128 0x2
 5169 1646 7D       		.byte	0x7d
 5170 1647 00       		.sleb128 0
 5171 1648 02       		.uleb128 0x2
 5172 1649 74       		.byte	0x74
 5173 164a 00       		.sleb128 0
 5174 164b 00       		.byte	0
 5175 164c 32       		.uleb128 0x32
 5176 164d DE000000 		.4byte	.LVL26
 5177 1651 D32C0000 		.4byte	0x2cd3
 5178 1655 66160000 		.4byte	0x1666
 5179 1659 33       		.uleb128 0x33
 5180 165a 01       		.uleb128 0x1
 5181 165b 51       		.byte	0x51
 5182 165c 02       		.uleb128 0x2
 5183 165d 74       		.byte	0x74
 5184 165e 00       		.sleb128 0
 5185 165f 33       		.uleb128 0x33
 5186 1660 01       		.uleb128 0x1
 5187 1661 52       		.byte	0x52
 5188 1662 02       		.uleb128 0x2
 5189 1663 74       		.byte	0x74
 5190 1664 00       		.sleb128 0
 5191 1665 00       		.byte	0
ARM GAS  C:\Users\pearlstl\AppData\Local\Temp\ccI2fBBa.s 			page 116


 5192 1666 32       		.uleb128 0x32
 5193 1667 E6000000 		.4byte	.LVL27
 5194 166b A32C0000 		.4byte	0x2ca3
 5195 166f 7A160000 		.4byte	0x167a
 5196 1673 33       		.uleb128 0x33
 5197 1674 01       		.uleb128 0x1
 5198 1675 50       		.byte	0x50
 5199 1676 02       		.uleb128 0x2
 5200 1677 79       		.byte	0x79
 5201 1678 00       		.sleb128 0
 5202 1679 00       		.byte	0
 5203 167a 32       		.uleb128 0x32
 5204 167b EE000000 		.4byte	.LVL28
 5205 167f DF2C0000 		.4byte	0x2cdf
 5206 1683 8E160000 		.4byte	0x168e
 5207 1687 33       		.uleb128 0x33
 5208 1688 01       		.uleb128 0x1
 5209 1689 50       		.byte	0x50
 5210 168a 02       		.uleb128 0x2
 5211 168b 79       		.byte	0x79
 5212 168c 00       		.sleb128 0
 5213 168d 00       		.byte	0
 5214 168e 34       		.uleb128 0x34
 5215 168f F6000000 		.4byte	.LVL29
 5216 1693 DF2C0000 		.4byte	0x2cdf
 5217 1697 32       		.uleb128 0x32
 5218 1698 02010000 		.4byte	.LVL30
 5219 169c AF2C0000 		.4byte	0x2caf
 5220 16a0 B1160000 		.4byte	0x16b1
 5221 16a4 33       		.uleb128 0x33
 5222 16a5 01       		.uleb128 0x1
 5223 16a6 50       		.byte	0x50
 5224 16a7 02       		.uleb128 0x2
 5225 16a8 77       		.byte	0x77
 5226 16a9 00       		.sleb128 0
 5227 16aa 33       		.uleb128 0x33
 5228 16ab 01       		.uleb128 0x1
 5229 16ac 51       		.byte	0x51
 5230 16ad 02       		.uleb128 0x2
 5231 16ae 78       		.byte	0x78
 5232 16af 00       		.sleb128 0
 5233 16b0 00       		.byte	0
 5234 16b1 35       		.uleb128 0x35
 5235 16b2 10010000 		.4byte	.LVL31
 5236 16b6 C72C0000 		.4byte	0x2cc7
 5237 16ba 33       		.uleb128 0x33
 5238 16bb 01       		.uleb128 0x1
 5239 16bc 52       		.byte	0x52
 5240 16bd 01       		.uleb128 0x1
 5241 16be 3C       		.byte	0x3c
 5242 16bf 33       		.uleb128 0x33
 5243 16c0 01       		.uleb128 0x1
 5244 16c1 53       		.byte	0x53
 5245 16c2 02       		.uleb128 0x2
 5246 16c3 74       		.byte	0x74
 5247 16c4 00       		.sleb128 0
 5248 16c5 33       		.uleb128 0x33
ARM GAS  C:\Users\pearlstl\AppData\Local\Temp\ccI2fBBa.s 			page 117


 5249 16c6 02       		.uleb128 0x2
 5250 16c7 7D       		.byte	0x7d
 5251 16c8 00       		.sleb128 0
 5252 16c9 02       		.uleb128 0x2
 5253 16ca 74       		.byte	0x74
 5254 16cb 00       		.sleb128 0
 5255 16cc 00       		.byte	0
 5256 16cd 00       		.byte	0
 5257 16ce 36       		.uleb128 0x36
 5258 16cf 25110000 		.4byte	.LASF377
 5259 16d3 01       		.byte	0x1
 5260 16d4 1502     		.2byte	0x215
 5261 16d6 40050000 		.4byte	0x540
 5262 16da 00000000 		.4byte	.LFB90
 5263 16de D4000000 		.4byte	.LFE90-.LFB90
 5264 16e2 01       		.uleb128 0x1
 5265 16e3 9C       		.byte	0x9c
 5266 16e4 ED180000 		.4byte	0x18ed
 5267 16e8 2A       		.uleb128 0x2a
 5268 16e9 77696E00 		.ascii	"win\000"
 5269 16ed 01       		.byte	0x1
 5270 16ee 1502     		.2byte	0x215
 5271 16f0 970A0000 		.4byte	0xa97
 5272 16f4 99010000 		.4byte	.LLST13
 5273 16f8 37       		.uleb128 0x37
 5274 16f9 87010000 		.4byte	.LASF283
 5275 16fd 01       		.byte	0x1
 5276 16fe 1502     		.2byte	0x215
 5277 1700 5D080000 		.4byte	0x85d
 5278 1704 DE010000 		.4byte	.LLST14
 5279 1708 37       		.uleb128 0x37
 5280 1709 89080000 		.4byte	.LASF284
 5281 170d 01       		.byte	0x1
 5282 170e 1502     		.2byte	0x215
 5283 1710 E4000000 		.4byte	0xe4
 5284 1714 FF010000 		.4byte	.LLST15
 5285 1718 2B       		.uleb128 0x2b
 5286 1719 72657300 		.ascii	"res\000"
 5287 171d 01       		.byte	0x1
 5288 171e 1702     		.2byte	0x217
 5289 1720 40050000 		.4byte	0x540
 5290 1724 81020000 		.4byte	.LLST16
 5291 1728 2B       		.uleb128 0x2b
 5292 1729 65787400 		.ascii	"ext\000"
 5293 172d 01       		.byte	0x1
 5294 172e 1E02     		.2byte	0x21e
 5295 1730 95130000 		.4byte	0x1395
 5296 1734 9F020000 		.4byte	.LLST17
 5297 1738 38       		.uleb128 0x38
 5298 1739 36000000 		.4byte	.LBB28
 5299 173d 40000000 		.4byte	.LBE28-.LBB28
 5300 1741 02180000 		.4byte	0x1802
 5301 1745 2D       		.uleb128 0x2d
 5302 1746 F80B0000 		.4byte	.LASF212
 5303 174a 01       		.byte	0x1
 5304 174b 2002     		.2byte	0x220
 5305 174d 970A0000 		.4byte	0xa97
ARM GAS  C:\Users\pearlstl\AppData\Local\Temp\ccI2fBBa.s 			page 118


 5306 1751 DE020000 		.4byte	.LLST18
 5307 1755 30       		.uleb128 0x30
 5308 1756 3C000000 		.4byte	.LBB29
 5309 175a 3A000000 		.4byte	.LBE29-.LBB29
 5310 175e 2D       		.uleb128 0x2d
 5311 175f 420A0000 		.4byte	.LASF285
 5312 1763 01       		.byte	0x1
 5313 1764 2202     		.2byte	0x222
 5314 1766 970A0000 		.4byte	0xa97
 5315 176a F1020000 		.4byte	.LLST19
 5316 176e 39       		.uleb128 0x39
 5317 176f 00000000 		.4byte	.Ldebug_ranges0+0
 5318 1773 B8170000 		.4byte	0x17b8
 5319 1777 2B       		.uleb128 0x2b
 5320 1778 746D7000 		.ascii	"tmp\000"
 5321 177c 01       		.byte	0x1
 5322 177d 2602     		.2byte	0x226
 5323 177f 970A0000 		.4byte	0xa97
 5324 1783 5C030000 		.4byte	.LLST20
 5325 1787 32       		.uleb128 0x32
 5326 1788 5C000000 		.4byte	.LVL46
 5327 178c EB2C0000 		.4byte	0x2ceb
 5328 1790 A1170000 		.4byte	0x17a1
 5329 1794 33       		.uleb128 0x33
 5330 1795 01       		.uleb128 0x1
 5331 1796 50       		.byte	0x50
 5332 1797 02       		.uleb128 0x2
 5333 1798 76       		.byte	0x76
 5334 1799 00       		.sleb128 0
 5335 179a 33       		.uleb128 0x33
 5336 179b 01       		.uleb128 0x1
 5337 179c 51       		.byte	0x51
 5338 179d 02       		.uleb128 0x2
 5339 179e 74       		.byte	0x74
 5340 179f 00       		.sleb128 0
 5341 17a0 00       		.byte	0
 5342 17a1 35       		.uleb128 0x35
 5343 17a2 66000000 		.4byte	.LVL49
 5344 17a6 F72C0000 		.4byte	0x2cf7
 5345 17aa 33       		.uleb128 0x33
 5346 17ab 01       		.uleb128 0x1
 5347 17ac 50       		.byte	0x50
 5348 17ad 02       		.uleb128 0x2
 5349 17ae 74       		.byte	0x74
 5350 17af 00       		.sleb128 0
 5351 17b0 33       		.uleb128 0x33
 5352 17b1 01       		.uleb128 0x1
 5353 17b2 51       		.byte	0x51
 5354 17b3 02       		.uleb128 0x2
 5355 17b4 77       		.byte	0x77
 5356 17b5 00       		.sleb128 0
 5357 17b6 00       		.byte	0
 5358 17b7 00       		.byte	0
 5359 17b8 32       		.uleb128 0x32
 5360 17b9 44000000 		.4byte	.LVL42
 5361 17bd EB2C0000 		.4byte	0x2ceb
 5362 17c1 D1170000 		.4byte	0x17d1
ARM GAS  C:\Users\pearlstl\AppData\Local\Temp\ccI2fBBa.s 			page 119


 5363 17c5 33       		.uleb128 0x33
 5364 17c6 01       		.uleb128 0x1
 5365 17c7 50       		.byte	0x50
 5366 17c8 02       		.uleb128 0x2
 5367 17c9 76       		.byte	0x76
 5368 17ca 00       		.sleb128 0
 5369 17cb 33       		.uleb128 0x33
 5370 17cc 01       		.uleb128 0x1
 5371 17cd 51       		.byte	0x51
 5372 17ce 01       		.uleb128 0x1
 5373 17cf 30       		.byte	0x30
 5374 17d0 00       		.byte	0
 5375 17d1 32       		.uleb128 0x32
 5376 17d2 52000000 		.4byte	.LVL44
 5377 17d6 032D0000 		.4byte	0x2d03
 5378 17da EA170000 		.4byte	0x17ea
 5379 17de 33       		.uleb128 0x33
 5380 17df 01       		.uleb128 0x1
 5381 17e0 50       		.byte	0x50
 5382 17e1 02       		.uleb128 0x2
 5383 17e2 74       		.byte	0x74
 5384 17e3 00       		.sleb128 0
 5385 17e4 33       		.uleb128 0x33
 5386 17e5 01       		.uleb128 0x1
 5387 17e6 51       		.byte	0x51
 5388 17e7 01       		.uleb128 0x1
 5389 17e8 32       		.byte	0x32
 5390 17e9 00       		.byte	0
 5391 17ea 35       		.uleb128 0x35
 5392 17eb 72000000 		.4byte	.LVL53
 5393 17ef EB2C0000 		.4byte	0x2ceb
 5394 17f3 33       		.uleb128 0x33
 5395 17f4 01       		.uleb128 0x1
 5396 17f5 50       		.byte	0x50
 5397 17f6 02       		.uleb128 0x2
 5398 17f7 76       		.byte	0x76
 5399 17f8 00       		.sleb128 0
 5400 17f9 33       		.uleb128 0x33
 5401 17fa 01       		.uleb128 0x1
 5402 17fb 51       		.byte	0x51
 5403 17fc 02       		.uleb128 0x2
 5404 17fd 74       		.byte	0x74
 5405 17fe 00       		.sleb128 0
 5406 17ff 00       		.byte	0
 5407 1800 00       		.byte	0
 5408 1801 00       		.byte	0
 5409 1802 3A       		.uleb128 0x3a
 5410 1803 05130000 		.4byte	0x1305
 5411 1807 8C000000 		.4byte	.LBB32
 5412 180b 18000000 		.4byte	.Ldebug_ranges0+0x18
 5413 180f 01       		.byte	0x1
 5414 1810 3202     		.2byte	0x232
 5415 1812 29180000 		.4byte	0x1829
 5416 1816 2F       		.uleb128 0x2f
 5417 1817 15130000 		.4byte	0x1315
 5418 181b 9B030000 		.4byte	.LLST21
 5419 181f 2F       		.uleb128 0x2f
ARM GAS  C:\Users\pearlstl\AppData\Local\Temp\ccI2fBBa.s 			page 120


 5420 1820 15130000 		.4byte	0x1315
 5421 1824 9B030000 		.4byte	.LLST21
 5422 1828 00       		.byte	0
 5423 1829 3A       		.uleb128 0x3a
 5424 182a 21130000 		.4byte	0x1321
 5425 182e A0000000 		.4byte	.LBB38
 5426 1832 38000000 		.4byte	.Ldebug_ranges0+0x38
 5427 1836 01       		.byte	0x1
 5428 1837 3202     		.2byte	0x232
 5429 1839 50180000 		.4byte	0x1850
 5430 183d 2F       		.uleb128 0x2f
 5431 183e 31130000 		.4byte	0x1331
 5432 1842 AE030000 		.4byte	.LLST23
 5433 1846 2F       		.uleb128 0x2f
 5434 1847 31130000 		.4byte	0x1331
 5435 184b AE030000 		.4byte	.LLST23
 5436 184f 00       		.byte	0
 5437 1850 3B       		.uleb128 0x3b
 5438 1851 0E000000 		.4byte	.LVL33
 5439 1855 6C180000 		.4byte	0x186c
 5440 1859 33       		.uleb128 0x33
 5441 185a 01       		.uleb128 0x1
 5442 185b 50       		.byte	0x50
 5443 185c 02       		.uleb128 0x2
 5444 185d 76       		.byte	0x76
 5445 185e 00       		.sleb128 0
 5446 185f 33       		.uleb128 0x33
 5447 1860 01       		.uleb128 0x1
 5448 1861 51       		.byte	0x51
 5449 1862 02       		.uleb128 0x2
 5450 1863 75       		.byte	0x75
 5451 1864 00       		.sleb128 0
 5452 1865 33       		.uleb128 0x33
 5453 1866 01       		.uleb128 0x1
 5454 1867 52       		.byte	0x52
 5455 1868 02       		.uleb128 0x2
 5456 1869 77       		.byte	0x77
 5457 186a 00       		.sleb128 0
 5458 186b 00       		.byte	0
 5459 186c 32       		.uleb128 0x32
 5460 186d 20000000 		.4byte	.LVL37
 5461 1871 8B2C0000 		.4byte	0x2c8b
 5462 1875 80180000 		.4byte	0x1880
 5463 1879 33       		.uleb128 0x33
 5464 187a 01       		.uleb128 0x1
 5465 187b 50       		.byte	0x50
 5466 187c 02       		.uleb128 0x2
 5467 187d 76       		.byte	0x76
 5468 187e 00       		.sleb128 0
 5469 187f 00       		.byte	0
 5470 1880 3C       		.uleb128 0x3c
 5471 1881 82000000 		.4byte	.LVL58
 5472 1885 0F2D0000 		.4byte	0x2d0f
 5473 1889 9E180000 		.4byte	0x189e
 5474 188d 33       		.uleb128 0x33
 5475 188e 01       		.uleb128 0x1
 5476 188f 50       		.byte	0x50
ARM GAS  C:\Users\pearlstl\AppData\Local\Temp\ccI2fBBa.s 			page 121


 5477 1890 03       		.uleb128 0x3
 5478 1891 F3       		.byte	0xf3
 5479 1892 01       		.uleb128 0x1
 5480 1893 52       		.byte	0x52
 5481 1894 33       		.uleb128 0x33
 5482 1895 01       		.uleb128 0x1
 5483 1896 51       		.byte	0x51
 5484 1897 05       		.uleb128 0x5
 5485 1898 03       		.byte	0x3
 5486 1899 00000000 		.4byte	.LC0
 5487 189d 00       		.byte	0
 5488 189e 32       		.uleb128 0x32
 5489 189f 9A000000 		.4byte	.LVL62
 5490 18a3 A32C0000 		.4byte	0x2ca3
 5491 18a7 B2180000 		.4byte	0x18b2
 5492 18ab 33       		.uleb128 0x33
 5493 18ac 01       		.uleb128 0x1
 5494 18ad 50       		.byte	0x50
 5495 18ae 02       		.uleb128 0x2
 5496 18af 76       		.byte	0x76
 5497 18b0 00       		.sleb128 0
 5498 18b1 00       		.byte	0
 5499 18b2 32       		.uleb128 0x32
 5500 18b3 AE000000 		.4byte	.LVL64
 5501 18b7 DF2C0000 		.4byte	0x2cdf
 5502 18bb C6180000 		.4byte	0x18c6
 5503 18bf 33       		.uleb128 0x33
 5504 18c0 01       		.uleb128 0x1
 5505 18c1 50       		.byte	0x50
 5506 18c2 02       		.uleb128 0x2
 5507 18c3 76       		.byte	0x76
 5508 18c4 00       		.sleb128 0
 5509 18c5 00       		.byte	0
 5510 18c6 32       		.uleb128 0x32
 5511 18c7 BA000000 		.4byte	.LVL66
 5512 18cb 31140000 		.4byte	0x1431
 5513 18cf DA180000 		.4byte	0x18da
 5514 18d3 33       		.uleb128 0x33
 5515 18d4 01       		.uleb128 0x1
 5516 18d5 50       		.byte	0x50
 5517 18d6 02       		.uleb128 0x2
 5518 18d7 76       		.byte	0x76
 5519 18d8 00       		.sleb128 0
 5520 18d9 00       		.byte	0
 5521 18da 3D       		.uleb128 0x3d
 5522 18db C6000000 		.4byte	.LVL69
 5523 18df 33       		.uleb128 0x33
 5524 18e0 01       		.uleb128 0x1
 5525 18e1 51       		.byte	0x51
 5526 18e2 02       		.uleb128 0x2
 5527 18e3 75       		.byte	0x75
 5528 18e4 00       		.sleb128 0
 5529 18e5 33       		.uleb128 0x33
 5530 18e6 01       		.uleb128 0x1
 5531 18e7 52       		.byte	0x52
 5532 18e8 02       		.uleb128 0x2
 5533 18e9 77       		.byte	0x77
ARM GAS  C:\Users\pearlstl\AppData\Local\Temp\ccI2fBBa.s 			page 122


 5534 18ea 00       		.sleb128 0
 5535 18eb 00       		.byte	0
 5536 18ec 00       		.byte	0
 5537 18ed 3E       		.uleb128 0x3e
 5538 18ee FD100000 		.4byte	.LASF378
 5539 18f2 01       		.byte	0x1
 5540 18f3 3801     		.2byte	0x138
 5541 18f5 01       		.byte	0x1
 5542 18f6 39190000 		.4byte	0x1939
 5543 18fa 24       		.uleb128 0x24
 5544 18fb 77696E00 		.ascii	"win\000"
 5545 18ff 01       		.byte	0x1
 5546 1900 3801     		.2byte	0x138
 5547 1902 970A0000 		.4byte	0xa97
 5548 1906 26       		.uleb128 0x26
 5549 1907 17020000 		.4byte	.LASF49
 5550 190b 01       		.byte	0x1
 5551 190c 3801     		.2byte	0x138
 5552 190e 4F0B0000 		.4byte	0xb4f
 5553 1912 26       		.uleb128 0x26
 5554 1913 D40C0000 		.4byte	.LASF268
 5555 1917 01       		.byte	0x1
 5556 1918 3801     		.2byte	0x138
 5557 191a A0090000 		.4byte	0x9a0
 5558 191e 25       		.uleb128 0x25
 5559 191f 65787400 		.ascii	"ext\000"
 5560 1923 01       		.byte	0x1
 5561 1924 3C01     		.2byte	0x13c
 5562 1926 95130000 		.4byte	0x1395
 5563 192a 3F       		.uleb128 0x3f
 5564 192b 25       		.uleb128 0x25
 5565 192c 62746E00 		.ascii	"btn\000"
 5566 1930 01       		.byte	0x1
 5567 1931 4F01     		.2byte	0x14f
 5568 1933 970A0000 		.4byte	0xa97
 5569 1937 00       		.byte	0
 5570 1938 00       		.byte	0
 5571 1939 40       		.uleb128 0x40
 5572 193a A2140000 		.4byte	.LASF290
 5573 193e 01       		.byte	0x1
 5574 193f 32       		.byte	0x32
 5575 1940 970A0000 		.4byte	0xa97
 5576 1944 00000000 		.4byte	.LFB68
 5577 1948 B4020000 		.4byte	.LFE68-.LFB68
 5578 194c 01       		.uleb128 0x1
 5579 194d 9C       		.byte	0x9c
 5580 194e F4200000 		.4byte	0x20f4
 5581 1952 41       		.uleb128 0x41
 5582 1953 70617200 		.ascii	"par\000"
 5583 1957 01       		.byte	0x1
 5584 1958 32       		.byte	0x32
 5585 1959 970A0000 		.4byte	0xa97
 5586 195d C1030000 		.4byte	.LLST25
 5587 1961 42       		.uleb128 0x42
 5588 1962 D5030000 		.4byte	.LASF286
 5589 1966 01       		.byte	0x1
 5590 1967 32       		.byte	0x32
ARM GAS  C:\Users\pearlstl\AppData\Local\Temp\ccI2fBBa.s 			page 123


 5591 1968 8A130000 		.4byte	0x138a
 5592 196c 1F040000 		.4byte	.LLST26
 5593 1970 43       		.uleb128 0x43
 5594 1971 1C020000 		.4byte	.LASF287
 5595 1975 01       		.byte	0x1
 5596 1976 37       		.byte	0x37
 5597 1977 970A0000 		.4byte	0xa97
 5598 197b 7D040000 		.4byte	.LLST27
 5599 197f 44       		.uleb128 0x44
 5600 1980 65787400 		.ascii	"ext\000"
 5601 1984 01       		.byte	0x1
 5602 1985 3E       		.byte	0x3e
 5603 1986 95130000 		.4byte	0x1395
 5604 198a B1040000 		.4byte	.LLST28
 5605 198e 38       		.uleb128 0x38
 5606 198f 46000000 		.4byte	.LBB73
 5607 1993 7A000000 		.4byte	.LBE73-.LBB73
 5608 1997 991A0000 		.4byte	0x1a99
 5609 199b 43       		.uleb128 0x43
 5610 199c 06130000 		.4byte	.LASF288
 5611 19a0 01       		.byte	0x1
 5612 19a1 7E       		.byte	0x7e
 5613 19a2 95130000 		.4byte	0x1395
 5614 19a6 FB040000 		.4byte	.LLST29
 5615 19aa 43       		.uleb128 0x43
 5616 19ab 420A0000 		.4byte	.LASF285
 5617 19af 01       		.byte	0x1
 5618 19b0 86       		.byte	0x86
 5619 19b1 970A0000 		.4byte	0xa97
 5620 19b5 19050000 		.4byte	.LLST30
 5621 19b9 43       		.uleb128 0x43
 5622 19ba D60D0000 		.4byte	.LASF289
 5623 19be 01       		.byte	0x1
 5624 19bf 87       		.byte	0x87
 5625 19c0 970A0000 		.4byte	0xa97
 5626 19c4 6E050000 		.4byte	.LLST31
 5627 19c8 32       		.uleb128 0x32
 5628 19c9 4C000000 		.4byte	.LVL76
 5629 19cd 8B2C0000 		.4byte	0x2c8b
 5630 19d1 DC190000 		.4byte	0x19dc
 5631 19d5 33       		.uleb128 0x33
 5632 19d6 01       		.uleb128 0x1
 5633 19d7 50       		.byte	0x50
 5634 19d8 02       		.uleb128 0x2
 5635 19d9 76       		.byte	0x76
 5636 19da 00       		.sleb128 0
 5637 19db 00       		.byte	0
 5638 19dc 32       		.uleb128 0x32
 5639 19dd 58000000 		.4byte	.LVL79
 5640 19e1 1B2D0000 		.4byte	0x2d1b
 5641 19e5 F0190000 		.4byte	0x19f0
 5642 19e9 33       		.uleb128 0x33
 5643 19ea 01       		.uleb128 0x1
 5644 19eb 50       		.byte	0x50
 5645 19ec 02       		.uleb128 0x2
 5646 19ed 77       		.byte	0x77
 5647 19ee 00       		.sleb128 0
ARM GAS  C:\Users\pearlstl\AppData\Local\Temp\ccI2fBBa.s 			page 124


 5648 19ef 00       		.byte	0
 5649 19f0 34       		.uleb128 0x34
 5650 19f1 62000000 		.4byte	.LVL80
 5651 19f5 272D0000 		.4byte	0x2d27
 5652 19f9 32       		.uleb128 0x32
 5653 19fa 6E000000 		.4byte	.LVL81
 5654 19fe 322D0000 		.4byte	0x2d32
 5655 1a02 0D1A0000 		.4byte	0x1a0d
 5656 1a06 33       		.uleb128 0x33
 5657 1a07 01       		.uleb128 0x1
 5658 1a08 50       		.byte	0x50
 5659 1a09 02       		.uleb128 0x2
 5660 1a0a 77       		.byte	0x77
 5661 1a0b 00       		.sleb128 0
 5662 1a0c 00       		.byte	0
 5663 1a0d 32       		.uleb128 0x32
 5664 1a0e 80000000 		.4byte	.LVL82
 5665 1a12 BB2C0000 		.4byte	0x2cbb
 5666 1a16 211A0000 		.4byte	0x1a21
 5667 1a1a 33       		.uleb128 0x33
 5668 1a1b 01       		.uleb128 0x1
 5669 1a1c 51       		.byte	0x51
 5670 1a1d 02       		.uleb128 0x2
 5671 1a1e 74       		.byte	0x74
 5672 1a1f 00       		.sleb128 0
 5673 1a20 00       		.byte	0
 5674 1a21 34       		.uleb128 0x34
 5675 1a22 8A000000 		.4byte	.LVL84
 5676 1a26 BB2C0000 		.4byte	0x2cbb
 5677 1a2a 32       		.uleb128 0x32
 5678 1a2b 96000000 		.4byte	.LVL87
 5679 1a2f 3D2D0000 		.4byte	0x2d3d
 5680 1a33 3E1A0000 		.4byte	0x1a3e
 5681 1a37 33       		.uleb128 0x33
 5682 1a38 01       		.uleb128 0x1
 5683 1a39 51       		.byte	0x51
 5684 1a3a 02       		.uleb128 0x2
 5685 1a3b 74       		.byte	0x74
 5686 1a3c 00       		.sleb128 0
 5687 1a3d 00       		.byte	0
 5688 1a3e 32       		.uleb128 0x32
 5689 1a3f A0000000 		.4byte	.LVL90
 5690 1a43 EB2C0000 		.4byte	0x2ceb
 5691 1a47 571A0000 		.4byte	0x1a57
 5692 1a4b 33       		.uleb128 0x33
 5693 1a4c 01       		.uleb128 0x1
 5694 1a4d 50       		.byte	0x50
 5695 1a4e 02       		.uleb128 0x2
 5696 1a4f 74       		.byte	0x74
 5697 1a50 00       		.sleb128 0
 5698 1a51 33       		.uleb128 0x33
 5699 1a52 01       		.uleb128 0x1
 5700 1a53 51       		.byte	0x51
 5701 1a54 01       		.uleb128 0x1
 5702 1a55 30       		.byte	0x30
 5703 1a56 00       		.byte	0
 5704 1a57 32       		.uleb128 0x32
ARM GAS  C:\Users\pearlstl\AppData\Local\Temp\ccI2fBBa.s 			page 125


 5705 1a58 A8000000 		.4byte	.LVL91
 5706 1a5c 482D0000 		.4byte	0x2d48
 5707 1a60 6B1A0000 		.4byte	0x1a6b
 5708 1a64 33       		.uleb128 0x33
 5709 1a65 01       		.uleb128 0x1
 5710 1a66 50       		.byte	0x50
 5711 1a67 02       		.uleb128 0x2
 5712 1a68 76       		.byte	0x76
 5713 1a69 00       		.sleb128 0
 5714 1a6a 00       		.byte	0
 5715 1a6b 32       		.uleb128 0x32
 5716 1a6c B2000000 		.4byte	.LVL92
 5717 1a70 BB2C0000 		.4byte	0x2cbb
 5718 1a74 7F1A0000 		.4byte	0x1a7f
 5719 1a78 33       		.uleb128 0x33
 5720 1a79 01       		.uleb128 0x1
 5721 1a7a 51       		.byte	0x51
 5722 1a7b 02       		.uleb128 0x2
 5723 1a7c 74       		.byte	0x74
 5724 1a7d 00       		.sleb128 0
 5725 1a7e 00       		.byte	0
 5726 1a7f 35       		.uleb128 0x35
 5727 1a80 C0000000 		.4byte	.LVL95
 5728 1a84 532D0000 		.4byte	0x2d53
 5729 1a88 33       		.uleb128 0x33
 5730 1a89 01       		.uleb128 0x1
 5731 1a8a 50       		.byte	0x50
 5732 1a8b 02       		.uleb128 0x2
 5733 1a8c 77       		.byte	0x77
 5734 1a8d 00       		.sleb128 0
 5735 1a8e 33       		.uleb128 0x33
 5736 1a8f 01       		.uleb128 0x1
 5737 1a90 51       		.byte	0x51
 5738 1a91 05       		.uleb128 0x5
 5739 1a92 03       		.byte	0x3
 5740 1a93 00000000 		.4byte	lv_win_signal
 5741 1a97 00       		.byte	0
 5742 1a98 00       		.byte	0
 5743 1a99 39       		.uleb128 0x39
 5744 1a9a 58000000 		.4byte	.Ldebug_ranges0+0x58
 5745 1a9e 8F200000 		.4byte	0x208f
 5746 1aa2 44       		.uleb128 0x44
 5747 1aa3 7700     		.ascii	"w\000"
 5748 1aa5 01       		.byte	0x1
 5749 1aa6 4E       		.byte	0x4e
 5750 1aa7 D9000000 		.4byte	0xd9
 5751 1aab 8C050000 		.4byte	.LLST32
 5752 1aaf 44       		.uleb128 0x44
 5753 1ab0 6800     		.ascii	"h\000"
 5754 1ab2 01       		.byte	0x1
 5755 1ab3 4F       		.byte	0x4f
 5756 1ab4 D9000000 		.4byte	0xd9
 5757 1ab8 B5050000 		.4byte	.LLST33
 5758 1abc 44       		.uleb128 0x44
 5759 1abd 746800   		.ascii	"th\000"
 5760 1ac0 01       		.byte	0x1
 5761 1ac1 6E       		.byte	0x6e
ARM GAS  C:\Users\pearlstl\AppData\Local\Temp\ccI2fBBa.s 			page 126


 5762 1ac2 F4200000 		.4byte	0x20f4
 5763 1ac6 D3050000 		.4byte	.LLST34
 5764 1aca 45       		.uleb128 0x45
 5765 1acb ED180000 		.4byte	0x18ed
 5766 1acf 62010000 		.4byte	.LBB75
 5767 1ad3 14000000 		.4byte	.LBE75-.LBB75
 5768 1ad7 01       		.byte	0x1
 5769 1ad8 70       		.byte	0x70
 5770 1ad9 461B0000 		.4byte	0x1b46
 5771 1add 2F       		.uleb128 0x2f
 5772 1ade 12190000 		.4byte	0x1912
 5773 1ae2 07060000 		.4byte	.LLST35
 5774 1ae6 2F       		.uleb128 0x2f
 5775 1ae7 06190000 		.4byte	0x1906
 5776 1aeb 1A060000 		.4byte	.LLST36
 5777 1aef 2F       		.uleb128 0x2f
 5778 1af0 FA180000 		.4byte	0x18fa
 5779 1af4 2E060000 		.4byte	.LLST37
 5780 1af8 30       		.uleb128 0x30
 5781 1af9 62010000 		.4byte	.LBB76
 5782 1afd 14000000 		.4byte	.LBE76-.LBB76
 5783 1b01 46       		.uleb128 0x46
 5784 1b02 1E190000 		.4byte	0x191e
 5785 1b06 32       		.uleb128 0x32
 5786 1b07 68010000 		.4byte	.LVL122
 5787 1b0b 8B2C0000 		.4byte	0x2c8b
 5788 1b0f 1A1B0000 		.4byte	0x1b1a
 5789 1b13 33       		.uleb128 0x33
 5790 1b14 01       		.uleb128 0x1
 5791 1b15 50       		.byte	0x50
 5792 1b16 02       		.uleb128 0x2
 5793 1b17 77       		.byte	0x77
 5794 1b18 00       		.sleb128 0
 5795 1b19 00       		.byte	0
 5796 1b1a 32       		.uleb128 0x32
 5797 1b1b 70010000 		.4byte	.LVL123
 5798 1b1f 5F2D0000 		.4byte	0x2d5f
 5799 1b23 341B0000 		.4byte	0x1b34
 5800 1b27 33       		.uleb128 0x33
 5801 1b28 01       		.uleb128 0x1
 5802 1b29 50       		.byte	0x50
 5803 1b2a 02       		.uleb128 0x2
 5804 1b2b 77       		.byte	0x77
 5805 1b2c 00       		.sleb128 0
 5806 1b2d 33       		.uleb128 0x33
 5807 1b2e 01       		.uleb128 0x1
 5808 1b2f 51       		.byte	0x51
 5809 1b30 02       		.uleb128 0x2
 5810 1b31 74       		.byte	0x74
 5811 1b32 00       		.sleb128 0
 5812 1b33 00       		.byte	0
 5813 1b34 35       		.uleb128 0x35
 5814 1b35 76010000 		.4byte	.LVL124
 5815 1b39 31140000 		.4byte	0x1431
 5816 1b3d 33       		.uleb128 0x33
 5817 1b3e 01       		.uleb128 0x1
 5818 1b3f 50       		.byte	0x50
ARM GAS  C:\Users\pearlstl\AppData\Local\Temp\ccI2fBBa.s 			page 127


 5819 1b40 02       		.uleb128 0x2
 5820 1b41 77       		.byte	0x77
 5821 1b42 00       		.sleb128 0
 5822 1b43 00       		.byte	0
 5823 1b44 00       		.byte	0
 5824 1b45 00       		.byte	0
 5825 1b46 47       		.uleb128 0x47
 5826 1b47 ED180000 		.4byte	0x18ed
 5827 1b4b 76010000 		.4byte	.LBB77
 5828 1b4f 70000000 		.4byte	.Ldebug_ranges0+0x70
 5829 1b53 01       		.byte	0x1
 5830 1b54 71       		.byte	0x71
 5831 1b55 AD1B0000 		.4byte	0x1bad
 5832 1b59 2F       		.uleb128 0x2f
 5833 1b5a 12190000 		.4byte	0x1912
 5834 1b5e 41060000 		.4byte	.LLST38
 5835 1b62 2F       		.uleb128 0x2f
 5836 1b63 06190000 		.4byte	0x1906
 5837 1b67 54060000 		.4byte	.LLST39
 5838 1b6b 2F       		.uleb128 0x2f
 5839 1b6c FA180000 		.4byte	0x18fa
 5840 1b70 68060000 		.4byte	.LLST40
 5841 1b74 48       		.uleb128 0x48
 5842 1b75 70000000 		.4byte	.Ldebug_ranges0+0x70
 5843 1b79 31       		.uleb128 0x31
 5844 1b7a 1E190000 		.4byte	0x191e
 5845 1b7e 7B060000 		.4byte	.LLST41
 5846 1b82 32       		.uleb128 0x32
 5847 1b83 80010000 		.4byte	.LVL126
 5848 1b87 8B2C0000 		.4byte	0x2c8b
 5849 1b8b 961B0000 		.4byte	0x1b96
 5850 1b8f 33       		.uleb128 0x33
 5851 1b90 01       		.uleb128 0x1
 5852 1b91 50       		.byte	0x50
 5853 1b92 02       		.uleb128 0x2
 5854 1b93 77       		.byte	0x77
 5855 1b94 00       		.sleb128 0
 5856 1b95 00       		.byte	0
 5857 1b96 35       		.uleb128 0x35
 5858 1b97 8A010000 		.4byte	.LVL128
 5859 1b9b 6B2D0000 		.4byte	0x2d6b
 5860 1b9f 33       		.uleb128 0x33
 5861 1ba0 01       		.uleb128 0x1
 5862 1ba1 51       		.byte	0x51
 5863 1ba2 01       		.uleb128 0x1
 5864 1ba3 32       		.byte	0x32
 5865 1ba4 33       		.uleb128 0x33
 5866 1ba5 01       		.uleb128 0x1
 5867 1ba6 52       		.byte	0x52
 5868 1ba7 02       		.uleb128 0x2
 5869 1ba8 74       		.byte	0x74
 5870 1ba9 00       		.sleb128 0
 5871 1baa 00       		.byte	0
 5872 1bab 00       		.byte	0
 5873 1bac 00       		.byte	0
 5874 1bad 47       		.uleb128 0x47
 5875 1bae ED180000 		.4byte	0x18ed
ARM GAS  C:\Users\pearlstl\AppData\Local\Temp\ccI2fBBa.s 			page 128


 5876 1bb2 8A010000 		.4byte	.LBB81
 5877 1bb6 88000000 		.4byte	.Ldebug_ranges0+0x88
 5878 1bba 01       		.byte	0x1
 5879 1bbb 72       		.byte	0x72
 5880 1bbc 231C0000 		.4byte	0x1c23
 5881 1bc0 2F       		.uleb128 0x2f
 5882 1bc1 12190000 		.4byte	0x1912
 5883 1bc5 8E060000 		.4byte	.LLST42
 5884 1bc9 2F       		.uleb128 0x2f
 5885 1bca 06190000 		.4byte	0x1906
 5886 1bce A1060000 		.4byte	.LLST43
 5887 1bd2 2F       		.uleb128 0x2f
 5888 1bd3 FA180000 		.4byte	0x18fa
 5889 1bd7 B5060000 		.4byte	.LLST44
 5890 1bdb 48       		.uleb128 0x48
 5891 1bdc 88000000 		.4byte	.Ldebug_ranges0+0x88
 5892 1be0 31       		.uleb128 0x31
 5893 1be1 1E190000 		.4byte	0x191e
 5894 1be5 C8060000 		.4byte	.LLST45
 5895 1be9 32       		.uleb128 0x32
 5896 1bea 94010000 		.4byte	.LVL130
 5897 1bee 8B2C0000 		.4byte	0x2c8b
 5898 1bf2 FD1B0000 		.4byte	0x1bfd
 5899 1bf6 33       		.uleb128 0x33
 5900 1bf7 01       		.uleb128 0x1
 5901 1bf8 50       		.byte	0x50
 5902 1bf9 02       		.uleb128 0x2
 5903 1bfa 77       		.byte	0x77
 5904 1bfb 00       		.sleb128 0
 5905 1bfc 00       		.byte	0
 5906 1bfd 32       		.uleb128 0x32
 5907 1bfe 9C010000 		.4byte	.LVL132
 5908 1c02 5F2D0000 		.4byte	0x2d5f
 5909 1c06 111C0000 		.4byte	0x1c11
 5910 1c0a 33       		.uleb128 0x33
 5911 1c0b 01       		.uleb128 0x1
 5912 1c0c 51       		.byte	0x51
 5913 1c0d 02       		.uleb128 0x2
 5914 1c0e 74       		.byte	0x74
 5915 1c0f 00       		.sleb128 0
 5916 1c10 00       		.byte	0
 5917 1c11 35       		.uleb128 0x35
 5918 1c12 A2010000 		.4byte	.LVL133
 5919 1c16 31140000 		.4byte	0x1431
 5920 1c1a 33       		.uleb128 0x33
 5921 1c1b 01       		.uleb128 0x1
 5922 1c1c 50       		.byte	0x50
 5923 1c1d 02       		.uleb128 0x2
 5924 1c1e 77       		.byte	0x77
 5925 1c1f 00       		.sleb128 0
 5926 1c20 00       		.byte	0
 5927 1c21 00       		.byte	0
 5928 1c22 00       		.byte	0
 5929 1c23 47       		.uleb128 0x47
 5930 1c24 ED180000 		.4byte	0x18ed
 5931 1c28 A2010000 		.4byte	.LBB85
 5932 1c2c A0000000 		.4byte	.Ldebug_ranges0+0xa0
ARM GAS  C:\Users\pearlstl\AppData\Local\Temp\ccI2fBBa.s 			page 129


 5933 1c30 01       		.byte	0x1
 5934 1c31 73       		.byte	0x73
 5935 1c32 8A1C0000 		.4byte	0x1c8a
 5936 1c36 2F       		.uleb128 0x2f
 5937 1c37 12190000 		.4byte	0x1912
 5938 1c3b DB060000 		.4byte	.LLST46
 5939 1c3f 2F       		.uleb128 0x2f
 5940 1c40 06190000 		.4byte	0x1906
 5941 1c44 EE060000 		.4byte	.LLST47
 5942 1c48 2F       		.uleb128 0x2f
 5943 1c49 FA180000 		.4byte	0x18fa
 5944 1c4d 02070000 		.4byte	.LLST48
 5945 1c51 48       		.uleb128 0x48
 5946 1c52 A0000000 		.4byte	.Ldebug_ranges0+0xa0
 5947 1c56 31       		.uleb128 0x31
 5948 1c57 1E190000 		.4byte	0x191e
 5949 1c5b 15070000 		.4byte	.LLST49
 5950 1c5f 32       		.uleb128 0x32
 5951 1c60 AC010000 		.4byte	.LVL135
 5952 1c64 8B2C0000 		.4byte	0x2c8b
 5953 1c68 731C0000 		.4byte	0x1c73
 5954 1c6c 33       		.uleb128 0x33
 5955 1c6d 01       		.uleb128 0x1
 5956 1c6e 50       		.byte	0x50
 5957 1c6f 02       		.uleb128 0x2
 5958 1c70 77       		.byte	0x77
 5959 1c71 00       		.sleb128 0
 5960 1c72 00       		.byte	0
 5961 1c73 35       		.uleb128 0x35
 5962 1c74 B6010000 		.4byte	.LVL137
 5963 1c78 6B2D0000 		.4byte	0x2d6b
 5964 1c7c 33       		.uleb128 0x33
 5965 1c7d 01       		.uleb128 0x1
 5966 1c7e 51       		.byte	0x51
 5967 1c7f 01       		.uleb128 0x1
 5968 1c80 31       		.byte	0x31
 5969 1c81 33       		.uleb128 0x33
 5970 1c82 01       		.uleb128 0x1
 5971 1c83 52       		.byte	0x52
 5972 1c84 02       		.uleb128 0x2
 5973 1c85 74       		.byte	0x74
 5974 1c86 00       		.sleb128 0
 5975 1c87 00       		.byte	0
 5976 1c88 00       		.byte	0
 5977 1c89 00       		.byte	0
 5978 1c8a 47       		.uleb128 0x47
 5979 1c8b ED180000 		.4byte	0x18ed
 5980 1c8f B6010000 		.4byte	.LBB89
 5981 1c93 B8000000 		.4byte	.Ldebug_ranges0+0xb8
 5982 1c97 01       		.byte	0x1
 5983 1c98 74       		.byte	0x74
 5984 1c99 361D0000 		.4byte	0x1d36
 5985 1c9d 2F       		.uleb128 0x2f
 5986 1c9e 12190000 		.4byte	0x1912
 5987 1ca2 28070000 		.4byte	.LLST50
 5988 1ca6 2F       		.uleb128 0x2f
 5989 1ca7 06190000 		.4byte	0x1906
ARM GAS  C:\Users\pearlstl\AppData\Local\Temp\ccI2fBBa.s 			page 130


 5990 1cab 3B070000 		.4byte	.LLST51
 5991 1caf 2F       		.uleb128 0x2f
 5992 1cb0 FA180000 		.4byte	0x18fa
 5993 1cb4 4F070000 		.4byte	.LLST52
 5994 1cb8 48       		.uleb128 0x48
 5995 1cb9 B8000000 		.4byte	.Ldebug_ranges0+0xb8
 5996 1cbd 31       		.uleb128 0x31
 5997 1cbe 1E190000 		.4byte	0x191e
 5998 1cc2 62070000 		.4byte	.LLST53
 5999 1cc6 39       		.uleb128 0x39
 6000 1cc7 D0000000 		.4byte	.Ldebug_ranges0+0xd0
 6001 1ccb 241D0000 		.4byte	0x1d24
 6002 1ccf 31       		.uleb128 0x31
 6003 1cd0 2B190000 		.4byte	0x192b
 6004 1cd4 80070000 		.4byte	.LLST54
 6005 1cd8 32       		.uleb128 0x32
 6006 1cd9 CE010000 		.4byte	.LVL142
 6007 1cdd BB2C0000 		.4byte	0x2cbb
 6008 1ce1 EB1C0000 		.4byte	0x1ceb
 6009 1ce5 33       		.uleb128 0x33
 6010 1ce6 01       		.uleb128 0x1
 6011 1ce7 51       		.byte	0x51
 6012 1ce8 01       		.uleb128 0x1
 6013 1ce9 30       		.byte	0x30
 6014 1cea 00       		.byte	0
 6015 1ceb 34       		.uleb128 0x34
 6016 1cec D6010000 		.4byte	.LVL144
 6017 1cf0 BB2C0000 		.4byte	0x2cbb
 6018 1cf4 32       		.uleb128 0x32
 6019 1cf5 E4010000 		.4byte	.LVL145
 6020 1cf9 762D0000 		.4byte	0x2d76
 6021 1cfd 131D0000 		.4byte	0x1d13
 6022 1d01 33       		.uleb128 0x33
 6023 1d02 01       		.uleb128 0x1
 6024 1d03 50       		.byte	0x50
 6025 1d04 02       		.uleb128 0x2
 6026 1d05 74       		.byte	0x74
 6027 1d06 00       		.sleb128 0
 6028 1d07 33       		.uleb128 0x33
 6029 1d08 01       		.uleb128 0x1
 6030 1d09 51       		.byte	0x51
 6031 1d0a 01       		.uleb128 0x1
 6032 1d0b 30       		.byte	0x30
 6033 1d0c 33       		.uleb128 0x33
 6034 1d0d 01       		.uleb128 0x1
 6035 1d0e 52       		.byte	0x52
 6036 1d0f 02       		.uleb128 0x2
 6037 1d10 78       		.byte	0x78
 6038 1d11 00       		.sleb128 0
 6039 1d12 00       		.byte	0
 6040 1d13 35       		.uleb128 0x35
 6041 1d14 EC010000 		.4byte	.LVL146
 6042 1d18 BB2C0000 		.4byte	0x2cbb
 6043 1d1c 33       		.uleb128 0x33
 6044 1d1d 01       		.uleb128 0x1
 6045 1d1e 51       		.byte	0x51
 6046 1d1f 02       		.uleb128 0x2
ARM GAS  C:\Users\pearlstl\AppData\Local\Temp\ccI2fBBa.s 			page 131


 6047 1d20 74       		.byte	0x74
 6048 1d21 00       		.sleb128 0
 6049 1d22 00       		.byte	0
 6050 1d23 00       		.byte	0
 6051 1d24 35       		.uleb128 0x35
 6052 1d25 C0010000 		.4byte	.LVL139
 6053 1d29 8B2C0000 		.4byte	0x2c8b
 6054 1d2d 33       		.uleb128 0x33
 6055 1d2e 01       		.uleb128 0x1
 6056 1d2f 50       		.byte	0x50
 6057 1d30 02       		.uleb128 0x2
 6058 1d31 77       		.byte	0x77
 6059 1d32 00       		.sleb128 0
 6060 1d33 00       		.byte	0
 6061 1d34 00       		.byte	0
 6062 1d35 00       		.byte	0
 6063 1d36 47       		.uleb128 0x47
 6064 1d37 ED180000 		.4byte	0x18ed
 6065 1d3b F2010000 		.4byte	.LBB95
 6066 1d3f E8000000 		.4byte	.Ldebug_ranges0+0xe8
 6067 1d43 01       		.byte	0x1
 6068 1d44 75       		.byte	0x75
 6069 1d45 E21D0000 		.4byte	0x1de2
 6070 1d49 2F       		.uleb128 0x2f
 6071 1d4a 12190000 		.4byte	0x1912
 6072 1d4e BF070000 		.4byte	.LLST55
 6073 1d52 2F       		.uleb128 0x2f
 6074 1d53 06190000 		.4byte	0x1906
 6075 1d57 D2070000 		.4byte	.LLST56
 6076 1d5b 2F       		.uleb128 0x2f
 6077 1d5c FA180000 		.4byte	0x18fa
 6078 1d60 E6070000 		.4byte	.LLST57
 6079 1d64 48       		.uleb128 0x48
 6080 1d65 E8000000 		.4byte	.Ldebug_ranges0+0xe8
 6081 1d69 31       		.uleb128 0x31
 6082 1d6a 1E190000 		.4byte	0x191e
 6083 1d6e 04080000 		.4byte	.LLST58
 6084 1d72 39       		.uleb128 0x39
 6085 1d73 00010000 		.4byte	.Ldebug_ranges0+0x100
 6086 1d77 D01D0000 		.4byte	0x1dd0
 6087 1d7b 31       		.uleb128 0x31
 6088 1d7c 2B190000 		.4byte	0x192b
 6089 1d80 22080000 		.4byte	.LLST59
 6090 1d84 32       		.uleb128 0x32
 6091 1d85 08020000 		.4byte	.LVL152
 6092 1d89 BB2C0000 		.4byte	0x2cbb
 6093 1d8d 971D0000 		.4byte	0x1d97
 6094 1d91 33       		.uleb128 0x33
 6095 1d92 01       		.uleb128 0x1
 6096 1d93 51       		.byte	0x51
 6097 1d94 01       		.uleb128 0x1
 6098 1d95 30       		.byte	0x30
 6099 1d96 00       		.byte	0
 6100 1d97 34       		.uleb128 0x34
 6101 1d98 10020000 		.4byte	.LVL154
 6102 1d9c BB2C0000 		.4byte	0x2cbb
 6103 1da0 32       		.uleb128 0x32
ARM GAS  C:\Users\pearlstl\AppData\Local\Temp\ccI2fBBa.s 			page 132


 6104 1da1 22020000 		.4byte	.LVL155
 6105 1da5 762D0000 		.4byte	0x2d76
 6106 1da9 BF1D0000 		.4byte	0x1dbf
 6107 1dad 33       		.uleb128 0x33
 6108 1dae 01       		.uleb128 0x1
 6109 1daf 50       		.byte	0x50
 6110 1db0 02       		.uleb128 0x2
 6111 1db1 74       		.byte	0x74
 6112 1db2 00       		.sleb128 0
 6113 1db3 33       		.uleb128 0x33
 6114 1db4 01       		.uleb128 0x1
 6115 1db5 51       		.byte	0x51
 6116 1db6 01       		.uleb128 0x1
 6117 1db7 31       		.byte	0x31
 6118 1db8 33       		.uleb128 0x33
 6119 1db9 01       		.uleb128 0x1
 6120 1dba 52       		.byte	0x52
 6121 1dbb 02       		.uleb128 0x2
 6122 1dbc 76       		.byte	0x76
 6123 1dbd 00       		.sleb128 0
 6124 1dbe 00       		.byte	0
 6125 1dbf 35       		.uleb128 0x35
 6126 1dc0 2A020000 		.4byte	.LVL156
 6127 1dc4 BB2C0000 		.4byte	0x2cbb
 6128 1dc8 33       		.uleb128 0x33
 6129 1dc9 01       		.uleb128 0x1
 6130 1dca 51       		.byte	0x51
 6131 1dcb 02       		.uleb128 0x2
 6132 1dcc 74       		.byte	0x74
 6133 1dcd 00       		.sleb128 0
 6134 1dce 00       		.byte	0
 6135 1dcf 00       		.byte	0
 6136 1dd0 35       		.uleb128 0x35
 6137 1dd1 FC010000 		.4byte	.LVL149
 6138 1dd5 8B2C0000 		.4byte	0x2c8b
 6139 1dd9 33       		.uleb128 0x33
 6140 1dda 01       		.uleb128 0x1
 6141 1ddb 50       		.byte	0x50
 6142 1ddc 02       		.uleb128 0x2
 6143 1ddd 77       		.byte	0x77
 6144 1dde 00       		.sleb128 0
 6145 1ddf 00       		.byte	0
 6146 1de0 00       		.byte	0
 6147 1de1 00       		.byte	0
 6148 1de2 45       		.uleb128 0x45
 6149 1de3 ED180000 		.4byte	0x18ed
 6150 1de7 3A020000 		.4byte	.LBB101
 6151 1deb 14000000 		.4byte	.LBE101-.LBB101
 6152 1def 01       		.byte	0x1
 6153 1df0 77       		.byte	0x77
 6154 1df1 541E0000 		.4byte	0x1e54
 6155 1df5 49       		.uleb128 0x49
 6156 1df6 12190000 		.4byte	0x1912
 6157 1dfa 2F       		.uleb128 0x2f
 6158 1dfb 06190000 		.4byte	0x1906
 6159 1dff 61080000 		.4byte	.LLST60
 6160 1e03 2F       		.uleb128 0x2f
ARM GAS  C:\Users\pearlstl\AppData\Local\Temp\ccI2fBBa.s 			page 133


 6161 1e04 FA180000 		.4byte	0x18fa
 6162 1e08 75080000 		.4byte	.LLST61
 6163 1e0c 30       		.uleb128 0x30
 6164 1e0d 3A020000 		.4byte	.LBB102
 6165 1e11 14000000 		.4byte	.LBE102-.LBB102
 6166 1e15 46       		.uleb128 0x46
 6167 1e16 1E190000 		.4byte	0x191e
 6168 1e1a 32       		.uleb128 0x32
 6169 1e1b 40020000 		.4byte	.LVL161
 6170 1e1f 8B2C0000 		.4byte	0x2c8b
 6171 1e23 2E1E0000 		.4byte	0x1e2e
 6172 1e27 33       		.uleb128 0x33
 6173 1e28 01       		.uleb128 0x1
 6174 1e29 50       		.byte	0x50
 6175 1e2a 02       		.uleb128 0x2
 6176 1e2b 77       		.byte	0x77
 6177 1e2c 00       		.sleb128 0
 6178 1e2d 00       		.byte	0
 6179 1e2e 32       		.uleb128 0x32
 6180 1e2f 48020000 		.4byte	.LVL162
 6181 1e33 5F2D0000 		.4byte	0x2d5f
 6182 1e37 421E0000 		.4byte	0x1e42
 6183 1e3b 33       		.uleb128 0x33
 6184 1e3c 01       		.uleb128 0x1
 6185 1e3d 50       		.byte	0x50
 6186 1e3e 02       		.uleb128 0x2
 6187 1e3f 77       		.byte	0x77
 6188 1e40 00       		.sleb128 0
 6189 1e41 00       		.byte	0
 6190 1e42 35       		.uleb128 0x35
 6191 1e43 4E020000 		.4byte	.LVL163
 6192 1e47 31140000 		.4byte	0x1431
 6193 1e4b 33       		.uleb128 0x33
 6194 1e4c 01       		.uleb128 0x1
 6195 1e4d 50       		.byte	0x50
 6196 1e4e 02       		.uleb128 0x2
 6197 1e4f 77       		.byte	0x77
 6198 1e50 00       		.sleb128 0
 6199 1e51 00       		.byte	0
 6200 1e52 00       		.byte	0
 6201 1e53 00       		.byte	0
 6202 1e54 45       		.uleb128 0x45
 6203 1e55 ED180000 		.4byte	0x18ed
 6204 1e59 4E020000 		.4byte	.LBB103
 6205 1e5d 10000000 		.4byte	.LBE103-.LBB103
 6206 1e61 01       		.byte	0x1
 6207 1e62 78       		.byte	0x78
 6208 1e63 B51E0000 		.4byte	0x1eb5
 6209 1e67 49       		.uleb128 0x49
 6210 1e68 12190000 		.4byte	0x1912
 6211 1e6c 2F       		.uleb128 0x2f
 6212 1e6d 06190000 		.4byte	0x1906
 6213 1e71 88080000 		.4byte	.LLST62
 6214 1e75 2F       		.uleb128 0x2f
 6215 1e76 FA180000 		.4byte	0x18fa
 6216 1e7a 9C080000 		.4byte	.LLST63
 6217 1e7e 30       		.uleb128 0x30
ARM GAS  C:\Users\pearlstl\AppData\Local\Temp\ccI2fBBa.s 			page 134


 6218 1e7f 4E020000 		.4byte	.LBB104
 6219 1e83 10000000 		.4byte	.LBE104-.LBB104
 6220 1e87 31       		.uleb128 0x31
 6221 1e88 1E190000 		.4byte	0x191e
 6222 1e8c AF080000 		.4byte	.LLST64
 6223 1e90 32       		.uleb128 0x32
 6224 1e91 54020000 		.4byte	.LVL164
 6225 1e95 8B2C0000 		.4byte	0x2c8b
 6226 1e99 A41E0000 		.4byte	0x1ea4
 6227 1e9d 33       		.uleb128 0x33
 6228 1e9e 01       		.uleb128 0x1
 6229 1e9f 50       		.byte	0x50
 6230 1ea0 02       		.uleb128 0x2
 6231 1ea1 77       		.byte	0x77
 6232 1ea2 00       		.sleb128 0
 6233 1ea3 00       		.byte	0
 6234 1ea4 35       		.uleb128 0x35
 6235 1ea5 5E020000 		.4byte	.LVL166
 6236 1ea9 6B2D0000 		.4byte	0x2d6b
 6237 1ead 33       		.uleb128 0x33
 6238 1eae 01       		.uleb128 0x1
 6239 1eaf 51       		.byte	0x51
 6240 1eb0 01       		.uleb128 0x1
 6241 1eb1 31       		.byte	0x31
 6242 1eb2 00       		.byte	0
 6243 1eb3 00       		.byte	0
 6244 1eb4 00       		.byte	0
 6245 1eb5 45       		.uleb128 0x45
 6246 1eb6 ED180000 		.4byte	0x18ed
 6247 1eba 5E020000 		.4byte	.LBB105
 6248 1ebe 16000000 		.4byte	.LBE105-.LBB105
 6249 1ec2 01       		.byte	0x1
 6250 1ec3 79       		.byte	0x79
 6251 1ec4 201F0000 		.4byte	0x1f20
 6252 1ec8 49       		.uleb128 0x49
 6253 1ec9 12190000 		.4byte	0x1912
 6254 1ecd 2F       		.uleb128 0x2f
 6255 1ece 06190000 		.4byte	0x1906
 6256 1ed2 C2080000 		.4byte	.LLST65
 6257 1ed6 2F       		.uleb128 0x2f
 6258 1ed7 FA180000 		.4byte	0x18fa
 6259 1edb D6080000 		.4byte	.LLST66
 6260 1edf 30       		.uleb128 0x30
 6261 1ee0 5E020000 		.4byte	.LBB106
 6262 1ee4 16000000 		.4byte	.LBE106-.LBB106
 6263 1ee8 31       		.uleb128 0x31
 6264 1ee9 1E190000 		.4byte	0x191e
 6265 1eed E9080000 		.4byte	.LLST67
 6266 1ef1 32       		.uleb128 0x32
 6267 1ef2 64020000 		.4byte	.LVL167
 6268 1ef6 8B2C0000 		.4byte	0x2c8b
 6269 1efa 051F0000 		.4byte	0x1f05
 6270 1efe 33       		.uleb128 0x33
 6271 1eff 01       		.uleb128 0x1
 6272 1f00 50       		.byte	0x50
 6273 1f01 02       		.uleb128 0x2
 6274 1f02 77       		.byte	0x77
ARM GAS  C:\Users\pearlstl\AppData\Local\Temp\ccI2fBBa.s 			page 135


 6275 1f03 00       		.sleb128 0
 6276 1f04 00       		.byte	0
 6277 1f05 34       		.uleb128 0x34
 6278 1f06 6C020000 		.4byte	.LVL169
 6279 1f0a 5F2D0000 		.4byte	0x2d5f
 6280 1f0e 35       		.uleb128 0x35
 6281 1f0f 72020000 		.4byte	.LVL170
 6282 1f13 31140000 		.4byte	0x1431
 6283 1f17 33       		.uleb128 0x33
 6284 1f18 01       		.uleb128 0x1
 6285 1f19 50       		.byte	0x50
 6286 1f1a 02       		.uleb128 0x2
 6287 1f1b 77       		.byte	0x77
 6288 1f1c 00       		.sleb128 0
 6289 1f1d 00       		.byte	0
 6290 1f1e 00       		.byte	0
 6291 1f1f 00       		.byte	0
 6292 1f20 32       		.uleb128 0x32
 6293 1f21 E0000000 		.4byte	.LVL100
 6294 1f25 812D0000 		.4byte	0x2d81
 6295 1f29 341F0000 		.4byte	0x1f34
 6296 1f2d 33       		.uleb128 0x33
 6297 1f2e 01       		.uleb128 0x1
 6298 1f2f 50       		.byte	0x50
 6299 1f30 02       		.uleb128 0x2
 6300 1f31 77       		.byte	0x77
 6301 1f32 00       		.sleb128 0
 6302 1f33 00       		.byte	0
 6303 1f34 34       		.uleb128 0x34
 6304 1f35 E4000000 		.4byte	.LVL101
 6305 1f39 8D2D0000 		.4byte	0x2d8d
 6306 1f3d 32       		.uleb128 0x32
 6307 1f3e EC000000 		.4byte	.LVL103
 6308 1f42 812D0000 		.4byte	0x2d81
 6309 1f46 511F0000 		.4byte	0x1f51
 6310 1f4a 33       		.uleb128 0x33
 6311 1f4b 01       		.uleb128 0x1
 6312 1f4c 50       		.byte	0x50
 6313 1f4d 02       		.uleb128 0x2
 6314 1f4e 77       		.byte	0x77
 6315 1f4f 00       		.sleb128 0
 6316 1f50 00       		.byte	0
 6317 1f51 34       		.uleb128 0x34
 6318 1f52 F0000000 		.4byte	.LVL104
 6319 1f56 992D0000 		.4byte	0x2d99
 6320 1f5a 32       		.uleb128 0x32
 6321 1f5b FA000000 		.4byte	.LVL106
 6322 1f5f AF2C0000 		.4byte	0x2caf
 6323 1f63 741F0000 		.4byte	0x1f74
 6324 1f67 33       		.uleb128 0x33
 6325 1f68 01       		.uleb128 0x1
 6326 1f69 50       		.byte	0x50
 6327 1f6a 02       		.uleb128 0x2
 6328 1f6b 77       		.byte	0x77
 6329 1f6c 00       		.sleb128 0
 6330 1f6d 33       		.uleb128 0x33
 6331 1f6e 01       		.uleb128 0x1
ARM GAS  C:\Users\pearlstl\AppData\Local\Temp\ccI2fBBa.s 			page 136


 6332 1f6f 51       		.byte	0x51
 6333 1f70 02       		.uleb128 0x2
 6334 1f71 74       		.byte	0x74
 6335 1f72 00       		.sleb128 0
 6336 1f73 00       		.byte	0
 6337 1f74 32       		.uleb128 0x32
 6338 1f75 02010000 		.4byte	.LVL107
 6339 1f79 5F2D0000 		.4byte	0x2d5f
 6340 1f7d 881F0000 		.4byte	0x1f88
 6341 1f81 33       		.uleb128 0x33
 6342 1f82 01       		.uleb128 0x1
 6343 1f83 50       		.byte	0x50
 6344 1f84 02       		.uleb128 0x2
 6345 1f85 77       		.byte	0x77
 6346 1f86 00       		.sleb128 0
 6347 1f87 00       		.byte	0
 6348 1f88 32       		.uleb128 0x32
 6349 1f89 0A010000 		.4byte	.LVL108
 6350 1f8d 322D0000 		.4byte	0x2d32
 6351 1f91 A11F0000 		.4byte	0x1fa1
 6352 1f95 33       		.uleb128 0x33
 6353 1f96 01       		.uleb128 0x1
 6354 1f97 50       		.byte	0x50
 6355 1f98 02       		.uleb128 0x2
 6356 1f99 77       		.byte	0x77
 6357 1f9a 00       		.sleb128 0
 6358 1f9b 33       		.uleb128 0x33
 6359 1f9c 01       		.uleb128 0x1
 6360 1f9d 51       		.byte	0x51
 6361 1f9e 01       		.uleb128 0x1
 6362 1f9f 30       		.byte	0x30
 6363 1fa0 00       		.byte	0
 6364 1fa1 32       		.uleb128 0x32
 6365 1fa2 12010000 		.4byte	.LVL109
 6366 1fa6 A52D0000 		.4byte	0x2da5
 6367 1faa B41F0000 		.4byte	0x1fb4
 6368 1fae 33       		.uleb128 0x33
 6369 1faf 01       		.uleb128 0x1
 6370 1fb0 51       		.byte	0x51
 6371 1fb1 01       		.uleb128 0x1
 6372 1fb2 32       		.byte	0x32
 6373 1fb3 00       		.byte	0
 6374 1fb4 32       		.uleb128 0x32
 6375 1fb5 1A010000 		.4byte	.LVL110
 6376 1fb9 B12D0000 		.4byte	0x2db1
 6377 1fbd C71F0000 		.4byte	0x1fc7
 6378 1fc1 33       		.uleb128 0x33
 6379 1fc2 01       		.uleb128 0x1
 6380 1fc3 51       		.byte	0x51
 6381 1fc4 01       		.uleb128 0x1
 6382 1fc5 33       		.byte	0x33
 6383 1fc6 00       		.byte	0
 6384 1fc7 32       		.uleb128 0x32
 6385 1fc8 24010000 		.4byte	.LVL111
 6386 1fcc 6B2D0000 		.4byte	0x2d6b
 6387 1fd0 DA1F0000 		.4byte	0x1fda
 6388 1fd4 33       		.uleb128 0x33
ARM GAS  C:\Users\pearlstl\AppData\Local\Temp\ccI2fBBa.s 			page 137


 6389 1fd5 01       		.uleb128 0x1
 6390 1fd6 51       		.byte	0x51
 6391 1fd7 01       		.uleb128 0x1
 6392 1fd8 30       		.byte	0x30
 6393 1fd9 00       		.byte	0
 6394 1fda 32       		.uleb128 0x32
 6395 1fdb 2C010000 		.4byte	.LVL112
 6396 1fdf 1B2D0000 		.4byte	0x2d1b
 6397 1fe3 F31F0000 		.4byte	0x1ff3
 6398 1fe7 33       		.uleb128 0x33
 6399 1fe8 01       		.uleb128 0x1
 6400 1fe9 50       		.byte	0x50
 6401 1fea 02       		.uleb128 0x2
 6402 1feb 77       		.byte	0x77
 6403 1fec 00       		.sleb128 0
 6404 1fed 33       		.uleb128 0x33
 6405 1fee 01       		.uleb128 0x1
 6406 1fef 51       		.byte	0x51
 6407 1ff0 01       		.uleb128 0x1
 6408 1ff1 30       		.byte	0x30
 6409 1ff2 00       		.byte	0
 6410 1ff3 32       		.uleb128 0x32
 6411 1ff4 34010000 		.4byte	.LVL113
 6412 1ff8 A52D0000 		.4byte	0x2da5
 6413 1ffc 06200000 		.4byte	0x2006
 6414 2000 33       		.uleb128 0x33
 6415 2001 01       		.uleb128 0x1
 6416 2002 51       		.byte	0x51
 6417 2003 01       		.uleb128 0x1
 6418 2004 32       		.byte	0x32
 6419 2005 00       		.byte	0
 6420 2006 32       		.uleb128 0x32
 6421 2007 3C010000 		.4byte	.LVL114
 6422 200b F72C0000 		.4byte	0x2cf7
 6423 200f 1A200000 		.4byte	0x201a
 6424 2013 33       		.uleb128 0x33
 6425 2014 01       		.uleb128 0x1
 6426 2015 51       		.byte	0x51
 6427 2016 02       		.uleb128 0x2
 6428 2017 77       		.byte	0x77
 6429 2018 00       		.sleb128 0
 6430 2019 00       		.byte	0
 6431 201a 32       		.uleb128 0x32
 6432 201b 44010000 		.4byte	.LVL115
 6433 201f 272D0000 		.4byte	0x2d27
 6434 2023 2D200000 		.4byte	0x202d
 6435 2027 33       		.uleb128 0x33
 6436 2028 01       		.uleb128 0x1
 6437 2029 51       		.byte	0x51
 6438 202a 01       		.uleb128 0x1
 6439 202b 30       		.byte	0x30
 6440 202c 00       		.byte	0
 6441 202d 32       		.uleb128 0x32
 6442 202e 4C010000 		.4byte	.LVL116
 6443 2032 BC2D0000 		.4byte	0x2dbc
 6444 2036 44200000 		.4byte	0x2044
 6445 203a 33       		.uleb128 0x33
ARM GAS  C:\Users\pearlstl\AppData\Local\Temp\ccI2fBBa.s 			page 138


 6446 203b 01       		.uleb128 0x1
 6447 203c 51       		.byte	0x51
 6448 203d 05       		.uleb128 0x5
 6449 203e 03       		.byte	0x3
 6450 203f 08000000 		.4byte	.LC1
 6451 2043 00       		.byte	0
 6452 2044 32       		.uleb128 0x32
 6453 2045 54010000 		.4byte	.LVL117
 6454 2049 532D0000 		.4byte	0x2d53
 6455 204d 61200000 		.4byte	0x2061
 6456 2051 33       		.uleb128 0x33
 6457 2052 01       		.uleb128 0x1
 6458 2053 50       		.byte	0x50
 6459 2054 02       		.uleb128 0x2
 6460 2055 77       		.byte	0x77
 6461 2056 00       		.sleb128 0
 6462 2057 33       		.uleb128 0x33
 6463 2058 01       		.uleb128 0x1
 6464 2059 51       		.byte	0x51
 6465 205a 05       		.uleb128 0x5
 6466 205b 03       		.byte	0x3
 6467 205c 00000000 		.4byte	lv_win_signal
 6468 2060 00       		.byte	0
 6469 2061 34       		.uleb128 0x34
 6470 2062 58010000 		.4byte	.LVL118
 6471 2066 C72D0000 		.4byte	0x2dc7
 6472 206a 32       		.uleb128 0x32
 6473 206b 7A020000 		.4byte	.LVL173
 6474 206f D32D0000 		.4byte	0x2dd3
 6475 2073 7E200000 		.4byte	0x207e
 6476 2077 33       		.uleb128 0x33
 6477 2078 01       		.uleb128 0x1
 6478 2079 50       		.byte	0x50
 6479 207a 02       		.uleb128 0x2
 6480 207b 78       		.byte	0x78
 6481 207c 00       		.sleb128 0
 6482 207d 00       		.byte	0
 6483 207e 35       		.uleb128 0x35
 6484 207f 82020000 		.4byte	.LVL175
 6485 2083 DE2D0000 		.4byte	0x2dde
 6486 2087 33       		.uleb128 0x33
 6487 2088 01       		.uleb128 0x1
 6488 2089 50       		.byte	0x50
 6489 208a 02       		.uleb128 0x2
 6490 208b 78       		.byte	0x78
 6491 208c 00       		.sleb128 0
 6492 208d 00       		.byte	0
 6493 208e 00       		.byte	0
 6494 208f 32       		.uleb128 0x32
 6495 2090 0C000000 		.4byte	.LVL72
 6496 2094 1B2D0000 		.4byte	0x2d1b
 6497 2098 A9200000 		.4byte	0x20a9
 6498 209c 33       		.uleb128 0x33
 6499 209d 01       		.uleb128 0x1
 6500 209e 50       		.byte	0x50
 6501 209f 02       		.uleb128 0x2
 6502 20a0 78       		.byte	0x78
ARM GAS  C:\Users\pearlstl\AppData\Local\Temp\ccI2fBBa.s 			page 139


 6503 20a1 00       		.sleb128 0
 6504 20a2 33       		.uleb128 0x33
 6505 20a3 01       		.uleb128 0x1
 6506 20a4 51       		.byte	0x51
 6507 20a5 02       		.uleb128 0x2
 6508 20a6 76       		.byte	0x76
 6509 20a7 00       		.sleb128 0
 6510 20a8 00       		.byte	0
 6511 20a9 32       		.uleb128 0x32
 6512 20aa 26000000 		.4byte	.LVL74
 6513 20ae E92D0000 		.4byte	0x2de9
 6514 20b2 C2200000 		.4byte	0x20c2
 6515 20b6 33       		.uleb128 0x33
 6516 20b7 01       		.uleb128 0x1
 6517 20b8 50       		.byte	0x50
 6518 20b9 02       		.uleb128 0x2
 6519 20ba 77       		.byte	0x77
 6520 20bb 00       		.sleb128 0
 6521 20bc 33       		.uleb128 0x33
 6522 20bd 01       		.uleb128 0x1
 6523 20be 51       		.byte	0x51
 6524 20bf 01       		.uleb128 0x1
 6525 20c0 48       		.byte	0x48
 6526 20c1 00       		.byte	0
 6527 20c2 32       		.uleb128 0x32
 6528 20c3 C6000000 		.4byte	.LVL96
 6529 20c7 F52D0000 		.4byte	0x2df5
 6530 20cb D6200000 		.4byte	0x20d6
 6531 20cf 33       		.uleb128 0x33
 6532 20d0 01       		.uleb128 0x1
 6533 20d1 50       		.byte	0x50
 6534 20d2 02       		.uleb128 0x2
 6535 20d3 77       		.byte	0x77
 6536 20d4 00       		.sleb128 0
 6537 20d5 00       		.byte	0
 6538 20d6 32       		.uleb128 0x32
 6539 20d7 CC000000 		.4byte	.LVL97
 6540 20db 31140000 		.4byte	0x1431
 6541 20df EA200000 		.4byte	0x20ea
 6542 20e3 33       		.uleb128 0x33
 6543 20e4 01       		.uleb128 0x1
 6544 20e5 50       		.byte	0x50
 6545 20e6 02       		.uleb128 0x2
 6546 20e7 77       		.byte	0x77
 6547 20e8 00       		.sleb128 0
 6548 20e9 00       		.byte	0
 6549 20ea 34       		.uleb128 0x34
 6550 20eb 36020000 		.4byte	.LVL158
 6551 20ef 012E0000 		.4byte	0x2e01
 6552 20f3 00       		.byte	0
 6553 20f4 0D       		.uleb128 0xd
 6554 20f5 04       		.byte	0x4
 6555 20f6 F9120000 		.4byte	0x12f9
 6556 20fa 4A       		.uleb128 0x4a
 6557 20fb 970E0000 		.4byte	.LASF293
 6558 20ff 01       		.byte	0x1
 6559 2100 A1       		.byte	0xa1
ARM GAS  C:\Users\pearlstl\AppData\Local\Temp\ccI2fBBa.s 			page 140


 6560 2101 00000000 		.4byte	.LFB69
 6561 2105 0E000000 		.4byte	.LFE69-.LFB69
 6562 2109 01       		.uleb128 0x1
 6563 210a 9C       		.byte	0x9c
 6564 210b 4C210000 		.4byte	0x214c
 6565 210f 41       		.uleb128 0x41
 6566 2110 77696E00 		.ascii	"win\000"
 6567 2114 01       		.byte	0x1
 6568 2115 A1       		.byte	0xa1
 6569 2116 970A0000 		.4byte	0xa97
 6570 211a FC080000 		.4byte	.LLST68
 6571 211e 43       		.uleb128 0x43
 6572 211f 69040000 		.4byte	.LASF243
 6573 2123 01       		.byte	0x1
 6574 2124 A5       		.byte	0xa5
 6575 2125 970A0000 		.4byte	0xa97
 6576 2129 1D090000 		.4byte	.LLST69
 6577 212d 32       		.uleb128 0x32
 6578 212e 06000000 		.4byte	.LVL180
 6579 2132 0D2E0000 		.4byte	0x2e0d
 6580 2136 42210000 		.4byte	0x2142
 6581 213a 33       		.uleb128 0x33
 6582 213b 01       		.uleb128 0x1
 6583 213c 50       		.byte	0x50
 6584 213d 03       		.uleb128 0x3
 6585 213e F3       		.byte	0xf3
 6586 213f 01       		.uleb128 0x1
 6587 2140 50       		.byte	0x50
 6588 2141 00       		.byte	0
 6589 2142 4B       		.uleb128 0x4b
 6590 2143 0E000000 		.4byte	.LVL181
 6591 2147 182E0000 		.4byte	0x2e18
 6592 214b 00       		.byte	0
 6593 214c 40       		.uleb128 0x40
 6594 214d A2060000 		.4byte	.LASF291
 6595 2151 01       		.byte	0x1
 6596 2152 B3       		.byte	0xb3
 6597 2153 970A0000 		.4byte	0xa97
 6598 2157 00000000 		.4byte	.LFB70
 6599 215b 56000000 		.4byte	.LFE70-.LFB70
 6600 215f 01       		.uleb128 0x1
 6601 2160 9C       		.byte	0x9c
 6602 2161 7A220000 		.4byte	0x227a
 6603 2165 41       		.uleb128 0x41
 6604 2166 77696E00 		.ascii	"win\000"
 6605 216a 01       		.byte	0x1
 6606 216b B3       		.byte	0xb3
 6607 216c 970A0000 		.4byte	0xa97
 6608 2170 30090000 		.4byte	.LLST70
 6609 2174 42       		.uleb128 0x42
 6610 2175 5B0D0000 		.4byte	.LASF292
 6611 2179 01       		.byte	0x1
 6612 217a B3       		.byte	0xb3
 6613 217b 540A0000 		.4byte	0xa54
 6614 217f 4E090000 		.4byte	.LLST71
 6615 2183 44       		.uleb128 0x44
 6616 2184 65787400 		.ascii	"ext\000"
ARM GAS  C:\Users\pearlstl\AppData\Local\Temp\ccI2fBBa.s 			page 141


 6617 2188 01       		.byte	0x1
 6618 2189 B8       		.byte	0xb8
 6619 218a 95130000 		.4byte	0x1395
 6620 218e 6C090000 		.4byte	.LLST72
 6621 2192 44       		.uleb128 0x44
 6622 2193 62746E00 		.ascii	"btn\000"
 6623 2197 01       		.byte	0x1
 6624 2198 BA       		.byte	0xba
 6625 2199 970A0000 		.4byte	0xa97
 6626 219d 8A090000 		.4byte	.LLST73
 6627 21a1 44       		.uleb128 0x44
 6628 21a2 696D6700 		.ascii	"img\000"
 6629 21a6 01       		.byte	0x1
 6630 21a7 BF       		.byte	0xbf
 6631 21a8 970A0000 		.4byte	0xa97
 6632 21ac A8090000 		.4byte	.LLST74
 6633 21b0 32       		.uleb128 0x32
 6634 21b1 0A000000 		.4byte	.LVL183
 6635 21b5 8B2C0000 		.4byte	0x2c8b
 6636 21b9 C4210000 		.4byte	0x21c4
 6637 21bd 33       		.uleb128 0x33
 6638 21be 01       		.uleb128 0x1
 6639 21bf 50       		.byte	0x50
 6640 21c0 02       		.uleb128 0x2
 6641 21c1 76       		.byte	0x76
 6642 21c2 00       		.sleb128 0
 6643 21c3 00       		.byte	0
 6644 21c4 32       		.uleb128 0x32
 6645 21c5 14000000 		.4byte	.LVL186
 6646 21c9 3D2D0000 		.4byte	0x2d3d
 6647 21cd D7210000 		.4byte	0x21d7
 6648 21d1 33       		.uleb128 0x33
 6649 21d2 01       		.uleb128 0x1
 6650 21d3 51       		.byte	0x51
 6651 21d4 01       		.uleb128 0x1
 6652 21d5 30       		.byte	0x30
 6653 21d6 00       		.byte	0
 6654 21d7 32       		.uleb128 0x32
 6655 21d8 1E000000 		.4byte	.LVL188
 6656 21dc 762D0000 		.4byte	0x2d76
 6657 21e0 F0210000 		.4byte	0x21f0
 6658 21e4 33       		.uleb128 0x33
 6659 21e5 01       		.uleb128 0x1
 6660 21e6 50       		.byte	0x50
 6661 21e7 02       		.uleb128 0x2
 6662 21e8 74       		.byte	0x74
 6663 21e9 00       		.sleb128 0
 6664 21ea 33       		.uleb128 0x33
 6665 21eb 01       		.uleb128 0x1
 6666 21ec 51       		.byte	0x51
 6667 21ed 01       		.uleb128 0x1
 6668 21ee 30       		.byte	0x30
 6669 21ef 00       		.byte	0
 6670 21f0 32       		.uleb128 0x32
 6671 21f1 28000000 		.4byte	.LVL189
 6672 21f5 762D0000 		.4byte	0x2d76
 6673 21f9 09220000 		.4byte	0x2209
ARM GAS  C:\Users\pearlstl\AppData\Local\Temp\ccI2fBBa.s 			page 142


 6674 21fd 33       		.uleb128 0x33
 6675 21fe 01       		.uleb128 0x1
 6676 21ff 50       		.byte	0x50
 6677 2200 02       		.uleb128 0x2
 6678 2201 74       		.byte	0x74
 6679 2202 00       		.sleb128 0
 6680 2203 33       		.uleb128 0x33
 6681 2204 01       		.uleb128 0x1
 6682 2205 51       		.byte	0x51
 6683 2206 01       		.uleb128 0x1
 6684 2207 31       		.byte	0x31
 6685 2208 00       		.byte	0
 6686 2209 32       		.uleb128 0x32
 6687 220a 34000000 		.4byte	.LVL190
 6688 220e AF2C0000 		.4byte	0x2caf
 6689 2212 1D220000 		.4byte	0x221d
 6690 2216 33       		.uleb128 0x33
 6691 2217 01       		.uleb128 0x1
 6692 2218 50       		.byte	0x50
 6693 2219 02       		.uleb128 0x2
 6694 221a 74       		.byte	0x74
 6695 221b 00       		.sleb128 0
 6696 221c 00       		.byte	0
 6697 221d 32       		.uleb128 0x32
 6698 221e 3C000000 		.4byte	.LVL191
 6699 2222 482D0000 		.4byte	0x2d48
 6700 2226 36220000 		.4byte	0x2236
 6701 222a 33       		.uleb128 0x33
 6702 222b 01       		.uleb128 0x1
 6703 222c 50       		.byte	0x50
 6704 222d 02       		.uleb128 0x2
 6705 222e 74       		.byte	0x74
 6706 222f 00       		.sleb128 0
 6707 2230 33       		.uleb128 0x33
 6708 2231 01       		.uleb128 0x1
 6709 2232 51       		.byte	0x51
 6710 2233 01       		.uleb128 0x1
 6711 2234 30       		.byte	0x30
 6712 2235 00       		.byte	0
 6713 2236 32       		.uleb128 0x32
 6714 2237 44000000 		.4byte	.LVL193
 6715 223b 242E0000 		.4byte	0x2e24
 6716 223f 4F220000 		.4byte	0x224f
 6717 2243 33       		.uleb128 0x33
 6718 2244 01       		.uleb128 0x1
 6719 2245 50       		.byte	0x50
 6720 2246 02       		.uleb128 0x2
 6721 2247 75       		.byte	0x75
 6722 2248 00       		.sleb128 0
 6723 2249 33       		.uleb128 0x33
 6724 224a 01       		.uleb128 0x1
 6725 224b 51       		.byte	0x51
 6726 224c 01       		.uleb128 0x1
 6727 224d 30       		.byte	0x30
 6728 224e 00       		.byte	0
 6729 224f 32       		.uleb128 0x32
 6730 2250 4C000000 		.4byte	.LVL194
ARM GAS  C:\Users\pearlstl\AppData\Local\Temp\ccI2fBBa.s 			page 143


 6731 2254 302E0000 		.4byte	0x2e30
 6732 2258 69220000 		.4byte	0x2269
 6733 225c 33       		.uleb128 0x33
 6734 225d 01       		.uleb128 0x1
 6735 225e 50       		.byte	0x50
 6736 225f 02       		.uleb128 0x2
 6737 2260 75       		.byte	0x75
 6738 2261 00       		.sleb128 0
 6739 2262 33       		.uleb128 0x33
 6740 2263 01       		.uleb128 0x1
 6741 2264 51       		.byte	0x51
 6742 2265 02       		.uleb128 0x2
 6743 2266 77       		.byte	0x77
 6744 2267 00       		.sleb128 0
 6745 2268 00       		.byte	0
 6746 2269 35       		.uleb128 0x35
 6747 226a 52000000 		.4byte	.LVL195
 6748 226e 31140000 		.4byte	0x1431
 6749 2272 33       		.uleb128 0x33
 6750 2273 01       		.uleb128 0x1
 6751 2274 50       		.byte	0x50
 6752 2275 02       		.uleb128 0x2
 6753 2276 76       		.byte	0x76
 6754 2277 00       		.sleb128 0
 6755 2278 00       		.byte	0
 6756 2279 00       		.byte	0
 6757 227a 4A       		.uleb128 0x4a
 6758 227b 96030000 		.4byte	.LASF294
 6759 227f 01       		.byte	0x1
 6760 2280 D1       		.byte	0xd1
 6761 2281 00000000 		.4byte	.LFB71
 6762 2285 18000000 		.4byte	.LFE71-.LFB71
 6763 2289 01       		.uleb128 0x1
 6764 228a 9C       		.byte	0x9c
 6765 228b 0B230000 		.4byte	0x230b
 6766 228f 41       		.uleb128 0x41
 6767 2290 62746E00 		.ascii	"btn\000"
 6768 2294 01       		.byte	0x1
 6769 2295 D1       		.byte	0xd1
 6770 2296 970A0000 		.4byte	0xa97
 6771 229a C6090000 		.4byte	.LLST75
 6772 229e 42       		.uleb128 0x42
 6773 229f B50A0000 		.4byte	.LASF295
 6774 22a3 01       		.byte	0x1
 6775 22a4 D1       		.byte	0xd1
 6776 22a5 AC070000 		.4byte	0x7ac
 6777 22a9 E7090000 		.4byte	.LLST76
 6778 22ad 48       		.uleb128 0x48
 6779 22ae 18010000 		.4byte	.Ldebug_ranges0+0x118
 6780 22b2 4C       		.uleb128 0x4c
 6781 22b3 77696E00 		.ascii	"win\000"
 6782 22b7 01       		.byte	0x1
 6783 22b8 D6       		.byte	0xd6
 6784 22b9 970A0000 		.4byte	0xa97
 6785 22bd 45       		.uleb128 0x45
 6786 22be 9B130000 		.4byte	0x139b
 6787 22c2 08000000 		.4byte	.LBB109
ARM GAS  C:\Users\pearlstl\AppData\Local\Temp\ccI2fBBa.s 			page 144


 6788 22c6 08000000 		.4byte	.LBE109-.LBB109
 6789 22ca 01       		.byte	0x1
 6790 22cb D6       		.byte	0xd6
 6791 22cc 00230000 		.4byte	0x2300
 6792 22d0 49       		.uleb128 0x49
 6793 22d1 AC130000 		.4byte	0x13ac
 6794 22d5 30       		.uleb128 0x30
 6795 22d6 08000000 		.4byte	.LBB110
 6796 22da 08000000 		.4byte	.LBE110-.LBB110
 6797 22de 31       		.uleb128 0x31
 6798 22df B8130000 		.4byte	0x13b8
 6799 22e3 080A0000 		.4byte	.LLST77
 6800 22e7 46       		.uleb128 0x46
 6801 22e8 C4130000 		.4byte	0x13c4
 6802 22ec 34       		.uleb128 0x34
 6803 22ed 0C000000 		.4byte	.LVL197
 6804 22f1 812D0000 		.4byte	0x2d81
 6805 22f5 34       		.uleb128 0x34
 6806 22f6 10000000 		.4byte	.LVL198
 6807 22fa 812D0000 		.4byte	0x2d81
 6808 22fe 00       		.byte	0
 6809 22ff 00       		.byte	0
 6810 2300 4B       		.uleb128 0x4b
 6811 2301 18000000 		.4byte	.LVL199
 6812 2305 3B2E0000 		.4byte	0x2e3b
 6813 2309 00       		.byte	0
 6814 230a 00       		.byte	0
 6815 230b 4A       		.uleb128 0x4a
 6816 230c 75020000 		.4byte	.LASF296
 6817 2310 01       		.byte	0x1
 6818 2311 E1       		.byte	0xe1
 6819 2312 00000000 		.4byte	.LFB72
 6820 2316 1C000000 		.4byte	.LFE72-.LFB72
 6821 231a 01       		.uleb128 0x1
 6822 231b 9C       		.byte	0x9c
 6823 231c 87230000 		.4byte	0x2387
 6824 2320 41       		.uleb128 0x41
 6825 2321 77696E00 		.ascii	"win\000"
 6826 2325 01       		.byte	0x1
 6827 2326 E1       		.byte	0xe1
 6828 2327 970A0000 		.4byte	0xa97
 6829 232b 1B0A0000 		.4byte	.LLST78
 6830 232f 42       		.uleb128 0x42
 6831 2330 BD130000 		.4byte	.LASF214
 6832 2334 01       		.byte	0x1
 6833 2335 E1       		.byte	0xe1
 6834 2336 95020000 		.4byte	0x295
 6835 233a 520A0000 		.4byte	.LLST79
 6836 233e 44       		.uleb128 0x44
 6837 233f 65787400 		.ascii	"ext\000"
 6838 2343 01       		.byte	0x1
 6839 2344 E6       		.byte	0xe6
 6840 2345 95130000 		.4byte	0x1395
 6841 2349 7E0A0000 		.4byte	.LLST80
 6842 234d 32       		.uleb128 0x32
 6843 234e 0A000000 		.4byte	.LVL201
 6844 2352 8B2C0000 		.4byte	0x2c8b
ARM GAS  C:\Users\pearlstl\AppData\Local\Temp\ccI2fBBa.s 			page 145


 6845 2356 61230000 		.4byte	0x2361
 6846 235a 33       		.uleb128 0x33
 6847 235b 01       		.uleb128 0x1
 6848 235c 50       		.byte	0x50
 6849 235d 02       		.uleb128 0x2
 6850 235e 74       		.byte	0x74
 6851 235f 00       		.sleb128 0
 6852 2360 00       		.byte	0
 6853 2361 32       		.uleb128 0x32
 6854 2362 12000000 		.4byte	.LVL203
 6855 2366 BC2D0000 		.4byte	0x2dbc
 6856 236a 75230000 		.4byte	0x2375
 6857 236e 33       		.uleb128 0x33
 6858 236f 01       		.uleb128 0x1
 6859 2370 51       		.byte	0x51
 6860 2371 02       		.uleb128 0x2
 6861 2372 75       		.byte	0x75
 6862 2373 00       		.sleb128 0
 6863 2374 00       		.byte	0
 6864 2375 4D       		.uleb128 0x4d
 6865 2376 1C000000 		.4byte	.LVL205
 6866 237a 31140000 		.4byte	0x1431
 6867 237e 33       		.uleb128 0x33
 6868 237f 01       		.uleb128 0x1
 6869 2380 50       		.byte	0x50
 6870 2381 03       		.uleb128 0x3
 6871 2382 F3       		.byte	0xf3
 6872 2383 01       		.uleb128 0x1
 6873 2384 50       		.byte	0x50
 6874 2385 00       		.byte	0
 6875 2386 00       		.byte	0
 6876 2387 4A       		.uleb128 0x4a
 6877 2388 D8110000 		.4byte	.LASF297
 6878 238c 01       		.byte	0x1
 6879 238d F1       		.byte	0xf1
 6880 238e 00000000 		.4byte	.LFB73
 6881 2392 20000000 		.4byte	.LFE73-.LFB73
 6882 2396 01       		.uleb128 0x1
 6883 2397 9C       		.byte	0x9c
 6884 2398 EF230000 		.4byte	0x23ef
 6885 239c 41       		.uleb128 0x41
 6886 239d 77696E00 		.ascii	"win\000"
 6887 23a1 01       		.byte	0x1
 6888 23a2 F1       		.byte	0xf1
 6889 23a3 970A0000 		.4byte	0xa97
 6890 23a7 910A0000 		.4byte	.LLST81
 6891 23ab 42       		.uleb128 0x42
 6892 23ac 0F0E0000 		.4byte	.LASF298
 6893 23b0 01       		.byte	0x1
 6894 23b1 F1       		.byte	0xf1
 6895 23b2 D9000000 		.4byte	0xd9
 6896 23b6 D30A0000 		.4byte	.LLST82
 6897 23ba 44       		.uleb128 0x44
 6898 23bb 65787400 		.ascii	"ext\000"
 6899 23bf 01       		.byte	0x1
 6900 23c0 F5       		.byte	0xf5
 6901 23c1 95130000 		.4byte	0x1395
ARM GAS  C:\Users\pearlstl\AppData\Local\Temp\ccI2fBBa.s 			page 146


 6902 23c5 F40A0000 		.4byte	.LLST83
 6903 23c9 32       		.uleb128 0x32
 6904 23ca 0A000000 		.4byte	.LVL207
 6905 23ce 8B2C0000 		.4byte	0x2c8b
 6906 23d2 DD230000 		.4byte	0x23dd
 6907 23d6 33       		.uleb128 0x33
 6908 23d7 01       		.uleb128 0x1
 6909 23d8 50       		.byte	0x50
 6910 23d9 02       		.uleb128 0x2
 6911 23da 75       		.byte	0x75
 6912 23db 00       		.sleb128 0
 6913 23dc 00       		.byte	0
 6914 23dd 4D       		.uleb128 0x4d
 6915 23de 1E000000 		.4byte	.LVL210
 6916 23e2 31140000 		.4byte	0x1431
 6917 23e6 33       		.uleb128 0x33
 6918 23e7 01       		.uleb128 0x1
 6919 23e8 50       		.byte	0x50
 6920 23e9 03       		.uleb128 0x3
 6921 23ea F3       		.byte	0xf3
 6922 23eb 01       		.uleb128 0x1
 6923 23ec 50       		.byte	0x50
 6924 23ed 00       		.byte	0
 6925 23ee 00       		.byte	0
 6926 23ef 4E       		.uleb128 0x4e
 6927 23f0 64070000 		.4byte	.LASF299
 6928 23f4 01       		.byte	0x1
 6929 23f5 0301     		.2byte	0x103
 6930 23f7 00000000 		.4byte	.LFB74
 6931 23fb 22000000 		.4byte	.LFE74-.LFB74
 6932 23ff 01       		.uleb128 0x1
 6933 2400 9C       		.byte	0x9c
 6934 2401 70240000 		.4byte	0x2470
 6935 2405 2A       		.uleb128 0x2a
 6936 2406 77696E00 		.ascii	"win\000"
 6937 240a 01       		.byte	0x1
 6938 240b 0301     		.2byte	0x103
 6939 240d 970A0000 		.4byte	0xa97
 6940 2411 120B0000 		.4byte	.LLST84
 6941 2415 2A       		.uleb128 0x2a
 6942 2416 7700     		.ascii	"w\000"
 6943 2418 01       		.byte	0x1
 6944 2419 0301     		.2byte	0x103
 6945 241b D9000000 		.4byte	0xd9
 6946 241f 490B0000 		.4byte	.LLST85
 6947 2423 2A       		.uleb128 0x2a
 6948 2424 6800     		.ascii	"h\000"
 6949 2426 01       		.byte	0x1
 6950 2427 0301     		.2byte	0x103
 6951 2429 D9000000 		.4byte	0xd9
 6952 242d 6A0B0000 		.4byte	.LLST86
 6953 2431 2B       		.uleb128 0x2b
 6954 2432 65787400 		.ascii	"ext\000"
 6955 2436 01       		.byte	0x1
 6956 2437 0701     		.2byte	0x107
 6957 2439 95130000 		.4byte	0x1395
 6958 243d 960B0000 		.4byte	.LLST87
ARM GAS  C:\Users\pearlstl\AppData\Local\Temp\ccI2fBBa.s 			page 147


 6959 2441 32       		.uleb128 0x32
 6960 2442 0C000000 		.4byte	.LVL212
 6961 2446 8B2C0000 		.4byte	0x2c8b
 6962 244a 55240000 		.4byte	0x2455
 6963 244e 33       		.uleb128 0x33
 6964 244f 01       		.uleb128 0x1
 6965 2450 50       		.byte	0x50
 6966 2451 02       		.uleb128 0x2
 6967 2452 75       		.byte	0x75
 6968 2453 00       		.sleb128 0
 6969 2454 00       		.byte	0
 6970 2455 34       		.uleb128 0x34
 6971 2456 12000000 		.4byte	.LVL214
 6972 245a DF2C0000 		.4byte	0x2cdf
 6973 245e 4D       		.uleb128 0x4d
 6974 245f 22000000 		.4byte	.LVL217
 6975 2463 AF2C0000 		.4byte	0x2caf
 6976 2467 33       		.uleb128 0x33
 6977 2468 01       		.uleb128 0x1
 6978 2469 50       		.byte	0x50
 6979 246a 03       		.uleb128 0x3
 6980 246b F3       		.byte	0xf3
 6981 246c 01       		.uleb128 0x1
 6982 246d 50       		.byte	0x50
 6983 246e 00       		.byte	0
 6984 246f 00       		.byte	0
 6985 2470 4E       		.uleb128 0x4e
 6986 2471 6C140000 		.4byte	.LASF300
 6987 2475 01       		.byte	0x1
 6988 2476 1201     		.2byte	0x112
 6989 2478 00000000 		.4byte	.LFB75
 6990 247c 18000000 		.4byte	.LFE75-.LFB75
 6991 2480 01       		.uleb128 0x1
 6992 2481 9C       		.byte	0x9c
 6993 2482 01250000 		.4byte	0x2501
 6994 2486 2A       		.uleb128 0x2a
 6995 2487 77696E00 		.ascii	"win\000"
 6996 248b 01       		.byte	0x1
 6997 248c 1201     		.2byte	0x112
 6998 248e 970A0000 		.4byte	0xa97
 6999 2492 A90B0000 		.4byte	.LLST88
 7000 2496 37       		.uleb128 0x37
 7001 2497 480A0000 		.4byte	.LASF273
 7002 249b 01       		.byte	0x1
 7003 249c 1201     		.2byte	0x112
 7004 249e ED090000 		.4byte	0x9ed
 7005 24a2 CA0B0000 		.4byte	.LLST89
 7006 24a6 2B       		.uleb128 0x2b
 7007 24a7 65787400 		.ascii	"ext\000"
 7008 24ab 01       		.byte	0x1
 7009 24ac 1601     		.2byte	0x116
 7010 24ae 95130000 		.4byte	0x1395
 7011 24b2 EB0B0000 		.4byte	.LLST90
 7012 24b6 3A       		.uleb128 0x3a
 7013 24b7 3D130000 		.4byte	0x133d
 7014 24bb 08000000 		.4byte	.LBB112
 7015 24bf 30010000 		.4byte	.Ldebug_ranges0+0x130
ARM GAS  C:\Users\pearlstl\AppData\Local\Temp\ccI2fBBa.s 			page 148


 7016 24c3 01       		.byte	0x1
 7017 24c4 1701     		.2byte	0x117
 7018 24c6 EF240000 		.4byte	0x24ef
 7019 24ca 2F       		.uleb128 0x2f
 7020 24cb 54130000 		.4byte	0x1354
 7021 24cf FE0B0000 		.4byte	.LLST91
 7022 24d3 2F       		.uleb128 0x2f
 7023 24d4 49130000 		.4byte	0x1349
 7024 24d8 110C0000 		.4byte	.LLST92
 7025 24dc 34       		.uleb128 0x34
 7026 24dd 0E000000 		.4byte	.LVL221
 7027 24e1 0D2E0000 		.4byte	0x2e0d
 7028 24e5 4B       		.uleb128 0x4b
 7029 24e6 18000000 		.4byte	.LVL223
 7030 24ea 472E0000 		.4byte	0x2e47
 7031 24ee 00       		.byte	0
 7032 24ef 35       		.uleb128 0x35
 7033 24f0 08000000 		.4byte	.LVL219
 7034 24f4 8B2C0000 		.4byte	0x2c8b
 7035 24f8 33       		.uleb128 0x33
 7036 24f9 01       		.uleb128 0x1
 7037 24fa 50       		.byte	0x50
 7038 24fb 03       		.uleb128 0x3
 7039 24fc F3       		.byte	0xf3
 7040 24fd 01       		.uleb128 0x1
 7041 24fe 50       		.byte	0x50
 7042 24ff 00       		.byte	0
 7043 2500 00       		.byte	0
 7044 2501 4E       		.uleb128 0x4e
 7045 2502 13150000 		.4byte	.LASF301
 7046 2506 01       		.byte	0x1
 7047 2507 1F01     		.2byte	0x11f
 7048 2509 00000000 		.4byte	.LFB76
 7049 250d 14000000 		.4byte	.LFE76-.LFB76
 7050 2511 01       		.uleb128 0x1
 7051 2512 9C       		.byte	0x9c
 7052 2513 66250000 		.4byte	0x2566
 7053 2517 2A       		.uleb128 0x2a
 7054 2518 77696E00 		.ascii	"win\000"
 7055 251c 01       		.byte	0x1
 7056 251d 1F01     		.2byte	0x11f
 7057 251f 970A0000 		.4byte	0xa97
 7058 2523 300C0000 		.4byte	.LLST93
 7059 2527 37       		.uleb128 0x37
 7060 2528 E1030000 		.4byte	.LASF302
 7061 252c 01       		.byte	0x1
 7062 252d 1F01     		.2byte	0x11f
 7063 252f 8C0A0000 		.4byte	0xa8c
 7064 2533 510C0000 		.4byte	.LLST94
 7065 2537 2B       		.uleb128 0x2b
 7066 2538 65787400 		.ascii	"ext\000"
 7067 253c 01       		.byte	0x1
 7068 253d 2301     		.2byte	0x123
 7069 253f 95130000 		.4byte	0x1395
 7070 2543 720C0000 		.4byte	.LLST95
 7071 2547 32       		.uleb128 0x32
 7072 2548 08000000 		.4byte	.LVL225
ARM GAS  C:\Users\pearlstl\AppData\Local\Temp\ccI2fBBa.s 			page 149


 7073 254c 8B2C0000 		.4byte	0x2c8b
 7074 2550 5C250000 		.4byte	0x255c
 7075 2554 33       		.uleb128 0x33
 7076 2555 01       		.uleb128 0x1
 7077 2556 50       		.byte	0x50
 7078 2557 03       		.uleb128 0x3
 7079 2558 F3       		.byte	0xf3
 7080 2559 01       		.uleb128 0x1
 7081 255a 50       		.byte	0x50
 7082 255b 00       		.byte	0
 7083 255c 4B       		.uleb128 0x4b
 7084 255d 14000000 		.4byte	.LVL227
 7085 2561 B12D0000 		.4byte	0x2db1
 7086 2565 00       		.byte	0
 7087 2566 4E       		.uleb128 0x4e
 7088 2567 97010000 		.4byte	.LASF303
 7089 256b 01       		.byte	0x1
 7090 256c 2B01     		.2byte	0x12b
 7091 256e 00000000 		.4byte	.LFB77
 7092 2572 14000000 		.4byte	.LFE77-.LFB77
 7093 2576 01       		.uleb128 0x1
 7094 2577 9C       		.byte	0x9c
 7095 2578 E4250000 		.4byte	0x25e4
 7096 257c 2A       		.uleb128 0x2a
 7097 257d 77696E00 		.ascii	"win\000"
 7098 2581 01       		.byte	0x1
 7099 2582 2B01     		.2byte	0x12b
 7100 2584 970A0000 		.4byte	0xa97
 7101 2588 850C0000 		.4byte	.LLST96
 7102 258c 37       		.uleb128 0x37
 7103 258d B0050000 		.4byte	.LASF304
 7104 2591 01       		.byte	0x1
 7105 2592 2B01     		.2byte	0x12b
 7106 2594 C3000000 		.4byte	0xc3
 7107 2598 A60C0000 		.4byte	.LLST97
 7108 259c 2E       		.uleb128 0x2e
 7109 259d 60130000 		.4byte	0x1360
 7110 25a1 04000000 		.4byte	.LBB116
 7111 25a5 04000000 		.4byte	.LBE116-.LBB116
 7112 25a9 01       		.byte	0x1
 7113 25aa 2F01     		.2byte	0x12f
 7114 25ac DA250000 		.4byte	0x25da
 7115 25b0 2F       		.uleb128 0x2f
 7116 25b1 71130000 		.4byte	0x1371
 7117 25b5 C70C0000 		.4byte	.LLST98
 7118 25b9 30       		.uleb128 0x30
 7119 25ba 04000000 		.4byte	.LBB117
 7120 25be 04000000 		.4byte	.LBE117-.LBB117
 7121 25c2 46       		.uleb128 0x46
 7122 25c3 7D130000 		.4byte	0x137d
 7123 25c7 35       		.uleb128 0x35
 7124 25c8 08000000 		.4byte	.LVL229
 7125 25cc 8B2C0000 		.4byte	0x2c8b
 7126 25d0 33       		.uleb128 0x33
 7127 25d1 01       		.uleb128 0x1
 7128 25d2 50       		.byte	0x50
 7129 25d3 03       		.uleb128 0x3
ARM GAS  C:\Users\pearlstl\AppData\Local\Temp\ccI2fBBa.s 			page 150


 7130 25d4 F3       		.byte	0xf3
 7131 25d5 01       		.uleb128 0x1
 7132 25d6 50       		.byte	0x50
 7133 25d7 00       		.byte	0
 7134 25d8 00       		.byte	0
 7135 25d9 00       		.byte	0
 7136 25da 4B       		.uleb128 0x4b
 7137 25db 14000000 		.4byte	.LVL230
 7138 25df 522E0000 		.4byte	0x2e52
 7139 25e3 00       		.byte	0
 7140 25e4 4F       		.uleb128 0x4f
 7141 25e5 ED180000 		.4byte	0x18ed
 7142 25e9 00000000 		.4byte	.LFB78
 7143 25ed E2000000 		.4byte	.LFE78-.LFB78
 7144 25f1 01       		.uleb128 0x1
 7145 25f2 9C       		.byte	0x9c
 7146 25f3 81270000 		.4byte	0x2781
 7147 25f7 2F       		.uleb128 0x2f
 7148 25f8 FA180000 		.4byte	0x18fa
 7149 25fc E80C0000 		.4byte	.LLST99
 7150 2600 2F       		.uleb128 0x2f
 7151 2601 06190000 		.4byte	0x1906
 7152 2605 C00D0000 		.4byte	.LLST100
 7153 2609 2F       		.uleb128 0x2f
 7154 260a 12190000 		.4byte	0x1912
 7155 260e E10D0000 		.4byte	.LLST101
 7156 2612 31       		.uleb128 0x31
 7157 2613 1E190000 		.4byte	0x191e
 7158 2617 790E0000 		.4byte	.LLST102
 7159 261b 39       		.uleb128 0x39
 7160 261c 48010000 		.4byte	.Ldebug_ranges0+0x148
 7161 2620 E4260000 		.4byte	0x26e4
 7162 2624 31       		.uleb128 0x31
 7163 2625 2B190000 		.4byte	0x192b
 7164 2629 1B0F0000 		.4byte	.LLST103
 7165 262d 32       		.uleb128 0x32
 7166 262e 26000000 		.4byte	.LVL235
 7167 2632 BB2C0000 		.4byte	0x2cbb
 7168 2636 40260000 		.4byte	0x2640
 7169 263a 33       		.uleb128 0x33
 7170 263b 01       		.uleb128 0x1
 7171 263c 51       		.byte	0x51
 7172 263d 01       		.uleb128 0x1
 7173 263e 30       		.byte	0x30
 7174 263f 00       		.byte	0
 7175 2640 34       		.uleb128 0x34
 7176 2641 2E000000 		.4byte	.LVL237
 7177 2645 BB2C0000 		.4byte	0x2cbb
 7178 2649 32       		.uleb128 0x32
 7179 264a 3E000000 		.4byte	.LVL239
 7180 264e 762D0000 		.4byte	0x2d76
 7181 2652 68260000 		.4byte	0x2668
 7182 2656 33       		.uleb128 0x33
 7183 2657 01       		.uleb128 0x1
 7184 2658 50       		.byte	0x50
 7185 2659 02       		.uleb128 0x2
 7186 265a 74       		.byte	0x74
ARM GAS  C:\Users\pearlstl\AppData\Local\Temp\ccI2fBBa.s 			page 151


 7187 265b 00       		.sleb128 0
 7188 265c 33       		.uleb128 0x33
 7189 265d 01       		.uleb128 0x1
 7190 265e 51       		.byte	0x51
 7191 265f 01       		.uleb128 0x1
 7192 2660 31       		.byte	0x31
 7193 2661 33       		.uleb128 0x33
 7194 2662 01       		.uleb128 0x1
 7195 2663 52       		.byte	0x52
 7196 2664 02       		.uleb128 0x2
 7197 2665 76       		.byte	0x76
 7198 2666 00       		.sleb128 0
 7199 2667 00       		.byte	0
 7200 2668 32       		.uleb128 0x32
 7201 2669 46000000 		.4byte	.LVL240
 7202 266d BB2C0000 		.4byte	0x2cbb
 7203 2671 7C260000 		.4byte	0x267c
 7204 2675 33       		.uleb128 0x33
 7205 2676 01       		.uleb128 0x1
 7206 2677 51       		.byte	0x51
 7207 2678 02       		.uleb128 0x2
 7208 2679 74       		.byte	0x74
 7209 267a 00       		.sleb128 0
 7210 267b 00       		.byte	0
 7211 267c 32       		.uleb128 0x32
 7212 267d 98000000 		.4byte	.LVL257
 7213 2681 BB2C0000 		.4byte	0x2cbb
 7214 2685 8F260000 		.4byte	0x268f
 7215 2689 33       		.uleb128 0x33
 7216 268a 01       		.uleb128 0x1
 7217 268b 51       		.byte	0x51
 7218 268c 01       		.uleb128 0x1
 7219 268d 30       		.byte	0x30
 7220 268e 00       		.byte	0
 7221 268f 34       		.uleb128 0x34
 7222 2690 A0000000 		.4byte	.LVL259
 7223 2694 BB2C0000 		.4byte	0x2cbb
 7224 2698 32       		.uleb128 0x32
 7225 2699 B4000000 		.4byte	.LVL264
 7226 269d BB2C0000 		.4byte	0x2cbb
 7227 26a1 AB260000 		.4byte	0x26ab
 7228 26a5 33       		.uleb128 0x33
 7229 26a6 01       		.uleb128 0x1
 7230 26a7 51       		.byte	0x51
 7231 26a8 01       		.uleb128 0x1
 7232 26a9 30       		.byte	0x30
 7233 26aa 00       		.byte	0
 7234 26ab 34       		.uleb128 0x34
 7235 26ac BC000000 		.4byte	.LVL266
 7236 26b0 BB2C0000 		.4byte	0x2cbb
 7237 26b4 32       		.uleb128 0x32
 7238 26b5 D0000000 		.4byte	.LVL268
 7239 26b9 762D0000 		.4byte	0x2d76
 7240 26bd D3260000 		.4byte	0x26d3
 7241 26c1 33       		.uleb128 0x33
 7242 26c2 01       		.uleb128 0x1
 7243 26c3 50       		.byte	0x50
ARM GAS  C:\Users\pearlstl\AppData\Local\Temp\ccI2fBBa.s 			page 152


 7244 26c4 02       		.uleb128 0x2
 7245 26c5 74       		.byte	0x74
 7246 26c6 00       		.sleb128 0
 7247 26c7 33       		.uleb128 0x33
 7248 26c8 01       		.uleb128 0x1
 7249 26c9 51       		.byte	0x51
 7250 26ca 01       		.uleb128 0x1
 7251 26cb 30       		.byte	0x30
 7252 26cc 33       		.uleb128 0x33
 7253 26cd 01       		.uleb128 0x1
 7254 26ce 52       		.byte	0x52
 7255 26cf 02       		.uleb128 0x2
 7256 26d0 76       		.byte	0x76
 7257 26d1 00       		.sleb128 0
 7258 26d2 00       		.byte	0
 7259 26d3 35       		.uleb128 0x35
 7260 26d4 D8000000 		.4byte	.LVL269
 7261 26d8 BB2C0000 		.4byte	0x2cbb
 7262 26dc 33       		.uleb128 0x33
 7263 26dd 01       		.uleb128 0x1
 7264 26de 51       		.byte	0x51
 7265 26df 02       		.uleb128 0x2
 7266 26e0 74       		.byte	0x74
 7267 26e1 00       		.sleb128 0
 7268 26e2 00       		.byte	0
 7269 26e3 00       		.byte	0
 7270 26e4 32       		.uleb128 0x32
 7271 26e5 0C000000 		.4byte	.LVL232
 7272 26e9 8B2C0000 		.4byte	0x2c8b
 7273 26ed F8260000 		.4byte	0x26f8
 7274 26f1 33       		.uleb128 0x33
 7275 26f2 01       		.uleb128 0x1
 7276 26f3 50       		.byte	0x50
 7277 26f4 02       		.uleb128 0x2
 7278 26f5 74       		.byte	0x74
 7279 26f6 00       		.sleb128 0
 7280 26f7 00       		.byte	0
 7281 26f8 32       		.uleb128 0x32
 7282 26f9 56000000 		.4byte	.LVL243
 7283 26fd 5F2D0000 		.4byte	0x2d5f
 7284 2701 12270000 		.4byte	0x2712
 7285 2705 33       		.uleb128 0x33
 7286 2706 01       		.uleb128 0x1
 7287 2707 50       		.byte	0x50
 7288 2708 02       		.uleb128 0x2
 7289 2709 74       		.byte	0x74
 7290 270a 00       		.sleb128 0
 7291 270b 33       		.uleb128 0x33
 7292 270c 01       		.uleb128 0x1
 7293 270d 51       		.byte	0x51
 7294 270e 02       		.uleb128 0x2
 7295 270f 76       		.byte	0x76
 7296 2710 00       		.sleb128 0
 7297 2711 00       		.byte	0
 7298 2712 3C       		.uleb128 0x3c
 7299 2713 60000000 		.4byte	.LVL245
 7300 2717 31140000 		.4byte	0x1431
ARM GAS  C:\Users\pearlstl\AppData\Local\Temp\ccI2fBBa.s 			page 153


 7301 271b 27270000 		.4byte	0x2727
 7302 271f 33       		.uleb128 0x33
 7303 2720 01       		.uleb128 0x1
 7304 2721 50       		.byte	0x50
 7305 2722 03       		.uleb128 0x3
 7306 2723 F3       		.byte	0xf3
 7307 2724 01       		.uleb128 0x1
 7308 2725 50       		.byte	0x50
 7309 2726 00       		.byte	0
 7310 2727 3C       		.uleb128 0x3c
 7311 2728 6E000000 		.4byte	.LVL248
 7312 272c 6B2D0000 		.4byte	0x2d6b
 7313 2730 41270000 		.4byte	0x2741
 7314 2734 33       		.uleb128 0x33
 7315 2735 01       		.uleb128 0x1
 7316 2736 51       		.byte	0x51
 7317 2737 01       		.uleb128 0x1
 7318 2738 31       		.byte	0x31
 7319 2739 33       		.uleb128 0x33
 7320 273a 01       		.uleb128 0x1
 7321 273b 52       		.byte	0x52
 7322 273c 03       		.uleb128 0x3
 7323 273d F3       		.byte	0xf3
 7324 273e 01       		.uleb128 0x1
 7325 273f 52       		.byte	0x52
 7326 2740 00       		.byte	0
 7327 2741 3C       		.uleb128 0x3c
 7328 2742 7C000000 		.4byte	.LVL251
 7329 2746 6B2D0000 		.4byte	0x2d6b
 7330 274a 5B270000 		.4byte	0x275b
 7331 274e 33       		.uleb128 0x33
 7332 274f 01       		.uleb128 0x1
 7333 2750 51       		.byte	0x51
 7334 2751 01       		.uleb128 0x1
 7335 2752 32       		.byte	0x32
 7336 2753 33       		.uleb128 0x33
 7337 2754 01       		.uleb128 0x1
 7338 2755 52       		.byte	0x52
 7339 2756 03       		.uleb128 0x3
 7340 2757 F3       		.byte	0xf3
 7341 2758 01       		.uleb128 0x1
 7342 2759 52       		.byte	0x52
 7343 275a 00       		.byte	0
 7344 275b 32       		.uleb128 0x32
 7345 275c 84000000 		.4byte	.LVL253
 7346 2760 5F2D0000 		.4byte	0x2d5f
 7347 2764 6F270000 		.4byte	0x276f
 7348 2768 33       		.uleb128 0x33
 7349 2769 01       		.uleb128 0x1
 7350 276a 51       		.byte	0x51
 7351 276b 02       		.uleb128 0x2
 7352 276c 76       		.byte	0x76
 7353 276d 00       		.sleb128 0
 7354 276e 00       		.byte	0
 7355 276f 4D       		.uleb128 0x4d
 7356 2770 8E000000 		.4byte	.LVL255
 7357 2774 31140000 		.4byte	0x1431
ARM GAS  C:\Users\pearlstl\AppData\Local\Temp\ccI2fBBa.s 			page 154


 7358 2778 33       		.uleb128 0x33
 7359 2779 01       		.uleb128 0x1
 7360 277a 50       		.byte	0x50
 7361 277b 03       		.uleb128 0x3
 7362 277c F3       		.byte	0xf3
 7363 277d 01       		.uleb128 0x1
 7364 277e 50       		.byte	0x50
 7365 277f 00       		.byte	0
 7366 2780 00       		.byte	0
 7367 2781 4E       		.uleb128 0x4e
 7368 2782 8F130000 		.4byte	.LASF305
 7369 2786 01       		.byte	0x1
 7370 2787 6101     		.2byte	0x161
 7371 2789 00000000 		.4byte	.LFB79
 7372 278d 1E000000 		.4byte	.LFE79-.LFB79
 7373 2791 01       		.uleb128 0x1
 7374 2792 9C       		.byte	0x9c
 7375 2793 10280000 		.4byte	0x2810
 7376 2797 2A       		.uleb128 0x2a
 7377 2798 77696E00 		.ascii	"win\000"
 7378 279c 01       		.byte	0x1
 7379 279d 6101     		.2byte	0x161
 7380 279f 970A0000 		.4byte	0xa97
 7381 27a3 B20F0000 		.4byte	.LLST104
 7382 27a7 2A       		.uleb128 0x2a
 7383 27a8 656E00   		.ascii	"en\000"
 7384 27ab 01       		.byte	0x1
 7385 27ac 6101     		.2byte	0x161
 7386 27ae BF010000 		.4byte	0x1bf
 7387 27b2 E90F0000 		.4byte	.LLST105
 7388 27b6 2B       		.uleb128 0x2b
 7389 27b7 65787400 		.ascii	"ext\000"
 7390 27bb 01       		.byte	0x1
 7391 27bc 6501     		.2byte	0x165
 7392 27be 95130000 		.4byte	0x1395
 7393 27c2 0A100000 		.4byte	.LLST106
 7394 27c6 2D       		.uleb128 0x2d
 7395 27c7 3F140000 		.4byte	.LASF306
 7396 27cb 01       		.byte	0x1
 7397 27cc 6601     		.2byte	0x166
 7398 27ce 970A0000 		.4byte	0xa97
 7399 27d2 1D100000 		.4byte	.LLST107
 7400 27d6 32       		.uleb128 0x32
 7401 27d7 0A000000 		.4byte	.LVL272
 7402 27db 8B2C0000 		.4byte	0x2c8b
 7403 27df EA270000 		.4byte	0x27ea
 7404 27e3 33       		.uleb128 0x33
 7405 27e4 01       		.uleb128 0x1
 7406 27e5 50       		.byte	0x50
 7407 27e6 02       		.uleb128 0x2
 7408 27e7 75       		.byte	0x75
 7409 27e8 00       		.sleb128 0
 7410 27e9 00       		.byte	0
 7411 27ea 32       		.uleb128 0x32
 7412 27eb 12000000 		.4byte	.LVL274
 7413 27ef 5D2E0000 		.4byte	0x2e5d
 7414 27f3 FE270000 		.4byte	0x27fe
ARM GAS  C:\Users\pearlstl\AppData\Local\Temp\ccI2fBBa.s 			page 155


 7415 27f7 33       		.uleb128 0x33
 7416 27f8 01       		.uleb128 0x1
 7417 27f9 51       		.byte	0x51
 7418 27fa 02       		.uleb128 0x2
 7419 27fb 74       		.byte	0x74
 7420 27fc 00       		.sleb128 0
 7421 27fd 00       		.byte	0
 7422 27fe 4D       		.uleb128 0x4d
 7423 27ff 1E000000 		.4byte	.LVL276
 7424 2803 692E0000 		.4byte	0x2e69
 7425 2807 33       		.uleb128 0x33
 7426 2808 01       		.uleb128 0x1
 7427 2809 50       		.byte	0x50
 7428 280a 03       		.uleb128 0x3
 7429 280b F3       		.byte	0xf3
 7430 280c 01       		.uleb128 0x1
 7431 280d 50       		.byte	0x50
 7432 280e 00       		.byte	0
 7433 280f 00       		.byte	0
 7434 2810 50       		.uleb128 0x50
 7435 2811 E9080000 		.4byte	.LASF307
 7436 2815 01       		.byte	0x1
 7437 2816 7401     		.2byte	0x174
 7438 2818 95020000 		.4byte	0x295
 7439 281c 00000000 		.4byte	.LFB80
 7440 2820 10000000 		.4byte	.LFE80-.LFB80
 7441 2824 01       		.uleb128 0x1
 7442 2825 9C       		.byte	0x9c
 7443 2826 69280000 		.4byte	0x2869
 7444 282a 2A       		.uleb128 0x2a
 7445 282b 77696E00 		.ascii	"win\000"
 7446 282f 01       		.byte	0x1
 7447 2830 7401     		.2byte	0x174
 7448 2832 8A130000 		.4byte	0x138a
 7449 2836 3C100000 		.4byte	.LLST108
 7450 283a 2B       		.uleb128 0x2b
 7451 283b 65787400 		.ascii	"ext\000"
 7452 283f 01       		.byte	0x1
 7453 2840 7801     		.2byte	0x178
 7454 2842 95130000 		.4byte	0x1395
 7455 2846 5D100000 		.4byte	.LLST109
 7456 284a 32       		.uleb128 0x32
 7457 284b 06000000 		.4byte	.LVL278
 7458 284f 8B2C0000 		.4byte	0x2c8b
 7459 2853 5F280000 		.4byte	0x285f
 7460 2857 33       		.uleb128 0x33
 7461 2858 01       		.uleb128 0x1
 7462 2859 50       		.byte	0x50
 7463 285a 03       		.uleb128 0x3
 7464 285b F3       		.byte	0xf3
 7465 285c 01       		.uleb128 0x1
 7466 285d 50       		.byte	0x50
 7467 285e 00       		.byte	0
 7468 285f 4B       		.uleb128 0x4b
 7469 2860 10000000 		.4byte	.LVL280
 7470 2864 752E0000 		.4byte	0x2e75
 7471 2868 00       		.byte	0
ARM GAS  C:\Users\pearlstl\AppData\Local\Temp\ccI2fBBa.s 			page 156


 7472 2869 4F       		.uleb128 0x4f
 7473 286a 60130000 		.4byte	0x1360
 7474 286e 00000000 		.4byte	.LFB81
 7475 2872 0A000000 		.4byte	.LFE81-.LFB81
 7476 2876 01       		.uleb128 0x1
 7477 2877 9C       		.byte	0x9c
 7478 2878 A0280000 		.4byte	0x28a0
 7479 287c 2F       		.uleb128 0x2f
 7480 287d 71130000 		.4byte	0x1371
 7481 2881 70100000 		.4byte	.LLST110
 7482 2885 31       		.uleb128 0x31
 7483 2886 7D130000 		.4byte	0x137d
 7484 288a 91100000 		.4byte	.LLST111
 7485 288e 35       		.uleb128 0x35
 7486 288f 06000000 		.4byte	.LVL282
 7487 2893 8B2C0000 		.4byte	0x2c8b
 7488 2897 33       		.uleb128 0x33
 7489 2898 01       		.uleb128 0x1
 7490 2899 50       		.byte	0x50
 7491 289a 03       		.uleb128 0x3
 7492 289b F3       		.byte	0xf3
 7493 289c 01       		.uleb128 0x1
 7494 289d 50       		.byte	0x50
 7495 289e 00       		.byte	0
 7496 289f 00       		.byte	0
 7497 28a0 50       		.uleb128 0x50
 7498 28a1 79060000 		.4byte	.LASF308
 7499 28a5 01       		.byte	0x1
 7500 28a6 8E01     		.2byte	0x18e
 7501 28a8 D9000000 		.4byte	0xd9
 7502 28ac 00000000 		.4byte	.LFB82
 7503 28b0 0C000000 		.4byte	.LFE82-.LFB82
 7504 28b4 01       		.uleb128 0x1
 7505 28b5 9C       		.byte	0x9c
 7506 28b6 EC280000 		.4byte	0x28ec
 7507 28ba 2A       		.uleb128 0x2a
 7508 28bb 77696E00 		.ascii	"win\000"
 7509 28bf 01       		.byte	0x1
 7510 28c0 8E01     		.2byte	0x18e
 7511 28c2 8A130000 		.4byte	0x138a
 7512 28c6 A4100000 		.4byte	.LLST112
 7513 28ca 2B       		.uleb128 0x2b
 7514 28cb 65787400 		.ascii	"ext\000"
 7515 28cf 01       		.byte	0x1
 7516 28d0 9201     		.2byte	0x192
 7517 28d2 95130000 		.4byte	0x1395
 7518 28d6 C5100000 		.4byte	.LLST113
 7519 28da 35       		.uleb128 0x35
 7520 28db 06000000 		.4byte	.LVL285
 7521 28df 8B2C0000 		.4byte	0x2c8b
 7522 28e3 33       		.uleb128 0x33
 7523 28e4 01       		.uleb128 0x1
 7524 28e5 50       		.byte	0x50
 7525 28e6 03       		.uleb128 0x3
 7526 28e7 F3       		.byte	0xf3
 7527 28e8 01       		.uleb128 0x1
 7528 28e9 50       		.byte	0x50
ARM GAS  C:\Users\pearlstl\AppData\Local\Temp\ccI2fBBa.s 			page 157


 7529 28ea 00       		.byte	0
 7530 28eb 00       		.byte	0
 7531 28ec 4F       		.uleb128 0x4f
 7532 28ed 9B130000 		.4byte	0x139b
 7533 28f1 00000000 		.4byte	.LFB83
 7534 28f5 0E000000 		.4byte	.LFE83-.LFB83
 7535 28f9 01       		.uleb128 0x1
 7536 28fa 9C       		.byte	0x9c
 7537 28fb 35290000 		.4byte	0x2935
 7538 28ff 2F       		.uleb128 0x2f
 7539 2900 AC130000 		.4byte	0x13ac
 7540 2904 D8100000 		.4byte	.LLST114
 7541 2908 31       		.uleb128 0x31
 7542 2909 B8130000 		.4byte	0x13b8
 7543 290d F9100000 		.4byte	.LLST115
 7544 2911 46       		.uleb128 0x46
 7545 2912 C4130000 		.4byte	0x13c4
 7546 2916 32       		.uleb128 0x32
 7547 2917 06000000 		.4byte	.LVL288
 7548 291b 812D0000 		.4byte	0x2d81
 7549 291f 2B290000 		.4byte	0x292b
 7550 2923 33       		.uleb128 0x33
 7551 2924 01       		.uleb128 0x1
 7552 2925 50       		.byte	0x50
 7553 2926 03       		.uleb128 0x3
 7554 2927 F3       		.byte	0xf3
 7555 2928 01       		.uleb128 0x1
 7556 2929 50       		.byte	0x50
 7557 292a 00       		.byte	0
 7558 292b 4B       		.uleb128 0x4b
 7559 292c 0E000000 		.4byte	.LVL289
 7560 2930 812D0000 		.4byte	0x2d81
 7561 2934 00       		.byte	0
 7562 2935 50       		.uleb128 0x50
 7563 2936 C7080000 		.4byte	.LASF309
 7564 293a 01       		.byte	0x1
 7565 293b AB01     		.2byte	0x1ab
 7566 293d ED090000 		.4byte	0x9ed
 7567 2941 00000000 		.4byte	.LFB84
 7568 2945 14000000 		.4byte	.LFE84-.LFB84
 7569 2949 01       		.uleb128 0x1
 7570 294a 9C       		.byte	0x9c
 7571 294b B1290000 		.4byte	0x29b1
 7572 294f 2A       		.uleb128 0x2a
 7573 2950 77696E00 		.ascii	"win\000"
 7574 2954 01       		.byte	0x1
 7575 2955 AB01     		.2byte	0x1ab
 7576 2957 970A0000 		.4byte	0xa97
 7577 295b 0C110000 		.4byte	.LLST116
 7578 295f 2B       		.uleb128 0x2b
 7579 2960 65787400 		.ascii	"ext\000"
 7580 2964 01       		.byte	0x1
 7581 2965 AF01     		.2byte	0x1af
 7582 2967 95130000 		.4byte	0x1395
 7583 296b 2D110000 		.4byte	.LLST117
 7584 296f 3A       		.uleb128 0x3a
 7585 2970 D1130000 		.4byte	0x13d1
ARM GAS  C:\Users\pearlstl\AppData\Local\Temp\ccI2fBBa.s 			page 158


 7586 2974 06000000 		.4byte	.LBB121
 7587 2978 68010000 		.4byte	.Ldebug_ranges0+0x168
 7588 297c 01       		.byte	0x1
 7589 297d B001     		.2byte	0x1b0
 7590 297f 9F290000 		.4byte	0x299f
 7591 2983 2F       		.uleb128 0x2f
 7592 2984 E2130000 		.4byte	0x13e2
 7593 2988 40110000 		.4byte	.LLST118
 7594 298c 34       		.uleb128 0x34
 7595 298d 0C000000 		.4byte	.LVL293
 7596 2991 0D2E0000 		.4byte	0x2e0d
 7597 2995 4B       		.uleb128 0x4b
 7598 2996 14000000 		.4byte	.LVL294
 7599 299a 802E0000 		.4byte	0x2e80
 7600 299e 00       		.byte	0
 7601 299f 35       		.uleb128 0x35
 7602 29a0 06000000 		.4byte	.LVL291
 7603 29a4 8B2C0000 		.4byte	0x2c8b
 7604 29a8 33       		.uleb128 0x33
 7605 29a9 01       		.uleb128 0x1
 7606 29aa 50       		.byte	0x50
 7607 29ab 03       		.uleb128 0x3
 7608 29ac F3       		.byte	0xf3
 7609 29ad 01       		.uleb128 0x1
 7610 29ae 50       		.byte	0x50
 7611 29af 00       		.byte	0
 7612 29b0 00       		.byte	0
 7613 29b1 50       		.uleb128 0x50
 7614 29b2 00050000 		.4byte	.LASF310
 7615 29b6 01       		.byte	0x1
 7616 29b7 B801     		.2byte	0x1b8
 7617 29b9 8C0A0000 		.4byte	0xa8c
 7618 29bd 00000000 		.4byte	.LFB85
 7619 29c1 10000000 		.4byte	.LFE85-.LFB85
 7620 29c5 01       		.uleb128 0x1
 7621 29c6 9C       		.byte	0x9c
 7622 29c7 0A2A0000 		.4byte	0x2a0a
 7623 29cb 2A       		.uleb128 0x2a
 7624 29cc 77696E00 		.ascii	"win\000"
 7625 29d0 01       		.byte	0x1
 7626 29d1 B801     		.2byte	0x1b8
 7627 29d3 970A0000 		.4byte	0xa97
 7628 29d7 5F110000 		.4byte	.LLST119
 7629 29db 2B       		.uleb128 0x2b
 7630 29dc 65787400 		.ascii	"ext\000"
 7631 29e0 01       		.byte	0x1
 7632 29e1 BC01     		.2byte	0x1bc
 7633 29e3 95130000 		.4byte	0x1395
 7634 29e7 80110000 		.4byte	.LLST120
 7635 29eb 32       		.uleb128 0x32
 7636 29ec 06000000 		.4byte	.LVL296
 7637 29f0 8B2C0000 		.4byte	0x2c8b
 7638 29f4 002A0000 		.4byte	0x2a00
 7639 29f8 33       		.uleb128 0x33
 7640 29f9 01       		.uleb128 0x1
 7641 29fa 50       		.byte	0x50
 7642 29fb 03       		.uleb128 0x3
ARM GAS  C:\Users\pearlstl\AppData\Local\Temp\ccI2fBBa.s 			page 159


 7643 29fc F3       		.byte	0xf3
 7644 29fd 01       		.uleb128 0x1
 7645 29fe 50       		.byte	0x50
 7646 29ff 00       		.byte	0
 7647 2a00 4B       		.uleb128 0x4b
 7648 2a01 10000000 		.4byte	.LVL298
 7649 2a05 8B2E0000 		.4byte	0x2e8b
 7650 2a09 00       		.byte	0
 7651 2a0a 50       		.uleb128 0x50
 7652 2a0b 7A0F0000 		.4byte	.LASF311
 7653 2a0f 01       		.byte	0x1
 7654 2a10 C501     		.2byte	0x1c5
 7655 2a12 C3000000 		.4byte	0xc3
 7656 2a16 00000000 		.4byte	.LFB86
 7657 2a1a 10000000 		.4byte	.LFE86-.LFB86
 7658 2a1e 01       		.uleb128 0x1
 7659 2a1f 9C       		.byte	0x9c
 7660 2a20 7C2A0000 		.4byte	0x2a7c
 7661 2a24 2A       		.uleb128 0x2a
 7662 2a25 77696E00 		.ascii	"win\000"
 7663 2a29 01       		.byte	0x1
 7664 2a2a C501     		.2byte	0x1c5
 7665 2a2c 8A130000 		.4byte	0x138a
 7666 2a30 93110000 		.4byte	.LLST121
 7667 2a34 2E       		.uleb128 0x2e
 7668 2a35 60130000 		.4byte	0x1360
 7669 2a39 02000000 		.4byte	.LBB125
 7670 2a3d 04000000 		.4byte	.LBE125-.LBB125
 7671 2a41 01       		.byte	0x1
 7672 2a42 C901     		.2byte	0x1c9
 7673 2a44 722A0000 		.4byte	0x2a72
 7674 2a48 2F       		.uleb128 0x2f
 7675 2a49 71130000 		.4byte	0x1371
 7676 2a4d B4110000 		.4byte	.LLST122
 7677 2a51 30       		.uleb128 0x30
 7678 2a52 02000000 		.4byte	.LBB126
 7679 2a56 04000000 		.4byte	.LBE126-.LBB126
 7680 2a5a 46       		.uleb128 0x46
 7681 2a5b 7D130000 		.4byte	0x137d
 7682 2a5f 35       		.uleb128 0x35
 7683 2a60 06000000 		.4byte	.LVL300
 7684 2a64 8B2C0000 		.4byte	0x2c8b
 7685 2a68 33       		.uleb128 0x33
 7686 2a69 01       		.uleb128 0x1
 7687 2a6a 50       		.byte	0x50
 7688 2a6b 03       		.uleb128 0x3
 7689 2a6c F3       		.byte	0xf3
 7690 2a6d 01       		.uleb128 0x1
 7691 2a6e 50       		.byte	0x50
 7692 2a6f 00       		.byte	0
 7693 2a70 00       		.byte	0
 7694 2a71 00       		.byte	0
 7695 2a72 4B       		.uleb128 0x4b
 7696 2a73 10000000 		.4byte	.LVL301
 7697 2a77 962E0000 		.4byte	0x2e96
 7698 2a7b 00       		.byte	0
 7699 2a7c 50       		.uleb128 0x50
ARM GAS  C:\Users\pearlstl\AppData\Local\Temp\ccI2fBBa.s 			page 160


 7700 2a7d 6D000000 		.4byte	.LASF312
 7701 2a81 01       		.byte	0x1
 7702 2a82 D101     		.2byte	0x1d1
 7703 2a84 D9000000 		.4byte	0xd9
 7704 2a88 00000000 		.4byte	.LFB87
 7705 2a8c 26000000 		.4byte	.LFE87-.LFB87
 7706 2a90 01       		.uleb128 0x1
 7707 2a91 9C       		.byte	0x9c
 7708 2a92 192B0000 		.4byte	0x2b19
 7709 2a96 2A       		.uleb128 0x2a
 7710 2a97 77696E00 		.ascii	"win\000"
 7711 2a9b 01       		.byte	0x1
 7712 2a9c D101     		.2byte	0x1d1
 7713 2a9e 970A0000 		.4byte	0xa97
 7714 2aa2 D5110000 		.4byte	.LLST123
 7715 2aa6 2B       		.uleb128 0x2b
 7716 2aa7 65787400 		.ascii	"ext\000"
 7717 2aab 01       		.byte	0x1
 7718 2aac D501     		.2byte	0x1d5
 7719 2aae 95130000 		.4byte	0x1395
 7720 2ab2 F6110000 		.4byte	.LLST124
 7721 2ab6 2D       		.uleb128 0x2d
 7722 2ab7 69040000 		.4byte	.LASF243
 7723 2abb 01       		.byte	0x1
 7724 2abc D601     		.2byte	0x1d6
 7725 2abe 970A0000 		.4byte	0xa97
 7726 2ac2 09120000 		.4byte	.LLST125
 7727 2ac6 2D       		.uleb128 0x2d
 7728 2ac7 5B090000 		.4byte	.LASF313
 7729 2acb 01       		.byte	0x1
 7730 2acc D701     		.2byte	0x1d7
 7731 2ace A0090000 		.4byte	0x9a0
 7732 2ad2 27120000 		.4byte	.LLST126
 7733 2ad6 32       		.uleb128 0x32
 7734 2ad7 06000000 		.4byte	.LVL303
 7735 2adb 8B2C0000 		.4byte	0x2c8b
 7736 2adf EB2A0000 		.4byte	0x2aeb
 7737 2ae3 33       		.uleb128 0x33
 7738 2ae4 01       		.uleb128 0x1
 7739 2ae5 50       		.byte	0x50
 7740 2ae6 03       		.uleb128 0x3
 7741 2ae7 F3       		.byte	0xf3
 7742 2ae8 01       		.uleb128 0x1
 7743 2ae9 50       		.byte	0x50
 7744 2aea 00       		.byte	0
 7745 2aeb 34       		.uleb128 0x34
 7746 2aec 0C000000 		.4byte	.LVL305
 7747 2af0 0D2E0000 		.4byte	0x2e0d
 7748 2af4 32       		.uleb128 0x32
 7749 2af5 12000000 		.4byte	.LVL307
 7750 2af9 972C0000 		.4byte	0x2c97
 7751 2afd 082B0000 		.4byte	0x2b08
 7752 2b01 33       		.uleb128 0x33
 7753 2b02 01       		.uleb128 0x1
 7754 2b03 50       		.byte	0x50
 7755 2b04 02       		.uleb128 0x2
 7756 2b05 75       		.byte	0x75
ARM GAS  C:\Users\pearlstl\AppData\Local\Temp\ccI2fBBa.s 			page 161


 7757 2b06 00       		.sleb128 0
 7758 2b07 00       		.byte	0
 7759 2b08 35       		.uleb128 0x35
 7760 2b09 1A000000 		.4byte	.LVL310
 7761 2b0d A32C0000 		.4byte	0x2ca3
 7762 2b11 33       		.uleb128 0x33
 7763 2b12 01       		.uleb128 0x1
 7764 2b13 50       		.byte	0x50
 7765 2b14 02       		.uleb128 0x2
 7766 2b15 75       		.byte	0x75
 7767 2b16 00       		.sleb128 0
 7768 2b17 00       		.byte	0
 7769 2b18 00       		.byte	0
 7770 2b19 4F       		.uleb128 0x4f
 7771 2b1a EF130000 		.4byte	0x13ef
 7772 2b1e 00000000 		.4byte	.LFB88
 7773 2b22 50000000 		.4byte	.LFE88-.LFB88
 7774 2b26 01       		.uleb128 0x1
 7775 2b27 9C       		.byte	0x9c
 7776 2b28 A92B0000 		.4byte	0x2ba9
 7777 2b2c 2F       		.uleb128 0x2f
 7778 2b2d 00140000 		.4byte	0x1400
 7779 2b31 45120000 		.4byte	.LLST127
 7780 2b35 2F       		.uleb128 0x2f
 7781 2b36 0C140000 		.4byte	0x140c
 7782 2b3a D2120000 		.4byte	.LLST128
 7783 2b3e 31       		.uleb128 0x31
 7784 2b3f 18140000 		.4byte	0x1418
 7785 2b43 F3120000 		.4byte	.LLST129
 7786 2b47 31       		.uleb128 0x31
 7787 2b48 24140000 		.4byte	0x1424
 7788 2b4c 40130000 		.4byte	.LLST130
 7789 2b50 32       		.uleb128 0x32
 7790 2b51 0A000000 		.4byte	.LVL312
 7791 2b55 8B2C0000 		.4byte	0x2c8b
 7792 2b59 642B0000 		.4byte	0x2b64
 7793 2b5d 33       		.uleb128 0x33
 7794 2b5e 01       		.uleb128 0x1
 7795 2b5f 50       		.byte	0x50
 7796 2b60 02       		.uleb128 0x2
 7797 2b61 75       		.byte	0x75
 7798 2b62 00       		.sleb128 0
 7799 2b63 00       		.byte	0
 7800 2b64 3C       		.uleb128 0x3c
 7801 2b65 26000000 		.4byte	.LVL317
 7802 2b69 972C0000 		.4byte	0x2c97
 7803 2b6d 792B0000 		.4byte	0x2b79
 7804 2b71 33       		.uleb128 0x33
 7805 2b72 01       		.uleb128 0x1
 7806 2b73 50       		.byte	0x50
 7807 2b74 03       		.uleb128 0x3
 7808 2b75 F3       		.byte	0xf3
 7809 2b76 01       		.uleb128 0x1
 7810 2b77 50       		.byte	0x50
 7811 2b78 00       		.byte	0
 7812 2b79 3C       		.uleb128 0x3c
 7813 2b7a 32000000 		.4byte	.LVL320
ARM GAS  C:\Users\pearlstl\AppData\Local\Temp\ccI2fBBa.s 			page 162


 7814 2b7e A12E0000 		.4byte	0x2ea1
 7815 2b82 8C2B0000 		.4byte	0x2b8c
 7816 2b86 33       		.uleb128 0x33
 7817 2b87 01       		.uleb128 0x1
 7818 2b88 51       		.byte	0x51
 7819 2b89 01       		.uleb128 0x1
 7820 2b8a 31       		.byte	0x31
 7821 2b8b 00       		.byte	0
 7822 2b8c 3C       		.uleb128 0x3c
 7823 2b8d 3E000000 		.4byte	.LVL323
 7824 2b91 A12E0000 		.4byte	0x2ea1
 7825 2b95 9F2B0000 		.4byte	0x2b9f
 7826 2b99 33       		.uleb128 0x33
 7827 2b9a 01       		.uleb128 0x1
 7828 2b9b 51       		.byte	0x51
 7829 2b9c 01       		.uleb128 0x1
 7830 2b9d 32       		.byte	0x32
 7831 2b9e 00       		.byte	0
 7832 2b9f 4B       		.uleb128 0x4b
 7833 2ba0 48000000 		.4byte	.LVL326
 7834 2ba4 972C0000 		.4byte	0x2c97
 7835 2ba8 00       		.byte	0
 7836 2ba9 4E       		.uleb128 0x4e
 7837 2baa 60000000 		.4byte	.LASF314
 7838 2bae 01       		.byte	0x1
 7839 2baf 0002     		.2byte	0x200
 7840 2bb1 00000000 		.4byte	.LFB89
 7841 2bb5 18000000 		.4byte	.LFE89-.LFB89
 7842 2bb9 01       		.uleb128 0x1
 7843 2bba 9C       		.byte	0x9c
 7844 2bbb 262C0000 		.4byte	0x2c26
 7845 2bbf 2A       		.uleb128 0x2a
 7846 2bc0 77696E00 		.ascii	"win\000"
 7847 2bc4 01       		.byte	0x1
 7848 2bc5 0002     		.2byte	0x200
 7849 2bc7 970A0000 		.4byte	0xa97
 7850 2bcb 95130000 		.4byte	.LLST131
 7851 2bcf 2A       		.uleb128 0x2a
 7852 2bd0 6F626A00 		.ascii	"obj\000"
 7853 2bd4 01       		.byte	0x1
 7854 2bd5 0002     		.2byte	0x200
 7855 2bd7 970A0000 		.4byte	0xa97
 7856 2bdb B6130000 		.4byte	.LLST132
 7857 2bdf 37       		.uleb128 0x37
 7858 2be0 43130000 		.4byte	.LASF315
 7859 2be4 01       		.byte	0x1
 7860 2be5 0002     		.2byte	0x200
 7861 2be7 E0020000 		.4byte	0x2e0
 7862 2beb ED130000 		.4byte	.LLST133
 7863 2bef 2B       		.uleb128 0x2b
 7864 2bf0 65787400 		.ascii	"ext\000"
 7865 2bf4 01       		.byte	0x1
 7866 2bf5 0602     		.2byte	0x206
 7867 2bf7 95130000 		.4byte	0x1395
 7868 2bfb 0E140000 		.4byte	.LLST134
 7869 2bff 32       		.uleb128 0x32
 7870 2c00 0A000000 		.4byte	.LVL331
ARM GAS  C:\Users\pearlstl\AppData\Local\Temp\ccI2fBBa.s 			page 163


 7871 2c04 8B2C0000 		.4byte	0x2c8b
 7872 2c08 142C0000 		.4byte	0x2c14
 7873 2c0c 33       		.uleb128 0x33
 7874 2c0d 01       		.uleb128 0x1
 7875 2c0e 50       		.byte	0x50
 7876 2c0f 03       		.uleb128 0x3
 7877 2c10 F3       		.byte	0xf3
 7878 2c11 01       		.uleb128 0x1
 7879 2c12 50       		.byte	0x50
 7880 2c13 00       		.byte	0
 7881 2c14 4D       		.uleb128 0x4d
 7882 2c15 18000000 		.4byte	.LVL334
 7883 2c19 AD2E0000 		.4byte	0x2ead
 7884 2c1d 33       		.uleb128 0x33
 7885 2c1e 01       		.uleb128 0x1
 7886 2c1f 51       		.byte	0x51
 7887 2c20 03       		.uleb128 0x3
 7888 2c21 F3       		.byte	0xf3
 7889 2c22 01       		.uleb128 0x1
 7890 2c23 51       		.byte	0x51
 7891 2c24 00       		.byte	0
 7892 2c25 00       		.byte	0
 7893 2c26 51       		.uleb128 0x51
 7894 2c27 870E0000 		.4byte	.LASF316
 7895 2c2b 01       		.byte	0x1
 7896 2c2c 22       		.byte	0x22
 7897 2c2d 68080000 		.4byte	0x868
 7898 2c31 05       		.uleb128 0x5
 7899 2c32 03       		.byte	0x3
 7900 2c33 00000000 		.4byte	ancestor_signal
 7901 2c37 52       		.uleb128 0x52
 7902 2c38 09120000 		.4byte	.LASF317
 7903 2c3c 0A       		.byte	0xa
 7904 2c3d 0C01     		.2byte	0x10c
 7905 2c3f 16050000 		.4byte	0x516
 7906 2c43 52       		.uleb128 0x52
 7907 2c44 B0140000 		.4byte	.LASF318
 7908 2c48 0A       		.byte	0xa
 7909 2c49 0D01     		.2byte	0x10d
 7910 2c4b 16050000 		.4byte	0x516
 7911 2c4f 52       		.uleb128 0x52
 7912 2c50 910B0000 		.4byte	.LASF319
 7913 2c54 0A       		.byte	0xa
 7914 2c55 0F01     		.2byte	0x10f
 7915 2c57 16050000 		.4byte	0x516
 7916 2c5b 52       		.uleb128 0x52
 7917 2c5c 8D060000 		.4byte	.LASF320
 7918 2c60 0A       		.byte	0xa
 7919 2c61 1001     		.2byte	0x110
 7920 2c63 16050000 		.4byte	0x516
 7921 2c67 52       		.uleb128 0x52
 7922 2c68 F80F0000 		.4byte	.LASF321
 7923 2c6c 0A       		.byte	0xa
 7924 2c6d 1101     		.2byte	0x111
 7925 2c6f 16050000 		.4byte	0x516
 7926 2c73 52       		.uleb128 0x52
 7927 2c74 BB0A0000 		.4byte	.LASF322
ARM GAS  C:\Users\pearlstl\AppData\Local\Temp\ccI2fBBa.s 			page 164


 7928 2c78 0A       		.byte	0xa
 7929 2c79 1301     		.2byte	0x113
 7930 2c7b 16050000 		.4byte	0x516
 7931 2c7f 52       		.uleb128 0x52
 7932 2c80 B70E0000 		.4byte	.LASF323
 7933 2c84 0A       		.byte	0xa
 7934 2c85 1401     		.2byte	0x114
 7935 2c87 16050000 		.4byte	0x516
 7936 2c8b 53       		.uleb128 0x53
 7937 2c8c E0050000 		.4byte	.LASF324
 7938 2c90 E0050000 		.4byte	.LASF324
 7939 2c94 0E       		.byte	0xe
 7940 2c95 AA03     		.2byte	0x3aa
 7941 2c97 53       		.uleb128 0x53
 7942 2c98 9A040000 		.4byte	.LASF325
 7943 2c9c 9A040000 		.4byte	.LASF325
 7944 2ca0 0E       		.byte	0xe
 7945 2ca1 2D03     		.2byte	0x32d
 7946 2ca3 53       		.uleb128 0x53
 7947 2ca4 06020000 		.4byte	.LASF326
 7948 2ca8 06020000 		.4byte	.LASF326
 7949 2cac 0E       		.byte	0xe
 7950 2cad E302     		.2byte	0x2e3
 7951 2caf 53       		.uleb128 0x53
 7952 2cb0 4B130000 		.4byte	.LASF327
 7953 2cb4 4B130000 		.4byte	.LASF327
 7954 2cb8 0E       		.byte	0xe
 7955 2cb9 8501     		.2byte	0x185
 7956 2cbb 53       		.uleb128 0x53
 7957 2cbc D0040000 		.4byte	.LASF328
 7958 2cc0 D0040000 		.4byte	.LASF328
 7959 2cc4 0E       		.byte	0xe
 7960 2cc5 AF02     		.2byte	0x2af
 7961 2cc7 53       		.uleb128 0x53
 7962 2cc8 BF050000 		.4byte	.LASF329
 7963 2ccc BF050000 		.4byte	.LASF329
 7964 2cd0 0E       		.byte	0xe
 7965 2cd1 9D01     		.2byte	0x19d
 7966 2cd3 53       		.uleb128 0x53
 7967 2cd4 3B080000 		.4byte	.LASF330
 7968 2cd8 3B080000 		.4byte	.LASF330
 7969 2cdc 0E       		.byte	0xe
 7970 2cdd 6F01     		.2byte	0x16f
 7971 2cdf 53       		.uleb128 0x53
 7972 2ce0 630F0000 		.4byte	.LASF331
 7973 2ce4 630F0000 		.4byte	.LASF331
 7974 2ce8 0E       		.byte	0xe
 7975 2ce9 EA02     		.2byte	0x2ea
 7976 2ceb 53       		.uleb128 0x53
 7977 2cec A4080000 		.4byte	.LASF332
 7978 2cf0 A4080000 		.4byte	.LASF332
 7979 2cf4 0E       		.byte	0xe
 7980 2cf5 A602     		.2byte	0x2a6
 7981 2cf7 53       		.uleb128 0x53
 7982 2cf8 7D030000 		.4byte	.LASF333
 7983 2cfc 7D030000 		.4byte	.LASF333
 7984 2d00 0E       		.byte	0xe
ARM GAS  C:\Users\pearlstl\AppData\Local\Temp\ccI2fBBa.s 			page 165


 7985 2d01 5701     		.2byte	0x157
 7986 2d03 53       		.uleb128 0x53
 7987 2d04 BE010000 		.4byte	.LASF334
 7988 2d08 BE010000 		.4byte	.LASF334
 7989 2d0c 0E       		.byte	0xe
 7990 2d0d 8903     		.2byte	0x389
 7991 2d0f 53       		.uleb128 0x53
 7992 2d10 BB0F0000 		.4byte	.LASF335
 7993 2d14 BB0F0000 		.4byte	.LASF335
 7994 2d18 0E       		.byte	0xe
 7995 2d19 E703     		.2byte	0x3e7
 7996 2d1b 53       		.uleb128 0x53
 7997 2d1c 61060000 		.4byte	.LASF336
 7998 2d20 61060000 		.4byte	.LASF336
 7999 2d24 0E       		.byte	0xe
 8000 2d25 2401     		.2byte	0x124
 8001 2d27 54       		.uleb128 0x54
 8002 2d28 4A080000 		.4byte	.LASF337
 8003 2d2c 4A080000 		.4byte	.LASF337
 8004 2d30 13       		.byte	0x13
 8005 2d31 79       		.byte	0x79
 8006 2d32 54       		.uleb128 0x54
 8007 2d33 AB0C0000 		.4byte	.LASF338
 8008 2d37 AB0C0000 		.4byte	.LASF338
 8009 2d3b 03       		.byte	0x3
 8010 2d3c 70       		.byte	0x70
 8011 2d3d 54       		.uleb128 0x54
 8012 2d3e EF100000 		.4byte	.LASF339
 8013 2d42 EF100000 		.4byte	.LASF339
 8014 2d46 10       		.byte	0x10
 8015 2d47 78       		.byte	0x78
 8016 2d48 54       		.uleb128 0x54
 8017 2d49 81130000 		.4byte	.LASF340
 8018 2d4d 81130000 		.4byte	.LASF340
 8019 2d51 14       		.byte	0x14
 8020 2d52 42       		.byte	0x42
 8021 2d53 53       		.uleb128 0x53
 8022 2d54 72010000 		.4byte	.LASF341
 8023 2d58 72010000 		.4byte	.LASF341
 8024 2d5c 0E       		.byte	0xe
 8025 2d5d 6002     		.2byte	0x260
 8026 2d5f 53       		.uleb128 0x53
 8027 2d60 0F130000 		.4byte	.LASF342
 8028 2d64 0F130000 		.4byte	.LASF342
 8029 2d68 0E       		.byte	0xe
 8030 2d69 CA01     		.2byte	0x1ca
 8031 2d6b 54       		.uleb128 0x54
 8032 2d6c E0060000 		.4byte	.LASF343
 8033 2d70 E0060000 		.4byte	.LASF343
 8034 2d74 03       		.byte	0x3
 8035 2d75 F0       		.byte	0xf0
 8036 2d76 54       		.uleb128 0x54
 8037 2d77 F5120000 		.4byte	.LASF344
 8038 2d7b F5120000 		.4byte	.LASF344
 8039 2d7f 10       		.byte	0x10
 8040 2d80 DC       		.byte	0xdc
 8041 2d81 53       		.uleb128 0x53
ARM GAS  C:\Users\pearlstl\AppData\Local\Temp\ccI2fBBa.s 			page 166


 8042 2d82 FD0B0000 		.4byte	.LASF345
 8043 2d86 FD0B0000 		.4byte	.LASF345
 8044 2d8a 0E       		.byte	0xe
 8045 2d8b 9D02     		.2byte	0x29d
 8046 2d8d 53       		.uleb128 0x53
 8047 2d8e 58120000 		.4byte	.LASF346
 8048 2d92 58120000 		.4byte	.LASF346
 8049 2d96 0E       		.byte	0xe
 8050 2d97 F102     		.2byte	0x2f1
 8051 2d99 53       		.uleb128 0x53
 8052 2d9a FD0A0000 		.4byte	.LASF347
 8053 2d9e FD0A0000 		.4byte	.LASF347
 8054 2da2 0E       		.byte	0xe
 8055 2da3 F802     		.2byte	0x2f8
 8056 2da5 53       		.uleb128 0x53
 8057 2da6 E70E0000 		.4byte	.LASF348
 8058 2daa E70E0000 		.4byte	.LASF348
 8059 2dae 0E       		.byte	0xe
 8060 2daf 2E02     		.2byte	0x22e
 8061 2db1 54       		.uleb128 0x54
 8062 2db2 3B150000 		.4byte	.LASF349
 8063 2db6 3B150000 		.4byte	.LASF349
 8064 2dba 03       		.byte	0x3
 8065 2dbb 8F       		.byte	0x8f
 8066 2dbc 54       		.uleb128 0x54
 8067 2dbd 49090000 		.4byte	.LASF350
 8068 2dc1 49090000 		.4byte	.LASF350
 8069 2dc5 13       		.byte	0x13
 8070 2dc6 84       		.byte	0x84
 8071 2dc7 53       		.uleb128 0x53
 8072 2dc8 90150000 		.4byte	.LASF351
 8073 2dcc 90150000 		.4byte	.LASF351
 8074 2dd0 12       		.byte	0x12
 8075 2dd1 6501     		.2byte	0x165
 8076 2dd3 54       		.uleb128 0x54
 8077 2dd4 4D060000 		.4byte	.LASF352
 8078 2dd8 4D060000 		.4byte	.LASF352
 8079 2ddc 15       		.byte	0x15
 8080 2ddd D9       		.byte	0xd9
 8081 2dde 54       		.uleb128 0x54
 8082 2ddf C3120000 		.4byte	.LASF353
 8083 2de3 C3120000 		.4byte	.LASF353
 8084 2de7 15       		.byte	0x15
 8085 2de8 E0       		.byte	0xe0
 8086 2de9 53       		.uleb128 0x53
 8087 2dea 5C050000 		.4byte	.LASF354
 8088 2dee 5C050000 		.4byte	.LASF354
 8089 2df2 0E       		.byte	0xe
 8090 2df3 7A02     		.2byte	0x27a
 8091 2df5 53       		.uleb128 0x53
 8092 2df6 1C090000 		.4byte	.LASF355
 8093 2dfa 1C090000 		.4byte	.LASF355
 8094 2dfe 0E       		.byte	0xe
 8095 2dff D001     		.2byte	0x1d0
 8096 2e01 53       		.uleb128 0x53
 8097 2e02 1A0F0000 		.4byte	.LASF356
 8098 2e06 1A0F0000 		.4byte	.LASF356
ARM GAS  C:\Users\pearlstl\AppData\Local\Temp\ccI2fBBa.s 			page 167


 8099 2e0a 0E       		.byte	0xe
 8100 2e0b 9003     		.2byte	0x390
 8101 2e0d 54       		.uleb128 0x54
 8102 2e0e 02140000 		.4byte	.LASF357
 8103 2e12 02140000 		.4byte	.LASF357
 8104 2e16 03       		.byte	0x3
 8105 2e17 7D       		.byte	0x7d
 8106 2e18 53       		.uleb128 0x53
 8107 2e19 16040000 		.4byte	.LASF358
 8108 2e1d 16040000 		.4byte	.LASF358
 8109 2e21 0E       		.byte	0xe
 8110 2e22 3901     		.2byte	0x139
 8111 2e24 53       		.uleb128 0x53
 8112 2e25 92100000 		.4byte	.LASF359
 8113 2e29 92100000 		.4byte	.LASF359
 8114 2e2d 0E       		.byte	0xe
 8115 2e2e E901     		.2byte	0x1e9
 8116 2e30 54       		.uleb128 0x54
 8117 2e31 CC0B0000 		.4byte	.LASF360
 8118 2e35 CC0B0000 		.4byte	.LASF360
 8119 2e39 14       		.byte	0x14
 8120 2e3a 4D       		.byte	0x4d
 8121 2e3b 53       		.uleb128 0x53
 8122 2e3c C3130000 		.4byte	.LASF361
 8123 2e40 C3130000 		.4byte	.LASF361
 8124 2e44 0E       		.byte	0xe
 8125 2e45 2B01     		.2byte	0x12b
 8126 2e47 54       		.uleb128 0x54
 8127 2e48 5A030000 		.4byte	.LASF362
 8128 2e4c 5A030000 		.4byte	.LASF362
 8129 2e50 0F       		.byte	0xf
 8130 2e51 65       		.byte	0x65
 8131 2e52 54       		.uleb128 0x54
 8132 2e53 59020000 		.4byte	.LASF363
 8133 2e57 59020000 		.4byte	.LASF363
 8134 2e5b 03       		.byte	0x3
 8135 2e5c 96       		.byte	0x96
 8136 2e5d 53       		.uleb128 0x53
 8137 2e5e 2F0F0000 		.4byte	.LASF364
 8138 2e62 2F0F0000 		.4byte	.LASF364
 8139 2e66 0E       		.byte	0xe
 8140 2e67 0E02     		.2byte	0x20e
 8141 2e69 53       		.uleb128 0x53
 8142 2e6a 040F0000 		.4byte	.LASF365
 8143 2e6e 040F0000 		.4byte	.LASF365
 8144 2e72 0E       		.byte	0xe
 8145 2e73 F801     		.2byte	0x1f8
 8146 2e75 54       		.uleb128 0x54
 8147 2e76 EE030000 		.4byte	.LASF366
 8148 2e7a EE030000 		.4byte	.LASF366
 8149 2e7e 13       		.byte	0x13
 8150 2e7f E6       		.byte	0xe6
 8151 2e80 54       		.uleb128 0x54
 8152 2e81 B40B0000 		.4byte	.LASF367
 8153 2e85 B40B0000 		.4byte	.LASF367
 8154 2e89 0F       		.byte	0xf
 8155 2e8a 9E       		.byte	0x9e
ARM GAS  C:\Users\pearlstl\AppData\Local\Temp\ccI2fBBa.s 			page 168


 8156 2e8b 54       		.uleb128 0x54
 8157 2e8c 090D0000 		.4byte	.LASF368
 8158 2e90 090D0000 		.4byte	.LASF368
 8159 2e94 03       		.byte	0x3
 8160 2e95 FB       		.byte	0xfb
 8161 2e96 54       		.uleb128 0x54
 8162 2e97 08100000 		.4byte	.LASF369
 8163 2e9b 08100000 		.4byte	.LASF369
 8164 2e9f 03       		.byte	0x3
 8165 2ea0 84       		.byte	0x84
 8166 2ea1 53       		.uleb128 0x53
 8167 2ea2 C40D0000 		.4byte	.LASF370
 8168 2ea6 C40D0000 		.4byte	.LASF370
 8169 2eaa 03       		.byte	0x3
 8170 2eab 6501     		.2byte	0x165
 8171 2ead 53       		.uleb128 0x53
 8172 2eae 30120000 		.4byte	.LASF371
 8173 2eb2 30120000 		.4byte	.LASF371
 8174 2eb6 03       		.byte	0x3
 8175 2eb7 8001     		.2byte	0x180
 8176 2eb9 00       		.byte	0
 8177              		.section	.debug_abbrev,"",%progbits
 8178              	.Ldebug_abbrev0:
 8179 0000 01       		.uleb128 0x1
 8180 0001 11       		.uleb128 0x11
 8181 0002 01       		.byte	0x1
 8182 0003 25       		.uleb128 0x25
 8183 0004 0E       		.uleb128 0xe
 8184 0005 13       		.uleb128 0x13
 8185 0006 0B       		.uleb128 0xb
 8186 0007 03       		.uleb128 0x3
 8187 0008 0E       		.uleb128 0xe
 8188 0009 1B       		.uleb128 0x1b
 8189 000a 0E       		.uleb128 0xe
 8190 000b 55       		.uleb128 0x55
 8191 000c 17       		.uleb128 0x17
 8192 000d 11       		.uleb128 0x11
 8193 000e 01       		.uleb128 0x1
 8194 000f 10       		.uleb128 0x10
 8195 0010 17       		.uleb128 0x17
 8196 0011 00       		.byte	0
 8197 0012 00       		.byte	0
 8198 0013 02       		.uleb128 0x2
 8199 0014 16       		.uleb128 0x16
 8200 0015 00       		.byte	0
 8201 0016 03       		.uleb128 0x3
 8202 0017 0E       		.uleb128 0xe
 8203 0018 3A       		.uleb128 0x3a
 8204 0019 0B       		.uleb128 0xb
 8205 001a 3B       		.uleb128 0x3b
 8206 001b 0B       		.uleb128 0xb
 8207 001c 49       		.uleb128 0x49
 8208 001d 13       		.uleb128 0x13
 8209 001e 00       		.byte	0
 8210 001f 00       		.byte	0
 8211 0020 03       		.uleb128 0x3
 8212 0021 24       		.uleb128 0x24
ARM GAS  C:\Users\pearlstl\AppData\Local\Temp\ccI2fBBa.s 			page 169


 8213 0022 00       		.byte	0
 8214 0023 0B       		.uleb128 0xb
 8215 0024 0B       		.uleb128 0xb
 8216 0025 3E       		.uleb128 0x3e
 8217 0026 0B       		.uleb128 0xb
 8218 0027 03       		.uleb128 0x3
 8219 0028 0E       		.uleb128 0xe
 8220 0029 00       		.byte	0
 8221 002a 00       		.byte	0
 8222 002b 04       		.uleb128 0x4
 8223 002c 24       		.uleb128 0x24
 8224 002d 00       		.byte	0
 8225 002e 0B       		.uleb128 0xb
 8226 002f 0B       		.uleb128 0xb
 8227 0030 3E       		.uleb128 0x3e
 8228 0031 0B       		.uleb128 0xb
 8229 0032 03       		.uleb128 0x3
 8230 0033 08       		.uleb128 0x8
 8231 0034 00       		.byte	0
 8232 0035 00       		.byte	0
 8233 0036 05       		.uleb128 0x5
 8234 0037 0F       		.uleb128 0xf
 8235 0038 00       		.byte	0
 8236 0039 0B       		.uleb128 0xb
 8237 003a 0B       		.uleb128 0xb
 8238 003b 00       		.byte	0
 8239 003c 00       		.byte	0
 8240 003d 06       		.uleb128 0x6
 8241 003e 13       		.uleb128 0x13
 8242 003f 01       		.byte	0x1
 8243 0040 0B       		.uleb128 0xb
 8244 0041 0B       		.uleb128 0xb
 8245 0042 3A       		.uleb128 0x3a
 8246 0043 0B       		.uleb128 0xb
 8247 0044 3B       		.uleb128 0x3b
 8248 0045 0B       		.uleb128 0xb
 8249 0046 01       		.uleb128 0x1
 8250 0047 13       		.uleb128 0x13
 8251 0048 00       		.byte	0
 8252 0049 00       		.byte	0
 8253 004a 07       		.uleb128 0x7
 8254 004b 0D       		.uleb128 0xd
 8255 004c 00       		.byte	0
 8256 004d 03       		.uleb128 0x3
 8257 004e 0E       		.uleb128 0xe
 8258 004f 3A       		.uleb128 0x3a
 8259 0050 0B       		.uleb128 0xb
 8260 0051 3B       		.uleb128 0x3b
 8261 0052 0B       		.uleb128 0xb
 8262 0053 49       		.uleb128 0x49
 8263 0054 13       		.uleb128 0x13
 8264 0055 38       		.uleb128 0x38
 8265 0056 0B       		.uleb128 0xb
 8266 0057 00       		.byte	0
 8267 0058 00       		.byte	0
 8268 0059 08       		.uleb128 0x8
 8269 005a 0D       		.uleb128 0xd
ARM GAS  C:\Users\pearlstl\AppData\Local\Temp\ccI2fBBa.s 			page 170


 8270 005b 00       		.byte	0
 8271 005c 03       		.uleb128 0x3
 8272 005d 08       		.uleb128 0x8
 8273 005e 3A       		.uleb128 0x3a
 8274 005f 0B       		.uleb128 0xb
 8275 0060 3B       		.uleb128 0x3b
 8276 0061 0B       		.uleb128 0xb
 8277 0062 49       		.uleb128 0x49
 8278 0063 13       		.uleb128 0x13
 8279 0064 38       		.uleb128 0x38
 8280 0065 0B       		.uleb128 0xb
 8281 0066 00       		.byte	0
 8282 0067 00       		.byte	0
 8283 0068 09       		.uleb128 0x9
 8284 0069 13       		.uleb128 0x13
 8285 006a 01       		.byte	0x1
 8286 006b 03       		.uleb128 0x3
 8287 006c 0E       		.uleb128 0xe
 8288 006d 0B       		.uleb128 0xb
 8289 006e 0B       		.uleb128 0xb
 8290 006f 3A       		.uleb128 0x3a
 8291 0070 0B       		.uleb128 0xb
 8292 0071 3B       		.uleb128 0x3b
 8293 0072 0B       		.uleb128 0xb
 8294 0073 01       		.uleb128 0x1
 8295 0074 13       		.uleb128 0x13
 8296 0075 00       		.byte	0
 8297 0076 00       		.byte	0
 8298 0077 0A       		.uleb128 0xa
 8299 0078 0D       		.uleb128 0xd
 8300 0079 00       		.byte	0
 8301 007a 03       		.uleb128 0x3
 8302 007b 0E       		.uleb128 0xe
 8303 007c 3A       		.uleb128 0x3a
 8304 007d 0B       		.uleb128 0xb
 8305 007e 3B       		.uleb128 0x3b
 8306 007f 0B       		.uleb128 0xb
 8307 0080 49       		.uleb128 0x49
 8308 0081 13       		.uleb128 0x13
 8309 0082 0B       		.uleb128 0xb
 8310 0083 0B       		.uleb128 0xb
 8311 0084 0D       		.uleb128 0xd
 8312 0085 0B       		.uleb128 0xb
 8313 0086 0C       		.uleb128 0xc
 8314 0087 0B       		.uleb128 0xb
 8315 0088 38       		.uleb128 0x38
 8316 0089 0B       		.uleb128 0xb
 8317 008a 00       		.byte	0
 8318 008b 00       		.byte	0
 8319 008c 0B       		.uleb128 0xb
 8320 008d 15       		.uleb128 0x15
 8321 008e 01       		.byte	0x1
 8322 008f 27       		.uleb128 0x27
 8323 0090 19       		.uleb128 0x19
 8324 0091 49       		.uleb128 0x49
 8325 0092 13       		.uleb128 0x13
 8326 0093 01       		.uleb128 0x1
ARM GAS  C:\Users\pearlstl\AppData\Local\Temp\ccI2fBBa.s 			page 171


 8327 0094 13       		.uleb128 0x13
 8328 0095 00       		.byte	0
 8329 0096 00       		.byte	0
 8330 0097 0C       		.uleb128 0xc
 8331 0098 05       		.uleb128 0x5
 8332 0099 00       		.byte	0
 8333 009a 49       		.uleb128 0x49
 8334 009b 13       		.uleb128 0x13
 8335 009c 00       		.byte	0
 8336 009d 00       		.byte	0
 8337 009e 0D       		.uleb128 0xd
 8338 009f 0F       		.uleb128 0xf
 8339 00a0 00       		.byte	0
 8340 00a1 0B       		.uleb128 0xb
 8341 00a2 0B       		.uleb128 0xb
 8342 00a3 49       		.uleb128 0x49
 8343 00a4 13       		.uleb128 0x13
 8344 00a5 00       		.byte	0
 8345 00a6 00       		.byte	0
 8346 00a7 0E       		.uleb128 0xe
 8347 00a8 26       		.uleb128 0x26
 8348 00a9 00       		.byte	0
 8349 00aa 49       		.uleb128 0x49
 8350 00ab 13       		.uleb128 0x13
 8351 00ac 00       		.byte	0
 8352 00ad 00       		.byte	0
 8353 00ae 0F       		.uleb128 0xf
 8354 00af 17       		.uleb128 0x17
 8355 00b0 01       		.byte	0x1
 8356 00b1 0B       		.uleb128 0xb
 8357 00b2 0B       		.uleb128 0xb
 8358 00b3 3A       		.uleb128 0x3a
 8359 00b4 0B       		.uleb128 0xb
 8360 00b5 3B       		.uleb128 0x3b
 8361 00b6 0B       		.uleb128 0xb
 8362 00b7 01       		.uleb128 0x1
 8363 00b8 13       		.uleb128 0x13
 8364 00b9 00       		.byte	0
 8365 00ba 00       		.byte	0
 8366 00bb 10       		.uleb128 0x10
 8367 00bc 0D       		.uleb128 0xd
 8368 00bd 00       		.byte	0
 8369 00be 03       		.uleb128 0x3
 8370 00bf 08       		.uleb128 0x8
 8371 00c0 3A       		.uleb128 0x3a
 8372 00c1 0B       		.uleb128 0xb
 8373 00c2 3B       		.uleb128 0x3b
 8374 00c3 0B       		.uleb128 0xb
 8375 00c4 49       		.uleb128 0x49
 8376 00c5 13       		.uleb128 0x13
 8377 00c6 00       		.byte	0
 8378 00c7 00       		.byte	0
 8379 00c8 11       		.uleb128 0x11
 8380 00c9 0D       		.uleb128 0xd
 8381 00ca 00       		.byte	0
 8382 00cb 03       		.uleb128 0x3
 8383 00cc 0E       		.uleb128 0xe
ARM GAS  C:\Users\pearlstl\AppData\Local\Temp\ccI2fBBa.s 			page 172


 8384 00cd 3A       		.uleb128 0x3a
 8385 00ce 0B       		.uleb128 0xb
 8386 00cf 3B       		.uleb128 0x3b
 8387 00d0 0B       		.uleb128 0xb
 8388 00d1 49       		.uleb128 0x49
 8389 00d2 13       		.uleb128 0x13
 8390 00d3 00       		.byte	0
 8391 00d4 00       		.byte	0
 8392 00d5 12       		.uleb128 0x12
 8393 00d6 16       		.uleb128 0x16
 8394 00d7 00       		.byte	0
 8395 00d8 03       		.uleb128 0x3
 8396 00d9 0E       		.uleb128 0xe
 8397 00da 3A       		.uleb128 0x3a
 8398 00db 0B       		.uleb128 0xb
 8399 00dc 3B       		.uleb128 0x3b
 8400 00dd 05       		.uleb128 0x5
 8401 00de 49       		.uleb128 0x49
 8402 00df 13       		.uleb128 0x13
 8403 00e0 00       		.byte	0
 8404 00e1 00       		.byte	0
 8405 00e2 13       		.uleb128 0x13
 8406 00e3 04       		.uleb128 0x4
 8407 00e4 01       		.byte	0x1
 8408 00e5 0B       		.uleb128 0xb
 8409 00e6 0B       		.uleb128 0xb
 8410 00e7 49       		.uleb128 0x49
 8411 00e8 13       		.uleb128 0x13
 8412 00e9 3A       		.uleb128 0x3a
 8413 00ea 0B       		.uleb128 0xb
 8414 00eb 3B       		.uleb128 0x3b
 8415 00ec 0B       		.uleb128 0xb
 8416 00ed 01       		.uleb128 0x1
 8417 00ee 13       		.uleb128 0x13
 8418 00ef 00       		.byte	0
 8419 00f0 00       		.byte	0
 8420 00f1 14       		.uleb128 0x14
 8421 00f2 28       		.uleb128 0x28
 8422 00f3 00       		.byte	0
 8423 00f4 03       		.uleb128 0x3
 8424 00f5 0E       		.uleb128 0xe
 8425 00f6 1C       		.uleb128 0x1c
 8426 00f7 0B       		.uleb128 0xb
 8427 00f8 00       		.byte	0
 8428 00f9 00       		.byte	0
 8429 00fa 15       		.uleb128 0x15
 8430 00fb 0D       		.uleb128 0xd
 8431 00fc 00       		.byte	0
 8432 00fd 03       		.uleb128 0x3
 8433 00fe 08       		.uleb128 0x8
 8434 00ff 3A       		.uleb128 0x3a
 8435 0100 0B       		.uleb128 0xb
 8436 0101 3B       		.uleb128 0x3b
 8437 0102 0B       		.uleb128 0xb
 8438 0103 49       		.uleb128 0x49
 8439 0104 13       		.uleb128 0x13
 8440 0105 0B       		.uleb128 0xb
ARM GAS  C:\Users\pearlstl\AppData\Local\Temp\ccI2fBBa.s 			page 173


 8441 0106 0B       		.uleb128 0xb
 8442 0107 0D       		.uleb128 0xd
 8443 0108 0B       		.uleb128 0xb
 8444 0109 0C       		.uleb128 0xc
 8445 010a 0B       		.uleb128 0xb
 8446 010b 38       		.uleb128 0x38
 8447 010c 0B       		.uleb128 0xb
 8448 010d 00       		.byte	0
 8449 010e 00       		.byte	0
 8450 010f 16       		.uleb128 0x16
 8451 0110 15       		.uleb128 0x15
 8452 0111 01       		.byte	0x1
 8453 0112 27       		.uleb128 0x27
 8454 0113 19       		.uleb128 0x19
 8455 0114 01       		.uleb128 0x1
 8456 0115 13       		.uleb128 0x13
 8457 0116 00       		.byte	0
 8458 0117 00       		.byte	0
 8459 0118 17       		.uleb128 0x17
 8460 0119 26       		.uleb128 0x26
 8461 011a 00       		.byte	0
 8462 011b 00       		.byte	0
 8463 011c 00       		.byte	0
 8464 011d 18       		.uleb128 0x18
 8465 011e 0D       		.uleb128 0xd
 8466 011f 00       		.byte	0
 8467 0120 03       		.uleb128 0x3
 8468 0121 08       		.uleb128 0x8
 8469 0122 3A       		.uleb128 0x3a
 8470 0123 0B       		.uleb128 0xb
 8471 0124 3B       		.uleb128 0x3b
 8472 0125 05       		.uleb128 0x5
 8473 0126 49       		.uleb128 0x49
 8474 0127 13       		.uleb128 0x13
 8475 0128 38       		.uleb128 0x38
 8476 0129 0B       		.uleb128 0xb
 8477 012a 00       		.byte	0
 8478 012b 00       		.byte	0
 8479 012c 19       		.uleb128 0x19
 8480 012d 0D       		.uleb128 0xd
 8481 012e 00       		.byte	0
 8482 012f 03       		.uleb128 0x3
 8483 0130 0E       		.uleb128 0xe
 8484 0131 3A       		.uleb128 0x3a
 8485 0132 0B       		.uleb128 0xb
 8486 0133 3B       		.uleb128 0x3b
 8487 0134 05       		.uleb128 0x5
 8488 0135 49       		.uleb128 0x49
 8489 0136 13       		.uleb128 0x13
 8490 0137 38       		.uleb128 0x38
 8491 0138 0B       		.uleb128 0xb
 8492 0139 00       		.byte	0
 8493 013a 00       		.byte	0
 8494 013b 1A       		.uleb128 0x1a
 8495 013c 13       		.uleb128 0x13
 8496 013d 01       		.byte	0x1
 8497 013e 0B       		.uleb128 0xb
ARM GAS  C:\Users\pearlstl\AppData\Local\Temp\ccI2fBBa.s 			page 174


 8498 013f 0B       		.uleb128 0xb
 8499 0140 3A       		.uleb128 0x3a
 8500 0141 0B       		.uleb128 0xb
 8501 0142 3B       		.uleb128 0x3b
 8502 0143 05       		.uleb128 0x5
 8503 0144 01       		.uleb128 0x1
 8504 0145 13       		.uleb128 0x13
 8505 0146 00       		.byte	0
 8506 0147 00       		.byte	0
 8507 0148 1B       		.uleb128 0x1b
 8508 0149 13       		.uleb128 0x13
 8509 014a 01       		.byte	0x1
 8510 014b 0B       		.uleb128 0xb
 8511 014c 05       		.uleb128 0x5
 8512 014d 3A       		.uleb128 0x3a
 8513 014e 0B       		.uleb128 0xb
 8514 014f 3B       		.uleb128 0x3b
 8515 0150 0B       		.uleb128 0xb
 8516 0151 01       		.uleb128 0x1
 8517 0152 13       		.uleb128 0x13
 8518 0153 00       		.byte	0
 8519 0154 00       		.byte	0
 8520 0155 1C       		.uleb128 0x1c
 8521 0156 0D       		.uleb128 0xd
 8522 0157 00       		.byte	0
 8523 0158 03       		.uleb128 0x3
 8524 0159 0E       		.uleb128 0xe
 8525 015a 3A       		.uleb128 0x3a
 8526 015b 0B       		.uleb128 0xb
 8527 015c 3B       		.uleb128 0x3b
 8528 015d 0B       		.uleb128 0xb
 8529 015e 49       		.uleb128 0x49
 8530 015f 13       		.uleb128 0x13
 8531 0160 38       		.uleb128 0x38
 8532 0161 05       		.uleb128 0x5
 8533 0162 00       		.byte	0
 8534 0163 00       		.byte	0
 8535 0164 1D       		.uleb128 0x1d
 8536 0165 0D       		.uleb128 0xd
 8537 0166 00       		.byte	0
 8538 0167 03       		.uleb128 0x3
 8539 0168 08       		.uleb128 0x8
 8540 0169 3A       		.uleb128 0x3a
 8541 016a 0B       		.uleb128 0xb
 8542 016b 3B       		.uleb128 0x3b
 8543 016c 0B       		.uleb128 0xb
 8544 016d 49       		.uleb128 0x49
 8545 016e 13       		.uleb128 0x13
 8546 016f 38       		.uleb128 0x38
 8547 0170 05       		.uleb128 0x5
 8548 0171 00       		.byte	0
 8549 0172 00       		.byte	0
 8550 0173 1E       		.uleb128 0x1e
 8551 0174 0D       		.uleb128 0xd
 8552 0175 00       		.byte	0
 8553 0176 03       		.uleb128 0x3
 8554 0177 0E       		.uleb128 0xe
ARM GAS  C:\Users\pearlstl\AppData\Local\Temp\ccI2fBBa.s 			page 175


 8555 0178 3A       		.uleb128 0x3a
 8556 0179 0B       		.uleb128 0xb
 8557 017a 3B       		.uleb128 0x3b
 8558 017b 05       		.uleb128 0x5
 8559 017c 49       		.uleb128 0x49
 8560 017d 13       		.uleb128 0x13
 8561 017e 38       		.uleb128 0x38
 8562 017f 05       		.uleb128 0x5
 8563 0180 00       		.byte	0
 8564 0181 00       		.byte	0
 8565 0182 1F       		.uleb128 0x1f
 8566 0183 0D       		.uleb128 0xd
 8567 0184 00       		.byte	0
 8568 0185 03       		.uleb128 0x3
 8569 0186 08       		.uleb128 0x8
 8570 0187 3A       		.uleb128 0x3a
 8571 0188 0B       		.uleb128 0xb
 8572 0189 3B       		.uleb128 0x3b
 8573 018a 05       		.uleb128 0x5
 8574 018b 49       		.uleb128 0x49
 8575 018c 13       		.uleb128 0x13
 8576 018d 38       		.uleb128 0x38
 8577 018e 05       		.uleb128 0x5
 8578 018f 00       		.byte	0
 8579 0190 00       		.byte	0
 8580 0191 20       		.uleb128 0x20
 8581 0192 2E       		.uleb128 0x2e
 8582 0193 01       		.byte	0x1
 8583 0194 03       		.uleb128 0x3
 8584 0195 0E       		.uleb128 0xe
 8585 0196 3A       		.uleb128 0x3a
 8586 0197 0B       		.uleb128 0xb
 8587 0198 3B       		.uleb128 0x3b
 8588 0199 0B       		.uleb128 0xb
 8589 019a 27       		.uleb128 0x27
 8590 019b 19       		.uleb128 0x19
 8591 019c 49       		.uleb128 0x49
 8592 019d 13       		.uleb128 0x13
 8593 019e 20       		.uleb128 0x20
 8594 019f 0B       		.uleb128 0xb
 8595 01a0 01       		.uleb128 0x1
 8596 01a1 13       		.uleb128 0x13
 8597 01a2 00       		.byte	0
 8598 01a3 00       		.byte	0
 8599 01a4 21       		.uleb128 0x21
 8600 01a5 05       		.uleb128 0x5
 8601 01a6 00       		.byte	0
 8602 01a7 03       		.uleb128 0x3
 8603 01a8 0E       		.uleb128 0xe
 8604 01a9 3A       		.uleb128 0x3a
 8605 01aa 0B       		.uleb128 0xb
 8606 01ab 3B       		.uleb128 0x3b
 8607 01ac 0B       		.uleb128 0xb
 8608 01ad 49       		.uleb128 0x49
 8609 01ae 13       		.uleb128 0x13
 8610 01af 00       		.byte	0
 8611 01b0 00       		.byte	0
ARM GAS  C:\Users\pearlstl\AppData\Local\Temp\ccI2fBBa.s 			page 176


 8612 01b1 22       		.uleb128 0x22
 8613 01b2 2E       		.uleb128 0x2e
 8614 01b3 01       		.byte	0x1
 8615 01b4 03       		.uleb128 0x3
 8616 01b5 0E       		.uleb128 0xe
 8617 01b6 3A       		.uleb128 0x3a
 8618 01b7 0B       		.uleb128 0xb
 8619 01b8 3B       		.uleb128 0x3b
 8620 01b9 0B       		.uleb128 0xb
 8621 01ba 27       		.uleb128 0x27
 8622 01bb 19       		.uleb128 0x19
 8623 01bc 20       		.uleb128 0x20
 8624 01bd 0B       		.uleb128 0xb
 8625 01be 01       		.uleb128 0x1
 8626 01bf 13       		.uleb128 0x13
 8627 01c0 00       		.byte	0
 8628 01c1 00       		.byte	0
 8629 01c2 23       		.uleb128 0x23
 8630 01c3 2E       		.uleb128 0x2e
 8631 01c4 01       		.byte	0x1
 8632 01c5 3F       		.uleb128 0x3f
 8633 01c6 19       		.uleb128 0x19
 8634 01c7 03       		.uleb128 0x3
 8635 01c8 0E       		.uleb128 0xe
 8636 01c9 3A       		.uleb128 0x3a
 8637 01ca 0B       		.uleb128 0xb
 8638 01cb 3B       		.uleb128 0x3b
 8639 01cc 05       		.uleb128 0x5
 8640 01cd 27       		.uleb128 0x27
 8641 01ce 19       		.uleb128 0x19
 8642 01cf 49       		.uleb128 0x49
 8643 01d0 13       		.uleb128 0x13
 8644 01d1 20       		.uleb128 0x20
 8645 01d2 0B       		.uleb128 0xb
 8646 01d3 01       		.uleb128 0x1
 8647 01d4 13       		.uleb128 0x13
 8648 01d5 00       		.byte	0
 8649 01d6 00       		.byte	0
 8650 01d7 24       		.uleb128 0x24
 8651 01d8 05       		.uleb128 0x5
 8652 01d9 00       		.byte	0
 8653 01da 03       		.uleb128 0x3
 8654 01db 08       		.uleb128 0x8
 8655 01dc 3A       		.uleb128 0x3a
 8656 01dd 0B       		.uleb128 0xb
 8657 01de 3B       		.uleb128 0x3b
 8658 01df 05       		.uleb128 0x5
 8659 01e0 49       		.uleb128 0x49
 8660 01e1 13       		.uleb128 0x13
 8661 01e2 00       		.byte	0
 8662 01e3 00       		.byte	0
 8663 01e4 25       		.uleb128 0x25
 8664 01e5 34       		.uleb128 0x34
 8665 01e6 00       		.byte	0
 8666 01e7 03       		.uleb128 0x3
 8667 01e8 08       		.uleb128 0x8
 8668 01e9 3A       		.uleb128 0x3a
ARM GAS  C:\Users\pearlstl\AppData\Local\Temp\ccI2fBBa.s 			page 177


 8669 01ea 0B       		.uleb128 0xb
 8670 01eb 3B       		.uleb128 0x3b
 8671 01ec 05       		.uleb128 0x5
 8672 01ed 49       		.uleb128 0x49
 8673 01ee 13       		.uleb128 0x13
 8674 01ef 00       		.byte	0
 8675 01f0 00       		.byte	0
 8676 01f1 26       		.uleb128 0x26
 8677 01f2 05       		.uleb128 0x5
 8678 01f3 00       		.byte	0
 8679 01f4 03       		.uleb128 0x3
 8680 01f5 0E       		.uleb128 0xe
 8681 01f6 3A       		.uleb128 0x3a
 8682 01f7 0B       		.uleb128 0xb
 8683 01f8 3B       		.uleb128 0x3b
 8684 01f9 05       		.uleb128 0x5
 8685 01fa 49       		.uleb128 0x49
 8686 01fb 13       		.uleb128 0x13
 8687 01fc 00       		.byte	0
 8688 01fd 00       		.byte	0
 8689 01fe 27       		.uleb128 0x27
 8690 01ff 34       		.uleb128 0x34
 8691 0200 00       		.byte	0
 8692 0201 03       		.uleb128 0x3
 8693 0202 0E       		.uleb128 0xe
 8694 0203 3A       		.uleb128 0x3a
 8695 0204 0B       		.uleb128 0xb
 8696 0205 3B       		.uleb128 0x3b
 8697 0206 05       		.uleb128 0x5
 8698 0207 49       		.uleb128 0x49
 8699 0208 13       		.uleb128 0x13
 8700 0209 00       		.byte	0
 8701 020a 00       		.byte	0
 8702 020b 28       		.uleb128 0x28
 8703 020c 2E       		.uleb128 0x2e
 8704 020d 01       		.byte	0x1
 8705 020e 03       		.uleb128 0x3
 8706 020f 0E       		.uleb128 0xe
 8707 0210 3A       		.uleb128 0x3a
 8708 0211 0B       		.uleb128 0xb
 8709 0212 3B       		.uleb128 0x3b
 8710 0213 05       		.uleb128 0x5
 8711 0214 27       		.uleb128 0x27
 8712 0215 19       		.uleb128 0x19
 8713 0216 49       		.uleb128 0x49
 8714 0217 13       		.uleb128 0x13
 8715 0218 20       		.uleb128 0x20
 8716 0219 0B       		.uleb128 0xb
 8717 021a 01       		.uleb128 0x1
 8718 021b 13       		.uleb128 0x13
 8719 021c 00       		.byte	0
 8720 021d 00       		.byte	0
 8721 021e 29       		.uleb128 0x29
 8722 021f 2E       		.uleb128 0x2e
 8723 0220 01       		.byte	0x1
 8724 0221 03       		.uleb128 0x3
 8725 0222 0E       		.uleb128 0xe
ARM GAS  C:\Users\pearlstl\AppData\Local\Temp\ccI2fBBa.s 			page 178


 8726 0223 3A       		.uleb128 0x3a
 8727 0224 0B       		.uleb128 0xb
 8728 0225 3B       		.uleb128 0x3b
 8729 0226 05       		.uleb128 0x5
 8730 0227 27       		.uleb128 0x27
 8731 0228 19       		.uleb128 0x19
 8732 0229 11       		.uleb128 0x11
 8733 022a 01       		.uleb128 0x1
 8734 022b 12       		.uleb128 0x12
 8735 022c 06       		.uleb128 0x6
 8736 022d 40       		.uleb128 0x40
 8737 022e 18       		.uleb128 0x18
 8738 022f 9742     		.uleb128 0x2117
 8739 0231 19       		.uleb128 0x19
 8740 0232 01       		.uleb128 0x1
 8741 0233 13       		.uleb128 0x13
 8742 0234 00       		.byte	0
 8743 0235 00       		.byte	0
 8744 0236 2A       		.uleb128 0x2a
 8745 0237 05       		.uleb128 0x5
 8746 0238 00       		.byte	0
 8747 0239 03       		.uleb128 0x3
 8748 023a 08       		.uleb128 0x8
 8749 023b 3A       		.uleb128 0x3a
 8750 023c 0B       		.uleb128 0xb
 8751 023d 3B       		.uleb128 0x3b
 8752 023e 05       		.uleb128 0x5
 8753 023f 49       		.uleb128 0x49
 8754 0240 13       		.uleb128 0x13
 8755 0241 02       		.uleb128 0x2
 8756 0242 17       		.uleb128 0x17
 8757 0243 00       		.byte	0
 8758 0244 00       		.byte	0
 8759 0245 2B       		.uleb128 0x2b
 8760 0246 34       		.uleb128 0x34
 8761 0247 00       		.byte	0
 8762 0248 03       		.uleb128 0x3
 8763 0249 08       		.uleb128 0x8
 8764 024a 3A       		.uleb128 0x3a
 8765 024b 0B       		.uleb128 0xb
 8766 024c 3B       		.uleb128 0x3b
 8767 024d 05       		.uleb128 0x5
 8768 024e 49       		.uleb128 0x49
 8769 024f 13       		.uleb128 0x13
 8770 0250 02       		.uleb128 0x2
 8771 0251 17       		.uleb128 0x17
 8772 0252 00       		.byte	0
 8773 0253 00       		.byte	0
 8774 0254 2C       		.uleb128 0x2c
 8775 0255 34       		.uleb128 0x34
 8776 0256 00       		.byte	0
 8777 0257 03       		.uleb128 0x3
 8778 0258 0E       		.uleb128 0xe
 8779 0259 3A       		.uleb128 0x3a
 8780 025a 0B       		.uleb128 0xb
 8781 025b 3B       		.uleb128 0x3b
 8782 025c 05       		.uleb128 0x5
ARM GAS  C:\Users\pearlstl\AppData\Local\Temp\ccI2fBBa.s 			page 179


 8783 025d 49       		.uleb128 0x49
 8784 025e 13       		.uleb128 0x13
 8785 025f 02       		.uleb128 0x2
 8786 0260 18       		.uleb128 0x18
 8787 0261 00       		.byte	0
 8788 0262 00       		.byte	0
 8789 0263 2D       		.uleb128 0x2d
 8790 0264 34       		.uleb128 0x34
 8791 0265 00       		.byte	0
 8792 0266 03       		.uleb128 0x3
 8793 0267 0E       		.uleb128 0xe
 8794 0268 3A       		.uleb128 0x3a
 8795 0269 0B       		.uleb128 0xb
 8796 026a 3B       		.uleb128 0x3b
 8797 026b 05       		.uleb128 0x5
 8798 026c 49       		.uleb128 0x49
 8799 026d 13       		.uleb128 0x13
 8800 026e 02       		.uleb128 0x2
 8801 026f 17       		.uleb128 0x17
 8802 0270 00       		.byte	0
 8803 0271 00       		.byte	0
 8804 0272 2E       		.uleb128 0x2e
 8805 0273 1D       		.uleb128 0x1d
 8806 0274 01       		.byte	0x1
 8807 0275 31       		.uleb128 0x31
 8808 0276 13       		.uleb128 0x13
 8809 0277 11       		.uleb128 0x11
 8810 0278 01       		.uleb128 0x1
 8811 0279 12       		.uleb128 0x12
 8812 027a 06       		.uleb128 0x6
 8813 027b 58       		.uleb128 0x58
 8814 027c 0B       		.uleb128 0xb
 8815 027d 59       		.uleb128 0x59
 8816 027e 05       		.uleb128 0x5
 8817 027f 01       		.uleb128 0x1
 8818 0280 13       		.uleb128 0x13
 8819 0281 00       		.byte	0
 8820 0282 00       		.byte	0
 8821 0283 2F       		.uleb128 0x2f
 8822 0284 05       		.uleb128 0x5
 8823 0285 00       		.byte	0
 8824 0286 31       		.uleb128 0x31
 8825 0287 13       		.uleb128 0x13
 8826 0288 02       		.uleb128 0x2
 8827 0289 17       		.uleb128 0x17
 8828 028a 00       		.byte	0
 8829 028b 00       		.byte	0
 8830 028c 30       		.uleb128 0x30
 8831 028d 0B       		.uleb128 0xb
 8832 028e 01       		.byte	0x1
 8833 028f 11       		.uleb128 0x11
 8834 0290 01       		.uleb128 0x1
 8835 0291 12       		.uleb128 0x12
 8836 0292 06       		.uleb128 0x6
 8837 0293 00       		.byte	0
 8838 0294 00       		.byte	0
 8839 0295 31       		.uleb128 0x31
ARM GAS  C:\Users\pearlstl\AppData\Local\Temp\ccI2fBBa.s 			page 180


 8840 0296 34       		.uleb128 0x34
 8841 0297 00       		.byte	0
 8842 0298 31       		.uleb128 0x31
 8843 0299 13       		.uleb128 0x13
 8844 029a 02       		.uleb128 0x2
 8845 029b 17       		.uleb128 0x17
 8846 029c 00       		.byte	0
 8847 029d 00       		.byte	0
 8848 029e 32       		.uleb128 0x32
 8849 029f 898201   		.uleb128 0x4109
 8850 02a2 01       		.byte	0x1
 8851 02a3 11       		.uleb128 0x11
 8852 02a4 01       		.uleb128 0x1
 8853 02a5 31       		.uleb128 0x31
 8854 02a6 13       		.uleb128 0x13
 8855 02a7 01       		.uleb128 0x1
 8856 02a8 13       		.uleb128 0x13
 8857 02a9 00       		.byte	0
 8858 02aa 00       		.byte	0
 8859 02ab 33       		.uleb128 0x33
 8860 02ac 8A8201   		.uleb128 0x410a
 8861 02af 00       		.byte	0
 8862 02b0 02       		.uleb128 0x2
 8863 02b1 18       		.uleb128 0x18
 8864 02b2 9142     		.uleb128 0x2111
 8865 02b4 18       		.uleb128 0x18
 8866 02b5 00       		.byte	0
 8867 02b6 00       		.byte	0
 8868 02b7 34       		.uleb128 0x34
 8869 02b8 898201   		.uleb128 0x4109
 8870 02bb 00       		.byte	0
 8871 02bc 11       		.uleb128 0x11
 8872 02bd 01       		.uleb128 0x1
 8873 02be 31       		.uleb128 0x31
 8874 02bf 13       		.uleb128 0x13
 8875 02c0 00       		.byte	0
 8876 02c1 00       		.byte	0
 8877 02c2 35       		.uleb128 0x35
 8878 02c3 898201   		.uleb128 0x4109
 8879 02c6 01       		.byte	0x1
 8880 02c7 11       		.uleb128 0x11
 8881 02c8 01       		.uleb128 0x1
 8882 02c9 31       		.uleb128 0x31
 8883 02ca 13       		.uleb128 0x13
 8884 02cb 00       		.byte	0
 8885 02cc 00       		.byte	0
 8886 02cd 36       		.uleb128 0x36
 8887 02ce 2E       		.uleb128 0x2e
 8888 02cf 01       		.byte	0x1
 8889 02d0 03       		.uleb128 0x3
 8890 02d1 0E       		.uleb128 0xe
 8891 02d2 3A       		.uleb128 0x3a
 8892 02d3 0B       		.uleb128 0xb
 8893 02d4 3B       		.uleb128 0x3b
 8894 02d5 05       		.uleb128 0x5
 8895 02d6 27       		.uleb128 0x27
 8896 02d7 19       		.uleb128 0x19
ARM GAS  C:\Users\pearlstl\AppData\Local\Temp\ccI2fBBa.s 			page 181


 8897 02d8 49       		.uleb128 0x49
 8898 02d9 13       		.uleb128 0x13
 8899 02da 11       		.uleb128 0x11
 8900 02db 01       		.uleb128 0x1
 8901 02dc 12       		.uleb128 0x12
 8902 02dd 06       		.uleb128 0x6
 8903 02de 40       		.uleb128 0x40
 8904 02df 18       		.uleb128 0x18
 8905 02e0 9742     		.uleb128 0x2117
 8906 02e2 19       		.uleb128 0x19
 8907 02e3 01       		.uleb128 0x1
 8908 02e4 13       		.uleb128 0x13
 8909 02e5 00       		.byte	0
 8910 02e6 00       		.byte	0
 8911 02e7 37       		.uleb128 0x37
 8912 02e8 05       		.uleb128 0x5
 8913 02e9 00       		.byte	0
 8914 02ea 03       		.uleb128 0x3
 8915 02eb 0E       		.uleb128 0xe
 8916 02ec 3A       		.uleb128 0x3a
 8917 02ed 0B       		.uleb128 0xb
 8918 02ee 3B       		.uleb128 0x3b
 8919 02ef 05       		.uleb128 0x5
 8920 02f0 49       		.uleb128 0x49
 8921 02f1 13       		.uleb128 0x13
 8922 02f2 02       		.uleb128 0x2
 8923 02f3 17       		.uleb128 0x17
 8924 02f4 00       		.byte	0
 8925 02f5 00       		.byte	0
 8926 02f6 38       		.uleb128 0x38
 8927 02f7 0B       		.uleb128 0xb
 8928 02f8 01       		.byte	0x1
 8929 02f9 11       		.uleb128 0x11
 8930 02fa 01       		.uleb128 0x1
 8931 02fb 12       		.uleb128 0x12
 8932 02fc 06       		.uleb128 0x6
 8933 02fd 01       		.uleb128 0x1
 8934 02fe 13       		.uleb128 0x13
 8935 02ff 00       		.byte	0
 8936 0300 00       		.byte	0
 8937 0301 39       		.uleb128 0x39
 8938 0302 0B       		.uleb128 0xb
 8939 0303 01       		.byte	0x1
 8940 0304 55       		.uleb128 0x55
 8941 0305 17       		.uleb128 0x17
 8942 0306 01       		.uleb128 0x1
 8943 0307 13       		.uleb128 0x13
 8944 0308 00       		.byte	0
 8945 0309 00       		.byte	0
 8946 030a 3A       		.uleb128 0x3a
 8947 030b 1D       		.uleb128 0x1d
 8948 030c 01       		.byte	0x1
 8949 030d 31       		.uleb128 0x31
 8950 030e 13       		.uleb128 0x13
 8951 030f 52       		.uleb128 0x52
 8952 0310 01       		.uleb128 0x1
 8953 0311 55       		.uleb128 0x55
ARM GAS  C:\Users\pearlstl\AppData\Local\Temp\ccI2fBBa.s 			page 182


 8954 0312 17       		.uleb128 0x17
 8955 0313 58       		.uleb128 0x58
 8956 0314 0B       		.uleb128 0xb
 8957 0315 59       		.uleb128 0x59
 8958 0316 05       		.uleb128 0x5
 8959 0317 01       		.uleb128 0x1
 8960 0318 13       		.uleb128 0x13
 8961 0319 00       		.byte	0
 8962 031a 00       		.byte	0
 8963 031b 3B       		.uleb128 0x3b
 8964 031c 898201   		.uleb128 0x4109
 8965 031f 01       		.byte	0x1
 8966 0320 11       		.uleb128 0x11
 8967 0321 01       		.uleb128 0x1
 8968 0322 01       		.uleb128 0x1
 8969 0323 13       		.uleb128 0x13
 8970 0324 00       		.byte	0
 8971 0325 00       		.byte	0
 8972 0326 3C       		.uleb128 0x3c
 8973 0327 898201   		.uleb128 0x4109
 8974 032a 01       		.byte	0x1
 8975 032b 11       		.uleb128 0x11
 8976 032c 01       		.uleb128 0x1
 8977 032d 9542     		.uleb128 0x2115
 8978 032f 19       		.uleb128 0x19
 8979 0330 31       		.uleb128 0x31
 8980 0331 13       		.uleb128 0x13
 8981 0332 01       		.uleb128 0x1
 8982 0333 13       		.uleb128 0x13
 8983 0334 00       		.byte	0
 8984 0335 00       		.byte	0
 8985 0336 3D       		.uleb128 0x3d
 8986 0337 898201   		.uleb128 0x4109
 8987 033a 01       		.byte	0x1
 8988 033b 11       		.uleb128 0x11
 8989 033c 01       		.uleb128 0x1
 8990 033d 00       		.byte	0
 8991 033e 00       		.byte	0
 8992 033f 3E       		.uleb128 0x3e
 8993 0340 2E       		.uleb128 0x2e
 8994 0341 01       		.byte	0x1
 8995 0342 3F       		.uleb128 0x3f
 8996 0343 19       		.uleb128 0x19
 8997 0344 03       		.uleb128 0x3
 8998 0345 0E       		.uleb128 0xe
 8999 0346 3A       		.uleb128 0x3a
 9000 0347 0B       		.uleb128 0xb
 9001 0348 3B       		.uleb128 0x3b
 9002 0349 05       		.uleb128 0x5
 9003 034a 27       		.uleb128 0x27
 9004 034b 19       		.uleb128 0x19
 9005 034c 20       		.uleb128 0x20
 9006 034d 0B       		.uleb128 0xb
 9007 034e 01       		.uleb128 0x1
 9008 034f 13       		.uleb128 0x13
 9009 0350 00       		.byte	0
 9010 0351 00       		.byte	0
ARM GAS  C:\Users\pearlstl\AppData\Local\Temp\ccI2fBBa.s 			page 183


 9011 0352 3F       		.uleb128 0x3f
 9012 0353 0B       		.uleb128 0xb
 9013 0354 01       		.byte	0x1
 9014 0355 00       		.byte	0
 9015 0356 00       		.byte	0
 9016 0357 40       		.uleb128 0x40
 9017 0358 2E       		.uleb128 0x2e
 9018 0359 01       		.byte	0x1
 9019 035a 3F       		.uleb128 0x3f
 9020 035b 19       		.uleb128 0x19
 9021 035c 03       		.uleb128 0x3
 9022 035d 0E       		.uleb128 0xe
 9023 035e 3A       		.uleb128 0x3a
 9024 035f 0B       		.uleb128 0xb
 9025 0360 3B       		.uleb128 0x3b
 9026 0361 0B       		.uleb128 0xb
 9027 0362 27       		.uleb128 0x27
 9028 0363 19       		.uleb128 0x19
 9029 0364 49       		.uleb128 0x49
 9030 0365 13       		.uleb128 0x13
 9031 0366 11       		.uleb128 0x11
 9032 0367 01       		.uleb128 0x1
 9033 0368 12       		.uleb128 0x12
 9034 0369 06       		.uleb128 0x6
 9035 036a 40       		.uleb128 0x40
 9036 036b 18       		.uleb128 0x18
 9037 036c 9742     		.uleb128 0x2117
 9038 036e 19       		.uleb128 0x19
 9039 036f 01       		.uleb128 0x1
 9040 0370 13       		.uleb128 0x13
 9041 0371 00       		.byte	0
 9042 0372 00       		.byte	0
 9043 0373 41       		.uleb128 0x41
 9044 0374 05       		.uleb128 0x5
 9045 0375 00       		.byte	0
 9046 0376 03       		.uleb128 0x3
 9047 0377 08       		.uleb128 0x8
 9048 0378 3A       		.uleb128 0x3a
 9049 0379 0B       		.uleb128 0xb
 9050 037a 3B       		.uleb128 0x3b
 9051 037b 0B       		.uleb128 0xb
 9052 037c 49       		.uleb128 0x49
 9053 037d 13       		.uleb128 0x13
 9054 037e 02       		.uleb128 0x2
 9055 037f 17       		.uleb128 0x17
 9056 0380 00       		.byte	0
 9057 0381 00       		.byte	0
 9058 0382 42       		.uleb128 0x42
 9059 0383 05       		.uleb128 0x5
 9060 0384 00       		.byte	0
 9061 0385 03       		.uleb128 0x3
 9062 0386 0E       		.uleb128 0xe
 9063 0387 3A       		.uleb128 0x3a
 9064 0388 0B       		.uleb128 0xb
 9065 0389 3B       		.uleb128 0x3b
 9066 038a 0B       		.uleb128 0xb
 9067 038b 49       		.uleb128 0x49
ARM GAS  C:\Users\pearlstl\AppData\Local\Temp\ccI2fBBa.s 			page 184


 9068 038c 13       		.uleb128 0x13
 9069 038d 02       		.uleb128 0x2
 9070 038e 17       		.uleb128 0x17
 9071 038f 00       		.byte	0
 9072 0390 00       		.byte	0
 9073 0391 43       		.uleb128 0x43
 9074 0392 34       		.uleb128 0x34
 9075 0393 00       		.byte	0
 9076 0394 03       		.uleb128 0x3
 9077 0395 0E       		.uleb128 0xe
 9078 0396 3A       		.uleb128 0x3a
 9079 0397 0B       		.uleb128 0xb
 9080 0398 3B       		.uleb128 0x3b
 9081 0399 0B       		.uleb128 0xb
 9082 039a 49       		.uleb128 0x49
 9083 039b 13       		.uleb128 0x13
 9084 039c 02       		.uleb128 0x2
 9085 039d 17       		.uleb128 0x17
 9086 039e 00       		.byte	0
 9087 039f 00       		.byte	0
 9088 03a0 44       		.uleb128 0x44
 9089 03a1 34       		.uleb128 0x34
 9090 03a2 00       		.byte	0
 9091 03a3 03       		.uleb128 0x3
 9092 03a4 08       		.uleb128 0x8
 9093 03a5 3A       		.uleb128 0x3a
 9094 03a6 0B       		.uleb128 0xb
 9095 03a7 3B       		.uleb128 0x3b
 9096 03a8 0B       		.uleb128 0xb
 9097 03a9 49       		.uleb128 0x49
 9098 03aa 13       		.uleb128 0x13
 9099 03ab 02       		.uleb128 0x2
 9100 03ac 17       		.uleb128 0x17
 9101 03ad 00       		.byte	0
 9102 03ae 00       		.byte	0
 9103 03af 45       		.uleb128 0x45
 9104 03b0 1D       		.uleb128 0x1d
 9105 03b1 01       		.byte	0x1
 9106 03b2 31       		.uleb128 0x31
 9107 03b3 13       		.uleb128 0x13
 9108 03b4 11       		.uleb128 0x11
 9109 03b5 01       		.uleb128 0x1
 9110 03b6 12       		.uleb128 0x12
 9111 03b7 06       		.uleb128 0x6
 9112 03b8 58       		.uleb128 0x58
 9113 03b9 0B       		.uleb128 0xb
 9114 03ba 59       		.uleb128 0x59
 9115 03bb 0B       		.uleb128 0xb
 9116 03bc 01       		.uleb128 0x1
 9117 03bd 13       		.uleb128 0x13
 9118 03be 00       		.byte	0
 9119 03bf 00       		.byte	0
 9120 03c0 46       		.uleb128 0x46
 9121 03c1 34       		.uleb128 0x34
 9122 03c2 00       		.byte	0
 9123 03c3 31       		.uleb128 0x31
 9124 03c4 13       		.uleb128 0x13
ARM GAS  C:\Users\pearlstl\AppData\Local\Temp\ccI2fBBa.s 			page 185


 9125 03c5 00       		.byte	0
 9126 03c6 00       		.byte	0
 9127 03c7 47       		.uleb128 0x47
 9128 03c8 1D       		.uleb128 0x1d
 9129 03c9 01       		.byte	0x1
 9130 03ca 31       		.uleb128 0x31
 9131 03cb 13       		.uleb128 0x13
 9132 03cc 52       		.uleb128 0x52
 9133 03cd 01       		.uleb128 0x1
 9134 03ce 55       		.uleb128 0x55
 9135 03cf 17       		.uleb128 0x17
 9136 03d0 58       		.uleb128 0x58
 9137 03d1 0B       		.uleb128 0xb
 9138 03d2 59       		.uleb128 0x59
 9139 03d3 0B       		.uleb128 0xb
 9140 03d4 01       		.uleb128 0x1
 9141 03d5 13       		.uleb128 0x13
 9142 03d6 00       		.byte	0
 9143 03d7 00       		.byte	0
 9144 03d8 48       		.uleb128 0x48
 9145 03d9 0B       		.uleb128 0xb
 9146 03da 01       		.byte	0x1
 9147 03db 55       		.uleb128 0x55
 9148 03dc 17       		.uleb128 0x17
 9149 03dd 00       		.byte	0
 9150 03de 00       		.byte	0
 9151 03df 49       		.uleb128 0x49
 9152 03e0 05       		.uleb128 0x5
 9153 03e1 00       		.byte	0
 9154 03e2 31       		.uleb128 0x31
 9155 03e3 13       		.uleb128 0x13
 9156 03e4 00       		.byte	0
 9157 03e5 00       		.byte	0
 9158 03e6 4A       		.uleb128 0x4a
 9159 03e7 2E       		.uleb128 0x2e
 9160 03e8 01       		.byte	0x1
 9161 03e9 3F       		.uleb128 0x3f
 9162 03ea 19       		.uleb128 0x19
 9163 03eb 03       		.uleb128 0x3
 9164 03ec 0E       		.uleb128 0xe
 9165 03ed 3A       		.uleb128 0x3a
 9166 03ee 0B       		.uleb128 0xb
 9167 03ef 3B       		.uleb128 0x3b
 9168 03f0 0B       		.uleb128 0xb
 9169 03f1 27       		.uleb128 0x27
 9170 03f2 19       		.uleb128 0x19
 9171 03f3 11       		.uleb128 0x11
 9172 03f4 01       		.uleb128 0x1
 9173 03f5 12       		.uleb128 0x12
 9174 03f6 06       		.uleb128 0x6
 9175 03f7 40       		.uleb128 0x40
 9176 03f8 18       		.uleb128 0x18
 9177 03f9 9742     		.uleb128 0x2117
 9178 03fb 19       		.uleb128 0x19
 9179 03fc 01       		.uleb128 0x1
 9180 03fd 13       		.uleb128 0x13
 9181 03fe 00       		.byte	0
ARM GAS  C:\Users\pearlstl\AppData\Local\Temp\ccI2fBBa.s 			page 186


 9182 03ff 00       		.byte	0
 9183 0400 4B       		.uleb128 0x4b
 9184 0401 898201   		.uleb128 0x4109
 9185 0404 00       		.byte	0
 9186 0405 11       		.uleb128 0x11
 9187 0406 01       		.uleb128 0x1
 9188 0407 9542     		.uleb128 0x2115
 9189 0409 19       		.uleb128 0x19
 9190 040a 31       		.uleb128 0x31
 9191 040b 13       		.uleb128 0x13
 9192 040c 00       		.byte	0
 9193 040d 00       		.byte	0
 9194 040e 4C       		.uleb128 0x4c
 9195 040f 34       		.uleb128 0x34
 9196 0410 00       		.byte	0
 9197 0411 03       		.uleb128 0x3
 9198 0412 08       		.uleb128 0x8
 9199 0413 3A       		.uleb128 0x3a
 9200 0414 0B       		.uleb128 0xb
 9201 0415 3B       		.uleb128 0x3b
 9202 0416 0B       		.uleb128 0xb
 9203 0417 49       		.uleb128 0x49
 9204 0418 13       		.uleb128 0x13
 9205 0419 00       		.byte	0
 9206 041a 00       		.byte	0
 9207 041b 4D       		.uleb128 0x4d
 9208 041c 898201   		.uleb128 0x4109
 9209 041f 01       		.byte	0x1
 9210 0420 11       		.uleb128 0x11
 9211 0421 01       		.uleb128 0x1
 9212 0422 9542     		.uleb128 0x2115
 9213 0424 19       		.uleb128 0x19
 9214 0425 31       		.uleb128 0x31
 9215 0426 13       		.uleb128 0x13
 9216 0427 00       		.byte	0
 9217 0428 00       		.byte	0
 9218 0429 4E       		.uleb128 0x4e
 9219 042a 2E       		.uleb128 0x2e
 9220 042b 01       		.byte	0x1
 9221 042c 3F       		.uleb128 0x3f
 9222 042d 19       		.uleb128 0x19
 9223 042e 03       		.uleb128 0x3
 9224 042f 0E       		.uleb128 0xe
 9225 0430 3A       		.uleb128 0x3a
 9226 0431 0B       		.uleb128 0xb
 9227 0432 3B       		.uleb128 0x3b
 9228 0433 05       		.uleb128 0x5
 9229 0434 27       		.uleb128 0x27
 9230 0435 19       		.uleb128 0x19
 9231 0436 11       		.uleb128 0x11
 9232 0437 01       		.uleb128 0x1
 9233 0438 12       		.uleb128 0x12
 9234 0439 06       		.uleb128 0x6
 9235 043a 40       		.uleb128 0x40
 9236 043b 18       		.uleb128 0x18
 9237 043c 9742     		.uleb128 0x2117
 9238 043e 19       		.uleb128 0x19
ARM GAS  C:\Users\pearlstl\AppData\Local\Temp\ccI2fBBa.s 			page 187


 9239 043f 01       		.uleb128 0x1
 9240 0440 13       		.uleb128 0x13
 9241 0441 00       		.byte	0
 9242 0442 00       		.byte	0
 9243 0443 4F       		.uleb128 0x4f
 9244 0444 2E       		.uleb128 0x2e
 9245 0445 01       		.byte	0x1
 9246 0446 31       		.uleb128 0x31
 9247 0447 13       		.uleb128 0x13
 9248 0448 11       		.uleb128 0x11
 9249 0449 01       		.uleb128 0x1
 9250 044a 12       		.uleb128 0x12
 9251 044b 06       		.uleb128 0x6
 9252 044c 40       		.uleb128 0x40
 9253 044d 18       		.uleb128 0x18
 9254 044e 9742     		.uleb128 0x2117
 9255 0450 19       		.uleb128 0x19
 9256 0451 01       		.uleb128 0x1
 9257 0452 13       		.uleb128 0x13
 9258 0453 00       		.byte	0
 9259 0454 00       		.byte	0
 9260 0455 50       		.uleb128 0x50
 9261 0456 2E       		.uleb128 0x2e
 9262 0457 01       		.byte	0x1
 9263 0458 3F       		.uleb128 0x3f
 9264 0459 19       		.uleb128 0x19
 9265 045a 03       		.uleb128 0x3
 9266 045b 0E       		.uleb128 0xe
 9267 045c 3A       		.uleb128 0x3a
 9268 045d 0B       		.uleb128 0xb
 9269 045e 3B       		.uleb128 0x3b
 9270 045f 05       		.uleb128 0x5
 9271 0460 27       		.uleb128 0x27
 9272 0461 19       		.uleb128 0x19
 9273 0462 49       		.uleb128 0x49
 9274 0463 13       		.uleb128 0x13
 9275 0464 11       		.uleb128 0x11
 9276 0465 01       		.uleb128 0x1
 9277 0466 12       		.uleb128 0x12
 9278 0467 06       		.uleb128 0x6
 9279 0468 40       		.uleb128 0x40
 9280 0469 18       		.uleb128 0x18
 9281 046a 9742     		.uleb128 0x2117
 9282 046c 19       		.uleb128 0x19
 9283 046d 01       		.uleb128 0x1
 9284 046e 13       		.uleb128 0x13
 9285 046f 00       		.byte	0
 9286 0470 00       		.byte	0
 9287 0471 51       		.uleb128 0x51
 9288 0472 34       		.uleb128 0x34
 9289 0473 00       		.byte	0
 9290 0474 03       		.uleb128 0x3
 9291 0475 0E       		.uleb128 0xe
 9292 0476 3A       		.uleb128 0x3a
 9293 0477 0B       		.uleb128 0xb
 9294 0478 3B       		.uleb128 0x3b
 9295 0479 0B       		.uleb128 0xb
ARM GAS  C:\Users\pearlstl\AppData\Local\Temp\ccI2fBBa.s 			page 188


 9296 047a 49       		.uleb128 0x49
 9297 047b 13       		.uleb128 0x13
 9298 047c 02       		.uleb128 0x2
 9299 047d 18       		.uleb128 0x18
 9300 047e 00       		.byte	0
 9301 047f 00       		.byte	0
 9302 0480 52       		.uleb128 0x52
 9303 0481 34       		.uleb128 0x34
 9304 0482 00       		.byte	0
 9305 0483 03       		.uleb128 0x3
 9306 0484 0E       		.uleb128 0xe
 9307 0485 3A       		.uleb128 0x3a
 9308 0486 0B       		.uleb128 0xb
 9309 0487 3B       		.uleb128 0x3b
 9310 0488 05       		.uleb128 0x5
 9311 0489 49       		.uleb128 0x49
 9312 048a 13       		.uleb128 0x13
 9313 048b 3F       		.uleb128 0x3f
 9314 048c 19       		.uleb128 0x19
 9315 048d 3C       		.uleb128 0x3c
 9316 048e 19       		.uleb128 0x19
 9317 048f 00       		.byte	0
 9318 0490 00       		.byte	0
 9319 0491 53       		.uleb128 0x53
 9320 0492 2E       		.uleb128 0x2e
 9321 0493 00       		.byte	0
 9322 0494 3F       		.uleb128 0x3f
 9323 0495 19       		.uleb128 0x19
 9324 0496 3C       		.uleb128 0x3c
 9325 0497 19       		.uleb128 0x19
 9326 0498 6E       		.uleb128 0x6e
 9327 0499 0E       		.uleb128 0xe
 9328 049a 03       		.uleb128 0x3
 9329 049b 0E       		.uleb128 0xe
 9330 049c 3A       		.uleb128 0x3a
 9331 049d 0B       		.uleb128 0xb
 9332 049e 3B       		.uleb128 0x3b
 9333 049f 05       		.uleb128 0x5
 9334 04a0 00       		.byte	0
 9335 04a1 00       		.byte	0
 9336 04a2 54       		.uleb128 0x54
 9337 04a3 2E       		.uleb128 0x2e
 9338 04a4 00       		.byte	0
 9339 04a5 3F       		.uleb128 0x3f
 9340 04a6 19       		.uleb128 0x19
 9341 04a7 3C       		.uleb128 0x3c
 9342 04a8 19       		.uleb128 0x19
 9343 04a9 6E       		.uleb128 0x6e
 9344 04aa 0E       		.uleb128 0xe
 9345 04ab 03       		.uleb128 0x3
 9346 04ac 0E       		.uleb128 0xe
 9347 04ad 3A       		.uleb128 0x3a
 9348 04ae 0B       		.uleb128 0xb
 9349 04af 3B       		.uleb128 0x3b
 9350 04b0 0B       		.uleb128 0xb
 9351 04b1 00       		.byte	0
 9352 04b2 00       		.byte	0
ARM GAS  C:\Users\pearlstl\AppData\Local\Temp\ccI2fBBa.s 			page 189


 9353 04b3 00       		.byte	0
 9354              		.section	.debug_loc,"",%progbits
 9355              	.Ldebug_loc0:
 9356              	.LLST0:
 9357 0000 00000000 		.4byte	.LVL0
 9358 0004 0B000000 		.4byte	.LVL1-1
 9359 0008 0100     		.2byte	0x1
 9360 000a 50       		.byte	0x50
 9361 000b 0B000000 		.4byte	.LVL1-1
 9362 000f 16010000 		.4byte	.LFE91
 9363 0013 0100     		.2byte	0x1
 9364 0015 59       		.byte	0x59
 9365 0016 00000000 		.4byte	0
 9366 001a 00000000 		.4byte	0
 9367              	.LLST1:
 9368 001e 0C000000 		.4byte	.LVL1
 9369 0022 22000000 		.4byte	.LVL3
 9370 0026 0100     		.2byte	0x1
 9371 0028 50       		.byte	0x50
 9372 0029 22000000 		.4byte	.LVL3
 9373 002d 10010000 		.4byte	.LVL31
 9374 0031 0100     		.2byte	0x1
 9375 0033 55       		.byte	0x55
 9376 0034 00000000 		.4byte	0
 9377 0038 00000000 		.4byte	0
 9378              	.LLST2:
 9379 003c 4E000000 		.4byte	.LVL9
 9380 0040 7C000000 		.4byte	.LVL14
 9381 0044 0200     		.2byte	0x2
 9382 0046 31       		.byte	0x31
 9383 0047 9F       		.byte	0x9f
 9384 0048 7C000000 		.4byte	.LVL14
 9385 004c 8C000000 		.4byte	.LVL16
 9386 0050 0200     		.2byte	0x2
 9387 0052 30       		.byte	0x30
 9388 0053 9F       		.byte	0x9f
 9389 0054 8C000000 		.4byte	.LVL16
 9390 0058 98000000 		.4byte	.LVL17
 9391 005c 0100     		.2byte	0x1
 9392 005e 56       		.byte	0x56
 9393 005f 98000000 		.4byte	.LVL17
 9394 0063 B4000000 		.4byte	.LVL20
 9395 0067 0200     		.2byte	0x2
 9396 0069 31       		.byte	0x31
 9397 006a 9F       		.byte	0x9f
 9398 006b 00000000 		.4byte	0
 9399 006f 00000000 		.4byte	0
 9400              	.LLST3:
 9401 0073 56000000 		.4byte	.LVL10
 9402 0077 5A000000 		.4byte	.LVL11
 9403 007b 0100     		.2byte	0x1
 9404 007d 50       		.byte	0x50
 9405 007e 5A000000 		.4byte	.LVL11
 9406 0082 5D000000 		.4byte	.LVL12-1
 9407 0086 0100     		.2byte	0x1
 9408 0088 51       		.byte	0x51
 9409 0089 5E000000 		.4byte	.LVL12
ARM GAS  C:\Users\pearlstl\AppData\Local\Temp\ccI2fBBa.s 			page 190


 9410 008d 7B000000 		.4byte	.LVL14-1
 9411 0091 0100     		.2byte	0x1
 9412 0093 50       		.byte	0x50
 9413 0094 7B000000 		.4byte	.LVL14-1
 9414 0098 84000000 		.4byte	.LVL15
 9415 009c 0100     		.2byte	0x1
 9416 009e 54       		.byte	0x54
 9417 009f 84000000 		.4byte	.LVL15
 9418 00a3 97000000 		.4byte	.LVL17-1
 9419 00a7 0100     		.2byte	0x1
 9420 00a9 50       		.byte	0x50
 9421 00aa 97000000 		.4byte	.LVL17-1
 9422 00ae A2000000 		.4byte	.LVL18
 9423 00b2 0100     		.2byte	0x1
 9424 00b4 54       		.byte	0x54
 9425 00b5 A2000000 		.4byte	.LVL18
 9426 00b9 B1000000 		.4byte	.LVL19-1
 9427 00bd 0100     		.2byte	0x1
 9428 00bf 50       		.byte	0x50
 9429 00c0 B1000000 		.4byte	.LVL19-1
 9430 00c4 B4000000 		.4byte	.LVL20
 9431 00c8 0100     		.2byte	0x1
 9432 00ca 54       		.byte	0x54
 9433 00cb B4000000 		.4byte	.LVL20
 9434 00cf B6000000 		.4byte	.LVL21
 9435 00d3 0100     		.2byte	0x1
 9436 00d5 50       		.byte	0x50
 9437 00d6 00000000 		.4byte	0
 9438 00da 00000000 		.4byte	0
 9439              	.LLST4:
 9440 00de 4E000000 		.4byte	.LVL9
 9441 00e2 6A000000 		.4byte	.LVL13
 9442 00e6 0200     		.2byte	0x2
 9443 00e8 30       		.byte	0x30
 9444 00e9 9F       		.byte	0x9f
 9445 00ea 7C000000 		.4byte	.LVL14
 9446 00ee 8C000000 		.4byte	.LVL16
 9447 00f2 0100     		.2byte	0x1
 9448 00f4 54       		.byte	0x54
 9449 00f5 00000000 		.4byte	0
 9450 00f9 00000000 		.4byte	0
 9451              	.LLST5:
 9452 00fd 20000000 		.4byte	.LVL2
 9453 0101 2E000000 		.4byte	.LVL7
 9454 0105 0200     		.2byte	0x2
 9455 0107 33       		.byte	0x33
 9456 0108 9F       		.byte	0x9f
 9457 0109 00000000 		.4byte	0
 9458 010d 00000000 		.4byte	0
 9459              	.LLST6:
 9460 0111 20000000 		.4byte	.LVL2
 9461 0115 2E000000 		.4byte	.LVL7
 9462 0119 0100     		.2byte	0x1
 9463 011b 59       		.byte	0x59
 9464 011c 00000000 		.4byte	0
 9465 0120 00000000 		.4byte	0
 9466              	.LLST7:
ARM GAS  C:\Users\pearlstl\AppData\Local\Temp\ccI2fBBa.s 			page 191


 9467 0124 20000000 		.4byte	.LVL2
 9468 0128 2E000000 		.4byte	.LVL7
 9469 012c 0200     		.2byte	0x2
 9470 012e 30       		.byte	0x30
 9471 012f 9F       		.byte	0x9f
 9472 0130 00000000 		.4byte	0
 9473 0134 00000000 		.4byte	0
 9474              	.LLST8:
 9475 0138 26000000 		.4byte	.LVL4
 9476 013c 28000000 		.4byte	.LVL5
 9477 0140 0100     		.2byte	0x1
 9478 0142 50       		.byte	0x50
 9479 0143 00000000 		.4byte	0
 9480 0147 00000000 		.4byte	0
 9481              	.LLST9:
 9482 014b B4000000 		.4byte	.LVL20
 9483 014f C0000000 		.4byte	.LVL24
 9484 0153 0200     		.2byte	0x2
 9485 0155 33       		.byte	0x33
 9486 0156 9F       		.byte	0x9f
 9487 0157 00000000 		.4byte	0
 9488 015b 00000000 		.4byte	0
 9489              	.LLST10:
 9490 015f B4000000 		.4byte	.LVL20
 9491 0163 C0000000 		.4byte	.LVL24
 9492 0167 0100     		.2byte	0x1
 9493 0169 59       		.byte	0x59
 9494 016a 00000000 		.4byte	0
 9495 016e 00000000 		.4byte	0
 9496              	.LLST11:
 9497 0172 B4000000 		.4byte	.LVL20
 9498 0176 C0000000 		.4byte	.LVL24
 9499 017a 0200     		.2byte	0x2
 9500 017c 30       		.byte	0x30
 9501 017d 9F       		.byte	0x9f
 9502 017e 00000000 		.4byte	0
 9503 0182 00000000 		.4byte	0
 9504              	.LLST12:
 9505 0186 BA000000 		.4byte	.LVL22
 9506 018a BC000000 		.4byte	.LVL23
 9507 018e 0100     		.2byte	0x1
 9508 0190 50       		.byte	0x50
 9509 0191 00000000 		.4byte	0
 9510 0195 00000000 		.4byte	0
 9511              	.LLST13:
 9512 0199 00000000 		.4byte	.LVL32
 9513 019d 0D000000 		.4byte	.LVL33-1
 9514 01a1 0100     		.2byte	0x1
 9515 01a3 50       		.byte	0x50
 9516 01a4 0D000000 		.4byte	.LVL33-1
 9517 01a8 7E000000 		.4byte	.LVL57
 9518 01ac 0100     		.2byte	0x1
 9519 01ae 56       		.byte	0x56
 9520 01af 7E000000 		.4byte	.LVL57
 9521 01b3 82000000 		.4byte	.LVL58
 9522 01b7 0400     		.2byte	0x4
 9523 01b9 F3       		.byte	0xf3
ARM GAS  C:\Users\pearlstl\AppData\Local\Temp\ccI2fBBa.s 			page 192


 9524 01ba 01       		.uleb128 0x1
 9525 01bb 50       		.byte	0x50
 9526 01bc 9F       		.byte	0x9f
 9527 01bd 82000000 		.4byte	.LVL58
 9528 01c1 CA000000 		.4byte	.LVL70
 9529 01c5 0100     		.2byte	0x1
 9530 01c7 56       		.byte	0x56
 9531 01c8 CA000000 		.4byte	.LVL70
 9532 01cc D4000000 		.4byte	.LFE90
 9533 01d0 0400     		.2byte	0x4
 9534 01d2 F3       		.byte	0xf3
 9535 01d3 01       		.uleb128 0x1
 9536 01d4 50       		.byte	0x50
 9537 01d5 9F       		.byte	0x9f
 9538 01d6 00000000 		.4byte	0
 9539 01da 00000000 		.4byte	0
 9540              	.LLST14:
 9541 01de 00000000 		.4byte	.LVL32
 9542 01e2 0D000000 		.4byte	.LVL33-1
 9543 01e6 0100     		.2byte	0x1
 9544 01e8 51       		.byte	0x51
 9545 01e9 0D000000 		.4byte	.LVL33-1
 9546 01ed D4000000 		.4byte	.LFE90
 9547 01f1 0400     		.2byte	0x4
 9548 01f3 F3       		.byte	0xf3
 9549 01f4 01       		.uleb128 0x1
 9550 01f5 51       		.byte	0x51
 9551 01f6 9F       		.byte	0x9f
 9552 01f7 00000000 		.4byte	0
 9553 01fb 00000000 		.4byte	0
 9554              	.LLST15:
 9555 01ff 00000000 		.4byte	.LVL32
 9556 0203 0D000000 		.4byte	.LVL33-1
 9557 0207 0100     		.2byte	0x1
 9558 0209 52       		.byte	0x52
 9559 020a 0D000000 		.4byte	.LVL33-1
 9560 020e 32000000 		.4byte	.LVL38
 9561 0212 0100     		.2byte	0x1
 9562 0214 57       		.byte	0x57
 9563 0215 32000000 		.4byte	.LVL38
 9564 0219 36000000 		.4byte	.LVL39
 9565 021d 0400     		.2byte	0x4
 9566 021f F3       		.byte	0xf3
 9567 0220 01       		.uleb128 0x1
 9568 0221 52       		.byte	0x52
 9569 0222 9F       		.byte	0x9f
 9570 0223 36000000 		.4byte	.LVL39
 9571 0227 38000000 		.4byte	.LVL40
 9572 022b 0100     		.2byte	0x1
 9573 022d 57       		.byte	0x57
 9574 022e 38000000 		.4byte	.LVL40
 9575 0232 76000000 		.4byte	.LVL55
 9576 0236 0400     		.2byte	0x4
 9577 0238 F3       		.byte	0xf3
 9578 0239 01       		.uleb128 0x1
 9579 023a 52       		.byte	0x52
 9580 023b 9F       		.byte	0x9f
ARM GAS  C:\Users\pearlstl\AppData\Local\Temp\ccI2fBBa.s 			page 193


 9581 023c 76000000 		.4byte	.LVL55
 9582 0240 7E000000 		.4byte	.LVL57
 9583 0244 0100     		.2byte	0x1
 9584 0246 57       		.byte	0x57
 9585 0247 7E000000 		.4byte	.LVL57
 9586 024b 81000000 		.4byte	.LVL58-1
 9587 024f 0100     		.2byte	0x1
 9588 0251 50       		.byte	0x50
 9589 0252 81000000 		.4byte	.LVL58-1
 9590 0256 82000000 		.4byte	.LVL58
 9591 025a 0400     		.2byte	0x4
 9592 025c F3       		.byte	0xf3
 9593 025d 01       		.uleb128 0x1
 9594 025e 52       		.byte	0x52
 9595 025f 9F       		.byte	0x9f
 9596 0260 82000000 		.4byte	.LVL58
 9597 0264 CA000000 		.4byte	.LVL70
 9598 0268 0100     		.2byte	0x1
 9599 026a 57       		.byte	0x57
 9600 026b CA000000 		.4byte	.LVL70
 9601 026f D4000000 		.4byte	.LFE90
 9602 0273 0400     		.2byte	0x4
 9603 0275 F3       		.byte	0xf3
 9604 0276 01       		.uleb128 0x1
 9605 0277 52       		.byte	0x52
 9606 0278 9F       		.byte	0x9f
 9607 0279 00000000 		.4byte	0
 9608 027d 00000000 		.4byte	0
 9609              	.LLST16:
 9610 0281 12000000 		.4byte	.LVL34
 9611 0285 1C000000 		.4byte	.LVL36
 9612 0289 0100     		.2byte	0x1
 9613 028b 50       		.byte	0x50
 9614 028c 76000000 		.4byte	.LVL55
 9615 0290 78000000 		.4byte	.LVL56
 9616 0294 0100     		.2byte	0x1
 9617 0296 50       		.byte	0x50
 9618 0297 00000000 		.4byte	0
 9619 029b 00000000 		.4byte	0
 9620              	.LLST17:
 9621 029f 20000000 		.4byte	.LVL37
 9622 02a3 32000000 		.4byte	.LVL38
 9623 02a7 0100     		.2byte	0x1
 9624 02a9 50       		.byte	0x50
 9625 02aa 36000000 		.4byte	.LVL39
 9626 02ae 40000000 		.4byte	.LVL41
 9627 02b2 0100     		.2byte	0x1
 9628 02b4 50       		.byte	0x50
 9629 02b5 82000000 		.4byte	.LVL58
 9630 02b9 8A000000 		.4byte	.LVL59
 9631 02bd 0100     		.2byte	0x1
 9632 02bf 50       		.byte	0x50
 9633 02c0 8C000000 		.4byte	.LVL60
 9634 02c4 94000000 		.4byte	.LVL61
 9635 02c8 0100     		.2byte	0x1
 9636 02ca 50       		.byte	0x50
 9637 02cb BC000000 		.4byte	.LVL67
ARM GAS  C:\Users\pearlstl\AppData\Local\Temp\ccI2fBBa.s 			page 194


 9638 02cf BE000000 		.4byte	.LVL68
 9639 02d3 0100     		.2byte	0x1
 9640 02d5 50       		.byte	0x50
 9641 02d6 00000000 		.4byte	0
 9642 02da 00000000 		.4byte	0
 9643              	.LLST18:
 9644 02de 38000000 		.4byte	.LVL40
 9645 02e2 76000000 		.4byte	.LVL55
 9646 02e6 0100     		.2byte	0x1
 9647 02e8 57       		.byte	0x57
 9648 02e9 00000000 		.4byte	0
 9649 02ed 00000000 		.4byte	0
 9650              	.LLST19:
 9651 02f1 44000000 		.4byte	.LVL42
 9652 02f5 46000000 		.4byte	.LVL43
 9653 02f9 0100     		.2byte	0x1
 9654 02fb 50       		.byte	0x50
 9655 02fc 46000000 		.4byte	.LVL43
 9656 0300 56000000 		.4byte	.LVL45
 9657 0304 0100     		.2byte	0x1
 9658 0306 54       		.byte	0x54
 9659 0307 56000000 		.4byte	.LVL45
 9660 030b 5B000000 		.4byte	.LVL46-1
 9661 030f 0100     		.2byte	0x1
 9662 0311 51       		.byte	0x51
 9663 0312 5B000000 		.4byte	.LVL46-1
 9664 0316 60000000 		.4byte	.LVL47
 9665 031a 0100     		.2byte	0x1
 9666 031c 54       		.byte	0x54
 9667 031d 60000000 		.4byte	.LVL47
 9668 0321 62000000 		.4byte	.LVL48
 9669 0325 0100     		.2byte	0x1
 9670 0327 50       		.byte	0x50
 9671 0328 62000000 		.4byte	.LVL48
 9672 032c 6A000000 		.4byte	.LVL51
 9673 0330 0100     		.2byte	0x1
 9674 0332 55       		.byte	0x55
 9675 0333 6A000000 		.4byte	.LVL51
 9676 0337 6C000000 		.4byte	.LVL52
 9677 033b 0100     		.2byte	0x1
 9678 033d 51       		.byte	0x51
 9679 033e 6C000000 		.4byte	.LVL52
 9680 0342 74000000 		.4byte	.LVL54
 9681 0346 0100     		.2byte	0x1
 9682 0348 54       		.byte	0x54
 9683 0349 74000000 		.4byte	.LVL54
 9684 034d 76000000 		.4byte	.LVL55
 9685 0351 0100     		.2byte	0x1
 9686 0353 50       		.byte	0x50
 9687 0354 00000000 		.4byte	0
 9688 0358 00000000 		.4byte	0
 9689              	.LLST20:
 9690 035c 52000000 		.4byte	.LVL44
 9691 0360 56000000 		.4byte	.LVL45
 9692 0364 0100     		.2byte	0x1
 9693 0366 54       		.byte	0x54
 9694 0367 56000000 		.4byte	.LVL45
ARM GAS  C:\Users\pearlstl\AppData\Local\Temp\ccI2fBBa.s 			page 195


 9695 036b 5B000000 		.4byte	.LVL46-1
 9696 036f 0100     		.2byte	0x1
 9697 0371 51       		.byte	0x51
 9698 0372 5B000000 		.4byte	.LVL46-1
 9699 0376 68000000 		.4byte	.LVL50
 9700 037a 0100     		.2byte	0x1
 9701 037c 54       		.byte	0x54
 9702 037d 6A000000 		.4byte	.LVL51
 9703 0381 6C000000 		.4byte	.LVL52
 9704 0385 0100     		.2byte	0x1
 9705 0387 51       		.byte	0x51
 9706 0388 6C000000 		.4byte	.LVL52
 9707 038c 74000000 		.4byte	.LVL54
 9708 0390 0100     		.2byte	0x1
 9709 0392 54       		.byte	0x54
 9710 0393 00000000 		.4byte	0
 9711 0397 00000000 		.4byte	0
 9712              	.LLST21:
 9713 039b 8C000000 		.4byte	.LVL60
 9714 039f B4000000 		.4byte	.LVL65
 9715 03a3 0100     		.2byte	0x1
 9716 03a5 57       		.byte	0x57
 9717 03a6 00000000 		.4byte	0
 9718 03aa 00000000 		.4byte	0
 9719              	.LLST23:
 9720 03ae A0000000 		.4byte	.LVL63
 9721 03b2 B4000000 		.4byte	.LVL65
 9722 03b6 0100     		.2byte	0x1
 9723 03b8 57       		.byte	0x57
 9724 03b9 00000000 		.4byte	0
 9725 03bd 00000000 		.4byte	0
 9726              	.LLST25:
 9727 03c1 00000000 		.4byte	.LVL71
 9728 03c5 0B000000 		.4byte	.LVL72-1
 9729 03c9 0100     		.2byte	0x1
 9730 03cb 50       		.byte	0x50
 9731 03cc 0B000000 		.4byte	.LVL72-1
 9732 03d0 4E000000 		.4byte	.LVL77
 9733 03d4 0100     		.2byte	0x1
 9734 03d6 58       		.byte	0x58
 9735 03d7 4E000000 		.4byte	.LVL77
 9736 03db D2000000 		.4byte	.LVL98
 9737 03df 0400     		.2byte	0x4
 9738 03e1 F3       		.byte	0xf3
 9739 03e2 01       		.uleb128 0x1
 9740 03e3 50       		.byte	0x50
 9741 03e4 9F       		.byte	0x9f
 9742 03e5 D2000000 		.4byte	.LVL98
 9743 03e9 BC010000 		.4byte	.LVL138
 9744 03ed 0100     		.2byte	0x1
 9745 03ef 58       		.byte	0x58
 9746 03f0 BC010000 		.4byte	.LVL138
 9747 03f4 32020000 		.4byte	.LVL157
 9748 03f8 0400     		.2byte	0x4
 9749 03fa F3       		.byte	0xf3
 9750 03fb 01       		.uleb128 0x1
 9751 03fc 50       		.byte	0x50
ARM GAS  C:\Users\pearlstl\AppData\Local\Temp\ccI2fBBa.s 			page 196


 9752 03fd 9F       		.byte	0x9f
 9753 03fe 32020000 		.4byte	.LVL157
 9754 0402 8C020000 		.4byte	.LVL178
 9755 0406 0100     		.2byte	0x1
 9756 0408 58       		.byte	0x58
 9757 0409 8C020000 		.4byte	.LVL178
 9758 040d B4020000 		.4byte	.LFE68
 9759 0411 0400     		.2byte	0x4
 9760 0413 F3       		.byte	0xf3
 9761 0414 01       		.uleb128 0x1
 9762 0415 50       		.byte	0x50
 9763 0416 9F       		.byte	0x9f
 9764 0417 00000000 		.4byte	0
 9765 041b 00000000 		.4byte	0
 9766              	.LLST26:
 9767 041f 00000000 		.4byte	.LVL71
 9768 0423 0B000000 		.4byte	.LVL72-1
 9769 0427 0100     		.2byte	0x1
 9770 0429 51       		.byte	0x51
 9771 042a 0B000000 		.4byte	.LVL72-1
 9772 042e 8E000000 		.4byte	.LVL85
 9773 0432 0100     		.2byte	0x1
 9774 0434 56       		.byte	0x56
 9775 0435 8E000000 		.4byte	.LVL85
 9776 0439 D2000000 		.4byte	.LVL98
 9777 043d 0400     		.2byte	0x4
 9778 043f F3       		.byte	0xf3
 9779 0440 01       		.uleb128 0x1
 9780 0441 51       		.byte	0x51
 9781 0442 9F       		.byte	0x9f
 9782 0443 D2000000 		.4byte	.LVL98
 9783 0447 C4010000 		.4byte	.LVL140
 9784 044b 0100     		.2byte	0x1
 9785 044d 56       		.byte	0x56
 9786 044e C4010000 		.4byte	.LVL140
 9787 0452 32020000 		.4byte	.LVL157
 9788 0456 0400     		.2byte	0x4
 9789 0458 F3       		.byte	0xf3
 9790 0459 01       		.uleb128 0x1
 9791 045a 51       		.byte	0x51
 9792 045b 9F       		.byte	0x9f
 9793 045c 32020000 		.4byte	.LVL157
 9794 0460 8C020000 		.4byte	.LVL178
 9795 0464 0100     		.2byte	0x1
 9796 0466 56       		.byte	0x56
 9797 0467 8C020000 		.4byte	.LVL178
 9798 046b B4020000 		.4byte	.LFE68
 9799 046f 0400     		.2byte	0x4
 9800 0471 F3       		.byte	0xf3
 9801 0472 01       		.uleb128 0x1
 9802 0473 51       		.byte	0x51
 9803 0474 9F       		.byte	0x9f
 9804 0475 00000000 		.4byte	0
 9805 0479 00000000 		.4byte	0
 9806              	.LLST27:
 9807 047d 0C000000 		.4byte	.LVL72
 9808 0481 1E000000 		.4byte	.LVL73
ARM GAS  C:\Users\pearlstl\AppData\Local\Temp\ccI2fBBa.s 			page 197


 9809 0485 0100     		.2byte	0x1
 9810 0487 50       		.byte	0x50
 9811 0488 1E000000 		.4byte	.LVL73
 9812 048c 32020000 		.4byte	.LVL157
 9813 0490 0100     		.2byte	0x1
 9814 0492 57       		.byte	0x57
 9815 0493 32020000 		.4byte	.LVL157
 9816 0497 35020000 		.4byte	.LVL158-1
 9817 049b 0100     		.2byte	0x1
 9818 049d 50       		.byte	0x50
 9819 049e 35020000 		.4byte	.LVL158-1
 9820 04a2 86020000 		.4byte	.LVL177
 9821 04a6 0100     		.2byte	0x1
 9822 04a8 57       		.byte	0x57
 9823 04a9 00000000 		.4byte	0
 9824 04ad 00000000 		.4byte	0
 9825              	.LLST28:
 9826 04b1 26000000 		.4byte	.LVL74
 9827 04b5 48000000 		.4byte	.LVL75
 9828 04b9 0100     		.2byte	0x1
 9829 04bb 50       		.byte	0x50
 9830 04bc 48000000 		.4byte	.LVL75
 9831 04c0 C0000000 		.4byte	.LVL95
 9832 04c4 0100     		.2byte	0x1
 9833 04c6 55       		.byte	0x55
 9834 04c7 D2000000 		.4byte	.LVL98
 9835 04cb DC000000 		.4byte	.LVL99
 9836 04cf 0100     		.2byte	0x1
 9837 04d1 50       		.byte	0x50
 9838 04d2 DC000000 		.4byte	.LVL99
 9839 04d6 5A010000 		.4byte	.LVL119
 9840 04da 0100     		.2byte	0x1
 9841 04dc 55       		.byte	0x55
 9842 04dd 74020000 		.4byte	.LVL171
 9843 04e1 76020000 		.4byte	.LVL172
 9844 04e5 0100     		.2byte	0x1
 9845 04e7 50       		.byte	0x50
 9846 04e8 76020000 		.4byte	.LVL172
 9847 04ec 86020000 		.4byte	.LVL177
 9848 04f0 0100     		.2byte	0x1
 9849 04f2 55       		.byte	0x55
 9850 04f3 00000000 		.4byte	0
 9851 04f7 00000000 		.4byte	0
 9852              	.LLST29:
 9853 04fb 4E000000 		.4byte	.LVL77
 9854 04ff 50000000 		.4byte	.LVL78
 9855 0503 0100     		.2byte	0x1
 9856 0505 50       		.byte	0x50
 9857 0506 50000000 		.4byte	.LVL78
 9858 050a C0000000 		.4byte	.LVL95
 9859 050e 0100     		.2byte	0x1
 9860 0510 58       		.byte	0x58
 9861 0511 00000000 		.4byte	0
 9862 0515 00000000 		.4byte	0
 9863              	.LLST30:
 9864 0519 80000000 		.4byte	.LVL82
 9865 051d 86000000 		.4byte	.LVL83
ARM GAS  C:\Users\pearlstl\AppData\Local\Temp\ccI2fBBa.s 			page 198


 9866 0521 0100     		.2byte	0x1
 9867 0523 50       		.byte	0x50
 9868 0524 86000000 		.4byte	.LVL83
 9869 0528 89000000 		.4byte	.LVL84-1
 9870 052c 0100     		.2byte	0x1
 9871 052e 51       		.byte	0x51
 9872 052f 8A000000 		.4byte	.LVL84
 9873 0533 92000000 		.4byte	.LVL86
 9874 0537 0100     		.2byte	0x1
 9875 0539 50       		.byte	0x50
 9876 053a 92000000 		.4byte	.LVL86
 9877 053e 95000000 		.4byte	.LVL87-1
 9878 0542 0100     		.2byte	0x1
 9879 0544 51       		.byte	0x51
 9880 0545 95000000 		.4byte	.LVL87-1
 9881 0549 B2000000 		.4byte	.LVL92
 9882 054d 0100     		.2byte	0x1
 9883 054f 54       		.byte	0x54
 9884 0550 B2000000 		.4byte	.LVL92
 9885 0554 BC000000 		.4byte	.LVL94
 9886 0558 0100     		.2byte	0x1
 9887 055a 50       		.byte	0x50
 9888 055b BC000000 		.4byte	.LVL94
 9889 055f C0000000 		.4byte	.LVL95
 9890 0563 0100     		.2byte	0x1
 9891 0565 54       		.byte	0x54
 9892 0566 00000000 		.4byte	0
 9893 056a 00000000 		.4byte	0
 9894              	.LLST31:
 9895 056e 9A000000 		.4byte	.LVL88
 9896 0572 9C000000 		.4byte	.LVL89
 9897 0576 0100     		.2byte	0x1
 9898 0578 50       		.byte	0x50
 9899 0579 9C000000 		.4byte	.LVL89
 9900 057d B8000000 		.4byte	.LVL93
 9901 0581 0100     		.2byte	0x1
 9902 0583 56       		.byte	0x56
 9903 0584 00000000 		.4byte	0
 9904 0588 00000000 		.4byte	0
 9905              	.LLST32:
 9906 058c E6000000 		.4byte	.LVL102
 9907 0590 62010000 		.4byte	.LVL120
 9908 0594 0100     		.2byte	0x1
 9909 0596 54       		.byte	0x54
 9910 0597 3A020000 		.4byte	.LVL159
 9911 059b 74020000 		.4byte	.LVL171
 9912 059f 0100     		.2byte	0x1
 9913 05a1 54       		.byte	0x54
 9914 05a2 7C020000 		.4byte	.LVL174
 9915 05a6 86020000 		.4byte	.LVL177
 9916 05aa 0100     		.2byte	0x1
 9917 05ac 54       		.byte	0x54
 9918 05ad 00000000 		.4byte	0
 9919 05b1 00000000 		.4byte	0
 9920              	.LLST33:
 9921 05b5 F2000000 		.4byte	.LVL105
 9922 05b9 F9000000 		.4byte	.LVL106-1
ARM GAS  C:\Users\pearlstl\AppData\Local\Temp\ccI2fBBa.s 			page 199


 9923 05bd 0100     		.2byte	0x1
 9924 05bf 52       		.byte	0x52
 9925 05c0 84020000 		.4byte	.LVL176
 9926 05c4 86020000 		.4byte	.LVL177
 9927 05c8 0100     		.2byte	0x1
 9928 05ca 52       		.byte	0x52
 9929 05cb 00000000 		.4byte	0
 9930 05cf 00000000 		.4byte	0
 9931              	.LLST34:
 9932 05d3 58010000 		.4byte	.LVL118
 9933 05d7 64010000 		.4byte	.LVL121
 9934 05db 0100     		.2byte	0x1
 9935 05dd 50       		.byte	0x50
 9936 05de 64010000 		.4byte	.LVL121
 9937 05e2 00020000 		.4byte	.LVL150
 9938 05e6 0100     		.2byte	0x1
 9939 05e8 55       		.byte	0x55
 9940 05e9 3A020000 		.4byte	.LVL159
 9941 05ed 3C020000 		.4byte	.LVL160
 9942 05f1 0100     		.2byte	0x1
 9943 05f3 50       		.byte	0x50
 9944 05f4 3C020000 		.4byte	.LVL160
 9945 05f8 74020000 		.4byte	.LVL171
 9946 05fc 0100     		.2byte	0x1
 9947 05fe 55       		.byte	0x55
 9948 05ff 00000000 		.4byte	0
 9949 0603 00000000 		.4byte	0
 9950              	.LLST35:
 9951 0607 62010000 		.4byte	.LVL120
 9952 060b 76010000 		.4byte	.LVL124
 9953 060f 0100     		.2byte	0x1
 9954 0611 54       		.byte	0x54
 9955 0612 00000000 		.4byte	0
 9956 0616 00000000 		.4byte	0
 9957              	.LLST36:
 9958 061a 62010000 		.4byte	.LVL120
 9959 061e 76010000 		.4byte	.LVL124
 9960 0622 0200     		.2byte	0x2
 9961 0624 30       		.byte	0x30
 9962 0625 9F       		.byte	0x9f
 9963 0626 00000000 		.4byte	0
 9964 062a 00000000 		.4byte	0
 9965              	.LLST37:
 9966 062e 62010000 		.4byte	.LVL120
 9967 0632 76010000 		.4byte	.LVL124
 9968 0636 0100     		.2byte	0x1
 9969 0638 57       		.byte	0x57
 9970 0639 00000000 		.4byte	0
 9971 063d 00000000 		.4byte	0
 9972              	.LLST38:
 9973 0641 7C010000 		.4byte	.LVL125
 9974 0645 8A010000 		.4byte	.LVL128
 9975 0649 0100     		.2byte	0x1
 9976 064b 54       		.byte	0x54
 9977 064c 00000000 		.4byte	0
 9978 0650 00000000 		.4byte	0
 9979              	.LLST39:
ARM GAS  C:\Users\pearlstl\AppData\Local\Temp\ccI2fBBa.s 			page 200


 9980 0654 7C010000 		.4byte	.LVL125
 9981 0658 8A010000 		.4byte	.LVL128
 9982 065c 0200     		.2byte	0x2
 9983 065e 32       		.byte	0x32
 9984 065f 9F       		.byte	0x9f
 9985 0660 00000000 		.4byte	0
 9986 0664 00000000 		.4byte	0
 9987              	.LLST40:
 9988 0668 7C010000 		.4byte	.LVL125
 9989 066c 8A010000 		.4byte	.LVL128
 9990 0670 0100     		.2byte	0x1
 9991 0672 57       		.byte	0x57
 9992 0673 00000000 		.4byte	0
 9993 0677 00000000 		.4byte	0
 9994              	.LLST41:
 9995 067b 80010000 		.4byte	.LVL126
 9996 067f 86010000 		.4byte	.LVL127
 9997 0683 0100     		.2byte	0x1
 9998 0685 50       		.byte	0x50
 9999 0686 00000000 		.4byte	0
 10000 068a 00000000 		.4byte	0
 10001              	.LLST42:
 10002 068e 90010000 		.4byte	.LVL129
 10003 0692 A2010000 		.4byte	.LVL133
 10004 0696 0100     		.2byte	0x1
 10005 0698 54       		.byte	0x54
 10006 0699 00000000 		.4byte	0
 10007 069d 00000000 		.4byte	0
 10008              	.LLST43:
 10009 06a1 90010000 		.4byte	.LVL129
 10010 06a5 A2010000 		.4byte	.LVL133
 10011 06a9 0200     		.2byte	0x2
 10012 06ab 33       		.byte	0x33
 10013 06ac 9F       		.byte	0x9f
 10014 06ad 00000000 		.4byte	0
 10015 06b1 00000000 		.4byte	0
 10016              	.LLST44:
 10017 06b5 90010000 		.4byte	.LVL129
 10018 06b9 A2010000 		.4byte	.LVL133
 10019 06bd 0100     		.2byte	0x1
 10020 06bf 57       		.byte	0x57
 10021 06c0 00000000 		.4byte	0
 10022 06c4 00000000 		.4byte	0
 10023              	.LLST45:
 10024 06c8 94010000 		.4byte	.LVL130
 10025 06cc 98010000 		.4byte	.LVL131
 10026 06d0 0100     		.2byte	0x1
 10027 06d2 50       		.byte	0x50
 10028 06d3 00000000 		.4byte	0
 10029 06d7 00000000 		.4byte	0
 10030              	.LLST46:
 10031 06db A8010000 		.4byte	.LVL134
 10032 06df B6010000 		.4byte	.LVL137
 10033 06e3 0100     		.2byte	0x1
 10034 06e5 54       		.byte	0x54
 10035 06e6 00000000 		.4byte	0
 10036 06ea 00000000 		.4byte	0
ARM GAS  C:\Users\pearlstl\AppData\Local\Temp\ccI2fBBa.s 			page 201


 10037              	.LLST47:
 10038 06ee A8010000 		.4byte	.LVL134
 10039 06f2 B6010000 		.4byte	.LVL137
 10040 06f6 0200     		.2byte	0x2
 10041 06f8 31       		.byte	0x31
 10042 06f9 9F       		.byte	0x9f
 10043 06fa 00000000 		.4byte	0
 10044 06fe 00000000 		.4byte	0
 10045              	.LLST48:
 10046 0702 A8010000 		.4byte	.LVL134
 10047 0706 B6010000 		.4byte	.LVL137
 10048 070a 0100     		.2byte	0x1
 10049 070c 57       		.byte	0x57
 10050 070d 00000000 		.4byte	0
 10051 0711 00000000 		.4byte	0
 10052              	.LLST49:
 10053 0715 AC010000 		.4byte	.LVL135
 10054 0719 B2010000 		.4byte	.LVL136
 10055 071d 0100     		.2byte	0x1
 10056 071f 50       		.byte	0x50
 10057 0720 00000000 		.4byte	0
 10058 0724 00000000 		.4byte	0
 10059              	.LLST50:
 10060 0728 BC010000 		.4byte	.LVL138
 10061 072c F2010000 		.4byte	.LVL147
 10062 0730 0100     		.2byte	0x1
 10063 0732 58       		.byte	0x58
 10064 0733 00000000 		.4byte	0
 10065 0737 00000000 		.4byte	0
 10066              	.LLST51:
 10067 073b BC010000 		.4byte	.LVL138
 10068 073f F2010000 		.4byte	.LVL147
 10069 0743 0200     		.2byte	0x2
 10070 0745 34       		.byte	0x34
 10071 0746 9F       		.byte	0x9f
 10072 0747 00000000 		.4byte	0
 10073 074b 00000000 		.4byte	0
 10074              	.LLST52:
 10075 074f BC010000 		.4byte	.LVL138
 10076 0753 F2010000 		.4byte	.LVL147
 10077 0757 0100     		.2byte	0x1
 10078 0759 57       		.byte	0x57
 10079 075a 00000000 		.4byte	0
 10080 075e 00000000 		.4byte	0
 10081              	.LLST53:
 10082 0762 C4010000 		.4byte	.LVL140
 10083 0766 CA010000 		.4byte	.LVL141
 10084 076a 0100     		.2byte	0x1
 10085 076c 50       		.byte	0x50
 10086 076d CA010000 		.4byte	.LVL141
 10087 0771 F2010000 		.4byte	.LVL147
 10088 0775 0100     		.2byte	0x1
 10089 0777 56       		.byte	0x56
 10090 0778 00000000 		.4byte	0
 10091 077c 00000000 		.4byte	0
 10092              	.LLST54:
 10093 0780 CE010000 		.4byte	.LVL142
ARM GAS  C:\Users\pearlstl\AppData\Local\Temp\ccI2fBBa.s 			page 202


 10094 0784 D2010000 		.4byte	.LVL143
 10095 0788 0100     		.2byte	0x1
 10096 078a 50       		.byte	0x50
 10097 078b D2010000 		.4byte	.LVL143
 10098 078f D5010000 		.4byte	.LVL144-1
 10099 0793 0100     		.2byte	0x1
 10100 0795 51       		.byte	0x51
 10101 0796 D6010000 		.4byte	.LVL144
 10102 079a E3010000 		.4byte	.LVL145-1
 10103 079e 0100     		.2byte	0x1
 10104 07a0 50       		.byte	0x50
 10105 07a1 E3010000 		.4byte	.LVL145-1
 10106 07a5 EC010000 		.4byte	.LVL146
 10107 07a9 0100     		.2byte	0x1
 10108 07ab 54       		.byte	0x54
 10109 07ac EC010000 		.4byte	.LVL146
 10110 07b0 F2010000 		.4byte	.LVL147
 10111 07b4 0100     		.2byte	0x1
 10112 07b6 50       		.byte	0x50
 10113 07b7 00000000 		.4byte	0
 10114 07bb 00000000 		.4byte	0
 10115              	.LLST55:
 10116 07bf F8010000 		.4byte	.LVL148
 10117 07c3 32020000 		.4byte	.LVL157
 10118 07c7 0100     		.2byte	0x1
 10119 07c9 56       		.byte	0x56
 10120 07ca 00000000 		.4byte	0
 10121 07ce 00000000 		.4byte	0
 10122              	.LLST56:
 10123 07d2 F8010000 		.4byte	.LVL148
 10124 07d6 32020000 		.4byte	.LVL157
 10125 07da 0200     		.2byte	0x2
 10126 07dc 35       		.byte	0x35
 10127 07dd 9F       		.byte	0x9f
 10128 07de 00000000 		.4byte	0
 10129 07e2 00000000 		.4byte	0
 10130              	.LLST57:
 10131 07e6 F8010000 		.4byte	.LVL148
 10132 07ea FB010000 		.4byte	.LVL149-1
 10133 07ee 0100     		.2byte	0x1
 10134 07f0 50       		.byte	0x50
 10135 07f1 FB010000 		.4byte	.LVL149-1
 10136 07f5 32020000 		.4byte	.LVL157
 10137 07f9 0100     		.2byte	0x1
 10138 07fb 57       		.byte	0x57
 10139 07fc 00000000 		.4byte	0
 10140 0800 00000000 		.4byte	0
 10141              	.LLST58:
 10142 0804 00020000 		.4byte	.LVL150
 10143 0808 04020000 		.4byte	.LVL151
 10144 080c 0100     		.2byte	0x1
 10145 080e 50       		.byte	0x50
 10146 080f 04020000 		.4byte	.LVL151
 10147 0813 32020000 		.4byte	.LVL157
 10148 0817 0100     		.2byte	0x1
 10149 0819 55       		.byte	0x55
 10150 081a 00000000 		.4byte	0
ARM GAS  C:\Users\pearlstl\AppData\Local\Temp\ccI2fBBa.s 			page 203


 10151 081e 00000000 		.4byte	0
 10152              	.LLST59:
 10153 0822 08020000 		.4byte	.LVL152
 10154 0826 0C020000 		.4byte	.LVL153
 10155 082a 0100     		.2byte	0x1
 10156 082c 50       		.byte	0x50
 10157 082d 0C020000 		.4byte	.LVL153
 10158 0831 0F020000 		.4byte	.LVL154-1
 10159 0835 0100     		.2byte	0x1
 10160 0837 51       		.byte	0x51
 10161 0838 10020000 		.4byte	.LVL154
 10162 083c 21020000 		.4byte	.LVL155-1
 10163 0840 0100     		.2byte	0x1
 10164 0842 50       		.byte	0x50
 10165 0843 21020000 		.4byte	.LVL155-1
 10166 0847 2A020000 		.4byte	.LVL156
 10167 084b 0100     		.2byte	0x1
 10168 084d 54       		.byte	0x54
 10169 084e 2A020000 		.4byte	.LVL156
 10170 0852 32020000 		.4byte	.LVL157
 10171 0856 0100     		.2byte	0x1
 10172 0858 50       		.byte	0x50
 10173 0859 00000000 		.4byte	0
 10174 085d 00000000 		.4byte	0
 10175              	.LLST60:
 10176 0861 3A020000 		.4byte	.LVL159
 10177 0865 4E020000 		.4byte	.LVL163
 10178 0869 0200     		.2byte	0x2
 10179 086b 30       		.byte	0x30
 10180 086c 9F       		.byte	0x9f
 10181 086d 00000000 		.4byte	0
 10182 0871 00000000 		.4byte	0
 10183              	.LLST61:
 10184 0875 3A020000 		.4byte	.LVL159
 10185 0879 4E020000 		.4byte	.LVL163
 10186 087d 0100     		.2byte	0x1
 10187 087f 57       		.byte	0x57
 10188 0880 00000000 		.4byte	0
 10189 0884 00000000 		.4byte	0
 10190              	.LLST62:
 10191 0888 4E020000 		.4byte	.LVL163
 10192 088c 5E020000 		.4byte	.LVL166
 10193 0890 0200     		.2byte	0x2
 10194 0892 31       		.byte	0x31
 10195 0893 9F       		.byte	0x9f
 10196 0894 00000000 		.4byte	0
 10197 0898 00000000 		.4byte	0
 10198              	.LLST63:
 10199 089c 4E020000 		.4byte	.LVL163
 10200 08a0 5E020000 		.4byte	.LVL166
 10201 08a4 0100     		.2byte	0x1
 10202 08a6 57       		.byte	0x57
 10203 08a7 00000000 		.4byte	0
 10204 08ab 00000000 		.4byte	0
 10205              	.LLST64:
 10206 08af 54020000 		.4byte	.LVL164
 10207 08b3 58020000 		.4byte	.LVL165
ARM GAS  C:\Users\pearlstl\AppData\Local\Temp\ccI2fBBa.s 			page 204


 10208 08b7 0100     		.2byte	0x1
 10209 08b9 50       		.byte	0x50
 10210 08ba 00000000 		.4byte	0
 10211 08be 00000000 		.4byte	0
 10212              	.LLST65:
 10213 08c2 5E020000 		.4byte	.LVL166
 10214 08c6 74020000 		.4byte	.LVL171
 10215 08ca 0200     		.2byte	0x2
 10216 08cc 33       		.byte	0x33
 10217 08cd 9F       		.byte	0x9f
 10218 08ce 00000000 		.4byte	0
 10219 08d2 00000000 		.4byte	0
 10220              	.LLST66:
 10221 08d6 5E020000 		.4byte	.LVL166
 10222 08da 74020000 		.4byte	.LVL171
 10223 08de 0100     		.2byte	0x1
 10224 08e0 57       		.byte	0x57
 10225 08e1 00000000 		.4byte	0
 10226 08e5 00000000 		.4byte	0
 10227              	.LLST67:
 10228 08e9 64020000 		.4byte	.LVL167
 10229 08ed 68020000 		.4byte	.LVL168
 10230 08f1 0100     		.2byte	0x1
 10231 08f3 50       		.byte	0x50
 10232 08f4 00000000 		.4byte	0
 10233 08f8 00000000 		.4byte	0
 10234              	.LLST68:
 10235 08fc 00000000 		.4byte	.LVL179
 10236 0900 05000000 		.4byte	.LVL180-1
 10237 0904 0100     		.2byte	0x1
 10238 0906 50       		.byte	0x50
 10239 0907 05000000 		.4byte	.LVL180-1
 10240 090b 0E000000 		.4byte	.LFE69
 10241 090f 0400     		.2byte	0x4
 10242 0911 F3       		.byte	0xf3
 10243 0912 01       		.uleb128 0x1
 10244 0913 50       		.byte	0x50
 10245 0914 9F       		.byte	0x9f
 10246 0915 00000000 		.4byte	0
 10247 0919 00000000 		.4byte	0
 10248              	.LLST69:
 10249 091d 06000000 		.4byte	.LVL180
 10250 0921 0D000000 		.4byte	.LVL181-1
 10251 0925 0100     		.2byte	0x1
 10252 0927 50       		.byte	0x50
 10253 0928 00000000 		.4byte	0
 10254 092c 00000000 		.4byte	0
 10255              	.LLST70:
 10256 0930 00000000 		.4byte	.LVL182
 10257 0934 09000000 		.4byte	.LVL183-1
 10258 0938 0100     		.2byte	0x1
 10259 093a 50       		.byte	0x50
 10260 093b 09000000 		.4byte	.LVL183-1
 10261 093f 56000000 		.4byte	.LFE70
 10262 0943 0100     		.2byte	0x1
 10263 0945 56       		.byte	0x56
 10264 0946 00000000 		.4byte	0
ARM GAS  C:\Users\pearlstl\AppData\Local\Temp\ccI2fBBa.s 			page 205


 10265 094a 00000000 		.4byte	0
 10266              	.LLST71:
 10267 094e 00000000 		.4byte	.LVL182
 10268 0952 09000000 		.4byte	.LVL183-1
 10269 0956 0100     		.2byte	0x1
 10270 0958 51       		.byte	0x51
 10271 0959 09000000 		.4byte	.LVL183-1
 10272 095d 56000000 		.4byte	.LFE70
 10273 0961 0100     		.2byte	0x1
 10274 0963 57       		.byte	0x57
 10275 0964 00000000 		.4byte	0
 10276 0968 00000000 		.4byte	0
 10277              	.LLST72:
 10278 096c 0E000000 		.4byte	.LVL184
 10279 0970 10000000 		.4byte	.LVL185
 10280 0974 0100     		.2byte	0x1
 10281 0976 50       		.byte	0x50
 10282 0977 10000000 		.4byte	.LVL185
 10283 097b 40000000 		.4byte	.LVL192
 10284 097f 0100     		.2byte	0x1
 10285 0981 55       		.byte	0x55
 10286 0982 00000000 		.4byte	0
 10287 0986 00000000 		.4byte	0
 10288              	.LLST73:
 10289 098a 18000000 		.4byte	.LVL187
 10290 098e 1D000000 		.4byte	.LVL188-1
 10291 0992 0100     		.2byte	0x1
 10292 0994 50       		.byte	0x50
 10293 0995 1D000000 		.4byte	.LVL188-1
 10294 0999 56000000 		.4byte	.LFE70
 10295 099d 0100     		.2byte	0x1
 10296 099f 54       		.byte	0x54
 10297 09a0 00000000 		.4byte	0
 10298 09a4 00000000 		.4byte	0
 10299              	.LLST74:
 10300 09a8 40000000 		.4byte	.LVL192
 10301 09ac 43000000 		.4byte	.LVL193-1
 10302 09b0 0100     		.2byte	0x1
 10303 09b2 50       		.byte	0x50
 10304 09b3 43000000 		.4byte	.LVL193-1
 10305 09b7 56000000 		.4byte	.LFE70
 10306 09bb 0100     		.2byte	0x1
 10307 09bd 55       		.byte	0x55
 10308 09be 00000000 		.4byte	0
 10309 09c2 00000000 		.4byte	0
 10310              	.LLST75:
 10311 09c6 00000000 		.4byte	.LVL196
 10312 09ca 0B000000 		.4byte	.LVL197-1
 10313 09ce 0100     		.2byte	0x1
 10314 09d0 50       		.byte	0x50
 10315 09d1 0B000000 		.4byte	.LVL197-1
 10316 09d5 18000000 		.4byte	.LFE71
 10317 09d9 0400     		.2byte	0x4
 10318 09db F3       		.byte	0xf3
 10319 09dc 01       		.uleb128 0x1
 10320 09dd 50       		.byte	0x50
 10321 09de 9F       		.byte	0x9f
ARM GAS  C:\Users\pearlstl\AppData\Local\Temp\ccI2fBBa.s 			page 206


 10322 09df 00000000 		.4byte	0
 10323 09e3 00000000 		.4byte	0
 10324              	.LLST76:
 10325 09e7 00000000 		.4byte	.LVL196
 10326 09eb 0B000000 		.4byte	.LVL197-1
 10327 09ef 0100     		.2byte	0x1
 10328 09f1 51       		.byte	0x51
 10329 09f2 0B000000 		.4byte	.LVL197-1
 10330 09f6 18000000 		.4byte	.LFE71
 10331 09fa 0400     		.2byte	0x4
 10332 09fc F3       		.byte	0xf3
 10333 09fd 01       		.uleb128 0x1
 10334 09fe 51       		.byte	0x51
 10335 09ff 9F       		.byte	0x9f
 10336 0a00 00000000 		.4byte	0
 10337 0a04 00000000 		.4byte	0
 10338              	.LLST77:
 10339 0a08 0C000000 		.4byte	.LVL197
 10340 0a0c 0F000000 		.4byte	.LVL198-1
 10341 0a10 0100     		.2byte	0x1
 10342 0a12 50       		.byte	0x50
 10343 0a13 00000000 		.4byte	0
 10344 0a17 00000000 		.4byte	0
 10345              	.LLST78:
 10346 0a1b 00000000 		.4byte	.LVL200
 10347 0a1f 09000000 		.4byte	.LVL201-1
 10348 0a23 0100     		.2byte	0x1
 10349 0a25 50       		.byte	0x50
 10350 0a26 09000000 		.4byte	.LVL201-1
 10351 0a2a 18000000 		.4byte	.LVL204
 10352 0a2e 0100     		.2byte	0x1
 10353 0a30 54       		.byte	0x54
 10354 0a31 18000000 		.4byte	.LVL204
 10355 0a35 1B000000 		.4byte	.LVL205-1
 10356 0a39 0100     		.2byte	0x1
 10357 0a3b 50       		.byte	0x50
 10358 0a3c 1B000000 		.4byte	.LVL205-1
 10359 0a40 1C000000 		.4byte	.LFE72
 10360 0a44 0400     		.2byte	0x4
 10361 0a46 F3       		.byte	0xf3
 10362 0a47 01       		.uleb128 0x1
 10363 0a48 50       		.byte	0x50
 10364 0a49 9F       		.byte	0x9f
 10365 0a4a 00000000 		.4byte	0
 10366 0a4e 00000000 		.4byte	0
 10367              	.LLST79:
 10368 0a52 00000000 		.4byte	.LVL200
 10369 0a56 09000000 		.4byte	.LVL201-1
 10370 0a5a 0100     		.2byte	0x1
 10371 0a5c 51       		.byte	0x51
 10372 0a5d 09000000 		.4byte	.LVL201-1
 10373 0a61 18000000 		.4byte	.LVL204
 10374 0a65 0100     		.2byte	0x1
 10375 0a67 55       		.byte	0x55
 10376 0a68 18000000 		.4byte	.LVL204
 10377 0a6c 1C000000 		.4byte	.LFE72
 10378 0a70 0400     		.2byte	0x4
ARM GAS  C:\Users\pearlstl\AppData\Local\Temp\ccI2fBBa.s 			page 207


 10379 0a72 F3       		.byte	0xf3
 10380 0a73 01       		.uleb128 0x1
 10381 0a74 51       		.byte	0x51
 10382 0a75 9F       		.byte	0x9f
 10383 0a76 00000000 		.4byte	0
 10384 0a7a 00000000 		.4byte	0
 10385              	.LLST80:
 10386 0a7e 0A000000 		.4byte	.LVL201
 10387 0a82 0E000000 		.4byte	.LVL202
 10388 0a86 0100     		.2byte	0x1
 10389 0a88 50       		.byte	0x50
 10390 0a89 00000000 		.4byte	0
 10391 0a8d 00000000 		.4byte	0
 10392              	.LLST81:
 10393 0a91 00000000 		.4byte	.LVL206
 10394 0a95 09000000 		.4byte	.LVL207-1
 10395 0a99 0100     		.2byte	0x1
 10396 0a9b 50       		.byte	0x50
 10397 0a9c 09000000 		.4byte	.LVL207-1
 10398 0aa0 1A000000 		.4byte	.LVL209
 10399 0aa4 0100     		.2byte	0x1
 10400 0aa6 55       		.byte	0x55
 10401 0aa7 1A000000 		.4byte	.LVL209
 10402 0aab 1D000000 		.4byte	.LVL210-1
 10403 0aaf 0100     		.2byte	0x1
 10404 0ab1 50       		.byte	0x50
 10405 0ab2 1D000000 		.4byte	.LVL210-1
 10406 0ab6 1E000000 		.4byte	.LVL210
 10407 0aba 0400     		.2byte	0x4
 10408 0abc F3       		.byte	0xf3
 10409 0abd 01       		.uleb128 0x1
 10410 0abe 50       		.byte	0x50
 10411 0abf 9F       		.byte	0x9f
 10412 0ac0 1E000000 		.4byte	.LVL210
 10413 0ac4 20000000 		.4byte	.LFE73
 10414 0ac8 0100     		.2byte	0x1
 10415 0aca 55       		.byte	0x55
 10416 0acb 00000000 		.4byte	0
 10417 0acf 00000000 		.4byte	0
 10418              	.LLST82:
 10419 0ad3 00000000 		.4byte	.LVL206
 10420 0ad7 09000000 		.4byte	.LVL207-1
 10421 0adb 0100     		.2byte	0x1
 10422 0add 51       		.byte	0x51
 10423 0ade 09000000 		.4byte	.LVL207-1
 10424 0ae2 20000000 		.4byte	.LFE73
 10425 0ae6 0400     		.2byte	0x4
 10426 0ae8 F3       		.byte	0xf3
 10427 0ae9 01       		.uleb128 0x1
 10428 0aea 51       		.byte	0x51
 10429 0aeb 9F       		.byte	0x9f
 10430 0aec 00000000 		.4byte	0
 10431 0af0 00000000 		.4byte	0
 10432              	.LLST83:
 10433 0af4 0A000000 		.4byte	.LVL207
 10434 0af8 16000000 		.4byte	.LVL208
 10435 0afc 0100     		.2byte	0x1
ARM GAS  C:\Users\pearlstl\AppData\Local\Temp\ccI2fBBa.s 			page 208


 10436 0afe 50       		.byte	0x50
 10437 0aff 1E000000 		.4byte	.LVL210
 10438 0b03 20000000 		.4byte	.LFE73
 10439 0b07 0100     		.2byte	0x1
 10440 0b09 50       		.byte	0x50
 10441 0b0a 00000000 		.4byte	0
 10442 0b0e 00000000 		.4byte	0
 10443              	.LLST84:
 10444 0b12 00000000 		.4byte	.LVL211
 10445 0b16 0B000000 		.4byte	.LVL212-1
 10446 0b1a 0100     		.2byte	0x1
 10447 0b1c 50       		.byte	0x50
 10448 0b1d 0B000000 		.4byte	.LVL212-1
 10449 0b21 1E000000 		.4byte	.LVL216
 10450 0b25 0100     		.2byte	0x1
 10451 0b27 55       		.byte	0x55
 10452 0b28 1E000000 		.4byte	.LVL216
 10453 0b2c 21000000 		.4byte	.LVL217-1
 10454 0b30 0100     		.2byte	0x1
 10455 0b32 50       		.byte	0x50
 10456 0b33 21000000 		.4byte	.LVL217-1
 10457 0b37 22000000 		.4byte	.LFE74
 10458 0b3b 0400     		.2byte	0x4
 10459 0b3d F3       		.byte	0xf3
 10460 0b3e 01       		.uleb128 0x1
 10461 0b3f 50       		.byte	0x50
 10462 0b40 9F       		.byte	0x9f
 10463 0b41 00000000 		.4byte	0
 10464 0b45 00000000 		.4byte	0
 10465              	.LLST85:
 10466 0b49 00000000 		.4byte	.LVL211
 10467 0b4d 0B000000 		.4byte	.LVL212-1
 10468 0b51 0100     		.2byte	0x1
 10469 0b53 51       		.byte	0x51
 10470 0b54 0B000000 		.4byte	.LVL212-1
 10471 0b58 22000000 		.4byte	.LFE74
 10472 0b5c 0400     		.2byte	0x4
 10473 0b5e F3       		.byte	0xf3
 10474 0b5f 01       		.uleb128 0x1
 10475 0b60 51       		.byte	0x51
 10476 0b61 9F       		.byte	0x9f
 10477 0b62 00000000 		.4byte	0
 10478 0b66 00000000 		.4byte	0
 10479              	.LLST86:
 10480 0b6a 00000000 		.4byte	.LVL211
 10481 0b6e 0B000000 		.4byte	.LVL212-1
 10482 0b72 0100     		.2byte	0x1
 10483 0b74 52       		.byte	0x52
 10484 0b75 0B000000 		.4byte	.LVL212-1
 10485 0b79 14000000 		.4byte	.LVL215
 10486 0b7d 0400     		.2byte	0x4
 10487 0b7f F3       		.byte	0xf3
 10488 0b80 01       		.uleb128 0x1
 10489 0b81 52       		.byte	0x52
 10490 0b82 9F       		.byte	0x9f
 10491 0b83 14000000 		.4byte	.LVL215
 10492 0b87 21000000 		.4byte	.LVL217-1
ARM GAS  C:\Users\pearlstl\AppData\Local\Temp\ccI2fBBa.s 			page 209


 10493 0b8b 0100     		.2byte	0x1
 10494 0b8d 52       		.byte	0x52
 10495 0b8e 00000000 		.4byte	0
 10496 0b92 00000000 		.4byte	0
 10497              	.LLST87:
 10498 0b96 0C000000 		.4byte	.LVL212
 10499 0b9a 0E000000 		.4byte	.LVL213
 10500 0b9e 0100     		.2byte	0x1
 10501 0ba0 50       		.byte	0x50
 10502 0ba1 00000000 		.4byte	0
 10503 0ba5 00000000 		.4byte	0
 10504              	.LLST88:
 10505 0ba9 00000000 		.4byte	.LVL218
 10506 0bad 07000000 		.4byte	.LVL219-1
 10507 0bb1 0100     		.2byte	0x1
 10508 0bb3 50       		.byte	0x50
 10509 0bb4 07000000 		.4byte	.LVL219-1
 10510 0bb8 18000000 		.4byte	.LFE75
 10511 0bbc 0400     		.2byte	0x4
 10512 0bbe F3       		.byte	0xf3
 10513 0bbf 01       		.uleb128 0x1
 10514 0bc0 50       		.byte	0x50
 10515 0bc1 9F       		.byte	0x9f
 10516 0bc2 00000000 		.4byte	0
 10517 0bc6 00000000 		.4byte	0
 10518              	.LLST89:
 10519 0bca 00000000 		.4byte	.LVL218
 10520 0bce 07000000 		.4byte	.LVL219-1
 10521 0bd2 0100     		.2byte	0x1
 10522 0bd4 51       		.byte	0x51
 10523 0bd5 07000000 		.4byte	.LVL219-1
 10524 0bd9 18000000 		.4byte	.LFE75
 10525 0bdd 0400     		.2byte	0x4
 10526 0bdf F3       		.byte	0xf3
 10527 0be0 01       		.uleb128 0x1
 10528 0be1 51       		.byte	0x51
 10529 0be2 9F       		.byte	0x9f
 10530 0be3 00000000 		.4byte	0
 10531 0be7 00000000 		.4byte	0
 10532              	.LLST90:
 10533 0beb 08000000 		.4byte	.LVL219
 10534 0bef 0A000000 		.4byte	.LVL220
 10535 0bf3 0100     		.2byte	0x1
 10536 0bf5 50       		.byte	0x50
 10537 0bf6 00000000 		.4byte	0
 10538 0bfa 00000000 		.4byte	0
 10539              	.LLST91:
 10540 0bfe 08000000 		.4byte	.LVL219
 10541 0c02 14000000 		.4byte	.LVL222
 10542 0c06 0100     		.2byte	0x1
 10543 0c08 54       		.byte	0x54
 10544 0c09 00000000 		.4byte	0
 10545 0c0d 00000000 		.4byte	0
 10546              	.LLST92:
 10547 0c11 08000000 		.4byte	.LVL219
 10548 0c15 0A000000 		.4byte	.LVL220
 10549 0c19 0200     		.2byte	0x2
ARM GAS  C:\Users\pearlstl\AppData\Local\Temp\ccI2fBBa.s 			page 210


 10550 0c1b 70       		.byte	0x70
 10551 0c1c 00       		.sleb128 0
 10552 0c1d 0A000000 		.4byte	.LVL220
 10553 0c21 0D000000 		.4byte	.LVL221-1
 10554 0c25 0100     		.2byte	0x1
 10555 0c27 50       		.byte	0x50
 10556 0c28 00000000 		.4byte	0
 10557 0c2c 00000000 		.4byte	0
 10558              	.LLST93:
 10559 0c30 00000000 		.4byte	.LVL224
 10560 0c34 07000000 		.4byte	.LVL225-1
 10561 0c38 0100     		.2byte	0x1
 10562 0c3a 50       		.byte	0x50
 10563 0c3b 07000000 		.4byte	.LVL225-1
 10564 0c3f 14000000 		.4byte	.LFE76
 10565 0c43 0400     		.2byte	0x4
 10566 0c45 F3       		.byte	0xf3
 10567 0c46 01       		.uleb128 0x1
 10568 0c47 50       		.byte	0x50
 10569 0c48 9F       		.byte	0x9f
 10570 0c49 00000000 		.4byte	0
 10571 0c4d 00000000 		.4byte	0
 10572              	.LLST94:
 10573 0c51 00000000 		.4byte	.LVL224
 10574 0c55 07000000 		.4byte	.LVL225-1
 10575 0c59 0100     		.2byte	0x1
 10576 0c5b 51       		.byte	0x51
 10577 0c5c 07000000 		.4byte	.LVL225-1
 10578 0c60 14000000 		.4byte	.LFE76
 10579 0c64 0400     		.2byte	0x4
 10580 0c66 F3       		.byte	0xf3
 10581 0c67 01       		.uleb128 0x1
 10582 0c68 51       		.byte	0x51
 10583 0c69 9F       		.byte	0x9f
 10584 0c6a 00000000 		.4byte	0
 10585 0c6e 00000000 		.4byte	0
 10586              	.LLST95:
 10587 0c72 08000000 		.4byte	.LVL225
 10588 0c76 0C000000 		.4byte	.LVL226
 10589 0c7a 0100     		.2byte	0x1
 10590 0c7c 50       		.byte	0x50
 10591 0c7d 00000000 		.4byte	0
 10592 0c81 00000000 		.4byte	0
 10593              	.LLST96:
 10594 0c85 00000000 		.4byte	.LVL228
 10595 0c89 07000000 		.4byte	.LVL229-1
 10596 0c8d 0100     		.2byte	0x1
 10597 0c8f 50       		.byte	0x50
 10598 0c90 07000000 		.4byte	.LVL229-1
 10599 0c94 14000000 		.4byte	.LFE77
 10600 0c98 0400     		.2byte	0x4
 10601 0c9a F3       		.byte	0xf3
 10602 0c9b 01       		.uleb128 0x1
 10603 0c9c 50       		.byte	0x50
 10604 0c9d 9F       		.byte	0x9f
 10605 0c9e 00000000 		.4byte	0
 10606 0ca2 00000000 		.4byte	0
ARM GAS  C:\Users\pearlstl\AppData\Local\Temp\ccI2fBBa.s 			page 211


 10607              	.LLST97:
 10608 0ca6 00000000 		.4byte	.LVL228
 10609 0caa 07000000 		.4byte	.LVL229-1
 10610 0cae 0100     		.2byte	0x1
 10611 0cb0 51       		.byte	0x51
 10612 0cb1 07000000 		.4byte	.LVL229-1
 10613 0cb5 14000000 		.4byte	.LFE77
 10614 0cb9 0400     		.2byte	0x4
 10615 0cbb F3       		.byte	0xf3
 10616 0cbc 01       		.uleb128 0x1
 10617 0cbd 51       		.byte	0x51
 10618 0cbe 9F       		.byte	0x9f
 10619 0cbf 00000000 		.4byte	0
 10620 0cc3 00000000 		.4byte	0
 10621              	.LLST98:
 10622 0cc7 00000000 		.4byte	.LVL228
 10623 0ccb 07000000 		.4byte	.LVL229-1
 10624 0ccf 0100     		.2byte	0x1
 10625 0cd1 50       		.byte	0x50
 10626 0cd2 07000000 		.4byte	.LVL229-1
 10627 0cd6 08000000 		.4byte	.LVL229
 10628 0cda 0400     		.2byte	0x4
 10629 0cdc F3       		.byte	0xf3
 10630 0cdd 01       		.uleb128 0x1
 10631 0cde 50       		.byte	0x50
 10632 0cdf 9F       		.byte	0x9f
 10633 0ce0 00000000 		.4byte	0
 10634 0ce4 00000000 		.4byte	0
 10635              	.LLST99:
 10636 0ce8 00000000 		.4byte	.LVL231
 10637 0cec 0B000000 		.4byte	.LVL232-1
 10638 0cf0 0100     		.2byte	0x1
 10639 0cf2 50       		.byte	0x50
 10640 0cf3 0B000000 		.4byte	.LVL232-1
 10641 0cf7 30000000 		.4byte	.LVL238
 10642 0cfb 0100     		.2byte	0x1
 10643 0cfd 54       		.byte	0x54
 10644 0cfe 30000000 		.4byte	.LVL238
 10645 0d02 4E000000 		.4byte	.LVL241
 10646 0d06 0400     		.2byte	0x4
 10647 0d08 F3       		.byte	0xf3
 10648 0d09 01       		.uleb128 0x1
 10649 0d0a 50       		.byte	0x50
 10650 0d0b 9F       		.byte	0x9f
 10651 0d0c 4E000000 		.4byte	.LVL241
 10652 0d10 5C000000 		.4byte	.LVL244
 10653 0d14 0100     		.2byte	0x1
 10654 0d16 54       		.byte	0x54
 10655 0d17 5C000000 		.4byte	.LVL244
 10656 0d1b 5F000000 		.4byte	.LVL245-1
 10657 0d1f 0100     		.2byte	0x1
 10658 0d21 50       		.byte	0x50
 10659 0d22 5F000000 		.4byte	.LVL245-1
 10660 0d26 60000000 		.4byte	.LVL245
 10661 0d2a 0400     		.2byte	0x4
 10662 0d2c F3       		.byte	0xf3
 10663 0d2d 01       		.uleb128 0x1
ARM GAS  C:\Users\pearlstl\AppData\Local\Temp\ccI2fBBa.s 			page 212


 10664 0d2e 50       		.byte	0x50
 10665 0d2f 9F       		.byte	0x9f
 10666 0d30 60000000 		.4byte	.LVL245
 10667 0d34 6A000000 		.4byte	.LVL247
 10668 0d38 0100     		.2byte	0x1
 10669 0d3a 54       		.byte	0x54
 10670 0d3b 6A000000 		.4byte	.LVL247
 10671 0d3f 6E000000 		.4byte	.LVL248
 10672 0d43 0400     		.2byte	0x4
 10673 0d45 F3       		.byte	0xf3
 10674 0d46 01       		.uleb128 0x1
 10675 0d47 50       		.byte	0x50
 10676 0d48 9F       		.byte	0x9f
 10677 0d49 6E000000 		.4byte	.LVL248
 10678 0d4d 78000000 		.4byte	.LVL250
 10679 0d51 0100     		.2byte	0x1
 10680 0d53 54       		.byte	0x54
 10681 0d54 78000000 		.4byte	.LVL250
 10682 0d58 7C000000 		.4byte	.LVL251
 10683 0d5c 0400     		.2byte	0x4
 10684 0d5e F3       		.byte	0xf3
 10685 0d5f 01       		.uleb128 0x1
 10686 0d60 50       		.byte	0x50
 10687 0d61 9F       		.byte	0x9f
 10688 0d62 7C000000 		.4byte	.LVL251
 10689 0d66 8A000000 		.4byte	.LVL254
 10690 0d6a 0100     		.2byte	0x1
 10691 0d6c 54       		.byte	0x54
 10692 0d6d 8A000000 		.4byte	.LVL254
 10693 0d71 8D000000 		.4byte	.LVL255-1
 10694 0d75 0100     		.2byte	0x1
 10695 0d77 50       		.byte	0x50
 10696 0d78 8D000000 		.4byte	.LVL255-1
 10697 0d7c 8E000000 		.4byte	.LVL255
 10698 0d80 0400     		.2byte	0x4
 10699 0d82 F3       		.byte	0xf3
 10700 0d83 01       		.uleb128 0x1
 10701 0d84 50       		.byte	0x50
 10702 0d85 9F       		.byte	0x9f
 10703 0d86 8E000000 		.4byte	.LVL255
 10704 0d8a A2000000 		.4byte	.LVL260
 10705 0d8e 0100     		.2byte	0x1
 10706 0d90 54       		.byte	0x54
 10707 0d91 A2000000 		.4byte	.LVL260
 10708 0d95 A6000000 		.4byte	.LVL262
 10709 0d99 0400     		.2byte	0x4
 10710 0d9b F3       		.byte	0xf3
 10711 0d9c 01       		.uleb128 0x1
 10712 0d9d 50       		.byte	0x50
 10713 0d9e 9F       		.byte	0x9f
 10714 0d9f A6000000 		.4byte	.LVL262
 10715 0da3 BE000000 		.4byte	.LVL267
 10716 0da7 0100     		.2byte	0x1
 10717 0da9 54       		.byte	0x54
 10718 0daa BE000000 		.4byte	.LVL267
 10719 0dae E2000000 		.4byte	.LFE78
 10720 0db2 0400     		.2byte	0x4
ARM GAS  C:\Users\pearlstl\AppData\Local\Temp\ccI2fBBa.s 			page 213


 10721 0db4 F3       		.byte	0xf3
 10722 0db5 01       		.uleb128 0x1
 10723 0db6 50       		.byte	0x50
 10724 0db7 9F       		.byte	0x9f
 10725 0db8 00000000 		.4byte	0
 10726 0dbc 00000000 		.4byte	0
 10727              	.LLST100:
 10728 0dc0 00000000 		.4byte	.LVL231
 10729 0dc4 0B000000 		.4byte	.LVL232-1
 10730 0dc8 0100     		.2byte	0x1
 10731 0dca 51       		.byte	0x51
 10732 0dcb 0B000000 		.4byte	.LVL232-1
 10733 0dcf E2000000 		.4byte	.LFE78
 10734 0dd3 0400     		.2byte	0x4
 10735 0dd5 F3       		.byte	0xf3
 10736 0dd6 01       		.uleb128 0x1
 10737 0dd7 51       		.byte	0x51
 10738 0dd8 9F       		.byte	0x9f
 10739 0dd9 00000000 		.4byte	0
 10740 0ddd 00000000 		.4byte	0
 10741              	.LLST101:
 10742 0de1 00000000 		.4byte	.LVL231
 10743 0de5 0B000000 		.4byte	.LVL232-1
 10744 0de9 0100     		.2byte	0x1
 10745 0deb 52       		.byte	0x52
 10746 0dec 0B000000 		.4byte	.LVL232-1
 10747 0df0 5C000000 		.4byte	.LVL244
 10748 0df4 0100     		.2byte	0x1
 10749 0df6 56       		.byte	0x56
 10750 0df7 5C000000 		.4byte	.LVL244
 10751 0dfb 60000000 		.4byte	.LVL245
 10752 0dff 0400     		.2byte	0x4
 10753 0e01 F3       		.byte	0xf3
 10754 0e02 01       		.uleb128 0x1
 10755 0e03 52       		.byte	0x52
 10756 0e04 9F       		.byte	0x9f
 10757 0e05 60000000 		.4byte	.LVL245
 10758 0e09 6A000000 		.4byte	.LVL247
 10759 0e0d 0100     		.2byte	0x1
 10760 0e0f 56       		.byte	0x56
 10761 0e10 6A000000 		.4byte	.LVL247
 10762 0e14 6D000000 		.4byte	.LVL248-1
 10763 0e18 0100     		.2byte	0x1
 10764 0e1a 52       		.byte	0x52
 10765 0e1b 6D000000 		.4byte	.LVL248-1
 10766 0e1f 6E000000 		.4byte	.LVL248
 10767 0e23 0400     		.2byte	0x4
 10768 0e25 F3       		.byte	0xf3
 10769 0e26 01       		.uleb128 0x1
 10770 0e27 52       		.byte	0x52
 10771 0e28 9F       		.byte	0x9f
 10772 0e29 6E000000 		.4byte	.LVL248
 10773 0e2d 78000000 		.4byte	.LVL250
 10774 0e31 0100     		.2byte	0x1
 10775 0e33 56       		.byte	0x56
 10776 0e34 78000000 		.4byte	.LVL250
 10777 0e38 7B000000 		.4byte	.LVL251-1
ARM GAS  C:\Users\pearlstl\AppData\Local\Temp\ccI2fBBa.s 			page 214


 10778 0e3c 0100     		.2byte	0x1
 10779 0e3e 52       		.byte	0x52
 10780 0e3f 7B000000 		.4byte	.LVL251-1
 10781 0e43 7C000000 		.4byte	.LVL251
 10782 0e47 0400     		.2byte	0x4
 10783 0e49 F3       		.byte	0xf3
 10784 0e4a 01       		.uleb128 0x1
 10785 0e4b 52       		.byte	0x52
 10786 0e4c 9F       		.byte	0x9f
 10787 0e4d 7C000000 		.4byte	.LVL251
 10788 0e51 8A000000 		.4byte	.LVL254
 10789 0e55 0100     		.2byte	0x1
 10790 0e57 56       		.byte	0x56
 10791 0e58 8A000000 		.4byte	.LVL254
 10792 0e5c 8E000000 		.4byte	.LVL255
 10793 0e60 0400     		.2byte	0x4
 10794 0e62 F3       		.byte	0xf3
 10795 0e63 01       		.uleb128 0x1
 10796 0e64 52       		.byte	0x52
 10797 0e65 9F       		.byte	0x9f
 10798 0e66 8E000000 		.4byte	.LVL255
 10799 0e6a E2000000 		.4byte	.LFE78
 10800 0e6e 0100     		.2byte	0x1
 10801 0e70 56       		.byte	0x56
 10802 0e71 00000000 		.4byte	0
 10803 0e75 00000000 		.4byte	0
 10804              	.LLST102:
 10805 0e79 0E000000 		.4byte	.LVL233
 10806 0e7d 22000000 		.4byte	.LVL234
 10807 0e81 0100     		.2byte	0x1
 10808 0e83 50       		.byte	0x50
 10809 0e84 22000000 		.4byte	.LVL234
 10810 0e88 4E000000 		.4byte	.LVL241
 10811 0e8c 0100     		.2byte	0x1
 10812 0e8e 55       		.byte	0x55
 10813 0e8f 4E000000 		.4byte	.LVL241
 10814 0e93 50000000 		.4byte	.LVL242
 10815 0e97 0100     		.2byte	0x1
 10816 0e99 50       		.byte	0x50
 10817 0e9a 50000000 		.4byte	.LVL242
 10818 0e9e 5C000000 		.4byte	.LVL244
 10819 0ea2 0100     		.2byte	0x1
 10820 0ea4 55       		.byte	0x55
 10821 0ea5 60000000 		.4byte	.LVL245
 10822 0ea9 64000000 		.4byte	.LVL246
 10823 0ead 0100     		.2byte	0x1
 10824 0eaf 50       		.byte	0x50
 10825 0eb0 64000000 		.4byte	.LVL246
 10826 0eb4 6A000000 		.4byte	.LVL247
 10827 0eb8 0100     		.2byte	0x1
 10828 0eba 55       		.byte	0x55
 10829 0ebb 6E000000 		.4byte	.LVL248
 10830 0ebf 72000000 		.4byte	.LVL249
 10831 0ec3 0100     		.2byte	0x1
 10832 0ec5 50       		.byte	0x50
 10833 0ec6 72000000 		.4byte	.LVL249
 10834 0eca 78000000 		.4byte	.LVL250
ARM GAS  C:\Users\pearlstl\AppData\Local\Temp\ccI2fBBa.s 			page 215


 10835 0ece 0100     		.2byte	0x1
 10836 0ed0 55       		.byte	0x55
 10837 0ed1 7C000000 		.4byte	.LVL251
 10838 0ed5 80000000 		.4byte	.LVL252
 10839 0ed9 0100     		.2byte	0x1
 10840 0edb 50       		.byte	0x50
 10841 0edc 80000000 		.4byte	.LVL252
 10842 0ee0 8A000000 		.4byte	.LVL254
 10843 0ee4 0100     		.2byte	0x1
 10844 0ee6 55       		.byte	0x55
 10845 0ee7 8E000000 		.4byte	.LVL255
 10846 0eeb 94000000 		.4byte	.LVL256
 10847 0eef 0100     		.2byte	0x1
 10848 0ef1 50       		.byte	0x50
 10849 0ef2 94000000 		.4byte	.LVL256
 10850 0ef6 A6000000 		.4byte	.LVL262
 10851 0efa 0100     		.2byte	0x1
 10852 0efc 55       		.byte	0x55
 10853 0efd A6000000 		.4byte	.LVL262
 10854 0f01 B0000000 		.4byte	.LVL263
 10855 0f05 0100     		.2byte	0x1
 10856 0f07 50       		.byte	0x50
 10857 0f08 B0000000 		.4byte	.LVL263
 10858 0f0c E2000000 		.4byte	.LFE78
 10859 0f10 0100     		.2byte	0x1
 10860 0f12 55       		.byte	0x55
 10861 0f13 00000000 		.4byte	0
 10862 0f17 00000000 		.4byte	0
 10863              	.LLST103:
 10864 0f1b 26000000 		.4byte	.LVL235
 10865 0f1f 2A000000 		.4byte	.LVL236
 10866 0f23 0100     		.2byte	0x1
 10867 0f25 50       		.byte	0x50
 10868 0f26 2A000000 		.4byte	.LVL236
 10869 0f2a 2D000000 		.4byte	.LVL237-1
 10870 0f2e 0100     		.2byte	0x1
 10871 0f30 51       		.byte	0x51
 10872 0f31 2E000000 		.4byte	.LVL237
 10873 0f35 3D000000 		.4byte	.LVL239-1
 10874 0f39 0100     		.2byte	0x1
 10875 0f3b 50       		.byte	0x50
 10876 0f3c 3D000000 		.4byte	.LVL239-1
 10877 0f40 46000000 		.4byte	.LVL240
 10878 0f44 0100     		.2byte	0x1
 10879 0f46 54       		.byte	0x54
 10880 0f47 46000000 		.4byte	.LVL240
 10881 0f4b 4E000000 		.4byte	.LVL241
 10882 0f4f 0100     		.2byte	0x1
 10883 0f51 50       		.byte	0x50
 10884 0f52 98000000 		.4byte	.LVL257
 10885 0f56 9C000000 		.4byte	.LVL258
 10886 0f5a 0100     		.2byte	0x1
 10887 0f5c 50       		.byte	0x50
 10888 0f5d 9C000000 		.4byte	.LVL258
 10889 0f61 9F000000 		.4byte	.LVL259-1
 10890 0f65 0100     		.2byte	0x1
 10891 0f67 51       		.byte	0x51
ARM GAS  C:\Users\pearlstl\AppData\Local\Temp\ccI2fBBa.s 			page 216


 10892 0f68 A0000000 		.4byte	.LVL259
 10893 0f6c A4000000 		.4byte	.LVL261
 10894 0f70 0100     		.2byte	0x1
 10895 0f72 50       		.byte	0x50
 10896 0f73 B4000000 		.4byte	.LVL264
 10897 0f77 B8000000 		.4byte	.LVL265
 10898 0f7b 0100     		.2byte	0x1
 10899 0f7d 50       		.byte	0x50
 10900 0f7e B8000000 		.4byte	.LVL265
 10901 0f82 BB000000 		.4byte	.LVL266-1
 10902 0f86 0100     		.2byte	0x1
 10903 0f88 51       		.byte	0x51
 10904 0f89 BC000000 		.4byte	.LVL266
 10905 0f8d CF000000 		.4byte	.LVL268-1
 10906 0f91 0100     		.2byte	0x1
 10907 0f93 50       		.byte	0x50
 10908 0f94 CF000000 		.4byte	.LVL268-1
 10909 0f98 D8000000 		.4byte	.LVL269
 10910 0f9c 0100     		.2byte	0x1
 10911 0f9e 54       		.byte	0x54
 10912 0f9f D8000000 		.4byte	.LVL269
 10913 0fa3 E2000000 		.4byte	.LFE78
 10914 0fa7 0100     		.2byte	0x1
 10915 0fa9 50       		.byte	0x50
 10916 0faa 00000000 		.4byte	0
 10917 0fae 00000000 		.4byte	0
 10918              	.LLST104:
 10919 0fb2 00000000 		.4byte	.LVL271
 10920 0fb6 09000000 		.4byte	.LVL272-1
 10921 0fba 0100     		.2byte	0x1
 10922 0fbc 50       		.byte	0x50
 10923 0fbd 09000000 		.4byte	.LVL272-1
 10924 0fc1 1A000000 		.4byte	.LVL275
 10925 0fc5 0100     		.2byte	0x1
 10926 0fc7 55       		.byte	0x55
 10927 0fc8 1A000000 		.4byte	.LVL275
 10928 0fcc 1D000000 		.4byte	.LVL276-1
 10929 0fd0 0100     		.2byte	0x1
 10930 0fd2 50       		.byte	0x50
 10931 0fd3 1D000000 		.4byte	.LVL276-1
 10932 0fd7 1E000000 		.4byte	.LFE79
 10933 0fdb 0400     		.2byte	0x4
 10934 0fdd F3       		.byte	0xf3
 10935 0fde 01       		.uleb128 0x1
 10936 0fdf 50       		.byte	0x50
 10937 0fe0 9F       		.byte	0x9f
 10938 0fe1 00000000 		.4byte	0
 10939 0fe5 00000000 		.4byte	0
 10940              	.LLST105:
 10941 0fe9 00000000 		.4byte	.LVL271
 10942 0fed 09000000 		.4byte	.LVL272-1
 10943 0ff1 0100     		.2byte	0x1
 10944 0ff3 51       		.byte	0x51
 10945 0ff4 09000000 		.4byte	.LVL272-1
 10946 0ff8 1E000000 		.4byte	.LFE79
 10947 0ffc 0400     		.2byte	0x4
 10948 0ffe F3       		.byte	0xf3
ARM GAS  C:\Users\pearlstl\AppData\Local\Temp\ccI2fBBa.s 			page 217


 10949 0fff 01       		.uleb128 0x1
 10950 1000 51       		.byte	0x51
 10951 1001 9F       		.byte	0x9f
 10952 1002 00000000 		.4byte	0
 10953 1006 00000000 		.4byte	0
 10954              	.LLST106:
 10955 100a 0A000000 		.4byte	.LVL272
 10956 100e 0E000000 		.4byte	.LVL273
 10957 1012 0100     		.2byte	0x1
 10958 1014 50       		.byte	0x50
 10959 1015 00000000 		.4byte	0
 10960 1019 00000000 		.4byte	0
 10961              	.LLST107:
 10962 101d 0A000000 		.4byte	.LVL272
 10963 1021 0E000000 		.4byte	.LVL273
 10964 1025 0200     		.2byte	0x2
 10965 1027 70       		.byte	0x70
 10966 1028 04       		.sleb128 4
 10967 1029 0E000000 		.4byte	.LVL273
 10968 102d 11000000 		.4byte	.LVL274-1
 10969 1031 0100     		.2byte	0x1
 10970 1033 50       		.byte	0x50
 10971 1034 00000000 		.4byte	0
 10972 1038 00000000 		.4byte	0
 10973              	.LLST108:
 10974 103c 00000000 		.4byte	.LVL277
 10975 1040 05000000 		.4byte	.LVL278-1
 10976 1044 0100     		.2byte	0x1
 10977 1046 50       		.byte	0x50
 10978 1047 05000000 		.4byte	.LVL278-1
 10979 104b 10000000 		.4byte	.LFE80
 10980 104f 0400     		.2byte	0x4
 10981 1051 F3       		.byte	0xf3
 10982 1052 01       		.uleb128 0x1
 10983 1053 50       		.byte	0x50
 10984 1054 9F       		.byte	0x9f
 10985 1055 00000000 		.4byte	0
 10986 1059 00000000 		.4byte	0
 10987              	.LLST109:
 10988 105d 06000000 		.4byte	.LVL278
 10989 1061 0C000000 		.4byte	.LVL279
 10990 1065 0100     		.2byte	0x1
 10991 1067 50       		.byte	0x50
 10992 1068 00000000 		.4byte	0
 10993 106c 00000000 		.4byte	0
 10994              	.LLST110:
 10995 1070 00000000 		.4byte	.LVL281
 10996 1074 05000000 		.4byte	.LVL282-1
 10997 1078 0100     		.2byte	0x1
 10998 107a 50       		.byte	0x50
 10999 107b 05000000 		.4byte	.LVL282-1
 11000 107f 0A000000 		.4byte	.LFE81
 11001 1083 0400     		.2byte	0x4
 11002 1085 F3       		.byte	0xf3
 11003 1086 01       		.uleb128 0x1
 11004 1087 50       		.byte	0x50
 11005 1088 9F       		.byte	0x9f
ARM GAS  C:\Users\pearlstl\AppData\Local\Temp\ccI2fBBa.s 			page 218


 11006 1089 00000000 		.4byte	0
 11007 108d 00000000 		.4byte	0
 11008              	.LLST111:
 11009 1091 06000000 		.4byte	.LVL282
 11010 1095 08000000 		.4byte	.LVL283
 11011 1099 0100     		.2byte	0x1
 11012 109b 50       		.byte	0x50
 11013 109c 00000000 		.4byte	0
 11014 10a0 00000000 		.4byte	0
 11015              	.LLST112:
 11016 10a4 00000000 		.4byte	.LVL284
 11017 10a8 05000000 		.4byte	.LVL285-1
 11018 10ac 0100     		.2byte	0x1
 11019 10ae 50       		.byte	0x50
 11020 10af 05000000 		.4byte	.LVL285-1
 11021 10b3 0C000000 		.4byte	.LFE82
 11022 10b7 0400     		.2byte	0x4
 11023 10b9 F3       		.byte	0xf3
 11024 10ba 01       		.uleb128 0x1
 11025 10bb 50       		.byte	0x50
 11026 10bc 9F       		.byte	0x9f
 11027 10bd 00000000 		.4byte	0
 11028 10c1 00000000 		.4byte	0
 11029              	.LLST113:
 11030 10c5 06000000 		.4byte	.LVL285
 11031 10c9 0A000000 		.4byte	.LVL286
 11032 10cd 0100     		.2byte	0x1
 11033 10cf 50       		.byte	0x50
 11034 10d0 00000000 		.4byte	0
 11035 10d4 00000000 		.4byte	0
 11036              	.LLST114:
 11037 10d8 00000000 		.4byte	.LVL287
 11038 10dc 05000000 		.4byte	.LVL288-1
 11039 10e0 0100     		.2byte	0x1
 11040 10e2 50       		.byte	0x50
 11041 10e3 05000000 		.4byte	.LVL288-1
 11042 10e7 0E000000 		.4byte	.LFE83
 11043 10eb 0400     		.2byte	0x4
 11044 10ed F3       		.byte	0xf3
 11045 10ee 01       		.uleb128 0x1
 11046 10ef 50       		.byte	0x50
 11047 10f0 9F       		.byte	0x9f
 11048 10f1 00000000 		.4byte	0
 11049 10f5 00000000 		.4byte	0
 11050              	.LLST115:
 11051 10f9 06000000 		.4byte	.LVL288
 11052 10fd 0D000000 		.4byte	.LVL289-1
 11053 1101 0100     		.2byte	0x1
 11054 1103 50       		.byte	0x50
 11055 1104 00000000 		.4byte	0
 11056 1108 00000000 		.4byte	0
 11057              	.LLST116:
 11058 110c 00000000 		.4byte	.LVL290
 11059 1110 05000000 		.4byte	.LVL291-1
 11060 1114 0100     		.2byte	0x1
 11061 1116 50       		.byte	0x50
 11062 1117 05000000 		.4byte	.LVL291-1
ARM GAS  C:\Users\pearlstl\AppData\Local\Temp\ccI2fBBa.s 			page 219


 11063 111b 14000000 		.4byte	.LFE84
 11064 111f 0400     		.2byte	0x4
 11065 1121 F3       		.byte	0xf3
 11066 1122 01       		.uleb128 0x1
 11067 1123 50       		.byte	0x50
 11068 1124 9F       		.byte	0x9f
 11069 1125 00000000 		.4byte	0
 11070 1129 00000000 		.4byte	0
 11071              	.LLST117:
 11072 112d 06000000 		.4byte	.LVL291
 11073 1131 08000000 		.4byte	.LVL292
 11074 1135 0100     		.2byte	0x1
 11075 1137 50       		.byte	0x50
 11076 1138 00000000 		.4byte	0
 11077 113c 00000000 		.4byte	0
 11078              	.LLST118:
 11079 1140 06000000 		.4byte	.LVL291
 11080 1144 08000000 		.4byte	.LVL292
 11081 1148 0200     		.2byte	0x2
 11082 114a 70       		.byte	0x70
 11083 114b 00       		.sleb128 0
 11084 114c 08000000 		.4byte	.LVL292
 11085 1150 0B000000 		.4byte	.LVL293-1
 11086 1154 0100     		.2byte	0x1
 11087 1156 50       		.byte	0x50
 11088 1157 00000000 		.4byte	0
 11089 115b 00000000 		.4byte	0
 11090              	.LLST119:
 11091 115f 00000000 		.4byte	.LVL295
 11092 1163 05000000 		.4byte	.LVL296-1
 11093 1167 0100     		.2byte	0x1
 11094 1169 50       		.byte	0x50
 11095 116a 05000000 		.4byte	.LVL296-1
 11096 116e 10000000 		.4byte	.LFE85
 11097 1172 0400     		.2byte	0x4
 11098 1174 F3       		.byte	0xf3
 11099 1175 01       		.uleb128 0x1
 11100 1176 50       		.byte	0x50
 11101 1177 9F       		.byte	0x9f
 11102 1178 00000000 		.4byte	0
 11103 117c 00000000 		.4byte	0
 11104              	.LLST120:
 11105 1180 06000000 		.4byte	.LVL296
 11106 1184 0C000000 		.4byte	.LVL297
 11107 1188 0100     		.2byte	0x1
 11108 118a 50       		.byte	0x50
 11109 118b 00000000 		.4byte	0
 11110 118f 00000000 		.4byte	0
 11111              	.LLST121:
 11112 1193 00000000 		.4byte	.LVL299
 11113 1197 05000000 		.4byte	.LVL300-1
 11114 119b 0100     		.2byte	0x1
 11115 119d 50       		.byte	0x50
 11116 119e 05000000 		.4byte	.LVL300-1
 11117 11a2 10000000 		.4byte	.LFE86
 11118 11a6 0400     		.2byte	0x4
 11119 11a8 F3       		.byte	0xf3
ARM GAS  C:\Users\pearlstl\AppData\Local\Temp\ccI2fBBa.s 			page 220


 11120 11a9 01       		.uleb128 0x1
 11121 11aa 50       		.byte	0x50
 11122 11ab 9F       		.byte	0x9f
 11123 11ac 00000000 		.4byte	0
 11124 11b0 00000000 		.4byte	0
 11125              	.LLST122:
 11126 11b4 00000000 		.4byte	.LVL299
 11127 11b8 05000000 		.4byte	.LVL300-1
 11128 11bc 0100     		.2byte	0x1
 11129 11be 50       		.byte	0x50
 11130 11bf 05000000 		.4byte	.LVL300-1
 11131 11c3 06000000 		.4byte	.LVL300
 11132 11c7 0400     		.2byte	0x4
 11133 11c9 F3       		.byte	0xf3
 11134 11ca 01       		.uleb128 0x1
 11135 11cb 50       		.byte	0x50
 11136 11cc 9F       		.byte	0x9f
 11137 11cd 00000000 		.4byte	0
 11138 11d1 00000000 		.4byte	0
 11139              	.LLST123:
 11140 11d5 00000000 		.4byte	.LVL302
 11141 11d9 05000000 		.4byte	.LVL303-1
 11142 11dd 0100     		.2byte	0x1
 11143 11df 50       		.byte	0x50
 11144 11e0 05000000 		.4byte	.LVL303-1
 11145 11e4 26000000 		.4byte	.LFE87
 11146 11e8 0400     		.2byte	0x4
 11147 11ea F3       		.byte	0xf3
 11148 11eb 01       		.uleb128 0x1
 11149 11ec 50       		.byte	0x50
 11150 11ed 9F       		.byte	0x9f
 11151 11ee 00000000 		.4byte	0
 11152 11f2 00000000 		.4byte	0
 11153              	.LLST124:
 11154 11f6 06000000 		.4byte	.LVL303
 11155 11fa 08000000 		.4byte	.LVL304
 11156 11fe 0100     		.2byte	0x1
 11157 1200 50       		.byte	0x50
 11158 1201 00000000 		.4byte	0
 11159 1205 00000000 		.4byte	0
 11160              	.LLST125:
 11161 1209 0E000000 		.4byte	.LVL306
 11162 120d 11000000 		.4byte	.LVL307-1
 11163 1211 0100     		.2byte	0x1
 11164 1213 50       		.byte	0x50
 11165 1214 11000000 		.4byte	.LVL307-1
 11166 1218 26000000 		.4byte	.LFE87
 11167 121c 0100     		.2byte	0x1
 11168 121e 55       		.byte	0x55
 11169 121f 00000000 		.4byte	0
 11170 1223 00000000 		.4byte	0
 11171              	.LLST126:
 11172 1227 14000000 		.4byte	.LVL308
 11173 122b 16000000 		.4byte	.LVL309
 11174 122f 0100     		.2byte	0x1
 11175 1231 50       		.byte	0x50
 11176 1232 16000000 		.4byte	.LVL309
ARM GAS  C:\Users\pearlstl\AppData\Local\Temp\ccI2fBBa.s 			page 221


 11177 1236 26000000 		.4byte	.LFE87
 11178 123a 0100     		.2byte	0x1
 11179 123c 54       		.byte	0x54
 11180 123d 00000000 		.4byte	0
 11181 1241 00000000 		.4byte	0
 11182              	.LLST127:
 11183 1245 00000000 		.4byte	.LVL311
 11184 1249 09000000 		.4byte	.LVL312-1
 11185 124d 0100     		.2byte	0x1
 11186 124f 50       		.byte	0x50
 11187 1250 09000000 		.4byte	.LVL312-1
 11188 1254 22000000 		.4byte	.LVL316
 11189 1258 0100     		.2byte	0x1
 11190 125a 55       		.byte	0x55
 11191 125b 22000000 		.4byte	.LVL316
 11192 125f 25000000 		.4byte	.LVL317-1
 11193 1263 0100     		.2byte	0x1
 11194 1265 50       		.byte	0x50
 11195 1266 25000000 		.4byte	.LVL317-1
 11196 126a 26000000 		.4byte	.LVL317
 11197 126e 0400     		.2byte	0x4
 11198 1270 F3       		.byte	0xf3
 11199 1271 01       		.uleb128 0x1
 11200 1272 50       		.byte	0x50
 11201 1273 9F       		.byte	0x9f
 11202 1274 26000000 		.4byte	.LVL317
 11203 1278 2E000000 		.4byte	.LVL319
 11204 127c 0100     		.2byte	0x1
 11205 127e 55       		.byte	0x55
 11206 127f 2E000000 		.4byte	.LVL319
 11207 1283 32000000 		.4byte	.LVL320
 11208 1287 0400     		.2byte	0x4
 11209 1289 F3       		.byte	0xf3
 11210 128a 01       		.uleb128 0x1
 11211 128b 50       		.byte	0x50
 11212 128c 9F       		.byte	0x9f
 11213 128d 32000000 		.4byte	.LVL320
 11214 1291 3A000000 		.4byte	.LVL322
 11215 1295 0100     		.2byte	0x1
 11216 1297 55       		.byte	0x55
 11217 1298 3A000000 		.4byte	.LVL322
 11218 129c 3E000000 		.4byte	.LVL323
 11219 12a0 0400     		.2byte	0x4
 11220 12a2 F3       		.byte	0xf3
 11221 12a3 01       		.uleb128 0x1
 11222 12a4 50       		.byte	0x50
 11223 12a5 9F       		.byte	0x9f
 11224 12a6 3E000000 		.4byte	.LVL323
 11225 12aa 44000000 		.4byte	.LVL325
 11226 12ae 0100     		.2byte	0x1
 11227 12b0 55       		.byte	0x55
 11228 12b1 44000000 		.4byte	.LVL325
 11229 12b5 48000000 		.4byte	.LVL326
 11230 12b9 0400     		.2byte	0x4
 11231 12bb F3       		.byte	0xf3
 11232 12bc 01       		.uleb128 0x1
 11233 12bd 50       		.byte	0x50
ARM GAS  C:\Users\pearlstl\AppData\Local\Temp\ccI2fBBa.s 			page 222


 11234 12be 9F       		.byte	0x9f
 11235 12bf 48000000 		.4byte	.LVL326
 11236 12c3 50000000 		.4byte	.LFE88
 11237 12c7 0100     		.2byte	0x1
 11238 12c9 55       		.byte	0x55
 11239 12ca 00000000 		.4byte	0
 11240 12ce 00000000 		.4byte	0
 11241              	.LLST128:
 11242 12d2 00000000 		.4byte	.LVL311
 11243 12d6 09000000 		.4byte	.LVL312-1
 11244 12da 0100     		.2byte	0x1
 11245 12dc 51       		.byte	0x51
 11246 12dd 09000000 		.4byte	.LVL312-1
 11247 12e1 50000000 		.4byte	.LFE88
 11248 12e5 0400     		.2byte	0x4
 11249 12e7 F3       		.byte	0xf3
 11250 12e8 01       		.uleb128 0x1
 11251 12e9 51       		.byte	0x51
 11252 12ea 9F       		.byte	0x9f
 11253 12eb 00000000 		.4byte	0
 11254 12ef 00000000 		.4byte	0
 11255              	.LLST129:
 11256 12f3 00000000 		.4byte	.LVL311
 11257 12f7 1A000000 		.4byte	.LVL313
 11258 12fb 0200     		.2byte	0x2
 11259 12fd 30       		.byte	0x30
 11260 12fe 9F       		.byte	0x9f
 11261 12ff 1A000000 		.4byte	.LVL313
 11262 1303 1C000000 		.4byte	.LVL314
 11263 1307 0100     		.2byte	0x1
 11264 1309 50       		.byte	0x50
 11265 130a 1C000000 		.4byte	.LVL314
 11266 130e 4A000000 		.4byte	.LVL327
 11267 1312 0200     		.2byte	0x2
 11268 1314 30       		.byte	0x30
 11269 1315 9F       		.byte	0x9f
 11270 1316 4A000000 		.4byte	.LVL327
 11271 131a 4C000000 		.4byte	.LVL328
 11272 131e 0100     		.2byte	0x1
 11273 1320 50       		.byte	0x50
 11274 1321 4C000000 		.4byte	.LVL328
 11275 1325 4E000000 		.4byte	.LVL329
 11276 1329 0200     		.2byte	0x2
 11277 132b 30       		.byte	0x30
 11278 132c 9F       		.byte	0x9f
 11279 132d 4E000000 		.4byte	.LVL329
 11280 1331 50000000 		.4byte	.LFE88
 11281 1335 0100     		.2byte	0x1
 11282 1337 50       		.byte	0x50
 11283 1338 00000000 		.4byte	0
 11284 133c 00000000 		.4byte	0
 11285              	.LLST130:
 11286 1340 0A000000 		.4byte	.LVL312
 11287 1344 1A000000 		.4byte	.LVL313
 11288 1348 0100     		.2byte	0x1
 11289 134a 50       		.byte	0x50
 11290 134b 1C000000 		.4byte	.LVL314
ARM GAS  C:\Users\pearlstl\AppData\Local\Temp\ccI2fBBa.s 			page 223


 11291 134f 1E000000 		.4byte	.LVL315
 11292 1353 0100     		.2byte	0x1
 11293 1355 50       		.byte	0x50
 11294 1356 26000000 		.4byte	.LVL317
 11295 135a 28000000 		.4byte	.LVL318
 11296 135e 0100     		.2byte	0x1
 11297 1360 50       		.byte	0x50
 11298 1361 32000000 		.4byte	.LVL320
 11299 1365 34000000 		.4byte	.LVL321
 11300 1369 0100     		.2byte	0x1
 11301 136b 50       		.byte	0x50
 11302 136c 3E000000 		.4byte	.LVL323
 11303 1370 40000000 		.4byte	.LVL324
 11304 1374 0100     		.2byte	0x1
 11305 1376 50       		.byte	0x50
 11306 1377 48000000 		.4byte	.LVL326
 11307 137b 4A000000 		.4byte	.LVL327
 11308 137f 0100     		.2byte	0x1
 11309 1381 50       		.byte	0x50
 11310 1382 4C000000 		.4byte	.LVL328
 11311 1386 4E000000 		.4byte	.LVL329
 11312 138a 0100     		.2byte	0x1
 11313 138c 50       		.byte	0x50
 11314 138d 00000000 		.4byte	0
 11315 1391 00000000 		.4byte	0
 11316              	.LLST131:
 11317 1395 00000000 		.4byte	.LVL330
 11318 1399 09000000 		.4byte	.LVL331-1
 11319 139d 0100     		.2byte	0x1
 11320 139f 50       		.byte	0x50
 11321 13a0 09000000 		.4byte	.LVL331-1
 11322 13a4 18000000 		.4byte	.LFE89
 11323 13a8 0400     		.2byte	0x4
 11324 13aa F3       		.byte	0xf3
 11325 13ab 01       		.uleb128 0x1
 11326 13ac 50       		.byte	0x50
 11327 13ad 9F       		.byte	0x9f
 11328 13ae 00000000 		.4byte	0
 11329 13b2 00000000 		.4byte	0
 11330              	.LLST132:
 11331 13b6 00000000 		.4byte	.LVL330
 11332 13ba 09000000 		.4byte	.LVL331-1
 11333 13be 0100     		.2byte	0x1
 11334 13c0 51       		.byte	0x51
 11335 13c1 09000000 		.4byte	.LVL331-1
 11336 13c5 14000000 		.4byte	.LVL333
 11337 13c9 0100     		.2byte	0x1
 11338 13cb 54       		.byte	0x54
 11339 13cc 14000000 		.4byte	.LVL333
 11340 13d0 17000000 		.4byte	.LVL334-1
 11341 13d4 0100     		.2byte	0x1
 11342 13d6 51       		.byte	0x51
 11343 13d7 17000000 		.4byte	.LVL334-1
 11344 13db 18000000 		.4byte	.LFE89
 11345 13df 0400     		.2byte	0x4
 11346 13e1 F3       		.byte	0xf3
 11347 13e2 01       		.uleb128 0x1
ARM GAS  C:\Users\pearlstl\AppData\Local\Temp\ccI2fBBa.s 			page 224


 11348 13e3 51       		.byte	0x51
 11349 13e4 9F       		.byte	0x9f
 11350 13e5 00000000 		.4byte	0
 11351 13e9 00000000 		.4byte	0
 11352              	.LLST133:
 11353 13ed 00000000 		.4byte	.LVL330
 11354 13f1 09000000 		.4byte	.LVL331-1
 11355 13f5 0100     		.2byte	0x1
 11356 13f7 52       		.byte	0x52
 11357 13f8 09000000 		.4byte	.LVL331-1
 11358 13fc 18000000 		.4byte	.LFE89
 11359 1400 0400     		.2byte	0x4
 11360 1402 F3       		.byte	0xf3
 11361 1403 01       		.uleb128 0x1
 11362 1404 52       		.byte	0x52
 11363 1405 9F       		.byte	0x9f
 11364 1406 00000000 		.4byte	0
 11365 140a 00000000 		.4byte	0
 11366              	.LLST134:
 11367 140e 0A000000 		.4byte	.LVL331
 11368 1412 10000000 		.4byte	.LVL332
 11369 1416 0100     		.2byte	0x1
 11370 1418 50       		.byte	0x50
 11371 1419 00000000 		.4byte	0
 11372 141d 00000000 		.4byte	0
 11373              		.section	.debug_aranges,"",%progbits
 11374 0000 D4000000 		.4byte	0xd4
 11375 0004 0200     		.2byte	0x2
 11376 0006 00000000 		.4byte	.Ldebug_info0
 11377 000a 04       		.byte	0x4
 11378 000b 00       		.byte	0
 11379 000c 0000     		.2byte	0
 11380 000e 0000     		.2byte	0
 11381 0010 00000000 		.4byte	.LFB91
 11382 0014 16010000 		.4byte	.LFE91-.LFB91
 11383 0018 00000000 		.4byte	.LFB90
 11384 001c D4000000 		.4byte	.LFE90-.LFB90
 11385 0020 00000000 		.4byte	.LFB68
 11386 0024 B4020000 		.4byte	.LFE68-.LFB68
 11387 0028 00000000 		.4byte	.LFB69
 11388 002c 0E000000 		.4byte	.LFE69-.LFB69
 11389 0030 00000000 		.4byte	.LFB70
 11390 0034 56000000 		.4byte	.LFE70-.LFB70
 11391 0038 00000000 		.4byte	.LFB71
 11392 003c 18000000 		.4byte	.LFE71-.LFB71
 11393 0040 00000000 		.4byte	.LFB72
 11394 0044 1C000000 		.4byte	.LFE72-.LFB72
 11395 0048 00000000 		.4byte	.LFB73
 11396 004c 20000000 		.4byte	.LFE73-.LFB73
 11397 0050 00000000 		.4byte	.LFB74
 11398 0054 22000000 		.4byte	.LFE74-.LFB74
 11399 0058 00000000 		.4byte	.LFB75
 11400 005c 18000000 		.4byte	.LFE75-.LFB75
 11401 0060 00000000 		.4byte	.LFB76
 11402 0064 14000000 		.4byte	.LFE76-.LFB76
 11403 0068 00000000 		.4byte	.LFB77
 11404 006c 14000000 		.4byte	.LFE77-.LFB77
ARM GAS  C:\Users\pearlstl\AppData\Local\Temp\ccI2fBBa.s 			page 225


 11405 0070 00000000 		.4byte	.LFB78
 11406 0074 E2000000 		.4byte	.LFE78-.LFB78
 11407 0078 00000000 		.4byte	.LFB79
 11408 007c 1E000000 		.4byte	.LFE79-.LFB79
 11409 0080 00000000 		.4byte	.LFB80
 11410 0084 10000000 		.4byte	.LFE80-.LFB80
 11411 0088 00000000 		.4byte	.LFB81
 11412 008c 0A000000 		.4byte	.LFE81-.LFB81
 11413 0090 00000000 		.4byte	.LFB82
 11414 0094 0C000000 		.4byte	.LFE82-.LFB82
 11415 0098 00000000 		.4byte	.LFB83
 11416 009c 0E000000 		.4byte	.LFE83-.LFB83
 11417 00a0 00000000 		.4byte	.LFB84
 11418 00a4 14000000 		.4byte	.LFE84-.LFB84
 11419 00a8 00000000 		.4byte	.LFB85
 11420 00ac 10000000 		.4byte	.LFE85-.LFB85
 11421 00b0 00000000 		.4byte	.LFB86
 11422 00b4 10000000 		.4byte	.LFE86-.LFB86
 11423 00b8 00000000 		.4byte	.LFB87
 11424 00bc 26000000 		.4byte	.LFE87-.LFB87
 11425 00c0 00000000 		.4byte	.LFB88
 11426 00c4 50000000 		.4byte	.LFE88-.LFB88
 11427 00c8 00000000 		.4byte	.LFB89
 11428 00cc 18000000 		.4byte	.LFE89-.LFB89
 11429 00d0 00000000 		.4byte	0
 11430 00d4 00000000 		.4byte	0
 11431              		.section	.debug_ranges,"",%progbits
 11432              	.Ldebug_ranges0:
 11433 0000 52000000 		.4byte	.LBB30
 11434 0004 54000000 		.4byte	.LBE30
 11435 0008 56000000 		.4byte	.LBB31
 11436 000c 68000000 		.4byte	.LBE31
 11437 0010 00000000 		.4byte	0
 11438 0014 00000000 		.4byte	0
 11439 0018 8C000000 		.4byte	.LBB32
 11440 001c 92000000 		.4byte	.LBE32
 11441 0020 94000000 		.4byte	.LBB36
 11442 0024 96000000 		.4byte	.LBE36
 11443 0028 9A000000 		.4byte	.LBB37
 11444 002c 9C000000 		.4byte	.LBE37
 11445 0030 00000000 		.4byte	0
 11446 0034 00000000 		.4byte	0
 11447 0038 A0000000 		.4byte	.LBB38
 11448 003c A6000000 		.4byte	.LBE38
 11449 0040 A8000000 		.4byte	.LBB42
 11450 0044 AA000000 		.4byte	.LBE42
 11451 0048 AE000000 		.4byte	.LBB43
 11452 004c B0000000 		.4byte	.LBE43
 11453 0050 00000000 		.4byte	0
 11454 0054 00000000 		.4byte	0
 11455 0058 D2000000 		.4byte	.LBB74
 11456 005c 32020000 		.4byte	.LBE74
 11457 0060 3A020000 		.4byte	.LBB107
 11458 0064 86020000 		.4byte	.LBE107
 11459 0068 00000000 		.4byte	0
 11460 006c 00000000 		.4byte	0
 11461 0070 76010000 		.4byte	.LBB77
ARM GAS  C:\Users\pearlstl\AppData\Local\Temp\ccI2fBBa.s 			page 226


 11462 0074 78010000 		.4byte	.LBE77
 11463 0078 7C010000 		.4byte	.LBB80
 11464 007c 8A010000 		.4byte	.LBE80
 11465 0080 00000000 		.4byte	0
 11466 0084 00000000 		.4byte	0
 11467 0088 8A010000 		.4byte	.LBB81
 11468 008c 8C010000 		.4byte	.LBE81
 11469 0090 90010000 		.4byte	.LBB84
 11470 0094 A2010000 		.4byte	.LBE84
 11471 0098 00000000 		.4byte	0
 11472 009c 00000000 		.4byte	0
 11473 00a0 A2010000 		.4byte	.LBB85
 11474 00a4 A4010000 		.4byte	.LBE85
 11475 00a8 A8010000 		.4byte	.LBB88
 11476 00ac B6010000 		.4byte	.LBE88
 11477 00b0 00000000 		.4byte	0
 11478 00b4 00000000 		.4byte	0
 11479 00b8 B6010000 		.4byte	.LBB89
 11480 00bc B8010000 		.4byte	.LBE89
 11481 00c0 BC010000 		.4byte	.LBB94
 11482 00c4 F2010000 		.4byte	.LBE94
 11483 00c8 00000000 		.4byte	0
 11484 00cc 00000000 		.4byte	0
 11485 00d0 C0010000 		.4byte	.LBB91
 11486 00d4 C2010000 		.4byte	.LBE91
 11487 00d8 C8010000 		.4byte	.LBB92
 11488 00dc F2010000 		.4byte	.LBE92
 11489 00e0 00000000 		.4byte	0
 11490 00e4 00000000 		.4byte	0
 11491 00e8 F2010000 		.4byte	.LBB95
 11492 00ec F4010000 		.4byte	.LBE95
 11493 00f0 F8010000 		.4byte	.LBB100
 11494 00f4 32020000 		.4byte	.LBE100
 11495 00f8 00000000 		.4byte	0
 11496 00fc 00000000 		.4byte	0
 11497 0100 FC010000 		.4byte	.LBB97
 11498 0104 FE010000 		.4byte	.LBE97
 11499 0108 02020000 		.4byte	.LBB98
 11500 010c 32020000 		.4byte	.LBE98
 11501 0110 00000000 		.4byte	0
 11502 0114 00000000 		.4byte	0
 11503 0118 08000000 		.4byte	.LBB108
 11504 011c 10000000 		.4byte	.LBE108
 11505 0120 14000000 		.4byte	.LBB111
 11506 0124 18000000 		.4byte	.LBE111
 11507 0128 00000000 		.4byte	0
 11508 012c 00000000 		.4byte	0
 11509 0130 08000000 		.4byte	.LBB112
 11510 0134 10000000 		.4byte	.LBE112
 11511 0138 14000000 		.4byte	.LBB115
 11512 013c 18000000 		.4byte	.LBE115
 11513 0140 00000000 		.4byte	0
 11514 0144 00000000 		.4byte	0
 11515 0148 1E000000 		.4byte	.LBB118
 11516 014c 4E000000 		.4byte	.LBE118
 11517 0150 90000000 		.4byte	.LBB119
 11518 0154 A6000000 		.4byte	.LBE119
ARM GAS  C:\Users\pearlstl\AppData\Local\Temp\ccI2fBBa.s 			page 227


 11519 0158 AC000000 		.4byte	.LBB120
 11520 015c E2000000 		.4byte	.LBE120
 11521 0160 00000000 		.4byte	0
 11522 0164 00000000 		.4byte	0
 11523 0168 06000000 		.4byte	.LBB121
 11524 016c 0C000000 		.4byte	.LBE121
 11525 0170 10000000 		.4byte	.LBB124
 11526 0174 14000000 		.4byte	.LBE124
 11527 0178 00000000 		.4byte	0
 11528 017c 00000000 		.4byte	0
 11529 0180 00000000 		.4byte	.LFB91
 11530 0184 16010000 		.4byte	.LFE91
 11531 0188 00000000 		.4byte	.LFB90
 11532 018c D4000000 		.4byte	.LFE90
 11533 0190 00000000 		.4byte	.LFB68
 11534 0194 B4020000 		.4byte	.LFE68
 11535 0198 00000000 		.4byte	.LFB69
 11536 019c 0E000000 		.4byte	.LFE69
 11537 01a0 00000000 		.4byte	.LFB70
 11538 01a4 56000000 		.4byte	.LFE70
 11539 01a8 00000000 		.4byte	.LFB71
 11540 01ac 18000000 		.4byte	.LFE71
 11541 01b0 00000000 		.4byte	.LFB72
 11542 01b4 1C000000 		.4byte	.LFE72
 11543 01b8 00000000 		.4byte	.LFB73
 11544 01bc 20000000 		.4byte	.LFE73
 11545 01c0 00000000 		.4byte	.LFB74
 11546 01c4 22000000 		.4byte	.LFE74
 11547 01c8 00000000 		.4byte	.LFB75
 11548 01cc 18000000 		.4byte	.LFE75
 11549 01d0 00000000 		.4byte	.LFB76
 11550 01d4 14000000 		.4byte	.LFE76
 11551 01d8 00000000 		.4byte	.LFB77
 11552 01dc 14000000 		.4byte	.LFE77
 11553 01e0 00000000 		.4byte	.LFB78
 11554 01e4 E2000000 		.4byte	.LFE78
 11555 01e8 00000000 		.4byte	.LFB79
 11556 01ec 1E000000 		.4byte	.LFE79
 11557 01f0 00000000 		.4byte	.LFB80
 11558 01f4 10000000 		.4byte	.LFE80
 11559 01f8 00000000 		.4byte	.LFB81
 11560 01fc 0A000000 		.4byte	.LFE81
 11561 0200 00000000 		.4byte	.LFB82
 11562 0204 0C000000 		.4byte	.LFE82
 11563 0208 00000000 		.4byte	.LFB83
 11564 020c 0E000000 		.4byte	.LFE83
 11565 0210 00000000 		.4byte	.LFB84
 11566 0214 14000000 		.4byte	.LFE84
 11567 0218 00000000 		.4byte	.LFB85
 11568 021c 10000000 		.4byte	.LFE85
 11569 0220 00000000 		.4byte	.LFB86
 11570 0224 10000000 		.4byte	.LFE86
 11571 0228 00000000 		.4byte	.LFB87
 11572 022c 26000000 		.4byte	.LFE87
 11573 0230 00000000 		.4byte	.LFB88
 11574 0234 50000000 		.4byte	.LFE88
 11575 0238 00000000 		.4byte	.LFB89
ARM GAS  C:\Users\pearlstl\AppData\Local\Temp\ccI2fBBa.s 			page 228


 11576 023c 18000000 		.4byte	.LFE89
 11577 0240 00000000 		.4byte	0
 11578 0244 00000000 		.4byte	0
 11579              		.section	.debug_line,"",%progbits
 11580              	.Ldebug_line0:
 11581 0000 AB070000 		.section	.debug_str,"MS",%progbits,1
 11581      0200A603 
 11581      00000201 
 11581      FB0E0D00 
 11581      01010101 
 11582              	.LASF282:
 11583 0000 7374796C 		.ascii	"style_header\000"
 11583      655F6865 
 11583      61646572 
 11583      00
 11584              	.LASF14:
 11585 000d 696E7438 		.ascii	"int8_t\000"
 11585      5F7400
 11586              	.LASF76:
 11587 0014 6C765F6C 		.ascii	"lv_ll_node_t\000"
 11587      6C5F6E6F 
 11587      64655F74 
 11587      00
 11588              	.LASF193:
 11589 0021 4C565F42 		.ascii	"LV_BTN_STATE_TGL_PR\000"
 11589      544E5F53 
 11589      54415445 
 11589      5F54474C 
 11589      5F505200 
 11590              	.LASF21:
 11591 0035 6164765F 		.ascii	"adv_w\000"
 11591      7700
 11592              	.LASF237:
 11593 003b 68656164 		.ascii	"header_pr\000"
 11593      65725F70 
 11593      7200
 11594              	.LASF40:
 11595 0045 73697A65 		.ascii	"sizetype\000"
 11595      74797065 
 11595      00
 11596              	.LASF37:
 11597 004e 6C765F63 		.ascii	"lv_color32_t\000"
 11597      6F6C6F72 
 11597      33325F74 
 11597      00
 11598              	.LASF247:
 11599 005b 63656C6C 		.ascii	"cell\000"
 11599      00
 11600              	.LASF314:
 11601 0060 6C765F77 		.ascii	"lv_win_focus\000"
 11601      696E5F66 
 11601      6F637573 
 11601      00
 11602              	.LASF312:
 11603 006d 6C765F77 		.ascii	"lv_win_get_width\000"
 11603      696E5F67 
 11603      65745F77 
ARM GAS  C:\Users\pearlstl\AppData\Local\Temp\ccI2fBBa.s 			page 229


 11603      69647468 
 11603      00
 11604              	.LASF79:
 11605 007e 7461696C 		.ascii	"tail\000"
 11605      00
 11606              	.LASF185:
 11607 0083 4C565F50 		.ascii	"LV_PROTECT_POS\000"
 11607      524F5445 
 11607      43545F50 
 11607      4F5300
 11608              	.LASF133:
 11609 0092 4C565F53 		.ascii	"LV_SIGNAL_STYLE_CHG\000"
 11609      49474E41 
 11609      4C5F5354 
 11609      594C455F 
 11609      43484700 
 11610              	.LASF39:
 11611 00a6 6C765F6F 		.ascii	"lv_opa_t\000"
 11611      70615F74 
 11611      00
 11612              	.LASF64:
 11613 00af 696E7465 		.ascii	"intense\000"
 11613      6E736500 
 11614              	.LASF211:
 11615 00b7 4C565F50 		.ascii	"LV_PAGE_STYLE_EDGE_FLASH\000"
 11615      4147455F 
 11615      5354594C 
 11615      455F4544 
 11615      47455F46 
 11616              	.LASF122:
 11617 00d0 4C565F45 		.ascii	"LV_EVENT_INSERT\000"
 11617      56454E54 
 11617      5F494E53 
 11617      45525400 
 11618              	.LASF215:
 11619 00e0 7374796C 		.ascii	"style_btn_rel\000"
 11619      655F6274 
 11619      6E5F7265 
 11619      6C00
 11620              	.LASF278:
 11621 00ee 6C765F77 		.ascii	"lv_win_get_style\000"
 11621      696E5F67 
 11621      65745F73 
 11621      74796C65 
 11621      00
 11622              	.LASF254:
 11623 00ff 6C6D6574 		.ascii	"lmeter\000"
 11623      657200
 11624              	.LASF141:
 11625 0106 4C565F53 		.ascii	"LV_SIGNAL_LONG_PRESS\000"
 11625      49474E41 
 11625      4C5F4C4F 
 11625      4E475F50 
 11625      52455353 
 11626              	.LASF56:
 11627 011b 72616469 		.ascii	"radius\000"
 11627      757300
ARM GAS  C:\Users\pearlstl\AppData\Local\Temp\ccI2fBBa.s 			page 230


 11628              	.LASF179:
 11629 0122 6C765F72 		.ascii	"lv_reailgn_t\000"
 11629      6561696C 
 11629      676E5F74 
 11629      00
 11630              	.LASF29:
 11631 012f 6C696E65 		.ascii	"line_height\000"
 11631      5F686569 
 11631      67687400 
 11632              	.LASF91:
 11633 013b 636C6963 		.ascii	"click\000"
 11633      6B00
 11634              	.LASF172:
 11635 0141 6C765F61 		.ascii	"lv_align_t\000"
 11635      6C69676E 
 11635      5F7400
 11636              	.LASF143:
 11637 014c 4C565F53 		.ascii	"LV_SIGNAL_DRAG_BEGIN\000"
 11637      49474E41 
 11637      4C5F4452 
 11637      41475F42 
 11637      4547494E 
 11638              	.LASF239:
 11639 0161 68696768 		.ascii	"highlighted_days\000"
 11639      6C696768 
 11639      7465645F 
 11639      64617973 
 11639      00
 11640              	.LASF341:
 11641 0172 6C765F6F 		.ascii	"lv_obj_set_signal_cb\000"
 11641      626A5F73 
 11641      65745F73 
 11641      69676E61 
 11641      6C5F6362 
 11642              	.LASF283:
 11643 0187 7369676E 		.ascii	"sign\000"
 11643      00
 11644              	.LASF127:
 11645 018c 6C765F65 		.ascii	"lv_event_t\000"
 11645      76656E74 
 11645      5F7400
 11646              	.LASF303:
 11647 0197 6C765F77 		.ascii	"lv_win_set_anim_time\000"
 11647      696E5F73 
 11647      65745F61 
 11647      6E696D5F 
 11647      74696D65 
 11648              	.LASF206:
 11649 01ac 4C565F53 		.ascii	"LV_SB_MODE_UNHIDE\000"
 11649      425F4D4F 
 11649      44455F55 
 11649      4E484944 
 11649      4500
 11650              	.LASF334:
 11651 01be 6C765F6F 		.ascii	"lv_obj_is_protected\000"
 11651      626A5F69 
 11651      735F7072 
ARM GAS  C:\Users\pearlstl\AppData\Local\Temp\ccI2fBBa.s 			page 231


 11651      6F746563 
 11651      74656400 
 11652              	.LASF73:
 11653 01d2 4C565F52 		.ascii	"LV_RES_INV\000"
 11653      45535F49 
 11653      4E5600
 11654              	.LASF170:
 11655 01dd 4C565F41 		.ascii	"LV_ALIGN_OUT_RIGHT_MID\000"
 11655      4C49474E 
 11655      5F4F5554 
 11655      5F524947 
 11655      48545F4D 
 11656              	.LASF137:
 11657 01f4 4C565F53 		.ascii	"LV_SIGNAL_PRESSED\000"
 11657      49474E41 
 11657      4C5F5052 
 11657      45535345 
 11657      4400
 11658              	.LASF326:
 11659 0206 6C765F6F 		.ascii	"lv_obj_get_width\000"
 11659      626A5F67 
 11659      65745F77 
 11659      69647468 
 11659      00
 11660              	.LASF49:
 11661 0217 74797065 		.ascii	"type\000"
 11661      00
 11662              	.LASF287:
 11663 021c 6E65775F 		.ascii	"new_win\000"
 11663      77696E00 
 11664              	.LASF111:
 11665 0224 4C565F45 		.ascii	"LV_EVENT_LONG_PRESSED\000"
 11665      56454E54 
 11665      5F4C4F4E 
 11665      475F5052 
 11665      45535345 
 11666              	.LASF221:
 11667 023a 4C565F57 		.ascii	"LV_WIN_STYLE_SB\000"
 11667      494E5F53 
 11667      54594C45 
 11667      5F534200 
 11668              	.LASF225:
 11669 024a 6C765F77 		.ascii	"lv_win_style_t\000"
 11669      696E5F73 
 11669      74796C65 
 11669      5F7400
 11670              	.LASF363:
 11671 0259 6C765F70 		.ascii	"lv_page_set_anim_time\000"
 11671      6167655F 
 11671      7365745F 
 11671      616E696D 
 11671      5F74696D 
 11672              	.LASF230:
 11673 026f 6C696768 		.ascii	"light\000"
 11673      7400
 11674              	.LASF296:
 11675 0275 6C765F77 		.ascii	"lv_win_set_title\000"
ARM GAS  C:\Users\pearlstl\AppData\Local\Temp\ccI2fBBa.s 			page 232


 11675      696E5F73 
 11675      65745F74 
 11675      69746C65 
 11675      00
 11676              	.LASF250:
 11677 0286 636F6E74 		.ascii	"cont\000"
 11677      00
 11678              	.LASF372:
 11679 028b 474E5520 		.ascii	"GNU C11 5.4.1 20160609 (release) [ARM/embedded-5-br"
 11679      43313120 
 11679      352E342E 
 11679      31203230 
 11679      31363036 
 11680 02be 616E6368 		.ascii	"anch revision 237715] -mcpu=cortex-m4 -mfloat-abi=s"
 11680      20726576 
 11680      6973696F 
 11680      6E203233 
 11680      37373135 
 11681 02f1 6F667466 		.ascii	"oftfp -mfpu=fpv4-sp-d16 -mthumb -g -O3 -ffunction-s"
 11681      70202D6D 
 11681      6670753D 
 11681      66707634 
 11681      2D73702D 
 11682 0324 65637469 		.ascii	"ections -ffat-lto-objects\000"
 11682      6F6E7320 
 11682      2D666661 
 11682      742D6C74 
 11682      6F2D6F62 
 11683              	.LASF228:
 11684 033e 7072696D 		.ascii	"prim\000"
 11684      00
 11685              	.LASF190:
 11686 0343 4C565F42 		.ascii	"LV_BTN_STATE_REL\000"
 11686      544E5F53 
 11686      54415445 
 11686      5F52454C 
 11686      00
 11687              	.LASF257:
 11688 0354 63686172 		.ascii	"chart\000"
 11688      7400
 11689              	.LASF362:
 11690 035a 6C765F63 		.ascii	"lv_cont_set_layout\000"
 11690      6F6E745F 
 11690      7365745F 
 11690      6C61796F 
 11690      757400
 11691              	.LASF1:
 11692 036d 5F5F7569 		.ascii	"__uint8_t\000"
 11692      6E74385F 
 11692      7400
 11693              	.LASF35:
 11694 0377 616C7068 		.ascii	"alpha\000"
 11694      6100
 11695              	.LASF333:
 11696 037d 6C765F6F 		.ascii	"lv_obj_set_parent\000"
 11696      626A5F73 
 11696      65745F70 
ARM GAS  C:\Users\pearlstl\AppData\Local\Temp\ccI2fBBa.s 			page 233


 11696      6172656E 
 11696      7400
 11697              	.LASF95:
 11698 038f 68696464 		.ascii	"hidden\000"
 11698      656E00
 11699              	.LASF294:
 11700 0396 6C765F77 		.ascii	"lv_win_close_event_cb\000"
 11700      696E5F63 
 11700      6C6F7365 
 11700      5F657665 
 11700      6E745F63 
 11701              	.LASF8:
 11702 03ac 6C6F6E67 		.ascii	"long int\000"
 11702      20696E74 
 11702      00
 11703              	.LASF266:
 11704 03b5 74696C65 		.ascii	"tileview\000"
 11704      76696577 
 11704      00
 11705              	.LASF156:
 11706 03be 4C565F41 		.ascii	"LV_ALIGN_IN_BOTTOM_MID\000"
 11706      4C49474E 
 11706      5F494E5F 
 11706      424F5454 
 11706      4F4D5F4D 
 11707              	.LASF286:
 11708 03d5 636F7079 		.ascii	"copy\000"
 11708      00
 11709              	.LASF272:
 11710 03da 61726561 		.ascii	"area_p\000"
 11710      5F7000
 11711              	.LASF302:
 11712 03e1 73625F6D 		.ascii	"sb_mode\000"
 11712      6F646500 
 11713              	.LASF78:
 11714 03e9 68656164 		.ascii	"head\000"
 11714      00
 11715              	.LASF366:
 11716 03ee 6C765F6C 		.ascii	"lv_label_get_text\000"
 11716      6162656C 
 11716      5F676574 
 11716      5F746578 
 11716      7400
 11717              	.LASF196:
 11718 0400 4C565F42 		.ascii	"LV_BTN_STYLE_REL\000"
 11718      544E5F53 
 11718      54594C45 
 11718      5F52454C 
 11718      00
 11719              	.LASF259:
 11720 0411 62746E6D 		.ascii	"btnm\000"
 11720      00
 11721              	.LASF358:
 11722 0416 6C765F6F 		.ascii	"lv_obj_clean\000"
 11722      626A5F63 
 11722      6C65616E 
 11722      00
ARM GAS  C:\Users\pearlstl\AppData\Local\Temp\ccI2fBBa.s 			page 234


 11723              	.LASF2:
 11724 0423 7369676E 		.ascii	"signed char\000"
 11724      65642063 
 11724      68617200 
 11725              	.LASF15:
 11726 042f 75696E74 		.ascii	"uint8_t\000"
 11726      385F7400 
 11727              	.LASF242:
 11728 0437 746F6461 		.ascii	"today_box\000"
 11728      795F626F 
 11728      7800
 11729              	.LASF205:
 11730 0441 4C565F53 		.ascii	"LV_SB_MODE_HIDE\000"
 11730      425F4D4F 
 11730      44455F48 
 11730      49444500 
 11731              	.LASF227:
 11732 0451 74676C5F 		.ascii	"tgl_pr\000"
 11732      707200
 11733              	.LASF28:
 11734 0458 6765745F 		.ascii	"get_glyph_bitmap\000"
 11734      676C7970 
 11734      685F6269 
 11734      746D6170 
 11734      00
 11735              	.LASF243:
 11736 0469 7363726C 		.ascii	"scrl\000"
 11736      00
 11737              	.LASF33:
 11738 046e 626C7565 		.ascii	"blue\000"
 11738      00
 11739              	.LASF142:
 11740 0473 4C565F53 		.ascii	"LV_SIGNAL_LONG_PRESS_REP\000"
 11740      49474E41 
 11740      4C5F4C4F 
 11740      4E475F50 
 11740      52455353 
 11741              	.LASF3:
 11742 048c 756E7369 		.ascii	"unsigned char\000"
 11742      676E6564 
 11742      20636861 
 11742      7200
 11743              	.LASF325:
 11744 049a 6C765F6F 		.ascii	"lv_obj_get_style\000"
 11744      626A5F67 
 11744      65745F73 
 11744      74796C65 
 11744      00
 11745              	.LASF135:
 11746 04ab 4C565F53 		.ascii	"LV_SIGNAL_REFR_EXT_DRAW_PAD\000"
 11746      49474E41 
 11746      4C5F5245 
 11746      46525F45 
 11746      58545F44 
 11747              	.LASF98:
 11748 04c7 64726167 		.ascii	"drag_dir\000"
 11748      5F646972 
ARM GAS  C:\Users\pearlstl\AppData\Local\Temp\ccI2fBBa.s 			page 235


 11748      00
 11749              	.LASF328:
 11750 04d0 6C765F6F 		.ascii	"lv_obj_get_child_back\000"
 11750      626A5F67 
 11750      65745F63 
 11750      68696C64 
 11750      5F626163 
 11751              	.LASF184:
 11752 04e6 4C565F50 		.ascii	"LV_PROTECT_PARENT\000"
 11752      524F5445 
 11752      43545F50 
 11752      4152454E 
 11752      5400
 11753              	.LASF236:
 11754 04f8 6B6E6F62 		.ascii	"knob_on\000"
 11754      5F6F6E00 
 11755              	.LASF310:
 11756 0500 6C765F77 		.ascii	"lv_win_get_sb_mode\000"
 11756      696E5F67 
 11756      65745F73 
 11756      625F6D6F 
 11756      646500
 11757              	.LASF24:
 11758 0513 6F66735F 		.ascii	"ofs_x\000"
 11758      7800
 11759              	.LASF25:
 11760 0519 6F66735F 		.ascii	"ofs_y\000"
 11760      7900
 11761              	.LASF213:
 11762 051f 68656164 		.ascii	"header\000"
 11762      657200
 11763              	.LASF373:
 11764 0526 2E2E5C2E 		.ascii	"..\\..\\..\\lvgl\\version_6.1.2\\lvgl\\src\\lv_objx"
 11764      2E5C2E2E 
 11764      5C6C7667 
 11764      6C5C7665 
 11764      7273696F 
 11765 0552 5C6C765F 		.ascii	"\\lv_win.c\000"
 11765      77696E2E 
 11765      6300
 11766              	.LASF354:
 11767 055c 6C765F6F 		.ascii	"lv_obj_allocate_ext_attr\000"
 11767      626A5F61 
 11767      6C6C6F63 
 11767      6174655F 
 11767      6578745F 
 11768              	.LASF31:
 11769 0575 5F426F6F 		.ascii	"_Bool\000"
 11769      6C00
 11770              	.LASF216:
 11771 057b 7374796C 		.ascii	"style_btn_pr\000"
 11771      655F6274 
 11771      6E5F7072 
 11771      00
 11772              	.LASF150:
 11773 0588 6C765F73 		.ascii	"lv_signal_cb_t\000"
 11773      69676E61 
ARM GAS  C:\Users\pearlstl\AppData\Local\Temp\ccI2fBBa.s 			page 236


 11773      6C5F6362 
 11773      5F7400
 11774              	.LASF267:
 11775 0597 7461626C 		.ascii	"table\000"
 11775      6500
 11776              	.LASF217:
 11777 059d 62746E5F 		.ascii	"btn_size\000"
 11777      73697A65 
 11777      00
 11778              	.LASF41:
 11779 05a6 63686172 		.ascii	"char\000"
 11779      00
 11780              	.LASF68:
 11781 05ab 626F6479 		.ascii	"body\000"
 11781      00
 11782              	.LASF304:
 11783 05b0 616E696D 		.ascii	"anim_time\000"
 11783      5F74696D 
 11783      6500
 11784              	.LASF175:
 11785 05ba 796F6673 		.ascii	"yofs\000"
 11785      00
 11786              	.LASF329:
 11787 05bf 6C765F6F 		.ascii	"lv_obj_align\000"
 11787      626A5F61 
 11787      6C69676E 
 11787      00
 11788              	.LASF6:
 11789 05cc 5F5F7569 		.ascii	"__uint16_t\000"
 11789      6E743136 
 11789      5F7400
 11790              	.LASF241:
 11791 05d7 7765656B 		.ascii	"week_box\000"
 11791      5F626F78 
 11791      00
 11792              	.LASF324:
 11793 05e0 6C765F6F 		.ascii	"lv_obj_get_ext_attr\000"
 11793      626A5F67 
 11793      65745F65 
 11793      78745F61 
 11793      74747200 
 11794              	.LASF224:
 11795 05f4 4C565F57 		.ascii	"LV_WIN_STYLE_BTN_PR\000"
 11795      494E5F53 
 11795      54594C45 
 11795      5F42544E 
 11795      5F505200 
 11796              	.LASF197:
 11797 0608 4C565F42 		.ascii	"LV_BTN_STYLE_PR\000"
 11797      544E5F53 
 11797      54594C45 
 11797      5F505200 
 11798              	.LASF167:
 11799 0618 4C565F41 		.ascii	"LV_ALIGN_OUT_LEFT_MID\000"
 11799      4C49474E 
 11799      5F4F5554 
 11799      5F4C4546 
ARM GAS  C:\Users\pearlstl\AppData\Local\Temp\ccI2fBBa.s 			page 237


 11799      545F4D49 
 11800              	.LASF204:
 11801 062e 4C565F53 		.ascii	"LV_SB_MODE_AUTO\000"
 11801      425F4D4F 
 11801      44455F41 
 11801      55544F00 
 11802              	.LASF376:
 11803 063e 6C765F77 		.ascii	"lv_win_realign\000"
 11803      696E5F72 
 11803      65616C69 
 11803      676E00
 11804              	.LASF352:
 11805 064d 6C765F64 		.ascii	"lv_disp_get_hor_res\000"
 11805      6973705F 
 11805      6765745F 
 11805      686F725F 
 11805      72657300 
 11806              	.LASF336:
 11807 0661 6C765F6F 		.ascii	"lv_obj_create\000"
 11807      626A5F63 
 11807      72656174 
 11807      6500
 11808              	.LASF88:
 11809 066f 64657369 		.ascii	"design_cb\000"
 11809      676E5F63 
 11809      6200
 11810              	.LASF308:
 11811 0679 6C765F77 		.ascii	"lv_win_get_btn_size\000"
 11811      696E5F67 
 11811      65745F62 
 11811      746E5F73 
 11811      697A6500 
 11812              	.LASF320:
 11813 068d 6C765F73 		.ascii	"lv_style_plain_color\000"
 11813      74796C65 
 11813      5F706C61 
 11813      696E5F63 
 11813      6F6C6F72 
 11814              	.LASF291:
 11815 06a2 6C765F77 		.ascii	"lv_win_add_btn\000"
 11815      696E5F61 
 11815      64645F62 
 11815      746E00
 11816              	.LASF146:
 11817 06b1 4C565F53 		.ascii	"LV_SIGNAL_DEFOCUS\000"
 11817      49474E41 
 11817      4C5F4445 
 11817      464F4355 
 11817      5300
 11818              	.LASF119:
 11819 06c3 4C565F45 		.ascii	"LV_EVENT_FOCUSED\000"
 11819      56454E54 
 11819      5F464F43 
 11819      55534544 
 11819      00
 11820              	.LASF263:
 11821 06d4 64646C69 		.ascii	"ddlist\000"
ARM GAS  C:\Users\pearlstl\AppData\Local\Temp\ccI2fBBa.s 			page 238


 11821      737400
 11822              	.LASF69:
 11823 06db 74657874 		.ascii	"text\000"
 11823      00
 11824              	.LASF343:
 11825 06e0 6C765F70 		.ascii	"lv_page_set_style\000"
 11825      6167655F 
 11825      7365745F 
 11825      7374796C 
 11825      6500
 11826              	.LASF115:
 11827 06f2 4C565F45 		.ascii	"LV_EVENT_DRAG_BEGIN\000"
 11827      56454E54 
 11827      5F445241 
 11827      475F4245 
 11827      47494E00 
 11828              	.LASF70:
 11829 0706 696D6167 		.ascii	"image\000"
 11829      6500
 11830              	.LASF66:
 11831 070c 726F756E 		.ascii	"rounded\000"
 11831      64656400 
 11832              	.LASF93:
 11833 0714 64726167 		.ascii	"drag_throw\000"
 11833      5F746872 
 11833      6F7700
 11834              	.LASF240:
 11835 071f 696E6163 		.ascii	"inactive_days\000"
 11835      74697665 
 11835      5F646179 
 11835      7300
 11836              	.LASF81:
 11837 072d 6C765F62 		.ascii	"lv_bidi_dir_t\000"
 11837      6964695F 
 11837      6469725F 
 11837      7400
 11838              	.LASF103:
 11839 073b 6578745F 		.ascii	"ext_draw_pad\000"
 11839      64726177 
 11839      5F706164 
 11839      00
 11840              	.LASF42:
 11841 0748 6C765F61 		.ascii	"lv_area_t\000"
 11841      7265615F 
 11841      7400
 11842              	.LASF186:
 11843 0752 4C565F50 		.ascii	"LV_PROTECT_FOLLOW\000"
 11843      524F5445 
 11843      43545F46 
 11843      4F4C4C4F 
 11843      5700
 11844              	.LASF299:
 11845 0764 6C765F77 		.ascii	"lv_win_set_content_size\000"
 11845      696E5F73 
 11845      65745F63 
 11845      6F6E7465 
 11845      6E745F73 
ARM GAS  C:\Users\pearlstl\AppData\Local\Temp\ccI2fBBa.s 			page 239


 11846              	.LASF210:
 11847 077c 4C565F50 		.ascii	"LV_PAGE_STYLE_SB\000"
 11847      4147455F 
 11847      5354594C 
 11847      455F5342 
 11847      00
 11848              	.LASF113:
 11849 078d 4C565F45 		.ascii	"LV_EVENT_CLICKED\000"
 11849      56454E54 
 11849      5F434C49 
 11849      434B4544 
 11849      00
 11850              	.LASF51:
 11851 079e 6C656674 		.ascii	"left\000"
 11851      00
 11852              	.LASF269:
 11853 07a3 6C765F74 		.ascii	"lv_theme_t\000"
 11853      68656D65 
 11853      5F7400
 11854              	.LASF124:
 11855 07ae 4C565F45 		.ascii	"LV_EVENT_APPLY\000"
 11855      56454E54 
 11855      5F415050 
 11855      4C5900
 11856              	.LASF104:
 11857 07bd 7265616C 		.ascii	"realign\000"
 11857      69676E00 
 11858              	.LASF117:
 11859 07c5 4C565F45 		.ascii	"LV_EVENT_DRAG_THROW_BEGIN\000"
 11859      56454E54 
 11859      5F445241 
 11859      475F5448 
 11859      524F575F 
 11860              	.LASF157:
 11861 07df 4C565F41 		.ascii	"LV_ALIGN_IN_BOTTOM_RIGHT\000"
 11861      4C49474E 
 11861      5F494E5F 
 11861      424F5454 
 11861      4F4D5F52 
 11862              	.LASF165:
 11863 07f8 4C565F41 		.ascii	"LV_ALIGN_OUT_BOTTOM_RIGHT\000"
 11863      4C49474E 
 11863      5F4F5554 
 11863      5F424F54 
 11863      544F4D5F 
 11864              	.LASF136:
 11865 0812 4C565F53 		.ascii	"LV_SIGNAL_GET_TYPE\000"
 11865      49474E41 
 11865      4C5F4745 
 11865      545F5459 
 11865      504500
 11866              	.LASF244:
 11867 0825 61726561 		.ascii	"area\000"
 11867      00
 11868              	.LASF72:
 11869 082a 6C765F73 		.ascii	"lv_style_t\000"
 11869      74796C65 
ARM GAS  C:\Users\pearlstl\AppData\Local\Temp\ccI2fBBa.s 			page 240


 11869      5F7400
 11870              	.LASF53:
 11871 0835 696E6E65 		.ascii	"inner\000"
 11871      7200
 11872              	.LASF330:
 11873 083b 6C765F6F 		.ascii	"lv_obj_set_pos\000"
 11873      626A5F73 
 11873      65745F70 
 11873      6F7300
 11874              	.LASF337:
 11875 084a 6C765F6C 		.ascii	"lv_label_create\000"
 11875      6162656C 
 11875      5F637265 
 11875      61746500 
 11876              	.LASF164:
 11877 085a 4C565F41 		.ascii	"LV_ALIGN_OUT_BOTTOM_MID\000"
 11877      4C49474E 
 11877      5F4F5554 
 11877      5F424F54 
 11877      544F4D5F 
 11878              	.LASF10:
 11879 0872 6C6F6E67 		.ascii	"long unsigned int\000"
 11879      20756E73 
 11879      69676E65 
 11879      6420696E 
 11879      7400
 11880              	.LASF229:
 11881 0884 68696E74 		.ascii	"hint\000"
 11881      00
 11882              	.LASF284:
 11883 0889 70617261 		.ascii	"param\000"
 11883      6D00
 11884              	.LASF192:
 11885 088f 4C565F42 		.ascii	"LV_BTN_STATE_TGL_REL\000"
 11885      544E5F53 
 11885      54415445 
 11885      5F54474C 
 11885      5F52454C 
 11886              	.LASF332:
 11887 08a4 6C765F6F 		.ascii	"lv_obj_get_child\000"
 11887      626A5F67 
 11887      65745F63 
 11887      68696C64 
 11887      00
 11888              	.LASF218:
 11889 08b5 6C765F77 		.ascii	"lv_win_ext_t\000"
 11889      696E5F65 
 11889      78745F74 
 11889      00
 11890              	.LASF71:
 11891 08c2 6C696E65 		.ascii	"line\000"
 11891      00
 11892              	.LASF309:
 11893 08c7 6C765F77 		.ascii	"lv_win_get_layout\000"
 11893      696E5F67 
 11893      65745F6C 
 11893      61796F75 
ARM GAS  C:\Users\pearlstl\AppData\Local\Temp\ccI2fBBa.s 			page 241


 11893      7400
 11894              	.LASF145:
 11895 08d9 4C565F53 		.ascii	"LV_SIGNAL_FOCUS\000"
 11895      49474E41 
 11895      4C5F464F 
 11895      43555300 
 11896              	.LASF307:
 11897 08e9 6C765F77 		.ascii	"lv_win_get_title\000"
 11897      696E5F67 
 11897      65745F74 
 11897      69746C65 
 11897      00
 11898              	.LASF123:
 11899 08fa 4C565F45 		.ascii	"LV_EVENT_REFRESH\000"
 11899      56454E54 
 11899      5F524546 
 11899      52455348 
 11899      00
 11900              	.LASF43:
 11901 090b 6C765F61 		.ascii	"lv_anim_enable_t\000"
 11901      6E696D5F 
 11901      656E6162 
 11901      6C655F74 
 11901      00
 11902              	.LASF355:
 11903 091c 6C765F6F 		.ascii	"lv_obj_refresh_style\000"
 11903      626A5F72 
 11903      65667265 
 11903      73685F73 
 11903      74796C65 
 11904              	.LASF375:
 11905 0931 6C765F70 		.ascii	"lv_page_set_scrl_layout\000"
 11905      6167655F 
 11905      7365745F 
 11905      7363726C 
 11905      5F6C6179 
 11906              	.LASF350:
 11907 0949 6C765F6C 		.ascii	"lv_label_set_text\000"
 11907      6162656C 
 11907      5F736574 
 11907      5F746578 
 11907      7400
 11908              	.LASF313:
 11909 095b 7374796C 		.ascii	"style_scrl\000"
 11909      655F7363 
 11909      726C00
 11910              	.LASF148:
 11911 0966 4C565F53 		.ascii	"LV_SIGNAL_GET_EDITABLE\000"
 11911      49474E41 
 11911      4C5F4745 
 11911      545F4544 
 11911      49544142 
 11912              	.LASF245:
 11913 097d 6F6E656C 		.ascii	"oneline\000"
 11913      696E6500 
 11914              	.LASF163:
 11915 0985 4C565F41 		.ascii	"LV_ALIGN_OUT_BOTTOM_LEFT\000"
ARM GAS  C:\Users\pearlstl\AppData\Local\Temp\ccI2fBBa.s 			page 242


 11915      4C49474E 
 11915      5F4F5554 
 11915      5F424F54 
 11915      544F4D5F 
 11916              	.LASF9:
 11917 099e 5F5F7569 		.ascii	"__uint32_t\000"
 11917      6E743332 
 11917      5F7400
 11918              	.LASF86:
 11919 09a9 6576656E 		.ascii	"event_cb\000"
 11919      745F6362 
 11919      00
 11920              	.LASF52:
 11921 09b2 72696768 		.ascii	"right\000"
 11921      7400
 11922              	.LASF90:
 11923 09b8 7374796C 		.ascii	"style_p\000"
 11923      655F7000 
 11924              	.LASF11:
 11925 09c0 6C6F6E67 		.ascii	"long long int\000"
 11925      206C6F6E 
 11925      6720696E 
 11925      7400
 11926              	.LASF168:
 11927 09ce 4C565F41 		.ascii	"LV_ALIGN_OUT_LEFT_BOTTOM\000"
 11927      4C49474E 
 11927      5F4F5554 
 11927      5F4C4546 
 11927      545F424F 
 11928              	.LASF47:
 11929 09e7 77696474 		.ascii	"width\000"
 11929      6800
 11930              	.LASF154:
 11931 09ed 4C565F41 		.ascii	"LV_ALIGN_IN_TOP_RIGHT\000"
 11931      4C49474E 
 11931      5F494E5F 
 11931      544F505F 
 11931      52494748 
 11932              	.LASF147:
 11933 0a03 4C565F53 		.ascii	"LV_SIGNAL_CONTROL\000"
 11933      49474E41 
 11933      4C5F434F 
 11933      4E54524F 
 11933      4C00
 11934              	.LASF50:
 11935 0a15 626F7474 		.ascii	"bottom\000"
 11935      6F6D00
 11936              	.LASF84:
 11937 0a1c 6368696C 		.ascii	"child_ll\000"
 11937      645F6C6C 
 11937      00
 11938              	.LASF233:
 11939 0a25 696E6469 		.ascii	"indic\000"
 11939      6300
 11940              	.LASF101:
 11941 0a2b 70726F74 		.ascii	"protect\000"
 11941      65637400 
ARM GAS  C:\Users\pearlstl\AppData\Local\Temp\ccI2fBBa.s 			page 243


 11942              	.LASF201:
 11943 0a33 4C565F53 		.ascii	"LV_SB_MODE_OFF\000"
 11943      425F4D4F 
 11943      44455F4F 
 11943      464600
 11944              	.LASF285:
 11945 0a42 6368696C 		.ascii	"child\000"
 11945      6400
 11946              	.LASF273:
 11947 0a48 6C61796F 		.ascii	"layout\000"
 11947      757400
 11948              	.LASF265:
 11949 0a4f 74616276 		.ascii	"tabview\000"
 11949      69657700 
 11950              	.LASF97:
 11951 0a57 70617265 		.ascii	"parent_event\000"
 11951      6E745F65 
 11951      76656E74 
 11951      00
 11952              	.LASF129:
 11953 0a64 4C565F53 		.ascii	"LV_SIGNAL_CLEANUP\000"
 11953      49474E41 
 11953      4C5F434C 
 11953      45414E55 
 11953      5000
 11954              	.LASF280:
 11955 0a76 66697273 		.ascii	"first_btn\000"
 11955      745F6274 
 11955      6E00
 11956              	.LASF176:
 11957 0a80 616C6967 		.ascii	"align\000"
 11957      6E00
 11958              	.LASF155:
 11959 0a86 4C565F41 		.ascii	"LV_ALIGN_IN_BOTTOM_LEFT\000"
 11959      4C49474E 
 11959      5F494E5F 
 11959      424F5454 
 11959      4F4D5F4C 
 11960              	.LASF200:
 11961 0a9e 4C565F42 		.ascii	"LV_BTN_STYLE_INA\000"
 11961      544E5F53 
 11961      54594C45 
 11961      5F494E41 
 11961      00
 11962              	.LASF67:
 11963 0aaf 676C6173 		.ascii	"glass\000"
 11963      7300
 11964              	.LASF295:
 11965 0ab5 6576656E 		.ascii	"event\000"
 11965      7400
 11966              	.LASF322:
 11967 0abb 6C765F73 		.ascii	"lv_style_btn_rel\000"
 11967      74796C65 
 11967      5F62746E 
 11967      5F72656C 
 11967      00
 11968              	.LASF126:
ARM GAS  C:\Users\pearlstl\AppData\Local\Temp\ccI2fBBa.s 			page 244


 11969 0acc 4C565F45 		.ascii	"LV_EVENT_DELETE\000"
 11969      56454E54 
 11969      5F44454C 
 11969      45544500 
 11970              	.LASF13:
 11971 0adc 756E7369 		.ascii	"unsigned int\000"
 11971      676E6564 
 11971      20696E74 
 11971      00
 11972              	.LASF130:
 11973 0ae9 4C565F53 		.ascii	"LV_SIGNAL_CHILD_CHG\000"
 11973      49474E41 
 11973      4C5F4348 
 11973      494C445F 
 11973      43484700 
 11974              	.LASF347:
 11975 0afd 6C765F6F 		.ascii	"lv_obj_get_height_fit\000"
 11975      626A5F67 
 11975      65745F68 
 11975      65696768 
 11975      745F6669 
 11976              	.LASF260:
 11977 0b13 6D626F78 		.ascii	"mbox\000"
 11977      00
 11978              	.LASF277:
 11979 0b18 6C765F70 		.ascii	"lv_page_get_scrl_layout\000"
 11979      6167655F 
 11979      6765745F 
 11979      7363726C 
 11979      5F6C6179 
 11980              	.LASF226:
 11981 0b30 74676C5F 		.ascii	"tgl_rel\000"
 11981      72656C00 
 11982              	.LASF151:
 11983 0b38 4C565F41 		.ascii	"LV_ALIGN_CENTER\000"
 11983      4C49474E 
 11983      5F43454E 
 11983      54455200 
 11984              	.LASF121:
 11985 0b48 4C565F45 		.ascii	"LV_EVENT_VALUE_CHANGED\000"
 11985      56454E54 
 11985      5F56414C 
 11985      55455F43 
 11985      48414E47 
 11986              	.LASF194:
 11987 0b5f 4C565F42 		.ascii	"LV_BTN_STATE_INA\000"
 11987      544E5F53 
 11987      54415445 
 11987      5F494E41 
 11987      00
 11988              	.LASF222:
 11989 0b70 4C565F57 		.ascii	"LV_WIN_STYLE_HEADER\000"
 11989      494E5F53 
 11989      54594C45 
 11989      5F484541 
 11989      44455200 
 11990              	.LASF177:
ARM GAS  C:\Users\pearlstl\AppData\Local\Temp\ccI2fBBa.s 			page 245


 11991 0b84 6175746F 		.ascii	"auto_realign\000"
 11991      5F726561 
 11991      6C69676E 
 11991      00
 11992              	.LASF319:
 11993 0b91 6C765F73 		.ascii	"lv_style_plain\000"
 11993      74796C65 
 11993      5F706C61 
 11993      696E00
 11994              	.LASF26:
 11995 0ba0 6C765F66 		.ascii	"lv_font_glyph_dsc_t\000"
 11995      6F6E745F 
 11995      676C7970 
 11995      685F6473 
 11995      635F7400 
 11996              	.LASF367:
 11997 0bb4 6C765F63 		.ascii	"lv_cont_get_layout\000"
 11997      6F6E745F 
 11997      6765745F 
 11997      6C61796F 
 11997      757400
 11998              	.LASF262:
 11999 0bc7 6C697374 		.ascii	"list\000"
 11999      00
 12000              	.LASF360:
 12001 0bcc 6C765F69 		.ascii	"lv_img_set_src\000"
 12001      6D675F73 
 12001      65745F73 
 12001      726300
 12002              	.LASF55:
 12003 0bdb 67726164 		.ascii	"grad_color\000"
 12003      5F636F6C 
 12003      6F7200
 12004              	.LASF108:
 12005 0be6 4C565F45 		.ascii	"LV_EVENT_PRESSING\000"
 12005      56454E54 
 12005      5F505245 
 12005      5353494E 
 12005      4700
 12006              	.LASF212:
 12007 0bf8 70616765 		.ascii	"page\000"
 12007      00
 12008              	.LASF345:
 12009 0bfd 6C765F6F 		.ascii	"lv_obj_get_parent\000"
 12009      626A5F67 
 12009      65745F70 
 12009      6172656E 
 12009      7400
 12010              	.LASF235:
 12011 0c0f 6B6E6F62 		.ascii	"knob_off\000"
 12011      5F6F6666 
 12011      00
 12012              	.LASF255:
 12013 0c18 67617567 		.ascii	"gauge\000"
 12013      6500
 12014              	.LASF220:
 12015 0c1e 4C565F57 		.ascii	"LV_WIN_STYLE_CONTENT\000"
ARM GAS  C:\Users\pearlstl\AppData\Local\Temp\ccI2fBBa.s 			page 246


 12015      494E5F53 
 12015      54594C45 
 12015      5F434F4E 
 12015      54454E54 
 12016              	.LASF138:
 12017 0c33 4C565F53 		.ascii	"LV_SIGNAL_PRESSING\000"
 12017      49474E41 
 12017      4C5F5052 
 12017      45535349 
 12017      4E4700
 12018              	.LASF110:
 12019 0c46 4C565F45 		.ascii	"LV_EVENT_SHORT_CLICKED\000"
 12019      56454E54 
 12019      5F53484F 
 12019      52545F43 
 12019      4C49434B 
 12020              	.LASF112:
 12021 0c5d 4C565F45 		.ascii	"LV_EVENT_LONG_PRESSED_REPEAT\000"
 12021      56454E54 
 12021      5F4C4F4E 
 12021      475F5052 
 12021      45535345 
 12022              	.LASF202:
 12023 0c7a 4C565F53 		.ascii	"LV_SB_MODE_ON\000"
 12023      425F4D4F 
 12023      44455F4F 
 12023      4E00
 12024              	.LASF75:
 12025 0c88 6C765F72 		.ascii	"lv_res_t\000"
 12025      65735F74 
 12025      00
 12026              	.LASF171:
 12027 0c91 4C565F41 		.ascii	"LV_ALIGN_OUT_RIGHT_BOTTOM\000"
 12027      4C49474E 
 12027      5F4F5554 
 12027      5F524947 
 12027      48545F42 
 12028              	.LASF338:
 12029 0cab 6C765F70 		.ascii	"lv_page_create\000"
 12029      6167655F 
 12029      63726561 
 12029      746500
 12030              	.LASF20:
 12031 0cba 6C6F6E67 		.ascii	"long double\000"
 12031      20646F75 
 12031      626C6500 
 12032              	.LASF180:
 12033 0cc6 6C765F64 		.ascii	"lv_drag_dir_t\000"
 12033      7261675F 
 12033      6469725F 
 12033      7400
 12034              	.LASF268:
 12035 0cd4 7374796C 		.ascii	"style\000"
 12035      6500
 12036              	.LASF89:
 12037 0cda 6578745F 		.ascii	"ext_attr\000"
 12037      61747472 
ARM GAS  C:\Users\pearlstl\AppData\Local\Temp\ccI2fBBa.s 			page 247


 12037      00
 12038              	.LASF182:
 12039 0ce3 4C565F50 		.ascii	"LV_PROTECT_NONE\000"
 12039      524F5445 
 12039      43545F4E 
 12039      4F4E4500 
 12040              	.LASF160:
 12041 0cf3 4C565F41 		.ascii	"LV_ALIGN_OUT_TOP_LEFT\000"
 12041      4C49474E 
 12041      5F4F5554 
 12041      5F544F50 
 12041      5F4C4546 
 12042              	.LASF368:
 12043 0d09 6C765F70 		.ascii	"lv_page_get_sb_mode\000"
 12043      6167655F 
 12043      6765745F 
 12043      73625F6D 
 12043      6F646500 
 12044              	.LASF105:
 12045 0d1d 6C765F64 		.ascii	"lv_design_mode_t\000"
 12045      65736967 
 12045      6E5F6D6F 
 12045      64655F74 
 12045      00
 12046              	.LASF65:
 12047 0d2e 73756270 		.ascii	"subpx\000"
 12047      7800
 12048              	.LASF116:
 12049 0d34 4C565F45 		.ascii	"LV_EVENT_DRAG_END\000"
 12049      56454E54 
 12049      5F445241 
 12049      475F454E 
 12049      4400
 12050              	.LASF139:
 12051 0d46 4C565F53 		.ascii	"LV_SIGNAL_PRESS_LOST\000"
 12051      49474E41 
 12051      4C5F5052 
 12051      4553535F 
 12051      4C4F5354 
 12052              	.LASF292:
 12053 0d5b 696D675F 		.ascii	"img_src\000"
 12053      73726300 
 12054              	.LASF144:
 12055 0d63 4C565F53 		.ascii	"LV_SIGNAL_DRAG_END\000"
 12055      49474E41 
 12055      4C5F4452 
 12055      41475F45 
 12055      4E4400
 12056              	.LASF107:
 12057 0d76 4C565F45 		.ascii	"LV_EVENT_PRESSED\000"
 12057      56454E54 
 12057      5F505245 
 12057      53534544 
 12057      00
 12058              	.LASF132:
 12059 0d87 4C565F53 		.ascii	"LV_SIGNAL_PARENT_SIZE_CHG\000"
 12059      49474E41 
ARM GAS  C:\Users\pearlstl\AppData\Local\Temp\ccI2fBBa.s 			page 248


 12059      4C5F5041 
 12059      52454E54 
 12059      5F53495A 
 12060              	.LASF125:
 12061 0da1 4C565F45 		.ascii	"LV_EVENT_CANCEL\000"
 12061      56454E54 
 12061      5F43414E 
 12061      43454C00 
 12062              	.LASF140:
 12063 0db1 4C565F53 		.ascii	"LV_SIGNAL_RELEASED\000"
 12063      49474E41 
 12063      4C5F5245 
 12063      4C454153 
 12063      454400
 12064              	.LASF370:
 12065 0dc4 6C765F70 		.ascii	"lv_page_get_style\000"
 12065      6167655F 
 12065      6765745F 
 12065      7374796C 
 12065      6500
 12066              	.LASF289:
 12067 0dd6 6362746E 		.ascii	"cbtn\000"
 12067      00
 12068              	.LASF54:
 12069 0ddb 6D61696E 		.ascii	"main_color\000"
 12069      5F636F6C 
 12069      6F7200
 12070              	.LASF153:
 12071 0de6 4C565F41 		.ascii	"LV_ALIGN_IN_TOP_MID\000"
 12071      4C49474E 
 12071      5F494E5F 
 12071      544F505F 
 12071      4D494400 
 12072              	.LASF0:
 12073 0dfa 5F5F696E 		.ascii	"__int8_t\000"
 12073      74385F74 
 12073      00
 12074              	.LASF149:
 12075 0e03 6C765F73 		.ascii	"lv_signal_t\000"
 12075      69676E61 
 12075      6C5F7400 
 12076              	.LASF298:
 12077 0e0f 73697A65 		.ascii	"size\000"
 12077      00
 12078              	.LASF191:
 12079 0e14 4C565F42 		.ascii	"LV_BTN_STATE_PR\000"
 12079      544E5F53 
 12079      54415445 
 12079      5F505200 
 12080              	.LASF12:
 12081 0e24 6C6F6E67 		.ascii	"long long unsigned int\000"
 12081      206C6F6E 
 12081      6720756E 
 12081      7369676E 
 12081      65642069 
 12082              	.LASF188:
 12083 0e3b 4C565F50 		.ascii	"LV_PROTECT_CLICK_FOCUS\000"
ARM GAS  C:\Users\pearlstl\AppData\Local\Temp\ccI2fBBa.s 			page 249


 12083      524F5445 
 12083      43545F43 
 12083      4C49434B 
 12083      5F464F43 
 12084              	.LASF169:
 12085 0e52 4C565F41 		.ascii	"LV_ALIGN_OUT_RIGHT_TOP\000"
 12085      4C49474E 
 12085      5F4F5554 
 12085      5F524947 
 12085      48545F54 
 12086              	.LASF17:
 12087 0e69 75696E74 		.ascii	"uint16_t\000"
 12087      31365F74 
 12087      00
 12088              	.LASF74:
 12089 0e72 4C565F52 		.ascii	"LV_RES_OK\000"
 12089      45535F4F 
 12089      4B00
 12090              	.LASF38:
 12091 0e7c 6C765F63 		.ascii	"lv_color_t\000"
 12091      6F6C6F72 
 12091      5F7400
 12092              	.LASF316:
 12093 0e87 616E6365 		.ascii	"ancestor_signal\000"
 12093      73746F72 
 12093      5F736967 
 12093      6E616C00 
 12094              	.LASF293:
 12095 0e97 6C765F77 		.ascii	"lv_win_clean\000"
 12095      696E5F63 
 12095      6C65616E 
 12095      00
 12096              	.LASF271:
 12097 0ea4 6C765F61 		.ascii	"lv_area_get_height\000"
 12097      7265615F 
 12097      6765745F 
 12097      68656967 
 12097      687400
 12098              	.LASF323:
 12099 0eb7 6C765F73 		.ascii	"lv_style_btn_pr\000"
 12099      74796C65 
 12099      5F62746E 
 12099      5F707200 
 12100              	.LASF209:
 12101 0ec7 4C565F50 		.ascii	"LV_PAGE_STYLE_SCRL\000"
 12101      4147455F 
 12101      5354594C 
 12101      455F5343 
 12101      524C00
 12102              	.LASF232:
 12103 0eda 6465636F 		.ascii	"decor\000"
 12103      7200
 12104              	.LASF251:
 12105 0ee0 696D6762 		.ascii	"imgbtn\000"
 12105      746E00
 12106              	.LASF348:
 12107 0ee7 6C765F6F 		.ascii	"lv_obj_set_protect\000"
ARM GAS  C:\Users\pearlstl\AppData\Local\Temp\ccI2fBBa.s 			page 250


 12107      626A5F73 
 12107      65745F70 
 12107      726F7465 
 12107      637400
 12108              	.LASF4:
 12109 0efa 5F5F696E 		.ascii	"__int16_t\000"
 12109      7431365F 
 12109      7400
 12110              	.LASF365:
 12111 0f04 6C765F6F 		.ascii	"lv_obj_set_drag\000"
 12111      626A5F73 
 12111      65745F64 
 12111      72616700 
 12112              	.LASF249:
 12113 0f14 70616E65 		.ascii	"panel\000"
 12113      6C00
 12114              	.LASF356:
 12115 0f1a 6C765F6F 		.ascii	"lv_obj_get_signal_cb\000"
 12115      626A5F67 
 12115      65745F73 
 12115      69676E61 
 12115      6C5F6362 
 12116              	.LASF364:
 12117 0f2f 6C765F6F 		.ascii	"lv_obj_set_drag_parent\000"
 12117      626A5F73 
 12117      65745F64 
 12117      7261675F 
 12117      70617265 
 12118              	.LASF279:
 12119 0f46 68656164 		.ascii	"header_style\000"
 12119      65725F73 
 12119      74796C65 
 12119      00
 12120              	.LASF219:
 12121 0f53 4C565F57 		.ascii	"LV_WIN_STYLE_BG\000"
 12121      494E5F53 
 12121      54594C45 
 12121      5F424700 
 12122              	.LASF331:
 12123 0f63 6C765F6F 		.ascii	"lv_obj_get_height\000"
 12123      626A5F67 
 12123      65745F68 
 12123      65696768 
 12123      7400
 12124              	.LASF36:
 12125 0f75 66756C6C 		.ascii	"full\000"
 12125      00
 12126              	.LASF311:
 12127 0f7a 6C765F77 		.ascii	"lv_win_get_anim_time\000"
 12127      696E5F67 
 12127      65745F61 
 12127      6E696D5F 
 12127      74696D65 
 12128              	.LASF159:
 12129 0f8f 4C565F41 		.ascii	"LV_ALIGN_IN_RIGHT_MID\000"
 12129      4C49474E 
 12129      5F494E5F 
ARM GAS  C:\Users\pearlstl\AppData\Local\Temp\ccI2fBBa.s 			page 251


 12129      52494748 
 12129      545F4D49 
 12130              	.LASF46:
 12131 0fa5 636F6C6F 		.ascii	"color\000"
 12131      7200
 12132              	.LASF63:
 12133 0fab 6C696E65 		.ascii	"line_space\000"
 12133      5F737061 
 12133      636500
 12134              	.LASF174:
 12135 0fb6 786F6673 		.ascii	"xofs\000"
 12135      00
 12136              	.LASF335:
 12137 0fbb 6C765F6F 		.ascii	"lv_obj_handle_get_type_signal\000"
 12137      626A5F68 
 12137      616E646C 
 12137      655F6765 
 12137      745F7479 
 12138              	.LASF181:
 12139 0fd9 6C765F6F 		.ascii	"lv_obj_t\000"
 12139      626A5F74 
 12139      00
 12140              	.LASF45:
 12141 0fe2 6C765F73 		.ascii	"lv_shadow_type_t\000"
 12141      6861646F 
 12141      775F7479 
 12141      70655F74 
 12141      00
 12142              	.LASF92:
 12143 0ff3 64726167 		.ascii	"drag\000"
 12143      00
 12144              	.LASF321:
 12145 0ff8 6C765F73 		.ascii	"lv_style_pretty\000"
 12145      74796C65 
 12145      5F707265 
 12145      74747900 
 12146              	.LASF369:
 12147 1008 6C765F70 		.ascii	"lv_page_get_anim_time\000"
 12147      6167655F 
 12147      6765745F 
 12147      616E696D 
 12147      5F74696D 
 12148              	.LASF83:
 12149 101e 5F6C765F 		.ascii	"_lv_obj_t\000"
 12149      6F626A5F 
 12149      7400
 12150              	.LASF152:
 12151 1028 4C565F41 		.ascii	"LV_ALIGN_IN_TOP_LEFT\000"
 12151      4C49474E 
 12151      5F494E5F 
 12151      544F505F 
 12151      4C454654 
 12152              	.LASF61:
 12153 103d 666F6E74 		.ascii	"font\000"
 12153      00
 12154              	.LASF62:
 12155 1042 6C657474 		.ascii	"letter_space\000"
ARM GAS  C:\Users\pearlstl\AppData\Local\Temp\ccI2fBBa.s 			page 252


 12155      65725F73 
 12155      70616365 
 12155      00
 12156              	.LASF258:
 12157 104f 63616C65 		.ascii	"calendar\000"
 12157      6E646172 
 12157      00
 12158              	.LASF99:
 12159 1058 62617365 		.ascii	"base_dir\000"
 12159      5F646972 
 12159      00
 12160              	.LASF183:
 12161 1061 4C565F50 		.ascii	"LV_PROTECT_CHILD_CHG\000"
 12161      524F5445 
 12161      43545F43 
 12161      48494C44 
 12161      5F434847 
 12162              	.LASF187:
 12163 1076 4C565F50 		.ascii	"LV_PROTECT_PRESS_LOST\000"
 12163      524F5445 
 12163      43545F50 
 12163      52455353 
 12163      5F4C4F53 
 12164              	.LASF23:
 12165 108c 626F785F 		.ascii	"box_h\000"
 12165      6800
 12166              	.LASF359:
 12167 1092 6C765F6F 		.ascii	"lv_obj_set_click\000"
 12167      626A5F73 
 12167      65745F63 
 12167      6C69636B 
 12167      00
 12168              	.LASF208:
 12169 10a3 4C565F50 		.ascii	"LV_PAGE_STYLE_BG\000"
 12169      4147455F 
 12169      5354594C 
 12169      455F4247 
 12169      00
 12170              	.LASF173:
 12171 10b4 62617365 		.ascii	"base\000"
 12171      00
 12172              	.LASF22:
 12173 10b9 626F785F 		.ascii	"box_w\000"
 12173      7700
 12174              	.LASF5:
 12175 10bf 73686F72 		.ascii	"short int\000"
 12175      7420696E 
 12175      7400
 12176              	.LASF275:
 12177 10c9 6C765F77 		.ascii	"lv_win_get_from_btn\000"
 12177      696E5F67 
 12177      65745F66 
 12177      726F6D5F 
 12177      62746E00 
 12178              	.LASF30:
 12179 10dd 62617365 		.ascii	"base_line\000"
 12179      5F6C696E 
ARM GAS  C:\Users\pearlstl\AppData\Local\Temp\ccI2fBBa.s 			page 253


 12179      6500
 12180              	.LASF80:
 12181 10e7 6C765F6C 		.ascii	"lv_ll_t\000"
 12181      6C5F7400 
 12182              	.LASF339:
 12183 10ef 6C765F62 		.ascii	"lv_btn_create\000"
 12183      746E5F63 
 12183      72656174 
 12183      6500
 12184              	.LASF378:
 12185 10fd 6C765F77 		.ascii	"lv_win_set_style\000"
 12185      696E5F73 
 12185      65745F73 
 12185      74796C65 
 12185      00
 12186              	.LASF162:
 12187 110e 4C565F41 		.ascii	"LV_ALIGN_OUT_TOP_RIGHT\000"
 12187      4C49474E 
 12187      5F4F5554 
 12187      5F544F50 
 12187      5F524947 
 12188              	.LASF377:
 12189 1125 6C765F77 		.ascii	"lv_win_signal\000"
 12189      696E5F73 
 12189      69676E61 
 12189      6C00
 12190              	.LASF16:
 12191 1133 696E7431 		.ascii	"int16_t\000"
 12191      365F7400 
 12192              	.LASF374:
 12193 113b 433A5C55 		.ascii	"C:\\Users\\pearlstl\\Documents\\_Research\\projects"
 12193      73657273 
 12193      5C706561 
 12193      726C7374 
 12193      6C5C446F 
 12194 1169 5C74636F 		.ascii	"\\tcom_engineering\\embed_sw\\tcom_app\\tcom_app_ps"
 12194      6D5F656E 
 12194      67696E65 
 12194      6572696E 
 12194      675C656D 
 12195 1198 6F63365F 		.ascii	"oc6_lvgl6\\tcom_displ_test_psoc6.cydsn\000"
 12195      6C76676C 
 12195      365C7463 
 12195      6F6D5F64 
 12195      6973706C 
 12196              	.LASF131:
 12197 11be 4C565F53 		.ascii	"LV_SIGNAL_CORD_CHG\000"
 12197      49474E41 
 12197      4C5F434F 
 12197      52445F43 
 12197      484700
 12198              	.LASF85:
 12199 11d1 636F6F72 		.ascii	"coords\000"
 12199      647300
 12200              	.LASF297:
 12201 11d8 6C765F77 		.ascii	"lv_win_set_btn_size\000"
 12201      696E5F73 
ARM GAS  C:\Users\pearlstl\AppData\Local\Temp\ccI2fBBa.s 			page 254


 12201      65745F62 
 12201      746E5F73 
 12201      697A6500 
 12202              	.LASF261:
 12203 11ec 7370696E 		.ascii	"spinbox\000"
 12203      626F7800 
 12204              	.LASF223:
 12205 11f4 4C565F57 		.ascii	"LV_WIN_STYLE_BTN_REL\000"
 12205      494E5F53 
 12205      54594C45 
 12205      5F42544E 
 12205      5F52454C 
 12206              	.LASF317:
 12207 1209 6C765F73 		.ascii	"lv_style_transp\000"
 12207      74796C65 
 12207      5F747261 
 12207      6E737000 
 12208              	.LASF96:
 12209 1219 6F70615F 		.ascii	"opa_scale_en\000"
 12209      7363616C 
 12209      655F656E 
 12209      00
 12210              	.LASF238:
 12211 1226 6461795F 		.ascii	"day_names\000"
 12211      6E616D65 
 12211      7300
 12212              	.LASF371:
 12213 1230 6C765F70 		.ascii	"lv_page_focus\000"
 12213      6167655F 
 12213      666F6375 
 12213      7300
 12214              	.LASF58:
 12215 123e 73686164 		.ascii	"shadow\000"
 12215      6F7700
 12216              	.LASF120:
 12217 1245 4C565F45 		.ascii	"LV_EVENT_DEFOCUSED\000"
 12217      56454E54 
 12217      5F444546 
 12217      4F435553 
 12217      454400
 12218              	.LASF346:
 12219 1258 6C765F6F 		.ascii	"lv_obj_get_width_fit\000"
 12219      626A5F67 
 12219      65745F77 
 12219      69647468 
 12219      5F666974 
 12220              	.LASF189:
 12221 126d 6C765F6C 		.ascii	"lv_layout_t\000"
 12221      61796F75 
 12221      745F7400 
 12222              	.LASF270:
 12223 1279 6C765F61 		.ascii	"lv_area_get_width\000"
 12223      7265615F 
 12223      6765745F 
 12223      77696474 
 12223      6800
 12224              	.LASF158:
ARM GAS  C:\Users\pearlstl\AppData\Local\Temp\ccI2fBBa.s 			page 255


 12225 128b 4C565F41 		.ascii	"LV_ALIGN_IN_LEFT_MID\000"
 12225      4C49474E 
 12225      5F494E5F 
 12225      4C454654 
 12225      5F4D4944 
 12226              	.LASF94:
 12227 12a0 64726167 		.ascii	"drag_parent\000"
 12227      5F706172 
 12227      656E7400 
 12228              	.LASF134:
 12229 12ac 4C565F53 		.ascii	"LV_SIGNAL_BASE_DIR_CHG\000"
 12229      49474E41 
 12229      4C5F4241 
 12229      53455F44 
 12229      49525F43 
 12230              	.LASF353:
 12231 12c3 6C765F64 		.ascii	"lv_disp_get_ver_res\000"
 12231      6973705F 
 12231      6765745F 
 12231      7665725F 
 12231      72657300 
 12232              	.LASF281:
 12233 12d7 62746E5F 		.ascii	"btn_prev\000"
 12233      70726576 
 12233      00
 12234              	.LASF161:
 12235 12e0 4C565F41 		.ascii	"LV_ALIGN_OUT_TOP_MID\000"
 12235      4C49474E 
 12235      5F4F5554 
 12235      5F544F50 
 12235      5F4D4944 
 12236              	.LASF344:
 12237 12f5 6C765F62 		.ascii	"lv_btn_set_style\000"
 12237      746E5F73 
 12237      65745F73 
 12237      74796C65 
 12237      00
 12238              	.LASF288:
 12239 1306 636F7079 		.ascii	"copy_ext\000"
 12239      5F657874 
 12239      00
 12240              	.LASF342:
 12241 130f 6C765F6F 		.ascii	"lv_obj_set_style\000"
 12241      626A5F73 
 12241      65745F73 
 12241      74796C65 
 12241      00
 12242              	.LASF248:
 12243 1320 636F6E74 		.ascii	"content\000"
 12243      656E7400 
 12244              	.LASF59:
 12245 1328 70616464 		.ascii	"padding\000"
 12245      696E6700 
 12246              	.LASF87:
 12247 1330 7369676E 		.ascii	"signal_cb\000"
 12247      616C5F63 
 12247      6200
ARM GAS  C:\Users\pearlstl\AppData\Local\Temp\ccI2fBBa.s 			page 256


 12248              	.LASF18:
 12249 133a 75696E74 		.ascii	"uint32_t\000"
 12249      33325F74 
 12249      00
 12250              	.LASF315:
 12251 1343 616E696D 		.ascii	"anim_en\000"
 12251      5F656E00 
 12252              	.LASF327:
 12253 134b 6C765F6F 		.ascii	"lv_obj_set_size\000"
 12253      626A5F73 
 12253      65745F73 
 12253      697A6500 
 12254              	.LASF203:
 12255 135b 4C565F53 		.ascii	"LV_SB_MODE_DRAG\000"
 12255      425F4D4F 
 12255      44455F44 
 12255      52414700 
 12256              	.LASF166:
 12257 136b 4C565F41 		.ascii	"LV_ALIGN_OUT_LEFT_TOP\000"
 12257      4C49474E 
 12257      5F4F5554 
 12257      5F4C4546 
 12257      545F544F 
 12258              	.LASF340:
 12259 1381 6C765F69 		.ascii	"lv_img_create\000"
 12259      6D675F63 
 12259      72656174 
 12259      6500
 12260              	.LASF305:
 12261 138f 6C765F77 		.ascii	"lv_win_set_drag\000"
 12261      696E5F73 
 12261      65745F64 
 12261      72616700 
 12262              	.LASF231:
 12263 139f 6461726B 		.ascii	"dark\000"
 12263      00
 12264              	.LASF34:
 12265 13a4 67726565 		.ascii	"green\000"
 12265      6E00
 12266              	.LASF32:
 12267 13aa 6C765F66 		.ascii	"lv_font_t\000"
 12267      6F6E745F 
 12267      7400
 12268              	.LASF100:
 12269 13b4 72657365 		.ascii	"reserved\000"
 12269      72766564 
 12269      00
 12270              	.LASF214:
 12271 13bd 7469746C 		.ascii	"title\000"
 12271      6500
 12272              	.LASF361:
 12273 13c3 6C765F6F 		.ascii	"lv_obj_del\000"
 12273      626A5F64 
 12273      656C00
 12274              	.LASF199:
 12275 13ce 4C565F42 		.ascii	"LV_BTN_STYLE_TGL_PR\000"
 12275      544E5F53 
ARM GAS  C:\Users\pearlstl\AppData\Local\Temp\ccI2fBBa.s 			page 257


 12275      54594C45 
 12275      5F54474C 
 12275      5F505200 
 12276              	.LASF7:
 12277 13e2 73686F72 		.ascii	"short unsigned int\000"
 12277      7420756E 
 12277      7369676E 
 12277      65642069 
 12277      6E7400
 12278              	.LASF207:
 12279 13f5 6C765F73 		.ascii	"lv_sb_mode_t\000"
 12279      625F6D6F 
 12279      64655F74 
 12279      00
 12280              	.LASF357:
 12281 1402 6C765F70 		.ascii	"lv_page_get_scrl\000"
 12281      6167655F 
 12281      6765745F 
 12281      7363726C 
 12281      00
 12282              	.LASF118:
 12283 1413 4C565F45 		.ascii	"LV_EVENT_KEY\000"
 12283      56454E54 
 12283      5F4B4559 
 12283      00
 12284              	.LASF19:
 12285 1420 6C765F63 		.ascii	"lv_coord_t\000"
 12285      6F6F7264 
 12285      5F7400
 12286              	.LASF109:
 12287 142b 4C565F45 		.ascii	"LV_EVENT_PRESS_LOST\000"
 12287      56454E54 
 12287      5F505245 
 12287      53535F4C 
 12287      4F535400 
 12288              	.LASF306:
 12289 143f 77696E5F 		.ascii	"win_header\000"
 12289      68656164 
 12289      657200
 12290              	.LASF57:
 12291 144a 626F7264 		.ascii	"border\000"
 12291      657200
 12292              	.LASF252:
 12293 1451 6C616265 		.ascii	"label\000"
 12293      6C00
 12294              	.LASF27:
 12295 1457 6765745F 		.ascii	"get_glyph_dsc\000"
 12295      676C7970 
 12295      685F6473 
 12295      6300
 12296              	.LASF253:
 12297 1465 736C6964 		.ascii	"slider\000"
 12297      657200
 12298              	.LASF300:
 12299 146c 6C765F77 		.ascii	"lv_win_set_layout\000"
 12299      696E5F73 
 12299      65745F6C 
ARM GAS  C:\Users\pearlstl\AppData\Local\Temp\ccI2fBBa.s 			page 258


 12299      61796F75 
 12299      7400
 12300              	.LASF44:
 12301 147e 6C765F62 		.ascii	"lv_border_part_t\000"
 12301      6F726465 
 12301      725F7061 
 12301      72745F74 
 12301      00
 12302              	.LASF274:
 12303 148f 6C765F77 		.ascii	"lv_win_get_content\000"
 12303      696E5F67 
 12303      65745F63 
 12303      6F6E7465 
 12303      6E7400
 12304              	.LASF290:
 12305 14a2 6C765F77 		.ascii	"lv_win_create\000"
 12305      696E5F63 
 12305      72656174 
 12305      6500
 12306              	.LASF318:
 12307 14b0 6C765F73 		.ascii	"lv_style_transp_fit\000"
 12307      74796C65 
 12307      5F747261 
 12307      6E73705F 
 12307      66697400 
 12308              	.LASF128:
 12309 14c4 6C765F65 		.ascii	"lv_event_cb_t\000"
 12309      76656E74 
 12309      5F63625F 
 12309      7400
 12310              	.LASF256:
 12311 14d2 7072656C 		.ascii	"preload\000"
 12311      6F616400 
 12312              	.LASF276:
 12313 14da 6374726C 		.ascii	"ctrl_btn\000"
 12313      5F62746E 
 12313      00
 12314              	.LASF178:
 12315 14e3 6F726967 		.ascii	"origo_align\000"
 12315      6F5F616C 
 12315      69676E00 
 12316              	.LASF198:
 12317 14ef 4C565F42 		.ascii	"LV_BTN_STYLE_TGL_REL\000"
 12317      544E5F53 
 12317      54594C45 
 12317      5F54474C 
 12317      5F52454C 
 12318              	.LASF234:
 12319 1504 6B6E6F62 		.ascii	"knob\000"
 12319      00
 12320              	.LASF60:
 12321 1509 73656C5F 		.ascii	"sel_color\000"
 12321      636F6C6F 
 12321      7200
 12322              	.LASF301:
 12323 1513 6C765F77 		.ascii	"lv_win_set_sb_mode\000"
 12323      696E5F73 
ARM GAS  C:\Users\pearlstl\AppData\Local\Temp\ccI2fBBa.s 			page 259


 12323      65745F73 
 12323      625F6D6F 
 12323      646500
 12324              	.LASF82:
 12325 1526 5F6C765F 		.ascii	"_lv_font_struct\000"
 12325      666F6E74 
 12325      5F737472 
 12325      75637400 
 12326              	.LASF48:
 12327 1536 70617274 		.ascii	"part\000"
 12327      00
 12328              	.LASF349:
 12329 153b 6C765F70 		.ascii	"lv_page_set_sb_mode\000"
 12329      6167655F 
 12329      7365745F 
 12329      73625F6D 
 12329      6F646500 
 12330              	.LASF77:
 12331 154f 6E5F7369 		.ascii	"n_size\000"
 12331      7A6500
 12332              	.LASF195:
 12333 1556 5F4C565F 		.ascii	"_LV_BTN_STATE_NUM\000"
 12333      42544E5F 
 12333      53544154 
 12333      455F4E55 
 12333      4D00
 12334              	.LASF246:
 12335 1568 63757273 		.ascii	"cursor\000"
 12335      6F7200
 12336              	.LASF114:
 12337 156f 4C565F45 		.ascii	"LV_EVENT_RELEASED\000"
 12337      56454E54 
 12337      5F52454C 
 12337      45415345 
 12337      4400
 12338              	.LASF106:
 12339 1581 6C765F64 		.ascii	"lv_design_cb_t\000"
 12339      65736967 
 12339      6E5F6362 
 12339      5F7400
 12340              	.LASF351:
 12341 1590 6C765F74 		.ascii	"lv_theme_get_current\000"
 12341      68656D65 
 12341      5F676574 
 12341      5F637572 
 12341      72656E74 
 12342              	.LASF102:
 12343 15a5 6F70615F 		.ascii	"opa_scale\000"
 12343      7363616C 
 12343      6500
 12344              	.LASF264:
 12345 15af 726F6C6C 		.ascii	"roller\000"
 12345      657200
 12346              		.ident	"GCC: (GNU Tools for ARM Embedded Processors) 5.4.1 20160609 (release) [ARM/embedded-5-bran
