ARM GAS  C:\Users\pearlstl\AppData\Local\Temp\ccI2fBBa.s 			page 1


   1              		.syntax unified
   2              		.cpu cortex-m4
   3              		.eabi_attribute 27, 1
   4              		.fpu fpv4-sp-d16
   5              		.eabi_attribute 20, 1
   6              		.eabi_attribute 21, 1
   7              		.eabi_attribute 23, 3
   8              		.eabi_attribute 24, 1
   9              		.eabi_attribute 25, 1
  10              		.eabi_attribute 26, 1
  11              		.eabi_attribute 30, 2
  12              		.eabi_attribute 34, 1
  13              		.eabi_attribute 18, 4
  14              		.thumb
  15              		.syntax unified
  16              		.file	"lv_win.c"
  17              		.text
  18              	.Ltext0:
  19              		.cfi_sections	.debug_frame
  20              		.section	.text.lv_win_realign,"ax",%progbits
  21              		.align	2
  22              		.thumb
  23              		.thumb_func
  24              		.type	lv_win_realign, %function
  25              	lv_win_realign:
  26              	.LFB91:
  27              		.file 1 "..\\..\\..\\lvgl\\version_6.1.2\\lvgl\\src\\lv_objx\\lv_win.c"
   1:..\..\..\lvgl\version_6.1.2\lvgl\src\lv_objx/lv_win.c **** /**
   2:..\..\..\lvgl\version_6.1.2\lvgl\src\lv_objx/lv_win.c ****  * @file lv_win.c
   3:..\..\..\lvgl\version_6.1.2\lvgl\src\lv_objx/lv_win.c ****  *
   4:..\..\..\lvgl\version_6.1.2\lvgl\src\lv_objx/lv_win.c ****  */
   5:..\..\..\lvgl\version_6.1.2\lvgl\src\lv_objx/lv_win.c **** 
   6:..\..\..\lvgl\version_6.1.2\lvgl\src\lv_objx/lv_win.c **** /*********************
   7:..\..\..\lvgl\version_6.1.2\lvgl\src\lv_objx/lv_win.c ****  *      INCLUDES
   8:..\..\..\lvgl\version_6.1.2\lvgl\src\lv_objx/lv_win.c ****  *********************/
   9:..\..\..\lvgl\version_6.1.2\lvgl\src\lv_objx/lv_win.c **** #include "lv_win.h"
  10:..\..\..\lvgl\version_6.1.2\lvgl\src\lv_objx/lv_win.c **** #if LV_USE_WIN != 0
  11:..\..\..\lvgl\version_6.1.2\lvgl\src\lv_objx/lv_win.c **** 
  12:..\..\..\lvgl\version_6.1.2\lvgl\src\lv_objx/lv_win.c **** #include "../lv_core/lv_debug.h"
  13:..\..\..\lvgl\version_6.1.2\lvgl\src\lv_objx/lv_win.c **** #include "../lv_themes/lv_theme.h"
  14:..\..\..\lvgl\version_6.1.2\lvgl\src\lv_objx/lv_win.c **** #include "../lv_core/lv_disp.h"
  15:..\..\..\lvgl\version_6.1.2\lvgl\src\lv_objx/lv_win.c **** 
  16:..\..\..\lvgl\version_6.1.2\lvgl\src\lv_objx/lv_win.c **** /*********************
  17:..\..\..\lvgl\version_6.1.2\lvgl\src\lv_objx/lv_win.c ****  *      DEFINES
  18:..\..\..\lvgl\version_6.1.2\lvgl\src\lv_objx/lv_win.c ****  *********************/
  19:..\..\..\lvgl\version_6.1.2\lvgl\src\lv_objx/lv_win.c **** #define LV_OBJX_NAME "lv_win"
  20:..\..\..\lvgl\version_6.1.2\lvgl\src\lv_objx/lv_win.c **** 
  21:..\..\..\lvgl\version_6.1.2\lvgl\src\lv_objx/lv_win.c **** /**********************
  22:..\..\..\lvgl\version_6.1.2\lvgl\src\lv_objx/lv_win.c ****  *      TYPEDEFS
  23:..\..\..\lvgl\version_6.1.2\lvgl\src\lv_objx/lv_win.c ****  **********************/
  24:..\..\..\lvgl\version_6.1.2\lvgl\src\lv_objx/lv_win.c **** 
  25:..\..\..\lvgl\version_6.1.2\lvgl\src\lv_objx/lv_win.c **** /**********************
  26:..\..\..\lvgl\version_6.1.2\lvgl\src\lv_objx/lv_win.c ****  *  STATIC PROTOTYPES
  27:..\..\..\lvgl\version_6.1.2\lvgl\src\lv_objx/lv_win.c ****  **********************/
  28:..\..\..\lvgl\version_6.1.2\lvgl\src\lv_objx/lv_win.c **** static lv_res_t lv_win_signal(lv_obj_t * win, lv_signal_t sign, void * param);
  29:..\..\..\lvgl\version_6.1.2\lvgl\src\lv_objx/lv_win.c **** static void lv_win_realign(lv_obj_t * win);
  30:..\..\..\lvgl\version_6.1.2\lvgl\src\lv_objx/lv_win.c **** 
ARM GAS  C:\Users\pearlstl\AppData\Local\Temp\ccI2fBBa.s 			page 2


  31:..\..\..\lvgl\version_6.1.2\lvgl\src\lv_objx/lv_win.c **** /**********************
  32:..\..\..\lvgl\version_6.1.2\lvgl\src\lv_objx/lv_win.c ****  *  STATIC VARIABLES
  33:..\..\..\lvgl\version_6.1.2\lvgl\src\lv_objx/lv_win.c ****  **********************/
  34:..\..\..\lvgl\version_6.1.2\lvgl\src\lv_objx/lv_win.c **** static lv_signal_cb_t ancestor_signal;
  35:..\..\..\lvgl\version_6.1.2\lvgl\src\lv_objx/lv_win.c **** 
  36:..\..\..\lvgl\version_6.1.2\lvgl\src\lv_objx/lv_win.c **** /**********************
  37:..\..\..\lvgl\version_6.1.2\lvgl\src\lv_objx/lv_win.c ****  *      MACROS
  38:..\..\..\lvgl\version_6.1.2\lvgl\src\lv_objx/lv_win.c ****  **********************/
  39:..\..\..\lvgl\version_6.1.2\lvgl\src\lv_objx/lv_win.c **** 
  40:..\..\..\lvgl\version_6.1.2\lvgl\src\lv_objx/lv_win.c **** /**********************
  41:..\..\..\lvgl\version_6.1.2\lvgl\src\lv_objx/lv_win.c ****  *   GLOBAL FUNCTIONS
  42:..\..\..\lvgl\version_6.1.2\lvgl\src\lv_objx/lv_win.c ****  **********************/
  43:..\..\..\lvgl\version_6.1.2\lvgl\src\lv_objx/lv_win.c **** 
  44:..\..\..\lvgl\version_6.1.2\lvgl\src\lv_objx/lv_win.c **** /**
  45:..\..\..\lvgl\version_6.1.2\lvgl\src\lv_objx/lv_win.c ****  * Create a window objects
  46:..\..\..\lvgl\version_6.1.2\lvgl\src\lv_objx/lv_win.c ****  * @param par pointer to an object, it will be the parent of the new window
  47:..\..\..\lvgl\version_6.1.2\lvgl\src\lv_objx/lv_win.c ****  * @param copy pointer to a window object, if not NULL then the new object will be copied from it
  48:..\..\..\lvgl\version_6.1.2\lvgl\src\lv_objx/lv_win.c ****  * @return pointer to the created window
  49:..\..\..\lvgl\version_6.1.2\lvgl\src\lv_objx/lv_win.c ****  */
  50:..\..\..\lvgl\version_6.1.2\lvgl\src\lv_objx/lv_win.c **** lv_obj_t * lv_win_create(lv_obj_t * par, const lv_obj_t * copy)
  51:..\..\..\lvgl\version_6.1.2\lvgl\src\lv_objx/lv_win.c **** {
  52:..\..\..\lvgl\version_6.1.2\lvgl\src\lv_objx/lv_win.c ****     LV_LOG_TRACE("window create started");
  53:..\..\..\lvgl\version_6.1.2\lvgl\src\lv_objx/lv_win.c **** 
  54:..\..\..\lvgl\version_6.1.2\lvgl\src\lv_objx/lv_win.c ****     /*Create the ancestor object*/
  55:..\..\..\lvgl\version_6.1.2\lvgl\src\lv_objx/lv_win.c ****     lv_obj_t * new_win = lv_obj_create(par, copy);
  56:..\..\..\lvgl\version_6.1.2\lvgl\src\lv_objx/lv_win.c ****     LV_ASSERT_MEM(new_win);
  57:..\..\..\lvgl\version_6.1.2\lvgl\src\lv_objx/lv_win.c ****     if(new_win == NULL) return NULL;
  58:..\..\..\lvgl\version_6.1.2\lvgl\src\lv_objx/lv_win.c **** 
  59:..\..\..\lvgl\version_6.1.2\lvgl\src\lv_objx/lv_win.c ****     if(ancestor_signal == NULL) ancestor_signal = lv_obj_get_signal_cb(new_win);
  60:..\..\..\lvgl\version_6.1.2\lvgl\src\lv_objx/lv_win.c **** 
  61:..\..\..\lvgl\version_6.1.2\lvgl\src\lv_objx/lv_win.c ****     /*Allocate the object type specific extended data*/
  62:..\..\..\lvgl\version_6.1.2\lvgl\src\lv_objx/lv_win.c ****     lv_win_ext_t * ext = lv_obj_allocate_ext_attr(new_win, sizeof(lv_win_ext_t));
  63:..\..\..\lvgl\version_6.1.2\lvgl\src\lv_objx/lv_win.c ****     LV_ASSERT_MEM(ext);
  64:..\..\..\lvgl\version_6.1.2\lvgl\src\lv_objx/lv_win.c ****     if(ext == NULL) return NULL;
  65:..\..\..\lvgl\version_6.1.2\lvgl\src\lv_objx/lv_win.c **** 
  66:..\..\..\lvgl\version_6.1.2\lvgl\src\lv_objx/lv_win.c ****     ext->page          = NULL;
  67:..\..\..\lvgl\version_6.1.2\lvgl\src\lv_objx/lv_win.c ****     ext->header        = NULL;
  68:..\..\..\lvgl\version_6.1.2\lvgl\src\lv_objx/lv_win.c ****     ext->title         = NULL;
  69:..\..\..\lvgl\version_6.1.2\lvgl\src\lv_objx/lv_win.c ****     ext->style_btn_rel = &lv_style_btn_rel;
  70:..\..\..\lvgl\version_6.1.2\lvgl\src\lv_objx/lv_win.c ****     ext->style_btn_pr  = &lv_style_btn_pr;
  71:..\..\..\lvgl\version_6.1.2\lvgl\src\lv_objx/lv_win.c ****     ext->btn_size      = (LV_DPI) / 2;
  72:..\..\..\lvgl\version_6.1.2\lvgl\src\lv_objx/lv_win.c **** 
  73:..\..\..\lvgl\version_6.1.2\lvgl\src\lv_objx/lv_win.c ****     /*Init the new window object*/
  74:..\..\..\lvgl\version_6.1.2\lvgl\src\lv_objx/lv_win.c ****     if(copy == NULL) {
  75:..\..\..\lvgl\version_6.1.2\lvgl\src\lv_objx/lv_win.c ****         /* Set a size which fits into the parent.
  76:..\..\..\lvgl\version_6.1.2\lvgl\src\lv_objx/lv_win.c ****          * Don't use `par` directly because if the window is created on a page it is moved to the
  77:..\..\..\lvgl\version_6.1.2\lvgl\src\lv_objx/lv_win.c ****          * scrollable so the parent has changed */
  78:..\..\..\lvgl\version_6.1.2\lvgl\src\lv_objx/lv_win.c ****         lv_coord_t w;
  79:..\..\..\lvgl\version_6.1.2\lvgl\src\lv_objx/lv_win.c ****         lv_coord_t h;
  80:..\..\..\lvgl\version_6.1.2\lvgl\src\lv_objx/lv_win.c ****         if(par) {
  81:..\..\..\lvgl\version_6.1.2\lvgl\src\lv_objx/lv_win.c ****             w = lv_obj_get_width_fit(lv_obj_get_parent(new_win));
  82:..\..\..\lvgl\version_6.1.2\lvgl\src\lv_objx/lv_win.c ****             h = lv_obj_get_height_fit(lv_obj_get_parent(new_win));
  83:..\..\..\lvgl\version_6.1.2\lvgl\src\lv_objx/lv_win.c ****         } else {
  84:..\..\..\lvgl\version_6.1.2\lvgl\src\lv_objx/lv_win.c ****             w = lv_disp_get_hor_res(NULL);
  85:..\..\..\lvgl\version_6.1.2\lvgl\src\lv_objx/lv_win.c ****             h = lv_disp_get_ver_res(NULL);
  86:..\..\..\lvgl\version_6.1.2\lvgl\src\lv_objx/lv_win.c ****         }
  87:..\..\..\lvgl\version_6.1.2\lvgl\src\lv_objx/lv_win.c **** 
ARM GAS  C:\Users\pearlstl\AppData\Local\Temp\ccI2fBBa.s 			page 3


  88:..\..\..\lvgl\version_6.1.2\lvgl\src\lv_objx/lv_win.c ****         lv_obj_set_size(new_win, w, h);
  89:..\..\..\lvgl\version_6.1.2\lvgl\src\lv_objx/lv_win.c **** 
  90:..\..\..\lvgl\version_6.1.2\lvgl\src\lv_objx/lv_win.c ****         lv_obj_set_style(new_win, &lv_style_pretty);
  91:..\..\..\lvgl\version_6.1.2\lvgl\src\lv_objx/lv_win.c **** 
  92:..\..\..\lvgl\version_6.1.2\lvgl\src\lv_objx/lv_win.c ****         ext->page = lv_page_create(new_win, NULL);
  93:..\..\..\lvgl\version_6.1.2\lvgl\src\lv_objx/lv_win.c ****         lv_obj_set_protect(ext->page, LV_PROTECT_PARENT);
  94:..\..\..\lvgl\version_6.1.2\lvgl\src\lv_objx/lv_win.c ****         lv_page_set_sb_mode(ext->page, LV_SB_MODE_AUTO);
  95:..\..\..\lvgl\version_6.1.2\lvgl\src\lv_objx/lv_win.c ****         lv_page_set_style(ext->page, LV_PAGE_STYLE_BG, &lv_style_transp_fit);
  96:..\..\..\lvgl\version_6.1.2\lvgl\src\lv_objx/lv_win.c **** 
  97:..\..\..\lvgl\version_6.1.2\lvgl\src\lv_objx/lv_win.c ****         /*Create a holder for the header*/
  98:..\..\..\lvgl\version_6.1.2\lvgl\src\lv_objx/lv_win.c ****         ext->header = lv_obj_create(new_win, NULL);
  99:..\..\..\lvgl\version_6.1.2\lvgl\src\lv_objx/lv_win.c ****         /*Move back the header because it is automatically moved to the scrollable */
 100:..\..\..\lvgl\version_6.1.2\lvgl\src\lv_objx/lv_win.c ****         lv_obj_set_protect(ext->header, LV_PROTECT_PARENT);
 101:..\..\..\lvgl\version_6.1.2\lvgl\src\lv_objx/lv_win.c ****         lv_obj_set_parent(ext->header, new_win);
 102:..\..\..\lvgl\version_6.1.2\lvgl\src\lv_objx/lv_win.c **** 
 103:..\..\..\lvgl\version_6.1.2\lvgl\src\lv_objx/lv_win.c ****         /*Create a title on the header*/
 104:..\..\..\lvgl\version_6.1.2\lvgl\src\lv_objx/lv_win.c ****         ext->title = lv_label_create(ext->header, NULL);
 105:..\..\..\lvgl\version_6.1.2\lvgl\src\lv_objx/lv_win.c ****         lv_label_set_text(ext->title, "My title");
 106:..\..\..\lvgl\version_6.1.2\lvgl\src\lv_objx/lv_win.c **** 
 107:..\..\..\lvgl\version_6.1.2\lvgl\src\lv_objx/lv_win.c ****         lv_obj_set_signal_cb(new_win, lv_win_signal);
 108:..\..\..\lvgl\version_6.1.2\lvgl\src\lv_objx/lv_win.c **** 
 109:..\..\..\lvgl\version_6.1.2\lvgl\src\lv_objx/lv_win.c ****         /*Set the default styles*/
 110:..\..\..\lvgl\version_6.1.2\lvgl\src\lv_objx/lv_win.c ****         lv_theme_t * th = lv_theme_get_current();
 111:..\..\..\lvgl\version_6.1.2\lvgl\src\lv_objx/lv_win.c ****         if(th) {
 112:..\..\..\lvgl\version_6.1.2\lvgl\src\lv_objx/lv_win.c ****             lv_win_set_style(new_win, LV_WIN_STYLE_BG, th->style.win.bg);
 113:..\..\..\lvgl\version_6.1.2\lvgl\src\lv_objx/lv_win.c ****             lv_win_set_style(new_win, LV_WIN_STYLE_SB, th->style.win.sb);
 114:..\..\..\lvgl\version_6.1.2\lvgl\src\lv_objx/lv_win.c ****             lv_win_set_style(new_win, LV_WIN_STYLE_HEADER, th->style.win.header);
 115:..\..\..\lvgl\version_6.1.2\lvgl\src\lv_objx/lv_win.c ****             lv_win_set_style(new_win, LV_WIN_STYLE_CONTENT, th->style.win.content);
 116:..\..\..\lvgl\version_6.1.2\lvgl\src\lv_objx/lv_win.c ****             lv_win_set_style(new_win, LV_WIN_STYLE_BTN_REL, th->style.win.btn.rel);
 117:..\..\..\lvgl\version_6.1.2\lvgl\src\lv_objx/lv_win.c ****             lv_win_set_style(new_win, LV_WIN_STYLE_BTN_PR, th->style.win.btn.pr);
 118:..\..\..\lvgl\version_6.1.2\lvgl\src\lv_objx/lv_win.c ****         } else {
 119:..\..\..\lvgl\version_6.1.2\lvgl\src\lv_objx/lv_win.c ****             lv_win_set_style(new_win, LV_WIN_STYLE_BG, &lv_style_plain);
 120:..\..\..\lvgl\version_6.1.2\lvgl\src\lv_objx/lv_win.c ****             lv_win_set_style(new_win, LV_WIN_STYLE_CONTENT, &lv_style_transp);
 121:..\..\..\lvgl\version_6.1.2\lvgl\src\lv_objx/lv_win.c ****             lv_win_set_style(new_win, LV_WIN_STYLE_HEADER, &lv_style_plain_color);
 122:..\..\..\lvgl\version_6.1.2\lvgl\src\lv_objx/lv_win.c ****         }
 123:..\..\..\lvgl\version_6.1.2\lvgl\src\lv_objx/lv_win.c ****     }
 124:..\..\..\lvgl\version_6.1.2\lvgl\src\lv_objx/lv_win.c ****     /*Copy an existing object*/
 125:..\..\..\lvgl\version_6.1.2\lvgl\src\lv_objx/lv_win.c ****     else {
 126:..\..\..\lvgl\version_6.1.2\lvgl\src\lv_objx/lv_win.c ****         lv_win_ext_t * copy_ext = lv_obj_get_ext_attr(copy);
 127:..\..\..\lvgl\version_6.1.2\lvgl\src\lv_objx/lv_win.c ****         /*Create the objects*/
 128:..\..\..\lvgl\version_6.1.2\lvgl\src\lv_objx/lv_win.c ****         ext->header   = lv_obj_create(new_win, copy_ext->header);
 129:..\..\..\lvgl\version_6.1.2\lvgl\src\lv_objx/lv_win.c ****         ext->title    = lv_label_create(ext->header, copy_ext->title);
 130:..\..\..\lvgl\version_6.1.2\lvgl\src\lv_objx/lv_win.c ****         ext->page     = lv_page_create(new_win, copy_ext->page);
 131:..\..\..\lvgl\version_6.1.2\lvgl\src\lv_objx/lv_win.c ****         ext->btn_size = copy_ext->btn_size;
 132:..\..\..\lvgl\version_6.1.2\lvgl\src\lv_objx/lv_win.c **** 
 133:..\..\..\lvgl\version_6.1.2\lvgl\src\lv_objx/lv_win.c ****         /*Copy the control buttons*/
 134:..\..\..\lvgl\version_6.1.2\lvgl\src\lv_objx/lv_win.c ****         lv_obj_t * child;
 135:..\..\..\lvgl\version_6.1.2\lvgl\src\lv_objx/lv_win.c ****         lv_obj_t * cbtn;
 136:..\..\..\lvgl\version_6.1.2\lvgl\src\lv_objx/lv_win.c ****         child = lv_obj_get_child_back(copy_ext->header, NULL);
 137:..\..\..\lvgl\version_6.1.2\lvgl\src\lv_objx/lv_win.c ****         child = lv_obj_get_child_back(copy_ext->header, child); /*Sip the title*/
 138:..\..\..\lvgl\version_6.1.2\lvgl\src\lv_objx/lv_win.c ****         while(child != NULL) {
 139:..\..\..\lvgl\version_6.1.2\lvgl\src\lv_objx/lv_win.c ****             cbtn = lv_btn_create(ext->header, child);
 140:..\..\..\lvgl\version_6.1.2\lvgl\src\lv_objx/lv_win.c ****             lv_img_create(cbtn, lv_obj_get_child(child, NULL));
 141:..\..\..\lvgl\version_6.1.2\lvgl\src\lv_objx/lv_win.c ****             child = lv_obj_get_child_back(copy_ext->header, child);
 142:..\..\..\lvgl\version_6.1.2\lvgl\src\lv_objx/lv_win.c ****         }
 143:..\..\..\lvgl\version_6.1.2\lvgl\src\lv_objx/lv_win.c **** 
 144:..\..\..\lvgl\version_6.1.2\lvgl\src\lv_objx/lv_win.c ****         lv_obj_set_signal_cb(new_win, lv_win_signal);
ARM GAS  C:\Users\pearlstl\AppData\Local\Temp\ccI2fBBa.s 			page 4


 145:..\..\..\lvgl\version_6.1.2\lvgl\src\lv_objx/lv_win.c ****     }
 146:..\..\..\lvgl\version_6.1.2\lvgl\src\lv_objx/lv_win.c **** 
 147:..\..\..\lvgl\version_6.1.2\lvgl\src\lv_objx/lv_win.c ****     /*Refresh the style with new signal function*/
 148:..\..\..\lvgl\version_6.1.2\lvgl\src\lv_objx/lv_win.c ****     lv_obj_refresh_style(new_win);
 149:..\..\..\lvgl\version_6.1.2\lvgl\src\lv_objx/lv_win.c **** 
 150:..\..\..\lvgl\version_6.1.2\lvgl\src\lv_objx/lv_win.c ****     lv_win_realign(new_win);
 151:..\..\..\lvgl\version_6.1.2\lvgl\src\lv_objx/lv_win.c **** 
 152:..\..\..\lvgl\version_6.1.2\lvgl\src\lv_objx/lv_win.c ****     LV_LOG_INFO("window created");
 153:..\..\..\lvgl\version_6.1.2\lvgl\src\lv_objx/lv_win.c **** 
 154:..\..\..\lvgl\version_6.1.2\lvgl\src\lv_objx/lv_win.c ****     return new_win;
 155:..\..\..\lvgl\version_6.1.2\lvgl\src\lv_objx/lv_win.c **** }
 156:..\..\..\lvgl\version_6.1.2\lvgl\src\lv_objx/lv_win.c **** 
 157:..\..\..\lvgl\version_6.1.2\lvgl\src\lv_objx/lv_win.c **** /**
 158:..\..\..\lvgl\version_6.1.2\lvgl\src\lv_objx/lv_win.c ****  * Delete all children of the scrl object, without deleting scrl child.
 159:..\..\..\lvgl\version_6.1.2\lvgl\src\lv_objx/lv_win.c ****  * @param win pointer to an object
 160:..\..\..\lvgl\version_6.1.2\lvgl\src\lv_objx/lv_win.c ****  */
 161:..\..\..\lvgl\version_6.1.2\lvgl\src\lv_objx/lv_win.c **** void lv_win_clean(lv_obj_t * win)
 162:..\..\..\lvgl\version_6.1.2\lvgl\src\lv_objx/lv_win.c **** {
 163:..\..\..\lvgl\version_6.1.2\lvgl\src\lv_objx/lv_win.c ****     LV_ASSERT_OBJ(win, LV_OBJX_NAME);
 164:..\..\..\lvgl\version_6.1.2\lvgl\src\lv_objx/lv_win.c **** 
 165:..\..\..\lvgl\version_6.1.2\lvgl\src\lv_objx/lv_win.c ****     lv_obj_t * scrl = lv_page_get_scrl(win);
 166:..\..\..\lvgl\version_6.1.2\lvgl\src\lv_objx/lv_win.c ****     lv_obj_clean(scrl);
 167:..\..\..\lvgl\version_6.1.2\lvgl\src\lv_objx/lv_win.c **** }
 168:..\..\..\lvgl\version_6.1.2\lvgl\src\lv_objx/lv_win.c **** 
 169:..\..\..\lvgl\version_6.1.2\lvgl\src\lv_objx/lv_win.c **** /*======================
 170:..\..\..\lvgl\version_6.1.2\lvgl\src\lv_objx/lv_win.c ****  * Add/remove functions
 171:..\..\..\lvgl\version_6.1.2\lvgl\src\lv_objx/lv_win.c ****  *=====================*/
 172:..\..\..\lvgl\version_6.1.2\lvgl\src\lv_objx/lv_win.c **** 
 173:..\..\..\lvgl\version_6.1.2\lvgl\src\lv_objx/lv_win.c **** /**
 174:..\..\..\lvgl\version_6.1.2\lvgl\src\lv_objx/lv_win.c ****  * Add control button to the header of the window
 175:..\..\..\lvgl\version_6.1.2\lvgl\src\lv_objx/lv_win.c ****  * @param win pointer to a window object
 176:..\..\..\lvgl\version_6.1.2\lvgl\src\lv_objx/lv_win.c ****  * @param img_src an image source ('lv_img_t' variable, path to file or a symbol)
 177:..\..\..\lvgl\version_6.1.2\lvgl\src\lv_objx/lv_win.c ****  * @return pointer to the created button object
 178:..\..\..\lvgl\version_6.1.2\lvgl\src\lv_objx/lv_win.c ****  */
 179:..\..\..\lvgl\version_6.1.2\lvgl\src\lv_objx/lv_win.c **** lv_obj_t * lv_win_add_btn(lv_obj_t * win, const void * img_src)
 180:..\..\..\lvgl\version_6.1.2\lvgl\src\lv_objx/lv_win.c **** {
 181:..\..\..\lvgl\version_6.1.2\lvgl\src\lv_objx/lv_win.c ****     LV_ASSERT_OBJ(win, LV_OBJX_NAME);
 182:..\..\..\lvgl\version_6.1.2\lvgl\src\lv_objx/lv_win.c ****     LV_ASSERT_NULL(img_src);
 183:..\..\..\lvgl\version_6.1.2\lvgl\src\lv_objx/lv_win.c **** 
 184:..\..\..\lvgl\version_6.1.2\lvgl\src\lv_objx/lv_win.c ****     lv_win_ext_t * ext = lv_obj_get_ext_attr(win);
 185:..\..\..\lvgl\version_6.1.2\lvgl\src\lv_objx/lv_win.c **** 
 186:..\..\..\lvgl\version_6.1.2\lvgl\src\lv_objx/lv_win.c ****     lv_obj_t * btn = lv_btn_create(ext->header, NULL);
 187:..\..\..\lvgl\version_6.1.2\lvgl\src\lv_objx/lv_win.c ****     lv_btn_set_style(btn, LV_BTN_STYLE_REL, ext->style_btn_rel);
 188:..\..\..\lvgl\version_6.1.2\lvgl\src\lv_objx/lv_win.c ****     lv_btn_set_style(btn, LV_BTN_STYLE_PR, ext->style_btn_pr);
 189:..\..\..\lvgl\version_6.1.2\lvgl\src\lv_objx/lv_win.c ****     lv_obj_set_size(btn, ext->btn_size, ext->btn_size);
 190:..\..\..\lvgl\version_6.1.2\lvgl\src\lv_objx/lv_win.c **** 
 191:..\..\..\lvgl\version_6.1.2\lvgl\src\lv_objx/lv_win.c ****     lv_obj_t * img = lv_img_create(btn, NULL);
 192:..\..\..\lvgl\version_6.1.2\lvgl\src\lv_objx/lv_win.c ****     lv_obj_set_click(img, false);
 193:..\..\..\lvgl\version_6.1.2\lvgl\src\lv_objx/lv_win.c ****     lv_img_set_src(img, img_src);
 194:..\..\..\lvgl\version_6.1.2\lvgl\src\lv_objx/lv_win.c **** 
 195:..\..\..\lvgl\version_6.1.2\lvgl\src\lv_objx/lv_win.c ****     lv_win_realign(win);
 196:..\..\..\lvgl\version_6.1.2\lvgl\src\lv_objx/lv_win.c **** 
 197:..\..\..\lvgl\version_6.1.2\lvgl\src\lv_objx/lv_win.c ****     return btn;
 198:..\..\..\lvgl\version_6.1.2\lvgl\src\lv_objx/lv_win.c **** }
 199:..\..\..\lvgl\version_6.1.2\lvgl\src\lv_objx/lv_win.c **** 
 200:..\..\..\lvgl\version_6.1.2\lvgl\src\lv_objx/lv_win.c **** /*=====================
 201:..\..\..\lvgl\version_6.1.2\lvgl\src\lv_objx/lv_win.c ****  * Setter functions
ARM GAS  C:\Users\pearlstl\AppData\Local\Temp\ccI2fBBa.s 			page 5


 202:..\..\..\lvgl\version_6.1.2\lvgl\src\lv_objx/lv_win.c ****  *====================*/
 203:..\..\..\lvgl\version_6.1.2\lvgl\src\lv_objx/lv_win.c **** 
 204:..\..\..\lvgl\version_6.1.2\lvgl\src\lv_objx/lv_win.c **** /**
 205:..\..\..\lvgl\version_6.1.2\lvgl\src\lv_objx/lv_win.c ****  * Can be assigned to a window control button to close the window
 206:..\..\..\lvgl\version_6.1.2\lvgl\src\lv_objx/lv_win.c ****  * @param btn pointer to the control button on teh widows header
 207:..\..\..\lvgl\version_6.1.2\lvgl\src\lv_objx/lv_win.c ****  * @param evet the event type
 208:..\..\..\lvgl\version_6.1.2\lvgl\src\lv_objx/lv_win.c ****  */
 209:..\..\..\lvgl\version_6.1.2\lvgl\src\lv_objx/lv_win.c **** void lv_win_close_event_cb(lv_obj_t * btn, lv_event_t event)
 210:..\..\..\lvgl\version_6.1.2\lvgl\src\lv_objx/lv_win.c **** {
 211:..\..\..\lvgl\version_6.1.2\lvgl\src\lv_objx/lv_win.c ****     LV_ASSERT_OBJ(btn, "lv_btn");
 212:..\..\..\lvgl\version_6.1.2\lvgl\src\lv_objx/lv_win.c **** 
 213:..\..\..\lvgl\version_6.1.2\lvgl\src\lv_objx/lv_win.c ****     if(event == LV_EVENT_RELEASED) {
 214:..\..\..\lvgl\version_6.1.2\lvgl\src\lv_objx/lv_win.c ****         lv_obj_t * win = lv_win_get_from_btn(btn);
 215:..\..\..\lvgl\version_6.1.2\lvgl\src\lv_objx/lv_win.c **** 
 216:..\..\..\lvgl\version_6.1.2\lvgl\src\lv_objx/lv_win.c ****         lv_obj_del(win);
 217:..\..\..\lvgl\version_6.1.2\lvgl\src\lv_objx/lv_win.c ****     }
 218:..\..\..\lvgl\version_6.1.2\lvgl\src\lv_objx/lv_win.c **** }
 219:..\..\..\lvgl\version_6.1.2\lvgl\src\lv_objx/lv_win.c **** 
 220:..\..\..\lvgl\version_6.1.2\lvgl\src\lv_objx/lv_win.c **** /**
 221:..\..\..\lvgl\version_6.1.2\lvgl\src\lv_objx/lv_win.c ****  * Set the title of a window
 222:..\..\..\lvgl\version_6.1.2\lvgl\src\lv_objx/lv_win.c ****  * @param win pointer to a window object
 223:..\..\..\lvgl\version_6.1.2\lvgl\src\lv_objx/lv_win.c ****  * @param title string of the new title
 224:..\..\..\lvgl\version_6.1.2\lvgl\src\lv_objx/lv_win.c ****  */
 225:..\..\..\lvgl\version_6.1.2\lvgl\src\lv_objx/lv_win.c **** void lv_win_set_title(lv_obj_t * win, const char * title)
 226:..\..\..\lvgl\version_6.1.2\lvgl\src\lv_objx/lv_win.c **** {
 227:..\..\..\lvgl\version_6.1.2\lvgl\src\lv_objx/lv_win.c ****     LV_ASSERT_OBJ(win, LV_OBJX_NAME);
 228:..\..\..\lvgl\version_6.1.2\lvgl\src\lv_objx/lv_win.c ****     LV_ASSERT_STR(title);
 229:..\..\..\lvgl\version_6.1.2\lvgl\src\lv_objx/lv_win.c **** 
 230:..\..\..\lvgl\version_6.1.2\lvgl\src\lv_objx/lv_win.c ****     lv_win_ext_t * ext = lv_obj_get_ext_attr(win);
 231:..\..\..\lvgl\version_6.1.2\lvgl\src\lv_objx/lv_win.c **** 
 232:..\..\..\lvgl\version_6.1.2\lvgl\src\lv_objx/lv_win.c ****     lv_label_set_text(ext->title, title);
 233:..\..\..\lvgl\version_6.1.2\lvgl\src\lv_objx/lv_win.c ****     lv_win_realign(win);
 234:..\..\..\lvgl\version_6.1.2\lvgl\src\lv_objx/lv_win.c **** }
 235:..\..\..\lvgl\version_6.1.2\lvgl\src\lv_objx/lv_win.c **** 
 236:..\..\..\lvgl\version_6.1.2\lvgl\src\lv_objx/lv_win.c **** /**
 237:..\..\..\lvgl\version_6.1.2\lvgl\src\lv_objx/lv_win.c ****  * Set the control button size of a window
 238:..\..\..\lvgl\version_6.1.2\lvgl\src\lv_objx/lv_win.c ****  * @param win pointer to a window object
 239:..\..\..\lvgl\version_6.1.2\lvgl\src\lv_objx/lv_win.c ****  * @param size control button size
 240:..\..\..\lvgl\version_6.1.2\lvgl\src\lv_objx/lv_win.c ****  */
 241:..\..\..\lvgl\version_6.1.2\lvgl\src\lv_objx/lv_win.c **** void lv_win_set_btn_size(lv_obj_t * win, lv_coord_t size)
 242:..\..\..\lvgl\version_6.1.2\lvgl\src\lv_objx/lv_win.c **** {
 243:..\..\..\lvgl\version_6.1.2\lvgl\src\lv_objx/lv_win.c ****     LV_ASSERT_OBJ(win, LV_OBJX_NAME);
 244:..\..\..\lvgl\version_6.1.2\lvgl\src\lv_objx/lv_win.c **** 
 245:..\..\..\lvgl\version_6.1.2\lvgl\src\lv_objx/lv_win.c ****     lv_win_ext_t * ext = lv_obj_get_ext_attr(win);
 246:..\..\..\lvgl\version_6.1.2\lvgl\src\lv_objx/lv_win.c ****     if(ext->btn_size == size) return;
 247:..\..\..\lvgl\version_6.1.2\lvgl\src\lv_objx/lv_win.c **** 
 248:..\..\..\lvgl\version_6.1.2\lvgl\src\lv_objx/lv_win.c ****     ext->btn_size = size;
 249:..\..\..\lvgl\version_6.1.2\lvgl\src\lv_objx/lv_win.c **** 
 250:..\..\..\lvgl\version_6.1.2\lvgl\src\lv_objx/lv_win.c ****     lv_win_realign(win);
 251:..\..\..\lvgl\version_6.1.2\lvgl\src\lv_objx/lv_win.c **** }
 252:..\..\..\lvgl\version_6.1.2\lvgl\src\lv_objx/lv_win.c **** 
 253:..\..\..\lvgl\version_6.1.2\lvgl\src\lv_objx/lv_win.c **** /**
 254:..\..\..\lvgl\version_6.1.2\lvgl\src\lv_objx/lv_win.c ****  * Set the size of the content area.
 255:..\..\..\lvgl\version_6.1.2\lvgl\src\lv_objx/lv_win.c ****  * @param win pointer to a window object
 256:..\..\..\lvgl\version_6.1.2\lvgl\src\lv_objx/lv_win.c ****  * @param w width
 257:..\..\..\lvgl\version_6.1.2\lvgl\src\lv_objx/lv_win.c ****  * @param h height (the window will be higher with the height of the header)
 258:..\..\..\lvgl\version_6.1.2\lvgl\src\lv_objx/lv_win.c ****  */
ARM GAS  C:\Users\pearlstl\AppData\Local\Temp\ccI2fBBa.s 			page 6


 259:..\..\..\lvgl\version_6.1.2\lvgl\src\lv_objx/lv_win.c **** void lv_win_set_content_size(lv_obj_t * win, lv_coord_t w, lv_coord_t h)
 260:..\..\..\lvgl\version_6.1.2\lvgl\src\lv_objx/lv_win.c **** {
 261:..\..\..\lvgl\version_6.1.2\lvgl\src\lv_objx/lv_win.c ****     LV_ASSERT_OBJ(win, LV_OBJX_NAME);
 262:..\..\..\lvgl\version_6.1.2\lvgl\src\lv_objx/lv_win.c **** 
 263:..\..\..\lvgl\version_6.1.2\lvgl\src\lv_objx/lv_win.c ****     lv_win_ext_t * ext = lv_obj_get_ext_attr(win);
 264:..\..\..\lvgl\version_6.1.2\lvgl\src\lv_objx/lv_win.c ****     h += lv_obj_get_height(ext->header);
 265:..\..\..\lvgl\version_6.1.2\lvgl\src\lv_objx/lv_win.c **** 
 266:..\..\..\lvgl\version_6.1.2\lvgl\src\lv_objx/lv_win.c ****     lv_obj_set_size(win, w, h);
 267:..\..\..\lvgl\version_6.1.2\lvgl\src\lv_objx/lv_win.c **** }
 268:..\..\..\lvgl\version_6.1.2\lvgl\src\lv_objx/lv_win.c **** 
 269:..\..\..\lvgl\version_6.1.2\lvgl\src\lv_objx/lv_win.c **** /**
 270:..\..\..\lvgl\version_6.1.2\lvgl\src\lv_objx/lv_win.c ****  * Set the layout of the window
 271:..\..\..\lvgl\version_6.1.2\lvgl\src\lv_objx/lv_win.c ****  * @param win pointer to a window object
 272:..\..\..\lvgl\version_6.1.2\lvgl\src\lv_objx/lv_win.c ****  * @param layout the layout from 'lv_layout_t'
 273:..\..\..\lvgl\version_6.1.2\lvgl\src\lv_objx/lv_win.c ****  */
 274:..\..\..\lvgl\version_6.1.2\lvgl\src\lv_objx/lv_win.c **** void lv_win_set_layout(lv_obj_t * win, lv_layout_t layout)
 275:..\..\..\lvgl\version_6.1.2\lvgl\src\lv_objx/lv_win.c **** {
 276:..\..\..\lvgl\version_6.1.2\lvgl\src\lv_objx/lv_win.c ****     LV_ASSERT_OBJ(win, LV_OBJX_NAME);
 277:..\..\..\lvgl\version_6.1.2\lvgl\src\lv_objx/lv_win.c **** 
 278:..\..\..\lvgl\version_6.1.2\lvgl\src\lv_objx/lv_win.c ****     lv_win_ext_t * ext = lv_obj_get_ext_attr(win);
 279:..\..\..\lvgl\version_6.1.2\lvgl\src\lv_objx/lv_win.c ****     lv_page_set_scrl_layout(ext->page, layout);
 280:..\..\..\lvgl\version_6.1.2\lvgl\src\lv_objx/lv_win.c **** }
 281:..\..\..\lvgl\version_6.1.2\lvgl\src\lv_objx/lv_win.c **** 
 282:..\..\..\lvgl\version_6.1.2\lvgl\src\lv_objx/lv_win.c **** /**
 283:..\..\..\lvgl\version_6.1.2\lvgl\src\lv_objx/lv_win.c ****  * Set the scroll bar mode of a window
 284:..\..\..\lvgl\version_6.1.2\lvgl\src\lv_objx/lv_win.c ****  * @param win pointer to a window object
 285:..\..\..\lvgl\version_6.1.2\lvgl\src\lv_objx/lv_win.c ****  * @param sb_mode the new scroll bar mode from  'lv_sb_mode_t'
 286:..\..\..\lvgl\version_6.1.2\lvgl\src\lv_objx/lv_win.c ****  */
 287:..\..\..\lvgl\version_6.1.2\lvgl\src\lv_objx/lv_win.c **** void lv_win_set_sb_mode(lv_obj_t * win, lv_sb_mode_t sb_mode)
 288:..\..\..\lvgl\version_6.1.2\lvgl\src\lv_objx/lv_win.c **** {
 289:..\..\..\lvgl\version_6.1.2\lvgl\src\lv_objx/lv_win.c ****     LV_ASSERT_OBJ(win, LV_OBJX_NAME);
 290:..\..\..\lvgl\version_6.1.2\lvgl\src\lv_objx/lv_win.c **** 
 291:..\..\..\lvgl\version_6.1.2\lvgl\src\lv_objx/lv_win.c ****     lv_win_ext_t * ext = lv_obj_get_ext_attr(win);
 292:..\..\..\lvgl\version_6.1.2\lvgl\src\lv_objx/lv_win.c ****     lv_page_set_sb_mode(ext->page, sb_mode);
 293:..\..\..\lvgl\version_6.1.2\lvgl\src\lv_objx/lv_win.c **** }
 294:..\..\..\lvgl\version_6.1.2\lvgl\src\lv_objx/lv_win.c **** /**
 295:..\..\..\lvgl\version_6.1.2\lvgl\src\lv_objx/lv_win.c ****  * Set focus animation duration on `lv_win_focus()`
 296:..\..\..\lvgl\version_6.1.2\lvgl\src\lv_objx/lv_win.c ****  * @param win pointer to a window object
 297:..\..\..\lvgl\version_6.1.2\lvgl\src\lv_objx/lv_win.c ****  * @param anim_time duration of animation [ms]
 298:..\..\..\lvgl\version_6.1.2\lvgl\src\lv_objx/lv_win.c ****  */
 299:..\..\..\lvgl\version_6.1.2\lvgl\src\lv_objx/lv_win.c **** void lv_win_set_anim_time(lv_obj_t * win, uint16_t anim_time)
 300:..\..\..\lvgl\version_6.1.2\lvgl\src\lv_objx/lv_win.c **** {
 301:..\..\..\lvgl\version_6.1.2\lvgl\src\lv_objx/lv_win.c ****     LV_ASSERT_OBJ(win, LV_OBJX_NAME);
 302:..\..\..\lvgl\version_6.1.2\lvgl\src\lv_objx/lv_win.c **** 
 303:..\..\..\lvgl\version_6.1.2\lvgl\src\lv_objx/lv_win.c ****     lv_page_set_anim_time(lv_win_get_content(win), anim_time);
 304:..\..\..\lvgl\version_6.1.2\lvgl\src\lv_objx/lv_win.c **** }
 305:..\..\..\lvgl\version_6.1.2\lvgl\src\lv_objx/lv_win.c **** 
 306:..\..\..\lvgl\version_6.1.2\lvgl\src\lv_objx/lv_win.c **** /**
 307:..\..\..\lvgl\version_6.1.2\lvgl\src\lv_objx/lv_win.c ****  * Set a style of a window
 308:..\..\..\lvgl\version_6.1.2\lvgl\src\lv_objx/lv_win.c ****  * @param win pointer to a window object
 309:..\..\..\lvgl\version_6.1.2\lvgl\src\lv_objx/lv_win.c ****  * @param type which style should be set
 310:..\..\..\lvgl\version_6.1.2\lvgl\src\lv_objx/lv_win.c ****  * @param style pointer to a style
 311:..\..\..\lvgl\version_6.1.2\lvgl\src\lv_objx/lv_win.c ****  */
 312:..\..\..\lvgl\version_6.1.2\lvgl\src\lv_objx/lv_win.c **** void lv_win_set_style(lv_obj_t * win, lv_win_style_t type, const lv_style_t * style)
 313:..\..\..\lvgl\version_6.1.2\lvgl\src\lv_objx/lv_win.c **** {
 314:..\..\..\lvgl\version_6.1.2\lvgl\src\lv_objx/lv_win.c ****     LV_ASSERT_OBJ(win, LV_OBJX_NAME);
 315:..\..\..\lvgl\version_6.1.2\lvgl\src\lv_objx/lv_win.c **** 
ARM GAS  C:\Users\pearlstl\AppData\Local\Temp\ccI2fBBa.s 			page 7


 316:..\..\..\lvgl\version_6.1.2\lvgl\src\lv_objx/lv_win.c ****     lv_win_ext_t * ext = lv_obj_get_ext_attr(win);
 317:..\..\..\lvgl\version_6.1.2\lvgl\src\lv_objx/lv_win.c **** 
 318:..\..\..\lvgl\version_6.1.2\lvgl\src\lv_objx/lv_win.c ****     switch(type) {
 319:..\..\..\lvgl\version_6.1.2\lvgl\src\lv_objx/lv_win.c ****         case LV_WIN_STYLE_BG:
 320:..\..\..\lvgl\version_6.1.2\lvgl\src\lv_objx/lv_win.c ****             lv_obj_set_style(win, style);
 321:..\..\..\lvgl\version_6.1.2\lvgl\src\lv_objx/lv_win.c ****             lv_win_realign(win);
 322:..\..\..\lvgl\version_6.1.2\lvgl\src\lv_objx/lv_win.c ****             break;
 323:..\..\..\lvgl\version_6.1.2\lvgl\src\lv_objx/lv_win.c ****         case LV_WIN_STYLE_CONTENT: lv_page_set_style(ext->page, LV_PAGE_STYLE_SCRL, style); break;
 324:..\..\..\lvgl\version_6.1.2\lvgl\src\lv_objx/lv_win.c ****         case LV_WIN_STYLE_SB: lv_page_set_style(ext->page, LV_PAGE_STYLE_SB, style); break;
 325:..\..\..\lvgl\version_6.1.2\lvgl\src\lv_objx/lv_win.c ****         case LV_WIN_STYLE_HEADER:
 326:..\..\..\lvgl\version_6.1.2\lvgl\src\lv_objx/lv_win.c ****             lv_obj_set_style(ext->header, style);
 327:..\..\..\lvgl\version_6.1.2\lvgl\src\lv_objx/lv_win.c ****             lv_win_realign(win);
 328:..\..\..\lvgl\version_6.1.2\lvgl\src\lv_objx/lv_win.c ****             break;
 329:..\..\..\lvgl\version_6.1.2\lvgl\src\lv_objx/lv_win.c ****         case LV_WIN_STYLE_BTN_REL: ext->style_btn_rel = style; break;
 330:..\..\..\lvgl\version_6.1.2\lvgl\src\lv_objx/lv_win.c ****         case LV_WIN_STYLE_BTN_PR: ext->style_btn_pr = style; break;
 331:..\..\..\lvgl\version_6.1.2\lvgl\src\lv_objx/lv_win.c ****     }
 332:..\..\..\lvgl\version_6.1.2\lvgl\src\lv_objx/lv_win.c **** 
 333:..\..\..\lvgl\version_6.1.2\lvgl\src\lv_objx/lv_win.c ****     /*Refresh the existing buttons*/
 334:..\..\..\lvgl\version_6.1.2\lvgl\src\lv_objx/lv_win.c ****     if(type == LV_WIN_STYLE_BTN_REL || type == LV_WIN_STYLE_BTN_PR) {
 335:..\..\..\lvgl\version_6.1.2\lvgl\src\lv_objx/lv_win.c ****         lv_obj_t * btn;
 336:..\..\..\lvgl\version_6.1.2\lvgl\src\lv_objx/lv_win.c ****         btn = lv_obj_get_child_back(ext->header, NULL);
 337:..\..\..\lvgl\version_6.1.2\lvgl\src\lv_objx/lv_win.c ****         btn = lv_obj_get_child_back(ext->header, btn); /*Skip the title*/
 338:..\..\..\lvgl\version_6.1.2\lvgl\src\lv_objx/lv_win.c ****         while(btn != NULL) {
 339:..\..\..\lvgl\version_6.1.2\lvgl\src\lv_objx/lv_win.c ****             if(type == LV_WIN_STYLE_BTN_REL)
 340:..\..\..\lvgl\version_6.1.2\lvgl\src\lv_objx/lv_win.c ****                 lv_btn_set_style(btn, LV_BTN_STYLE_REL, style);
 341:..\..\..\lvgl\version_6.1.2\lvgl\src\lv_objx/lv_win.c ****             else
 342:..\..\..\lvgl\version_6.1.2\lvgl\src\lv_objx/lv_win.c ****                 lv_btn_set_style(btn, LV_BTN_STYLE_PR, style);
 343:..\..\..\lvgl\version_6.1.2\lvgl\src\lv_objx/lv_win.c ****             btn = lv_obj_get_child_back(ext->header, btn);
 344:..\..\..\lvgl\version_6.1.2\lvgl\src\lv_objx/lv_win.c ****         }
 345:..\..\..\lvgl\version_6.1.2\lvgl\src\lv_objx/lv_win.c ****     }
 346:..\..\..\lvgl\version_6.1.2\lvgl\src\lv_objx/lv_win.c **** }
 347:..\..\..\lvgl\version_6.1.2\lvgl\src\lv_objx/lv_win.c **** 
 348:..\..\..\lvgl\version_6.1.2\lvgl\src\lv_objx/lv_win.c **** /**
 349:..\..\..\lvgl\version_6.1.2\lvgl\src\lv_objx/lv_win.c ****  * Set drag status of a window. If set to 'true' window can be dragged like on a PC.
 350:..\..\..\lvgl\version_6.1.2\lvgl\src\lv_objx/lv_win.c ****  * @param win pointer to a window object
 351:..\..\..\lvgl\version_6.1.2\lvgl\src\lv_objx/lv_win.c ****  * @param en whether dragging is enabled
 352:..\..\..\lvgl\version_6.1.2\lvgl\src\lv_objx/lv_win.c ****  */
 353:..\..\..\lvgl\version_6.1.2\lvgl\src\lv_objx/lv_win.c **** void lv_win_set_drag(lv_obj_t * win, bool en)
 354:..\..\..\lvgl\version_6.1.2\lvgl\src\lv_objx/lv_win.c **** {
 355:..\..\..\lvgl\version_6.1.2\lvgl\src\lv_objx/lv_win.c ****     LV_ASSERT_OBJ(win, LV_OBJX_NAME);
 356:..\..\..\lvgl\version_6.1.2\lvgl\src\lv_objx/lv_win.c **** 
 357:..\..\..\lvgl\version_6.1.2\lvgl\src\lv_objx/lv_win.c ****     lv_win_ext_t * ext    = lv_obj_get_ext_attr(win);
 358:..\..\..\lvgl\version_6.1.2\lvgl\src\lv_objx/lv_win.c ****     lv_obj_t * win_header = ext->header;
 359:..\..\..\lvgl\version_6.1.2\lvgl\src\lv_objx/lv_win.c ****     lv_obj_set_drag_parent(win_header, en);
 360:..\..\..\lvgl\version_6.1.2\lvgl\src\lv_objx/lv_win.c ****     lv_obj_set_drag(win, en);
 361:..\..\..\lvgl\version_6.1.2\lvgl\src\lv_objx/lv_win.c **** }
 362:..\..\..\lvgl\version_6.1.2\lvgl\src\lv_objx/lv_win.c **** 
 363:..\..\..\lvgl\version_6.1.2\lvgl\src\lv_objx/lv_win.c **** /*=====================
 364:..\..\..\lvgl\version_6.1.2\lvgl\src\lv_objx/lv_win.c ****  * Getter functions
 365:..\..\..\lvgl\version_6.1.2\lvgl\src\lv_objx/lv_win.c ****  *====================*/
 366:..\..\..\lvgl\version_6.1.2\lvgl\src\lv_objx/lv_win.c **** 
 367:..\..\..\lvgl\version_6.1.2\lvgl\src\lv_objx/lv_win.c **** /**
 368:..\..\..\lvgl\version_6.1.2\lvgl\src\lv_objx/lv_win.c ****  * Get the title of a window
 369:..\..\..\lvgl\version_6.1.2\lvgl\src\lv_objx/lv_win.c ****  * @param win pointer to a window object
 370:..\..\..\lvgl\version_6.1.2\lvgl\src\lv_objx/lv_win.c ****  * @return title string of the window
 371:..\..\..\lvgl\version_6.1.2\lvgl\src\lv_objx/lv_win.c ****  */
 372:..\..\..\lvgl\version_6.1.2\lvgl\src\lv_objx/lv_win.c **** const char * lv_win_get_title(const lv_obj_t * win)
ARM GAS  C:\Users\pearlstl\AppData\Local\Temp\ccI2fBBa.s 			page 8


 373:..\..\..\lvgl\version_6.1.2\lvgl\src\lv_objx/lv_win.c **** {
 374:..\..\..\lvgl\version_6.1.2\lvgl\src\lv_objx/lv_win.c ****     LV_ASSERT_OBJ(win, LV_OBJX_NAME);
 375:..\..\..\lvgl\version_6.1.2\lvgl\src\lv_objx/lv_win.c **** 
 376:..\..\..\lvgl\version_6.1.2\lvgl\src\lv_objx/lv_win.c ****     lv_win_ext_t * ext = lv_obj_get_ext_attr(win);
 377:..\..\..\lvgl\version_6.1.2\lvgl\src\lv_objx/lv_win.c ****     return lv_label_get_text(ext->title);
 378:..\..\..\lvgl\version_6.1.2\lvgl\src\lv_objx/lv_win.c **** }
 379:..\..\..\lvgl\version_6.1.2\lvgl\src\lv_objx/lv_win.c **** 
 380:..\..\..\lvgl\version_6.1.2\lvgl\src\lv_objx/lv_win.c **** /**
 381:..\..\..\lvgl\version_6.1.2\lvgl\src\lv_objx/lv_win.c ****  * Get the content holder object of window (`lv_page`) to allow additional customization
 382:..\..\..\lvgl\version_6.1.2\lvgl\src\lv_objx/lv_win.c ****  * @param win pointer to a window object
 383:..\..\..\lvgl\version_6.1.2\lvgl\src\lv_objx/lv_win.c ****  * @return the Page object where the window's content is
 384:..\..\..\lvgl\version_6.1.2\lvgl\src\lv_objx/lv_win.c ****  */
 385:..\..\..\lvgl\version_6.1.2\lvgl\src\lv_objx/lv_win.c **** lv_obj_t * lv_win_get_content(const lv_obj_t * win)
 386:..\..\..\lvgl\version_6.1.2\lvgl\src\lv_objx/lv_win.c **** {
 387:..\..\..\lvgl\version_6.1.2\lvgl\src\lv_objx/lv_win.c ****     LV_ASSERT_OBJ(win, LV_OBJX_NAME);
 388:..\..\..\lvgl\version_6.1.2\lvgl\src\lv_objx/lv_win.c **** 
 389:..\..\..\lvgl\version_6.1.2\lvgl\src\lv_objx/lv_win.c ****     lv_win_ext_t * ext = lv_obj_get_ext_attr(win);
 390:..\..\..\lvgl\version_6.1.2\lvgl\src\lv_objx/lv_win.c ****     return ext->page;
 391:..\..\..\lvgl\version_6.1.2\lvgl\src\lv_objx/lv_win.c **** }
 392:..\..\..\lvgl\version_6.1.2\lvgl\src\lv_objx/lv_win.c **** 
 393:..\..\..\lvgl\version_6.1.2\lvgl\src\lv_objx/lv_win.c **** /**
 394:..\..\..\lvgl\version_6.1.2\lvgl\src\lv_objx/lv_win.c ****  * Get the control button size of a window
 395:..\..\..\lvgl\version_6.1.2\lvgl\src\lv_objx/lv_win.c ****  * @param win pointer to a window object
 396:..\..\..\lvgl\version_6.1.2\lvgl\src\lv_objx/lv_win.c ****  * @return control button size
 397:..\..\..\lvgl\version_6.1.2\lvgl\src\lv_objx/lv_win.c ****  */
 398:..\..\..\lvgl\version_6.1.2\lvgl\src\lv_objx/lv_win.c **** lv_coord_t lv_win_get_btn_size(const lv_obj_t * win)
 399:..\..\..\lvgl\version_6.1.2\lvgl\src\lv_objx/lv_win.c **** {
 400:..\..\..\lvgl\version_6.1.2\lvgl\src\lv_objx/lv_win.c ****     LV_ASSERT_OBJ(win, LV_OBJX_NAME);
 401:..\..\..\lvgl\version_6.1.2\lvgl\src\lv_objx/lv_win.c **** 
 402:..\..\..\lvgl\version_6.1.2\lvgl\src\lv_objx/lv_win.c ****     lv_win_ext_t * ext = lv_obj_get_ext_attr(win);
 403:..\..\..\lvgl\version_6.1.2\lvgl\src\lv_objx/lv_win.c ****     return ext->btn_size;
 404:..\..\..\lvgl\version_6.1.2\lvgl\src\lv_objx/lv_win.c **** }
 405:..\..\..\lvgl\version_6.1.2\lvgl\src\lv_objx/lv_win.c **** 
 406:..\..\..\lvgl\version_6.1.2\lvgl\src\lv_objx/lv_win.c **** /**
 407:..\..\..\lvgl\version_6.1.2\lvgl\src\lv_objx/lv_win.c ****  * Get the pointer of a widow from one of  its control button.
 408:..\..\..\lvgl\version_6.1.2\lvgl\src\lv_objx/lv_win.c ****  * It is useful in the action of the control buttons where only button is known.
 409:..\..\..\lvgl\version_6.1.2\lvgl\src\lv_objx/lv_win.c ****  * @param ctrl_btn pointer to a control button of a window
 410:..\..\..\lvgl\version_6.1.2\lvgl\src\lv_objx/lv_win.c ****  * @return pointer to the window of 'ctrl_btn'
 411:..\..\..\lvgl\version_6.1.2\lvgl\src\lv_objx/lv_win.c ****  */
 412:..\..\..\lvgl\version_6.1.2\lvgl\src\lv_objx/lv_win.c **** lv_obj_t * lv_win_get_from_btn(const lv_obj_t * ctrl_btn)
 413:..\..\..\lvgl\version_6.1.2\lvgl\src\lv_objx/lv_win.c **** {
 414:..\..\..\lvgl\version_6.1.2\lvgl\src\lv_objx/lv_win.c ****     LV_ASSERT_OBJ(ctrl_btn, "lv_btn");
 415:..\..\..\lvgl\version_6.1.2\lvgl\src\lv_objx/lv_win.c **** 
 416:..\..\..\lvgl\version_6.1.2\lvgl\src\lv_objx/lv_win.c ****     lv_obj_t * header = lv_obj_get_parent(ctrl_btn);
 417:..\..\..\lvgl\version_6.1.2\lvgl\src\lv_objx/lv_win.c ****     lv_obj_t * win    = lv_obj_get_parent(header);
 418:..\..\..\lvgl\version_6.1.2\lvgl\src\lv_objx/lv_win.c **** 
 419:..\..\..\lvgl\version_6.1.2\lvgl\src\lv_objx/lv_win.c ****     return win;
 420:..\..\..\lvgl\version_6.1.2\lvgl\src\lv_objx/lv_win.c **** }
 421:..\..\..\lvgl\version_6.1.2\lvgl\src\lv_objx/lv_win.c **** 
 422:..\..\..\lvgl\version_6.1.2\lvgl\src\lv_objx/lv_win.c **** /**
 423:..\..\..\lvgl\version_6.1.2\lvgl\src\lv_objx/lv_win.c ****  * Get the layout of a window
 424:..\..\..\lvgl\version_6.1.2\lvgl\src\lv_objx/lv_win.c ****  * @param win pointer to a window object
 425:..\..\..\lvgl\version_6.1.2\lvgl\src\lv_objx/lv_win.c ****  * @return the layout of the window (from 'lv_layout_t')
 426:..\..\..\lvgl\version_6.1.2\lvgl\src\lv_objx/lv_win.c ****  */
 427:..\..\..\lvgl\version_6.1.2\lvgl\src\lv_objx/lv_win.c **** lv_layout_t lv_win_get_layout(lv_obj_t * win)
 428:..\..\..\lvgl\version_6.1.2\lvgl\src\lv_objx/lv_win.c **** {
 429:..\..\..\lvgl\version_6.1.2\lvgl\src\lv_objx/lv_win.c ****     LV_ASSERT_OBJ(win, LV_OBJX_NAME);
ARM GAS  C:\Users\pearlstl\AppData\Local\Temp\ccI2fBBa.s 			page 9


 430:..\..\..\lvgl\version_6.1.2\lvgl\src\lv_objx/lv_win.c **** 
 431:..\..\..\lvgl\version_6.1.2\lvgl\src\lv_objx/lv_win.c ****     lv_win_ext_t * ext = lv_obj_get_ext_attr(win);
 432:..\..\..\lvgl\version_6.1.2\lvgl\src\lv_objx/lv_win.c ****     return lv_page_get_scrl_layout(ext->page);
 433:..\..\..\lvgl\version_6.1.2\lvgl\src\lv_objx/lv_win.c **** }
 434:..\..\..\lvgl\version_6.1.2\lvgl\src\lv_objx/lv_win.c **** 
 435:..\..\..\lvgl\version_6.1.2\lvgl\src\lv_objx/lv_win.c **** /**
 436:..\..\..\lvgl\version_6.1.2\lvgl\src\lv_objx/lv_win.c ****  * Get the scroll bar mode of a window
 437:..\..\..\lvgl\version_6.1.2\lvgl\src\lv_objx/lv_win.c ****  * @param win pointer to a window object
 438:..\..\..\lvgl\version_6.1.2\lvgl\src\lv_objx/lv_win.c ****  * @return the scroll bar mode of the window (from 'lv_sb_mode_t')
 439:..\..\..\lvgl\version_6.1.2\lvgl\src\lv_objx/lv_win.c ****  */
 440:..\..\..\lvgl\version_6.1.2\lvgl\src\lv_objx/lv_win.c **** lv_sb_mode_t lv_win_get_sb_mode(lv_obj_t * win)
 441:..\..\..\lvgl\version_6.1.2\lvgl\src\lv_objx/lv_win.c **** {
 442:..\..\..\lvgl\version_6.1.2\lvgl\src\lv_objx/lv_win.c ****     LV_ASSERT_OBJ(win, LV_OBJX_NAME);
 443:..\..\..\lvgl\version_6.1.2\lvgl\src\lv_objx/lv_win.c **** 
 444:..\..\..\lvgl\version_6.1.2\lvgl\src\lv_objx/lv_win.c ****     lv_win_ext_t * ext = lv_obj_get_ext_attr(win);
 445:..\..\..\lvgl\version_6.1.2\lvgl\src\lv_objx/lv_win.c ****     return lv_page_get_sb_mode(ext->page);
 446:..\..\..\lvgl\version_6.1.2\lvgl\src\lv_objx/lv_win.c **** }
 447:..\..\..\lvgl\version_6.1.2\lvgl\src\lv_objx/lv_win.c **** 
 448:..\..\..\lvgl\version_6.1.2\lvgl\src\lv_objx/lv_win.c **** /**
 449:..\..\..\lvgl\version_6.1.2\lvgl\src\lv_objx/lv_win.c ****  * Get focus animation duration
 450:..\..\..\lvgl\version_6.1.2\lvgl\src\lv_objx/lv_win.c ****  * @param win pointer to a window object
 451:..\..\..\lvgl\version_6.1.2\lvgl\src\lv_objx/lv_win.c ****  * @return duration of animation [ms]
 452:..\..\..\lvgl\version_6.1.2\lvgl\src\lv_objx/lv_win.c ****  */
 453:..\..\..\lvgl\version_6.1.2\lvgl\src\lv_objx/lv_win.c **** uint16_t lv_win_get_anim_time(const lv_obj_t * win)
 454:..\..\..\lvgl\version_6.1.2\lvgl\src\lv_objx/lv_win.c **** {
 455:..\..\..\lvgl\version_6.1.2\lvgl\src\lv_objx/lv_win.c ****     LV_ASSERT_OBJ(win, LV_OBJX_NAME);
 456:..\..\..\lvgl\version_6.1.2\lvgl\src\lv_objx/lv_win.c **** 
 457:..\..\..\lvgl\version_6.1.2\lvgl\src\lv_objx/lv_win.c ****     return lv_page_get_anim_time(lv_win_get_content(win));
 458:..\..\..\lvgl\version_6.1.2\lvgl\src\lv_objx/lv_win.c **** }
 459:..\..\..\lvgl\version_6.1.2\lvgl\src\lv_objx/lv_win.c **** 
 460:..\..\..\lvgl\version_6.1.2\lvgl\src\lv_objx/lv_win.c **** /**
 461:..\..\..\lvgl\version_6.1.2\lvgl\src\lv_objx/lv_win.c ****  * Get width of the content area (page scrollable) of the window
 462:..\..\..\lvgl\version_6.1.2\lvgl\src\lv_objx/lv_win.c ****  * @param win pointer to a window object
 463:..\..\..\lvgl\version_6.1.2\lvgl\src\lv_objx/lv_win.c ****  * @return the width of the content_bg area
 464:..\..\..\lvgl\version_6.1.2\lvgl\src\lv_objx/lv_win.c ****  */
 465:..\..\..\lvgl\version_6.1.2\lvgl\src\lv_objx/lv_win.c **** lv_coord_t lv_win_get_width(lv_obj_t * win)
 466:..\..\..\lvgl\version_6.1.2\lvgl\src\lv_objx/lv_win.c **** {
 467:..\..\..\lvgl\version_6.1.2\lvgl\src\lv_objx/lv_win.c ****     LV_ASSERT_OBJ(win, LV_OBJX_NAME);
 468:..\..\..\lvgl\version_6.1.2\lvgl\src\lv_objx/lv_win.c **** 
 469:..\..\..\lvgl\version_6.1.2\lvgl\src\lv_objx/lv_win.c ****     lv_win_ext_t * ext            = lv_obj_get_ext_attr(win);
 470:..\..\..\lvgl\version_6.1.2\lvgl\src\lv_objx/lv_win.c ****     lv_obj_t * scrl               = lv_page_get_scrl(ext->page);
 471:..\..\..\lvgl\version_6.1.2\lvgl\src\lv_objx/lv_win.c ****     const lv_style_t * style_scrl = lv_obj_get_style(scrl);
 472:..\..\..\lvgl\version_6.1.2\lvgl\src\lv_objx/lv_win.c **** 
 473:..\..\..\lvgl\version_6.1.2\lvgl\src\lv_objx/lv_win.c ****     return lv_obj_get_width(scrl) - style_scrl->body.padding.left - style_scrl->body.padding.right;
 474:..\..\..\lvgl\version_6.1.2\lvgl\src\lv_objx/lv_win.c **** }
 475:..\..\..\lvgl\version_6.1.2\lvgl\src\lv_objx/lv_win.c **** 
 476:..\..\..\lvgl\version_6.1.2\lvgl\src\lv_objx/lv_win.c **** /**
 477:..\..\..\lvgl\version_6.1.2\lvgl\src\lv_objx/lv_win.c ****  * Get a style of a window
 478:..\..\..\lvgl\version_6.1.2\lvgl\src\lv_objx/lv_win.c ****  * @param win pointer to a button object
 479:..\..\..\lvgl\version_6.1.2\lvgl\src\lv_objx/lv_win.c ****  * @param type which style window be get
 480:..\..\..\lvgl\version_6.1.2\lvgl\src\lv_objx/lv_win.c ****  * @return style pointer to a style
 481:..\..\..\lvgl\version_6.1.2\lvgl\src\lv_objx/lv_win.c ****  */
 482:..\..\..\lvgl\version_6.1.2\lvgl\src\lv_objx/lv_win.c **** const lv_style_t * lv_win_get_style(const lv_obj_t * win, lv_win_style_t type)
 483:..\..\..\lvgl\version_6.1.2\lvgl\src\lv_objx/lv_win.c **** {
 484:..\..\..\lvgl\version_6.1.2\lvgl\src\lv_objx/lv_win.c ****     LV_ASSERT_OBJ(win, LV_OBJX_NAME);
 485:..\..\..\lvgl\version_6.1.2\lvgl\src\lv_objx/lv_win.c **** 
 486:..\..\..\lvgl\version_6.1.2\lvgl\src\lv_objx/lv_win.c ****     const lv_style_t * style = NULL;
ARM GAS  C:\Users\pearlstl\AppData\Local\Temp\ccI2fBBa.s 			page 10


 487:..\..\..\lvgl\version_6.1.2\lvgl\src\lv_objx/lv_win.c ****     lv_win_ext_t * ext       = lv_obj_get_ext_attr(win);
 488:..\..\..\lvgl\version_6.1.2\lvgl\src\lv_objx/lv_win.c **** 
 489:..\..\..\lvgl\version_6.1.2\lvgl\src\lv_objx/lv_win.c ****     switch(type) {
 490:..\..\..\lvgl\version_6.1.2\lvgl\src\lv_objx/lv_win.c ****         case LV_WIN_STYLE_BG: style = lv_obj_get_style(win); break;
 491:..\..\..\lvgl\version_6.1.2\lvgl\src\lv_objx/lv_win.c ****         case LV_WIN_STYLE_CONTENT: style = lv_page_get_style(ext->page, LV_PAGE_STYLE_SCRL); break;
 492:..\..\..\lvgl\version_6.1.2\lvgl\src\lv_objx/lv_win.c ****         case LV_WIN_STYLE_SB: style = lv_page_get_style(ext->page, LV_PAGE_STYLE_SB); break;
 493:..\..\..\lvgl\version_6.1.2\lvgl\src\lv_objx/lv_win.c ****         case LV_WIN_STYLE_HEADER: style = lv_obj_get_style(ext->header); break;
 494:..\..\..\lvgl\version_6.1.2\lvgl\src\lv_objx/lv_win.c ****         case LV_WIN_STYLE_BTN_REL: style = ext->style_btn_rel; break;
 495:..\..\..\lvgl\version_6.1.2\lvgl\src\lv_objx/lv_win.c ****         case LV_WIN_STYLE_BTN_PR: style = ext->style_btn_pr; break;
 496:..\..\..\lvgl\version_6.1.2\lvgl\src\lv_objx/lv_win.c ****         default: style = NULL; break;
 497:..\..\..\lvgl\version_6.1.2\lvgl\src\lv_objx/lv_win.c ****     }
 498:..\..\..\lvgl\version_6.1.2\lvgl\src\lv_objx/lv_win.c **** 
 499:..\..\..\lvgl\version_6.1.2\lvgl\src\lv_objx/lv_win.c ****     return style;
 500:..\..\..\lvgl\version_6.1.2\lvgl\src\lv_objx/lv_win.c **** }
 501:..\..\..\lvgl\version_6.1.2\lvgl\src\lv_objx/lv_win.c **** 
 502:..\..\..\lvgl\version_6.1.2\lvgl\src\lv_objx/lv_win.c **** /*=====================
 503:..\..\..\lvgl\version_6.1.2\lvgl\src\lv_objx/lv_win.c ****  * Other functions
 504:..\..\..\lvgl\version_6.1.2\lvgl\src\lv_objx/lv_win.c ****  *====================*/
 505:..\..\..\lvgl\version_6.1.2\lvgl\src\lv_objx/lv_win.c **** 
 506:..\..\..\lvgl\version_6.1.2\lvgl\src\lv_objx/lv_win.c **** /**
 507:..\..\..\lvgl\version_6.1.2\lvgl\src\lv_objx/lv_win.c ****  * Focus on an object. It ensures that the object will be visible in the window.
 508:..\..\..\lvgl\version_6.1.2\lvgl\src\lv_objx/lv_win.c ****  * @param win pointer to a window object
 509:..\..\..\lvgl\version_6.1.2\lvgl\src\lv_objx/lv_win.c ****  * @param obj pointer to an object to focus (must be in the window)
 510:..\..\..\lvgl\version_6.1.2\lvgl\src\lv_objx/lv_win.c ****  * @param anim_en LV_ANIM_ON focus with an animation; LV_ANIM_OFF focus without animation
 511:..\..\..\lvgl\version_6.1.2\lvgl\src\lv_objx/lv_win.c ****  */
 512:..\..\..\lvgl\version_6.1.2\lvgl\src\lv_objx/lv_win.c **** void lv_win_focus(lv_obj_t * win, lv_obj_t * obj, lv_anim_enable_t anim_en)
 513:..\..\..\lvgl\version_6.1.2\lvgl\src\lv_objx/lv_win.c **** {
 514:..\..\..\lvgl\version_6.1.2\lvgl\src\lv_objx/lv_win.c ****     LV_ASSERT_OBJ(win, LV_OBJX_NAME);
 515:..\..\..\lvgl\version_6.1.2\lvgl\src\lv_objx/lv_win.c ****     LV_ASSERT_OBJ(obj, "");
 516:..\..\..\lvgl\version_6.1.2\lvgl\src\lv_objx/lv_win.c **** 
 517:..\..\..\lvgl\version_6.1.2\lvgl\src\lv_objx/lv_win.c **** 
 518:..\..\..\lvgl\version_6.1.2\lvgl\src\lv_objx/lv_win.c ****     lv_win_ext_t * ext = lv_obj_get_ext_attr(win);
 519:..\..\..\lvgl\version_6.1.2\lvgl\src\lv_objx/lv_win.c ****     lv_page_focus(ext->page, obj, anim_en);
 520:..\..\..\lvgl\version_6.1.2\lvgl\src\lv_objx/lv_win.c **** }
 521:..\..\..\lvgl\version_6.1.2\lvgl\src\lv_objx/lv_win.c **** 
 522:..\..\..\lvgl\version_6.1.2\lvgl\src\lv_objx/lv_win.c **** /**********************
 523:..\..\..\lvgl\version_6.1.2\lvgl\src\lv_objx/lv_win.c ****  *   STATIC FUNCTIONS
 524:..\..\..\lvgl\version_6.1.2\lvgl\src\lv_objx/lv_win.c ****  **********************/
 525:..\..\..\lvgl\version_6.1.2\lvgl\src\lv_objx/lv_win.c **** 
 526:..\..\..\lvgl\version_6.1.2\lvgl\src\lv_objx/lv_win.c **** /**
 527:..\..\..\lvgl\version_6.1.2\lvgl\src\lv_objx/lv_win.c ****  * Signal function of the window
 528:..\..\..\lvgl\version_6.1.2\lvgl\src\lv_objx/lv_win.c ****  * @param win pointer to a window object
 529:..\..\..\lvgl\version_6.1.2\lvgl\src\lv_objx/lv_win.c ****  * @param sign a signal type from lv_signal_t enum
 530:..\..\..\lvgl\version_6.1.2\lvgl\src\lv_objx/lv_win.c ****  * @param param pointer to a signal specific variable
 531:..\..\..\lvgl\version_6.1.2\lvgl\src\lv_objx/lv_win.c ****  * @return LV_RES_OK: the object is not deleted in the function; LV_RES_INV: the object is deleted
 532:..\..\..\lvgl\version_6.1.2\lvgl\src\lv_objx/lv_win.c ****  */
 533:..\..\..\lvgl\version_6.1.2\lvgl\src\lv_objx/lv_win.c **** static lv_res_t lv_win_signal(lv_obj_t * win, lv_signal_t sign, void * param)
 534:..\..\..\lvgl\version_6.1.2\lvgl\src\lv_objx/lv_win.c **** {
 535:..\..\..\lvgl\version_6.1.2\lvgl\src\lv_objx/lv_win.c ****     lv_res_t res;
 536:..\..\..\lvgl\version_6.1.2\lvgl\src\lv_objx/lv_win.c **** 
 537:..\..\..\lvgl\version_6.1.2\lvgl\src\lv_objx/lv_win.c ****     /* Include the ancient signal function */
 538:..\..\..\lvgl\version_6.1.2\lvgl\src\lv_objx/lv_win.c ****     res = ancestor_signal(win, sign, param);
 539:..\..\..\lvgl\version_6.1.2\lvgl\src\lv_objx/lv_win.c ****     if(res != LV_RES_OK) return res;
 540:..\..\..\lvgl\version_6.1.2\lvgl\src\lv_objx/lv_win.c ****     if(sign == LV_SIGNAL_GET_TYPE) return lv_obj_handle_get_type_signal(param, LV_OBJX_NAME);
 541:..\..\..\lvgl\version_6.1.2\lvgl\src\lv_objx/lv_win.c **** 
 542:..\..\..\lvgl\version_6.1.2\lvgl\src\lv_objx/lv_win.c ****     lv_win_ext_t * ext = lv_obj_get_ext_attr(win);
 543:..\..\..\lvgl\version_6.1.2\lvgl\src\lv_objx/lv_win.c ****     if(sign == LV_SIGNAL_CHILD_CHG) { /*Move children to the page*/
ARM GAS  C:\Users\pearlstl\AppData\Local\Temp\ccI2fBBa.s 			page 11


 544:..\..\..\lvgl\version_6.1.2\lvgl\src\lv_objx/lv_win.c ****         lv_obj_t * page = ext->page;
 545:..\..\..\lvgl\version_6.1.2\lvgl\src\lv_objx/lv_win.c ****         if(page != NULL) {
 546:..\..\..\lvgl\version_6.1.2\lvgl\src\lv_objx/lv_win.c ****             lv_obj_t * child;
 547:..\..\..\lvgl\version_6.1.2\lvgl\src\lv_objx/lv_win.c ****             child = lv_obj_get_child(win, NULL);
 548:..\..\..\lvgl\version_6.1.2\lvgl\src\lv_objx/lv_win.c ****             while(child != NULL) {
 549:..\..\..\lvgl\version_6.1.2\lvgl\src\lv_objx/lv_win.c ****                 if(lv_obj_is_protected(child, LV_PROTECT_PARENT) == false) {
 550:..\..\..\lvgl\version_6.1.2\lvgl\src\lv_objx/lv_win.c ****                     lv_obj_t * tmp = child;
 551:..\..\..\lvgl\version_6.1.2\lvgl\src\lv_objx/lv_win.c ****                     child          = lv_obj_get_child(win, child); /*Get the next child before move
 552:..\..\..\lvgl\version_6.1.2\lvgl\src\lv_objx/lv_win.c ****                     lv_obj_set_parent(tmp, page);
 553:..\..\..\lvgl\version_6.1.2\lvgl\src\lv_objx/lv_win.c ****                 } else {
 554:..\..\..\lvgl\version_6.1.2\lvgl\src\lv_objx/lv_win.c ****                     child = lv_obj_get_child(win, child);
 555:..\..\..\lvgl\version_6.1.2\lvgl\src\lv_objx/lv_win.c ****                 }
 556:..\..\..\lvgl\version_6.1.2\lvgl\src\lv_objx/lv_win.c ****             }
 557:..\..\..\lvgl\version_6.1.2\lvgl\src\lv_objx/lv_win.c ****         }
 558:..\..\..\lvgl\version_6.1.2\lvgl\src\lv_objx/lv_win.c ****     } else if(sign == LV_SIGNAL_STYLE_CHG) {
 559:..\..\..\lvgl\version_6.1.2\lvgl\src\lv_objx/lv_win.c ****         lv_win_realign(win);
 560:..\..\..\lvgl\version_6.1.2\lvgl\src\lv_objx/lv_win.c ****     } else if(sign == LV_SIGNAL_CORD_CHG) {
 561:..\..\..\lvgl\version_6.1.2\lvgl\src\lv_objx/lv_win.c ****         /*If the size is changed refresh the window*/
 562:..\..\..\lvgl\version_6.1.2\lvgl\src\lv_objx/lv_win.c ****         if(lv_area_get_width(param) != lv_obj_get_width(win) || lv_area_get_height(param) != lv_obj
 563:..\..\..\lvgl\version_6.1.2\lvgl\src\lv_objx/lv_win.c ****             lv_win_realign(win);
 564:..\..\..\lvgl\version_6.1.2\lvgl\src\lv_objx/lv_win.c ****         }
 565:..\..\..\lvgl\version_6.1.2\lvgl\src\lv_objx/lv_win.c ****     } else if(sign == LV_SIGNAL_CLEANUP) {
 566:..\..\..\lvgl\version_6.1.2\lvgl\src\lv_objx/lv_win.c ****         ext->header = NULL; /*These objects were children so they are already invalid*/
 567:..\..\..\lvgl\version_6.1.2\lvgl\src\lv_objx/lv_win.c ****         ext->page   = NULL;
 568:..\..\..\lvgl\version_6.1.2\lvgl\src\lv_objx/lv_win.c ****         ext->title  = NULL;
 569:..\..\..\lvgl\version_6.1.2\lvgl\src\lv_objx/lv_win.c ****     } else if(sign == LV_SIGNAL_CONTROL) {
 570:..\..\..\lvgl\version_6.1.2\lvgl\src\lv_objx/lv_win.c ****         /*Forward all the control signals to the page*/
 571:..\..\..\lvgl\version_6.1.2\lvgl\src\lv_objx/lv_win.c ****         ext->page->signal_cb(ext->page, sign, param);
 572:..\..\..\lvgl\version_6.1.2\lvgl\src\lv_objx/lv_win.c ****     }
 573:..\..\..\lvgl\version_6.1.2\lvgl\src\lv_objx/lv_win.c **** 
 574:..\..\..\lvgl\version_6.1.2\lvgl\src\lv_objx/lv_win.c ****     return res;
 575:..\..\..\lvgl\version_6.1.2\lvgl\src\lv_objx/lv_win.c **** }
 576:..\..\..\lvgl\version_6.1.2\lvgl\src\lv_objx/lv_win.c **** 
 577:..\..\..\lvgl\version_6.1.2\lvgl\src\lv_objx/lv_win.c **** /**
 578:..\..\..\lvgl\version_6.1.2\lvgl\src\lv_objx/lv_win.c ****  * Realign the building elements of a window
 579:..\..\..\lvgl\version_6.1.2\lvgl\src\lv_objx/lv_win.c ****  * @param win pointer to window objectker
 580:..\..\..\lvgl\version_6.1.2\lvgl\src\lv_objx/lv_win.c ****  */
 581:..\..\..\lvgl\version_6.1.2\lvgl\src\lv_objx/lv_win.c **** static void lv_win_realign(lv_obj_t * win)
 582:..\..\..\lvgl\version_6.1.2\lvgl\src\lv_objx/lv_win.c **** {
  28              		.loc 1 582 0
  29              		.cfi_startproc
  30              		@ args = 0, pretend = 0, frame = 0
  31              		@ frame_needed = 0, uses_anonymous_args = 0
  32              	.LVL0:
  33 0000 2DE9F047 		push	{r4, r5, r6, r7, r8, r9, r10, lr}
  34              		.cfi_def_cfa_offset 32
  35              		.cfi_offset 4, -32
  36              		.cfi_offset 5, -28
  37              		.cfi_offset 6, -24
  38              		.cfi_offset 7, -20
  39              		.cfi_offset 8, -16
  40              		.cfi_offset 9, -12
  41              		.cfi_offset 10, -8
  42              		.cfi_offset 14, -4
  43 0004 82B0     		sub	sp, sp, #8
  44              		.cfi_def_cfa_offset 40
  45              		.loc 1 582 0
ARM GAS  C:\Users\pearlstl\AppData\Local\Temp\ccI2fBBa.s 			page 12


  46 0006 8146     		mov	r9, r0
 583:..\..\..\lvgl\version_6.1.2\lvgl\src\lv_objx/lv_win.c ****     lv_win_ext_t * ext = lv_obj_get_ext_attr(win);
  47              		.loc 1 583 0
  48 0008 FFF7FEFF 		bl	lv_obj_get_ext_attr
  49              	.LVL1:
 584:..\..\..\lvgl\version_6.1.2\lvgl\src\lv_objx/lv_win.c **** 
 585:..\..\..\lvgl\version_6.1.2\lvgl\src\lv_objx/lv_win.c ****     if(ext->page == NULL || ext->header == NULL || ext->title == NULL) return;
  50              		.loc 1 585 0
  51 000c 0368     		ldr	r3, [r0]
  52 000e 002B     		cmp	r3, #0
  53 0010 7ED0     		beq	.L1
  54              		.loc 1 585 0 is_stmt 0 discriminator 1
  55 0012 4368     		ldr	r3, [r0, #4]
  56 0014 0546     		mov	r5, r0
  57 0016 002B     		cmp	r3, #0
  58 0018 7AD0     		beq	.L1
  59              		.loc 1 585 0 discriminator 2
  60 001a 8368     		ldr	r3, [r0, #8]
  61 001c 002B     		cmp	r3, #0
  62 001e 77D0     		beq	.L1
  63              	.LVL2:
  64              	.LBB24:
  65              	.LBB25:
 487:..\..\..\lvgl\version_6.1.2\lvgl\src\lv_objx/lv_win.c **** 
  66              		.loc 1 487 0 is_stmt 1
  67 0020 4846     		mov	r0, r9
  68              	.LVL3:
  69 0022 FFF7FEFF 		bl	lv_obj_get_ext_attr
  70              	.LVL4:
 493:..\..\..\lvgl\version_6.1.2\lvgl\src\lv_objx/lv_win.c ****         case LV_WIN_STYLE_BTN_REL: style = ext->style_btn_rel; break;
  71              		.loc 1 493 0
  72 0026 4068     		ldr	r0, [r0, #4]
  73              	.LVL5:
  74 0028 FFF7FEFF 		bl	lv_obj_get_style
  75              	.LVL6:
  76 002c 8046     		mov	r8, r0
  77              	.LVL7:
  78              	.LBE25:
  79              	.LBE24:
 586:..\..\..\lvgl\version_6.1.2\lvgl\src\lv_objx/lv_win.c **** 
 587:..\..\..\lvgl\version_6.1.2\lvgl\src\lv_objx/lv_win.c ****     const lv_style_t * header_style = lv_win_get_style(win, LV_WIN_STYLE_HEADER);
 588:..\..\..\lvgl\version_6.1.2\lvgl\src\lv_objx/lv_win.c ****     lv_obj_set_size(ext->header, lv_obj_get_width(win),
  80              		.loc 1 588 0
  81 002e 4846     		mov	r0, r9
  82 0030 6C68     		ldr	r4, [r5, #4]
  83 0032 FFF7FEFF 		bl	lv_obj_get_width
  84              	.LVL8:
  85 0036 A98A     		ldrh	r1, [r5, #20]
  86 0038 B8F82020 		ldrh	r2, [r8, #32]
  87 003c B8F82230 		ldrh	r3, [r8, #34]
  88 0040 0A44     		add	r2, r2, r1
  89 0042 1A44     		add	r2, r2, r3
  90 0044 0146     		mov	r1, r0
  91 0046 12B2     		sxth	r2, r2
  92 0048 2046     		mov	r0, r4
  93 004a FFF7FEFF 		bl	lv_obj_set_size
  94              	.LVL9:
ARM GAS  C:\Users\pearlstl\AppData\Local\Temp\ccI2fBBa.s 			page 13


 589:..\..\..\lvgl\version_6.1.2\lvgl\src\lv_objx/lv_win.c ****                     ext->btn_size + header_style->body.padding.top + header_style->body.padding.bot
 590:..\..\..\lvgl\version_6.1.2\lvgl\src\lv_objx/lv_win.c **** 
 591:..\..\..\lvgl\version_6.1.2\lvgl\src\lv_objx/lv_win.c ****     bool first_btn = true;
 592:..\..\..\lvgl\version_6.1.2\lvgl\src\lv_objx/lv_win.c ****     lv_obj_t * btn;
 593:..\..\..\lvgl\version_6.1.2\lvgl\src\lv_objx/lv_win.c ****     lv_obj_t * btn_prev = NULL;
 594:..\..\..\lvgl\version_6.1.2\lvgl\src\lv_objx/lv_win.c ****     /*Refresh the size of all control buttons*/
 595:..\..\..\lvgl\version_6.1.2\lvgl\src\lv_objx/lv_win.c ****     btn = lv_obj_get_child_back(ext->header, NULL);
  95              		.loc 1 595 0
  96 004e 0021     		movs	r1, #0
  97 0050 6868     		ldr	r0, [r5, #4]
  98 0052 FFF7FEFF 		bl	lv_obj_get_child_back
  99              	.LVL10:
 596:..\..\..\lvgl\version_6.1.2\lvgl\src\lv_objx/lv_win.c ****     btn = lv_obj_get_child_back(ext->header, btn); /*Skip the title*/
 100              		.loc 1 596 0
 101 0056 0146     		mov	r1, r0
 102 0058 6868     		ldr	r0, [r5, #4]
 103              	.LVL11:
 104 005a FFF7FEFF 		bl	lv_obj_get_child_back
 105              	.LVL12:
 597:..\..\..\lvgl\version_6.1.2\lvgl\src\lv_objx/lv_win.c ****     while(btn != NULL) {
 106              		.loc 1 597 0
 107 005e 0446     		mov	r4, r0
 108 0060 40B3     		cbz	r0, .L7
 109 0062 0027     		movs	r7, #0
 598:..\..\..\lvgl\version_6.1.2\lvgl\src\lv_objx/lv_win.c ****         lv_obj_set_size(btn, ext->btn_size, ext->btn_size);
 599:..\..\..\lvgl\version_6.1.2\lvgl\src\lv_objx/lv_win.c ****         if(first_btn) {
 600:..\..\..\lvgl\version_6.1.2\lvgl\src\lv_objx/lv_win.c ****             lv_obj_align(btn, ext->header, LV_ALIGN_IN_RIGHT_MID, -header_style->body.padding.right
 110              		.loc 1 600 0
 111 0064 BA46     		mov	r10, r7
 597:..\..\..\lvgl\version_6.1.2\lvgl\src\lv_objx/lv_win.c ****     while(btn != NULL) {
 112              		.loc 1 597 0
 113 0066 0126     		movs	r6, #1
 114 0068 10E0     		b	.L6
 115              	.LVL13:
 116              	.L20:
 117              		.loc 1 600 0
 118 006a B8F82630 		ldrh	r3, [r8, #38]
 119 006e 6968     		ldr	r1, [r5, #4]
 120 0070 CDF800A0 		str	r10, [sp]
 121 0074 5B42     		negs	r3, r3
 122 0076 1BB2     		sxth	r3, r3
 123 0078 FFF7FEFF 		bl	lv_obj_align
 124              	.LVL14:
 125              	.L5:
 601:..\..\..\lvgl\version_6.1.2\lvgl\src\lv_objx/lv_win.c ****             first_btn = false;
 602:..\..\..\lvgl\version_6.1.2\lvgl\src\lv_objx/lv_win.c ****         } else {
 603:..\..\..\lvgl\version_6.1.2\lvgl\src\lv_objx/lv_win.c ****             lv_obj_align(btn, btn_prev, LV_ALIGN_OUT_LEFT_MID, -header_style->body.padding.inner, 0
 604:..\..\..\lvgl\version_6.1.2\lvgl\src\lv_objx/lv_win.c ****         }
 605:..\..\..\lvgl\version_6.1.2\lvgl\src\lv_objx/lv_win.c ****         btn_prev = btn;
 606:..\..\..\lvgl\version_6.1.2\lvgl\src\lv_objx/lv_win.c ****         btn      = lv_obj_get_child_back(ext->header, btn);
 126              		.loc 1 606 0
 127 007c 2146     		mov	r1, r4
 128 007e 6868     		ldr	r0, [r5, #4]
 129 0080 FFF7FEFF 		bl	lv_obj_get_child_back
 130              	.LVL15:
 131 0084 2746     		mov	r7, r4
 132 0086 0026     		movs	r6, #0
ARM GAS  C:\Users\pearlstl\AppData\Local\Temp\ccI2fBBa.s 			page 14


 597:..\..\..\lvgl\version_6.1.2\lvgl\src\lv_objx/lv_win.c ****         lv_obj_set_size(btn, ext->btn_size, ext->btn_size);
 133              		.loc 1 597 0
 134 0088 A0B1     		cbz	r0, .L7
 135 008a 0446     		mov	r4, r0
 136              	.LVL16:
 137              	.L6:
 598:..\..\..\lvgl\version_6.1.2\lvgl\src\lv_objx/lv_win.c ****         lv_obj_set_size(btn, ext->btn_size, ext->btn_size);
 138              		.loc 1 598 0
 139 008c B5F91420 		ldrsh	r2, [r5, #20]
 140 0090 2046     		mov	r0, r4
 141 0092 1146     		mov	r1, r2
 142 0094 FFF7FEFF 		bl	lv_obj_set_size
 143              	.LVL17:
 603:..\..\..\lvgl\version_6.1.2\lvgl\src\lv_objx/lv_win.c ****         }
 144              		.loc 1 603 0
 145 0098 3946     		mov	r1, r7
 146 009a 2046     		mov	r0, r4
 600:..\..\..\lvgl\version_6.1.2\lvgl\src\lv_objx/lv_win.c ****             first_btn = false;
 147              		.loc 1 600 0
 148 009c 0822     		movs	r2, #8
 599:..\..\..\lvgl\version_6.1.2\lvgl\src\lv_objx/lv_win.c ****             lv_obj_align(btn, ext->header, LV_ALIGN_IN_RIGHT_MID, -header_style->body.padding.right
 149              		.loc 1 599 0
 150 009e 002E     		cmp	r6, #0
 151 00a0 E3D1     		bne	.L20
 152              	.LVL18:
 603:..\..\..\lvgl\version_6.1.2\lvgl\src\lv_objx/lv_win.c ****         }
 153              		.loc 1 603 0
 154 00a2 B8F82830 		ldrh	r3, [r8, #40]
 155 00a6 0096     		str	r6, [sp]
 156 00a8 5B42     		negs	r3, r3
 157 00aa 1BB2     		sxth	r3, r3
 158 00ac 1022     		movs	r2, #16
 159 00ae FFF7FEFF 		bl	lv_obj_align
 160              	.LVL19:
 161 00b2 E3E7     		b	.L5
 162              	.LVL20:
 163              	.L7:
 164              	.LBB26:
 165              	.LBB27:
 487:..\..\..\lvgl\version_6.1.2\lvgl\src\lv_objx/lv_win.c **** 
 166              		.loc 1 487 0
 167 00b4 4846     		mov	r0, r9
 168              	.LVL21:
 169 00b6 FFF7FEFF 		bl	lv_obj_get_ext_attr
 170              	.LVL22:
 493:..\..\..\lvgl\version_6.1.2\lvgl\src\lv_objx/lv_win.c ****         case LV_WIN_STYLE_BTN_REL: style = ext->style_btn_rel; break;
 171              		.loc 1 493 0
 172 00ba 4068     		ldr	r0, [r0, #4]
 173              	.LVL23:
 174 00bc FFF7FEFF 		bl	lv_obj_get_style
 175              	.LVL24:
 176              	.LBE27:
 177              	.LBE26:
 607:..\..\..\lvgl\version_6.1.2\lvgl\src\lv_objx/lv_win.c ****     }
 608:..\..\..\lvgl\version_6.1.2\lvgl\src\lv_objx/lv_win.c **** 
 609:..\..\..\lvgl\version_6.1.2\lvgl\src\lv_objx/lv_win.c ****     const lv_style_t * style_header = lv_win_get_style(win, LV_WIN_STYLE_HEADER);
 610:..\..\..\lvgl\version_6.1.2\lvgl\src\lv_objx/lv_win.c ****     lv_obj_align(ext->title, NULL, LV_ALIGN_IN_LEFT_MID, style_header->body.padding.left, 0);
ARM GAS  C:\Users\pearlstl\AppData\Local\Temp\ccI2fBBa.s 			page 15


 178              		.loc 1 610 0
 179 00c0 AA68     		ldr	r2, [r5, #8]
 180 00c2 B0F92430 		ldrsh	r3, [r0, #36]
 181 00c6 0024     		movs	r4, #0
 182 00c8 1046     		mov	r0, r2
 183 00ca 2146     		mov	r1, r4
 184 00cc 0722     		movs	r2, #7
 185 00ce 0094     		str	r4, [sp]
 186 00d0 FFF7FEFF 		bl	lv_obj_align
 187              	.LVL25:
 611:..\..\..\lvgl\version_6.1.2\lvgl\src\lv_objx/lv_win.c **** 
 612:..\..\..\lvgl\version_6.1.2\lvgl\src\lv_objx/lv_win.c ****     lv_obj_set_pos(ext->header, 0, 0);
 188              		.loc 1 612 0
 189 00d4 2246     		mov	r2, r4
 190 00d6 2146     		mov	r1, r4
 191 00d8 6868     		ldr	r0, [r5, #4]
 192 00da FFF7FEFF 		bl	lv_obj_set_pos
 193              	.LVL26:
 613:..\..\..\lvgl\version_6.1.2\lvgl\src\lv_objx/lv_win.c **** 
 614:..\..\..\lvgl\version_6.1.2\lvgl\src\lv_objx/lv_win.c ****     lv_obj_set_size(ext->page, lv_obj_get_width(win), lv_obj_get_height(win) - lv_obj_get_height(ex
 194              		.loc 1 614 0
 195 00de 4846     		mov	r0, r9
 196 00e0 2F68     		ldr	r7, [r5]
 197 00e2 FFF7FEFF 		bl	lv_obj_get_width
 198              	.LVL27:
 199 00e6 8046     		mov	r8, r0
 200 00e8 4846     		mov	r0, r9
 201 00ea FFF7FEFF 		bl	lv_obj_get_height
 202              	.LVL28:
 203 00ee 0646     		mov	r6, r0
 204 00f0 6868     		ldr	r0, [r5, #4]
 205 00f2 FFF7FEFF 		bl	lv_obj_get_height
 206              	.LVL29:
 207 00f6 321A     		subs	r2, r6, r0
 208 00f8 12B2     		sxth	r2, r2
 209 00fa 4146     		mov	r1, r8
 210 00fc 3846     		mov	r0, r7
 211 00fe FFF7FEFF 		bl	lv_obj_set_size
 212              	.LVL30:
 615:..\..\..\lvgl\version_6.1.2\lvgl\src\lv_objx/lv_win.c ****     lv_obj_align(ext->page, ext->header, LV_ALIGN_OUT_BOTTOM_LEFT, 0, 0);
 213              		.loc 1 615 0
 214 0102 95E80300 		ldmia	r5, {r0, r1}
 215 0106 2346     		mov	r3, r4
 216 0108 0094     		str	r4, [sp]
 217 010a 0C22     		movs	r2, #12
 218 010c FFF7FEFF 		bl	lv_obj_align
 219              	.LVL31:
 220              	.L1:
 616:..\..\..\lvgl\version_6.1.2\lvgl\src\lv_objx/lv_win.c **** }
 221              		.loc 1 616 0
 222 0110 02B0     		add	sp, sp, #8
 223              		.cfi_def_cfa_offset 32
 224              		@ sp needed
 225 0112 BDE8F087 		pop	{r4, r5, r6, r7, r8, r9, r10, pc}
 226              		.cfi_endproc
 227              	.LFE91:
 228              		.size	lv_win_realign, .-lv_win_realign
ARM GAS  C:\Users\pearlstl\AppData\Local\Temp\ccI2fBBa.s 			page 16


 229 0116 00BF     		.section	.text.lv_win_signal,"ax",%progbits
 230              		.align	2
 231              		.thumb
 232              		.thumb_func
 233              		.type	lv_win_signal, %function
 234              	lv_win_signal:
 235              	.LFB90:
 534:..\..\..\lvgl\version_6.1.2\lvgl\src\lv_objx/lv_win.c ****     lv_res_t res;
 236              		.loc 1 534 0
 237              		.cfi_startproc
 238              		@ args = 0, pretend = 0, frame = 0
 239              		@ frame_needed = 0, uses_anonymous_args = 0
 240              	.LVL32:
 241 0000 F8B5     		push	{r3, r4, r5, r6, r7, lr}
 242              		.cfi_def_cfa_offset 24
 243              		.cfi_offset 3, -24
 244              		.cfi_offset 4, -20
 245              		.cfi_offset 5, -16
 246              		.cfi_offset 6, -12
 247              		.cfi_offset 7, -8
 248              		.cfi_offset 14, -4
 538:..\..\..\lvgl\version_6.1.2\lvgl\src\lv_objx/lv_win.c ****     if(res != LV_RES_OK) return res;
 249              		.loc 1 538 0
 250 0002 324B     		ldr	r3, .L50
 251 0004 1B68     		ldr	r3, [r3]
 534:..\..\..\lvgl\version_6.1.2\lvgl\src\lv_objx/lv_win.c ****     lv_res_t res;
 252              		.loc 1 534 0
 253 0006 0646     		mov	r6, r0
 254 0008 0D46     		mov	r5, r1
 255 000a 1746     		mov	r7, r2
 538:..\..\..\lvgl\version_6.1.2\lvgl\src\lv_objx/lv_win.c ****     if(res != LV_RES_OK) return res;
 256              		.loc 1 538 0
 257 000c 9847     		blx	r3
 258              	.LVL33:
 539:..\..\..\lvgl\version_6.1.2\lvgl\src\lv_objx/lv_win.c ****     if(sign == LV_SIGNAL_GET_TYPE) return lv_obj_handle_get_type_signal(param, LV_OBJX_NAME);
 259              		.loc 1 539 0
 260 000e 0128     		cmp	r0, #1
 538:..\..\..\lvgl\version_6.1.2\lvgl\src\lv_objx/lv_win.c ****     if(res != LV_RES_OK) return res;
 261              		.loc 1 538 0
 262 0010 0446     		mov	r4, r0
 263              	.LVL34:
 539:..\..\..\lvgl\version_6.1.2\lvgl\src\lv_objx/lv_win.c ****     if(sign == LV_SIGNAL_GET_TYPE) return lv_obj_handle_get_type_signal(param, LV_OBJX_NAME);
 264              		.loc 1 539 0
 265 0012 00D0     		beq	.L44
 575:..\..\..\lvgl\version_6.1.2\lvgl\src\lv_objx/lv_win.c **** 
 266              		.loc 1 575 0
 267 0014 F8BD     		pop	{r3, r4, r5, r6, r7, pc}
 268              	.LVL35:
 269              	.L44:
 540:..\..\..\lvgl\version_6.1.2\lvgl\src\lv_objx/lv_win.c **** 
 270              		.loc 1 540 0
 271 0016 072D     		cmp	r5, #7
 272 0018 2DD0     		beq	.L45
 542:..\..\..\lvgl\version_6.1.2\lvgl\src\lv_objx/lv_win.c ****     if(sign == LV_SIGNAL_CHILD_CHG) { /*Move children to the page*/
 273              		.loc 1 542 0
 274 001a 3046     		mov	r0, r6
 275              	.LVL36:
ARM GAS  C:\Users\pearlstl\AppData\Local\Temp\ccI2fBBa.s 			page 17


 276 001c FFF7FEFF 		bl	lv_obj_get_ext_attr
 277              	.LVL37:
 543:..\..\..\lvgl\version_6.1.2\lvgl\src\lv_objx/lv_win.c ****         lv_obj_t * page = ext->page;
 278              		.loc 1 543 0
 279 0020 012D     		cmp	r5, #1
 280 0022 08D0     		beq	.L46
 558:..\..\..\lvgl\version_6.1.2\lvgl\src\lv_objx/lv_win.c ****         lv_win_realign(win);
 281              		.loc 1 558 0
 282 0024 042D     		cmp	r5, #4
 283 0026 45D0     		beq	.L33
 560:..\..\..\lvgl\version_6.1.2\lvgl\src\lv_objx/lv_win.c ****         /*If the size is changed refresh the window*/
 284              		.loc 1 560 0
 285 0028 022D     		cmp	r5, #2
 286 002a 2FD0     		beq	.L47
 565:..\..\..\lvgl\version_6.1.2\lvgl\src\lv_objx/lv_win.c ****         ext->header = NULL; /*These objects were children so they are already invalid*/
 287              		.loc 1 565 0
 288 002c 4DB3     		cbz	r5, .L48
 569:..\..\..\lvgl\version_6.1.2\lvgl\src\lv_objx/lv_win.c ****         /*Forward all the control signals to the page*/
 289              		.loc 1 569 0
 290 002e 122D     		cmp	r5, #18
 291 0030 44D0     		beq	.L49
 292              	.LVL38:
 293              	.L43:
 294 0032 0120     		movs	r0, #1
 295 0034 F8BD     		pop	{r3, r4, r5, r6, r7, pc}
 296              	.LVL39:
 297              	.L46:
 298              	.LBB28:
 544:..\..\..\lvgl\version_6.1.2\lvgl\src\lv_objx/lv_win.c ****         if(page != NULL) {
 299              		.loc 1 544 0
 300 0036 0768     		ldr	r7, [r0]
 301              	.LVL40:
 545:..\..\..\lvgl\version_6.1.2\lvgl\src\lv_objx/lv_win.c ****             lv_obj_t * child;
 302              		.loc 1 545 0
 303 0038 002F     		cmp	r7, #0
 304 003a FAD0     		beq	.L43
 305              	.LBB29:
 547:..\..\..\lvgl\version_6.1.2\lvgl\src\lv_objx/lv_win.c ****             while(child != NULL) {
 306              		.loc 1 547 0
 307 003c 0021     		movs	r1, #0
 308 003e 3046     		mov	r0, r6
 309              	.LVL41:
 310 0040 FFF7FEFF 		bl	lv_obj_get_child
 311              	.LVL42:
 548:..\..\..\lvgl\version_6.1.2\lvgl\src\lv_objx/lv_win.c ****                 if(lv_obj_is_protected(child, LV_PROTECT_PARENT) == false) {
 312              		.loc 1 548 0
 313 0044 0446     		mov	r4, r0
 314              	.LVL43:
 315              	.L42:
 316 0046 002C     		cmp	r4, #0
 317 0048 F3D0     		beq	.L43
 549:..\..\..\lvgl\version_6.1.2\lvgl\src\lv_objx/lv_win.c ****                     lv_obj_t * tmp = child;
 318              		.loc 1 549 0
 319 004a 0221     		movs	r1, #2
 320 004c 2046     		mov	r0, r4
 321 004e FFF7FEFF 		bl	lv_obj_is_protected
 322              	.LVL44:
ARM GAS  C:\Users\pearlstl\AppData\Local\Temp\ccI2fBBa.s 			page 18


 323              	.LBB30:
 551:..\..\..\lvgl\version_6.1.2\lvgl\src\lv_objx/lv_win.c ****                     lv_obj_set_parent(tmp, page);
 324              		.loc 1 551 0
 325 0052 2146     		mov	r1, r4
 326              	.LBE30:
 549:..\..\..\lvgl\version_6.1.2\lvgl\src\lv_objx/lv_win.c ****                     lv_obj_t * tmp = child;
 327              		.loc 1 549 0
 328 0054 48B9     		cbnz	r0, .L27
 329              	.LVL45:
 330              	.LBB31:
 551:..\..\..\lvgl\version_6.1.2\lvgl\src\lv_objx/lv_win.c ****                     lv_obj_set_parent(tmp, page);
 331              		.loc 1 551 0
 332 0056 3046     		mov	r0, r6
 333 0058 FFF7FEFF 		bl	lv_obj_get_child
 334              	.LVL46:
 552:..\..\..\lvgl\version_6.1.2\lvgl\src\lv_objx/lv_win.c ****                 } else {
 335              		.loc 1 552 0
 336 005c 3946     		mov	r1, r7
 551:..\..\..\lvgl\version_6.1.2\lvgl\src\lv_objx/lv_win.c ****                     lv_obj_set_parent(tmp, page);
 337              		.loc 1 551 0
 338 005e 0546     		mov	r5, r0
 339              	.LVL47:
 552:..\..\..\lvgl\version_6.1.2\lvgl\src\lv_objx/lv_win.c ****                 } else {
 340              		.loc 1 552 0
 341 0060 2046     		mov	r0, r4
 342              	.LVL48:
 343 0062 FFF7FEFF 		bl	lv_obj_set_parent
 344              	.LVL49:
 551:..\..\..\lvgl\version_6.1.2\lvgl\src\lv_objx/lv_win.c ****                     lv_obj_set_parent(tmp, page);
 345              		.loc 1 551 0
 346 0066 2C46     		mov	r4, r5
 347              	.LVL50:
 348              	.LBE31:
 349 0068 EDE7     		b	.L42
 350              	.LVL51:
 351              	.L27:
 554:..\..\..\lvgl\version_6.1.2\lvgl\src\lv_objx/lv_win.c ****                 }
 352              		.loc 1 554 0
 353 006a 2146     		mov	r1, r4
 354              	.LVL52:
 355 006c 3046     		mov	r0, r6
 356 006e FFF7FEFF 		bl	lv_obj_get_child
 357              	.LVL53:
 358 0072 0446     		mov	r4, r0
 359              	.LVL54:
 360 0074 E7E7     		b	.L42
 361              	.LVL55:
 362              	.L45:
 363              	.LBE29:
 364              	.LBE28:
 540:..\..\..\lvgl\version_6.1.2\lvgl\src\lv_objx/lv_win.c **** 
 365              		.loc 1 540 0 discriminator 1
 366 0076 3846     		mov	r0, r7
 367              	.LVL56:
 368 0078 1549     		ldr	r1, .L50+4
 575:..\..\..\lvgl\version_6.1.2\lvgl\src\lv_objx/lv_win.c **** 
 369              		.loc 1 575 0 discriminator 1
ARM GAS  C:\Users\pearlstl\AppData\Local\Temp\ccI2fBBa.s 			page 19


 370 007a BDE8F840 		pop	{r3, r4, r5, r6, r7, lr}
 371              		.cfi_remember_state
 372              		.cfi_restore 14
 373              		.cfi_restore 7
 374              		.cfi_restore 6
 375              		.cfi_restore 5
 376              		.cfi_restore 4
 377              		.cfi_restore 3
 378              		.cfi_def_cfa_offset 0
 379              	.LVL57:
 540:..\..\..\lvgl\version_6.1.2\lvgl\src\lv_objx/lv_win.c **** 
 380              		.loc 1 540 0 discriminator 1
 381 007e FFF7FEBF 		b	lv_obj_handle_get_type_signal
 382              	.LVL58:
 383              	.L48:
 384              		.cfi_restore_state
 566:..\..\..\lvgl\version_6.1.2\lvgl\src\lv_objx/lv_win.c ****         ext->page   = NULL;
 385              		.loc 1 566 0
 386 0082 4560     		str	r5, [r0, #4]
 567:..\..\..\lvgl\version_6.1.2\lvgl\src\lv_objx/lv_win.c ****         ext->title  = NULL;
 387              		.loc 1 567 0
 388 0084 0560     		str	r5, [r0]
 568:..\..\..\lvgl\version_6.1.2\lvgl\src\lv_objx/lv_win.c ****     } else if(sign == LV_SIGNAL_CONTROL) {
 389              		.loc 1 568 0
 390 0086 8560     		str	r5, [r0, #8]
 391 0088 2046     		mov	r0, r4
 392              	.LVL59:
 393 008a F8BD     		pop	{r3, r4, r5, r6, r7, pc}
 394              	.LVL60:
 395              	.L47:
 396              	.LBB32:
 397              	.LBB33:
 398              		.file 2 "..\\..\\..\\lvgl\\version_6.1.2\\lvgl\\src\\lv_objx\\../lv_core/../lv_misc/lv_area.h"
   1:..\..\..\lvgl\version_6.1.2\lvgl\src\lv_objx\../lv_core/../lv_misc/lv_area.h **** /**
   2:..\..\..\lvgl\version_6.1.2\lvgl\src\lv_objx\../lv_core/../lv_misc/lv_area.h ****  * @file lv_area.h
   3:..\..\..\lvgl\version_6.1.2\lvgl\src\lv_objx\../lv_core/../lv_misc/lv_area.h ****  *
   4:..\..\..\lvgl\version_6.1.2\lvgl\src\lv_objx\../lv_core/../lv_misc/lv_area.h ****  */
   5:..\..\..\lvgl\version_6.1.2\lvgl\src\lv_objx\../lv_core/../lv_misc/lv_area.h **** 
   6:..\..\..\lvgl\version_6.1.2\lvgl\src\lv_objx\../lv_core/../lv_misc/lv_area.h **** #ifndef LV_AREA_H
   7:..\..\..\lvgl\version_6.1.2\lvgl\src\lv_objx\../lv_core/../lv_misc/lv_area.h **** #define LV_AREA_H
   8:..\..\..\lvgl\version_6.1.2\lvgl\src\lv_objx\../lv_core/../lv_misc/lv_area.h **** 
   9:..\..\..\lvgl\version_6.1.2\lvgl\src\lv_objx\../lv_core/../lv_misc/lv_area.h **** #ifdef __cplusplus
  10:..\..\..\lvgl\version_6.1.2\lvgl\src\lv_objx\../lv_core/../lv_misc/lv_area.h **** extern "C" {
  11:..\..\..\lvgl\version_6.1.2\lvgl\src\lv_objx\../lv_core/../lv_misc/lv_area.h **** #endif
  12:..\..\..\lvgl\version_6.1.2\lvgl\src\lv_objx\../lv_core/../lv_misc/lv_area.h **** 
  13:..\..\..\lvgl\version_6.1.2\lvgl\src\lv_objx\../lv_core/../lv_misc/lv_area.h **** /*********************
  14:..\..\..\lvgl\version_6.1.2\lvgl\src\lv_objx\../lv_core/../lv_misc/lv_area.h ****  *      INCLUDES
  15:..\..\..\lvgl\version_6.1.2\lvgl\src\lv_objx\../lv_core/../lv_misc/lv_area.h ****  *********************/
  16:..\..\..\lvgl\version_6.1.2\lvgl\src\lv_objx\../lv_core/../lv_misc/lv_area.h **** #include <string.h>
  17:..\..\..\lvgl\version_6.1.2\lvgl\src\lv_objx\../lv_core/../lv_misc/lv_area.h **** #include <stdbool.h>
  18:..\..\..\lvgl\version_6.1.2\lvgl\src\lv_objx\../lv_core/../lv_misc/lv_area.h **** #include <stdint.h>
  19:..\..\..\lvgl\version_6.1.2\lvgl\src\lv_objx\../lv_core/../lv_misc/lv_area.h **** #ifdef LV_CONF_INCLUDE_SIMPLE
  20:..\..\..\lvgl\version_6.1.2\lvgl\src\lv_objx\../lv_core/../lv_misc/lv_area.h **** #include "lv_conf.h"
  21:..\..\..\lvgl\version_6.1.2\lvgl\src\lv_objx\../lv_core/../lv_misc/lv_area.h **** #else
  22:..\..\..\lvgl\version_6.1.2\lvgl\src\lv_objx\../lv_core/../lv_misc/lv_area.h **** #include "../../../lv_conf.h"
  23:..\..\..\lvgl\version_6.1.2\lvgl\src\lv_objx\../lv_core/../lv_misc/lv_area.h **** #endif
  24:..\..\..\lvgl\version_6.1.2\lvgl\src\lv_objx\../lv_core/../lv_misc/lv_area.h **** 
ARM GAS  C:\Users\pearlstl\AppData\Local\Temp\ccI2fBBa.s 			page 20


  25:..\..\..\lvgl\version_6.1.2\lvgl\src\lv_objx\../lv_core/../lv_misc/lv_area.h **** /*********************
  26:..\..\..\lvgl\version_6.1.2\lvgl\src\lv_objx\../lv_core/../lv_misc/lv_area.h ****  *      DEFINES
  27:..\..\..\lvgl\version_6.1.2\lvgl\src\lv_objx\../lv_core/../lv_misc/lv_area.h ****  *********************/
  28:..\..\..\lvgl\version_6.1.2\lvgl\src\lv_objx\../lv_core/../lv_misc/lv_area.h **** /*To avoid overflow don't let the max ranges (reduce with 1000) */
  29:..\..\..\lvgl\version_6.1.2\lvgl\src\lv_objx\../lv_core/../lv_misc/lv_area.h **** #define LV_COORD_MAX ((lv_coord_t)((uint32_t)((uint32_t)1 << (8 * sizeof(lv_coord_t) - 1)) - 1000))
  30:..\..\..\lvgl\version_6.1.2\lvgl\src\lv_objx\../lv_core/../lv_misc/lv_area.h **** #define LV_COORD_MIN (-LV_COORD_MAX)
  31:..\..\..\lvgl\version_6.1.2\lvgl\src\lv_objx\../lv_core/../lv_misc/lv_area.h **** 
  32:..\..\..\lvgl\version_6.1.2\lvgl\src\lv_objx\../lv_core/../lv_misc/lv_area.h **** LV_EXPORT_CONST_INT(LV_COORD_MAX);
  33:..\..\..\lvgl\version_6.1.2\lvgl\src\lv_objx\../lv_core/../lv_misc/lv_area.h **** LV_EXPORT_CONST_INT(LV_COORD_MIN);
  34:..\..\..\lvgl\version_6.1.2\lvgl\src\lv_objx\../lv_core/../lv_misc/lv_area.h **** 
  35:..\..\..\lvgl\version_6.1.2\lvgl\src\lv_objx\../lv_core/../lv_misc/lv_area.h **** /**********************
  36:..\..\..\lvgl\version_6.1.2\lvgl\src\lv_objx\../lv_core/../lv_misc/lv_area.h ****  *      TYPEDEFS
  37:..\..\..\lvgl\version_6.1.2\lvgl\src\lv_objx\../lv_core/../lv_misc/lv_area.h ****  **********************/
  38:..\..\..\lvgl\version_6.1.2\lvgl\src\lv_objx\../lv_core/../lv_misc/lv_area.h **** 
  39:..\..\..\lvgl\version_6.1.2\lvgl\src\lv_objx\../lv_core/../lv_misc/lv_area.h **** /**
  40:..\..\..\lvgl\version_6.1.2\lvgl\src\lv_objx\../lv_core/../lv_misc/lv_area.h ****  * Represents a point on the screen.
  41:..\..\..\lvgl\version_6.1.2\lvgl\src\lv_objx\../lv_core/../lv_misc/lv_area.h ****  */
  42:..\..\..\lvgl\version_6.1.2\lvgl\src\lv_objx\../lv_core/../lv_misc/lv_area.h **** typedef struct
  43:..\..\..\lvgl\version_6.1.2\lvgl\src\lv_objx\../lv_core/../lv_misc/lv_area.h **** {
  44:..\..\..\lvgl\version_6.1.2\lvgl\src\lv_objx\../lv_core/../lv_misc/lv_area.h ****     lv_coord_t x;
  45:..\..\..\lvgl\version_6.1.2\lvgl\src\lv_objx\../lv_core/../lv_misc/lv_area.h ****     lv_coord_t y;
  46:..\..\..\lvgl\version_6.1.2\lvgl\src\lv_objx\../lv_core/../lv_misc/lv_area.h **** } lv_point_t;
  47:..\..\..\lvgl\version_6.1.2\lvgl\src\lv_objx\../lv_core/../lv_misc/lv_area.h **** 
  48:..\..\..\lvgl\version_6.1.2\lvgl\src\lv_objx\../lv_core/../lv_misc/lv_area.h **** /** Represents an area of the screen. */
  49:..\..\..\lvgl\version_6.1.2\lvgl\src\lv_objx\../lv_core/../lv_misc/lv_area.h **** typedef struct
  50:..\..\..\lvgl\version_6.1.2\lvgl\src\lv_objx\../lv_core/../lv_misc/lv_area.h **** {
  51:..\..\..\lvgl\version_6.1.2\lvgl\src\lv_objx\../lv_core/../lv_misc/lv_area.h ****     lv_coord_t x1;
  52:..\..\..\lvgl\version_6.1.2\lvgl\src\lv_objx\../lv_core/../lv_misc/lv_area.h ****     lv_coord_t y1;
  53:..\..\..\lvgl\version_6.1.2\lvgl\src\lv_objx\../lv_core/../lv_misc/lv_area.h ****     lv_coord_t x2;
  54:..\..\..\lvgl\version_6.1.2\lvgl\src\lv_objx\../lv_core/../lv_misc/lv_area.h ****     lv_coord_t y2;
  55:..\..\..\lvgl\version_6.1.2\lvgl\src\lv_objx\../lv_core/../lv_misc/lv_area.h **** } lv_area_t;
  56:..\..\..\lvgl\version_6.1.2\lvgl\src\lv_objx\../lv_core/../lv_misc/lv_area.h **** 
  57:..\..\..\lvgl\version_6.1.2\lvgl\src\lv_objx\../lv_core/../lv_misc/lv_area.h **** /**********************
  58:..\..\..\lvgl\version_6.1.2\lvgl\src\lv_objx\../lv_core/../lv_misc/lv_area.h ****  * GLOBAL PROTOTYPES
  59:..\..\..\lvgl\version_6.1.2\lvgl\src\lv_objx\../lv_core/../lv_misc/lv_area.h ****  **********************/
  60:..\..\..\lvgl\version_6.1.2\lvgl\src\lv_objx\../lv_core/../lv_misc/lv_area.h **** 
  61:..\..\..\lvgl\version_6.1.2\lvgl\src\lv_objx\../lv_core/../lv_misc/lv_area.h **** /**
  62:..\..\..\lvgl\version_6.1.2\lvgl\src\lv_objx\../lv_core/../lv_misc/lv_area.h ****  * Initialize an area
  63:..\..\..\lvgl\version_6.1.2\lvgl\src\lv_objx\../lv_core/../lv_misc/lv_area.h ****  * @param area_p pointer to an area
  64:..\..\..\lvgl\version_6.1.2\lvgl\src\lv_objx\../lv_core/../lv_misc/lv_area.h ****  * @param x1 left coordinate of the area
  65:..\..\..\lvgl\version_6.1.2\lvgl\src\lv_objx\../lv_core/../lv_misc/lv_area.h ****  * @param y1 top coordinate of the area
  66:..\..\..\lvgl\version_6.1.2\lvgl\src\lv_objx\../lv_core/../lv_misc/lv_area.h ****  * @param x2 right coordinate of the area
  67:..\..\..\lvgl\version_6.1.2\lvgl\src\lv_objx\../lv_core/../lv_misc/lv_area.h ****  * @param y2 bottom coordinate of the area
  68:..\..\..\lvgl\version_6.1.2\lvgl\src\lv_objx\../lv_core/../lv_misc/lv_area.h ****  */
  69:..\..\..\lvgl\version_6.1.2\lvgl\src\lv_objx\../lv_core/../lv_misc/lv_area.h **** void lv_area_set(lv_area_t * area_p, lv_coord_t x1, lv_coord_t y1, lv_coord_t x2, lv_coord_t y2);
  70:..\..\..\lvgl\version_6.1.2\lvgl\src\lv_objx\../lv_core/../lv_misc/lv_area.h **** 
  71:..\..\..\lvgl\version_6.1.2\lvgl\src\lv_objx\../lv_core/../lv_misc/lv_area.h **** /**
  72:..\..\..\lvgl\version_6.1.2\lvgl\src\lv_objx\../lv_core/../lv_misc/lv_area.h ****  * Copy an area
  73:..\..\..\lvgl\version_6.1.2\lvgl\src\lv_objx\../lv_core/../lv_misc/lv_area.h ****  * @param dest pointer to the destination area
  74:..\..\..\lvgl\version_6.1.2\lvgl\src\lv_objx\../lv_core/../lv_misc/lv_area.h ****  * @param src pointer to the source area
  75:..\..\..\lvgl\version_6.1.2\lvgl\src\lv_objx\../lv_core/../lv_misc/lv_area.h ****  */
  76:..\..\..\lvgl\version_6.1.2\lvgl\src\lv_objx\../lv_core/../lv_misc/lv_area.h **** inline static void lv_area_copy(lv_area_t * dest, const lv_area_t * src)
  77:..\..\..\lvgl\version_6.1.2\lvgl\src\lv_objx\../lv_core/../lv_misc/lv_area.h **** {
  78:..\..\..\lvgl\version_6.1.2\lvgl\src\lv_objx\../lv_core/../lv_misc/lv_area.h ****     memcpy(dest, src, sizeof(lv_area_t));
  79:..\..\..\lvgl\version_6.1.2\lvgl\src\lv_objx\../lv_core/../lv_misc/lv_area.h **** }
  80:..\..\..\lvgl\version_6.1.2\lvgl\src\lv_objx\../lv_core/../lv_misc/lv_area.h **** 
  81:..\..\..\lvgl\version_6.1.2\lvgl\src\lv_objx\../lv_core/../lv_misc/lv_area.h **** /**
ARM GAS  C:\Users\pearlstl\AppData\Local\Temp\ccI2fBBa.s 			page 21


  82:..\..\..\lvgl\version_6.1.2\lvgl\src\lv_objx\../lv_core/../lv_misc/lv_area.h ****  * Get the width of an area
  83:..\..\..\lvgl\version_6.1.2\lvgl\src\lv_objx\../lv_core/../lv_misc/lv_area.h ****  * @param area_p pointer to an area
  84:..\..\..\lvgl\version_6.1.2\lvgl\src\lv_objx\../lv_core/../lv_misc/lv_area.h ****  * @return the width of the area (if x1 == x2 -> width = 1)
  85:..\..\..\lvgl\version_6.1.2\lvgl\src\lv_objx\../lv_core/../lv_misc/lv_area.h ****  */
  86:..\..\..\lvgl\version_6.1.2\lvgl\src\lv_objx\../lv_core/../lv_misc/lv_area.h **** static inline lv_coord_t lv_area_get_width(const lv_area_t * area_p)
  87:..\..\..\lvgl\version_6.1.2\lvgl\src\lv_objx\../lv_core/../lv_misc/lv_area.h **** {
  88:..\..\..\lvgl\version_6.1.2\lvgl\src\lv_objx\../lv_core/../lv_misc/lv_area.h ****     return (lv_coord_t)(area_p->x2 - area_p->x1 + 1);
 399              		.loc 2 88 0
 400 008c BB88     		ldrh	r3, [r7, #4]
 401 008e 3C88     		ldrh	r4, [r7]
 402 0090 0133     		adds	r3, r3, #1
 403              	.LBE33:
 404              	.LBE32:
 562:..\..\..\lvgl\version_6.1.2\lvgl\src\lv_objx/lv_win.c ****             lv_win_realign(win);
 405              		.loc 1 562 0
 406 0092 3046     		mov	r0, r6
 407              	.LVL61:
 408              	.LBB36:
 409              	.LBB34:
 410              		.loc 2 88 0
 411 0094 1C1B     		subs	r4, r3, r4
 412              	.LBE34:
 413              	.LBE36:
 562:..\..\..\lvgl\version_6.1.2\lvgl\src\lv_objx/lv_win.c ****             lv_win_realign(win);
 414              		.loc 1 562 0
 415 0096 FFF7FEFF 		bl	lv_obj_get_width
 416              	.LVL62:
 417              	.LBB37:
 418              	.LBB35:
 419              		.loc 2 88 0
 420 009a 24B2     		sxth	r4, r4
 421              	.LBE35:
 422              	.LBE37:
 562:..\..\..\lvgl\version_6.1.2\lvgl\src\lv_objx/lv_win.c ****             lv_win_realign(win);
 423              		.loc 1 562 0
 424 009c A042     		cmp	r0, r4
 425 009e 09D1     		bne	.L33
 426              	.LVL63:
 427              	.LBB38:
 428              	.LBB39:
  89:..\..\..\lvgl\version_6.1.2\lvgl\src\lv_objx\../lv_core/../lv_misc/lv_area.h **** }
  90:..\..\..\lvgl\version_6.1.2\lvgl\src\lv_objx\../lv_core/../lv_misc/lv_area.h **** 
  91:..\..\..\lvgl\version_6.1.2\lvgl\src\lv_objx\../lv_core/../lv_misc/lv_area.h **** /**
  92:..\..\..\lvgl\version_6.1.2\lvgl\src\lv_objx\../lv_core/../lv_misc/lv_area.h ****  * Get the height of an area
  93:..\..\..\lvgl\version_6.1.2\lvgl\src\lv_objx\../lv_core/../lv_misc/lv_area.h ****  * @param area_p pointer to an area
  94:..\..\..\lvgl\version_6.1.2\lvgl\src\lv_objx\../lv_core/../lv_misc/lv_area.h ****  * @return the height of the area (if y1 == y2 -> height = 1)
  95:..\..\..\lvgl\version_6.1.2\lvgl\src\lv_objx\../lv_core/../lv_misc/lv_area.h ****  */
  96:..\..\..\lvgl\version_6.1.2\lvgl\src\lv_objx\../lv_core/../lv_misc/lv_area.h **** static inline lv_coord_t lv_area_get_height(const lv_area_t * area_p)
  97:..\..\..\lvgl\version_6.1.2\lvgl\src\lv_objx\../lv_core/../lv_misc/lv_area.h **** {
  98:..\..\..\lvgl\version_6.1.2\lvgl\src\lv_objx\../lv_core/../lv_misc/lv_area.h ****     return (lv_coord_t)(area_p->y2 - area_p->y1 + 1);
 429              		.loc 2 98 0 discriminator 1
 430 00a0 FB88     		ldrh	r3, [r7, #6]
 431 00a2 7C88     		ldrh	r4, [r7, #2]
 432 00a4 0133     		adds	r3, r3, #1
 433              	.LBE39:
 434              	.LBE38:
 562:..\..\..\lvgl\version_6.1.2\lvgl\src\lv_objx/lv_win.c ****             lv_win_realign(win);
ARM GAS  C:\Users\pearlstl\AppData\Local\Temp\ccI2fBBa.s 			page 22


 435              		.loc 1 562 0 discriminator 1
 436 00a6 3046     		mov	r0, r6
 437              	.LBB42:
 438              	.LBB40:
 439              		.loc 2 98 0 discriminator 1
 440 00a8 1C1B     		subs	r4, r3, r4
 441              	.LBE40:
 442              	.LBE42:
 562:..\..\..\lvgl\version_6.1.2\lvgl\src\lv_objx/lv_win.c ****             lv_win_realign(win);
 443              		.loc 1 562 0 discriminator 1
 444 00aa FFF7FEFF 		bl	lv_obj_get_height
 445              	.LVL64:
 446              	.LBB43:
 447              	.LBB41:
 448              		.loc 2 98 0 discriminator 1
 449 00ae 24B2     		sxth	r4, r4
 450              	.LBE41:
 451              	.LBE43:
 562:..\..\..\lvgl\version_6.1.2\lvgl\src\lv_objx/lv_win.c ****             lv_win_realign(win);
 452              		.loc 1 562 0 discriminator 1
 453 00b0 A042     		cmp	r0, r4
 454 00b2 BED0     		beq	.L43
 455              	.LVL65:
 456              	.L33:
 559:..\..\..\lvgl\version_6.1.2\lvgl\src\lv_objx/lv_win.c ****     } else if(sign == LV_SIGNAL_CORD_CHG) {
 457              		.loc 1 559 0
 458 00b4 3046     		mov	r0, r6
 459 00b6 FFF7FEFF 		bl	lv_win_realign
 460              	.LVL66:
 461 00ba BAE7     		b	.L43
 462              	.LVL67:
 463              	.L49:
 571:..\..\..\lvgl\version_6.1.2\lvgl\src\lv_objx/lv_win.c ****     }
 464              		.loc 1 571 0
 465 00bc 0068     		ldr	r0, [r0]
 466              	.LVL68:
 467 00be 3A46     		mov	r2, r7
 468 00c0 2946     		mov	r1, r5
 469 00c2 C369     		ldr	r3, [r0, #28]
 470 00c4 9847     		blx	r3
 471              	.LVL69:
 472 00c6 2046     		mov	r0, r4
 473 00c8 F8BD     		pop	{r3, r4, r5, r6, r7, pc}
 474              	.LVL70:
 475              	.L51:
 476 00ca 00BF     		.align	2
 477              	.L50:
 478 00cc 00000000 		.word	.LANCHOR0
 479 00d0 00000000 		.word	.LC0
 480              		.cfi_endproc
 481              	.LFE90:
 482              		.size	lv_win_signal, .-lv_win_signal
 483              		.section	.text.lv_win_create,"ax",%progbits
 484              		.align	2
 485              		.global	lv_win_create
 486              		.thumb
 487              		.thumb_func
ARM GAS  C:\Users\pearlstl\AppData\Local\Temp\ccI2fBBa.s 			page 23


 488              		.type	lv_win_create, %function
 489              	lv_win_create:
 490              	.LFB68:
  51:..\..\..\lvgl\version_6.1.2\lvgl\src\lv_objx/lv_win.c ****     LV_LOG_TRACE("window create started");
 491              		.loc 1 51 0
 492              		.cfi_startproc
 493              		@ args = 0, pretend = 0, frame = 0
 494              		@ frame_needed = 0, uses_anonymous_args = 0
 495              	.LVL71:
 496 0000 2DE9F041 		push	{r4, r5, r6, r7, r8, lr}
 497              		.cfi_def_cfa_offset 24
 498              		.cfi_offset 4, -24
 499              		.cfi_offset 5, -20
 500              		.cfi_offset 6, -16
 501              		.cfi_offset 7, -12
 502              		.cfi_offset 8, -8
 503              		.cfi_offset 14, -4
  51:..\..\..\lvgl\version_6.1.2\lvgl\src\lv_objx/lv_win.c ****     LV_LOG_TRACE("window create started");
 504              		.loc 1 51 0
 505 0004 8046     		mov	r8, r0
 506 0006 0E46     		mov	r6, r1
  55:..\..\..\lvgl\version_6.1.2\lvgl\src\lv_objx/lv_win.c ****     LV_ASSERT_MEM(new_win);
 507              		.loc 1 55 0
 508 0008 FFF7FEFF 		bl	lv_obj_create
 509              	.LVL72:
  57:..\..\..\lvgl\version_6.1.2\lvgl\src\lv_objx/lv_win.c **** 
 510              		.loc 1 57 0
 511 000c 0028     		cmp	r0, #0
 512 000e 00F03A81 		beq	.L56
  59:..\..\..\lvgl\version_6.1.2\lvgl\src\lv_objx/lv_win.c **** 
 513              		.loc 1 59 0
 514 0012 9E4C     		ldr	r4, .L80
 515 0014 2368     		ldr	r3, [r4]
 516 0016 0746     		mov	r7, r0
 517 0018 002B     		cmp	r3, #0
 518 001a 00F00A81 		beq	.L78
 519              	.LVL73:
 520              	.L55:
  62:..\..\..\lvgl\version_6.1.2\lvgl\src\lv_objx/lv_win.c ****     LV_ASSERT_MEM(ext);
 521              		.loc 1 62 0
 522 001e 1821     		movs	r1, #24
 523 0020 3846     		mov	r0, r7
 524 0022 FFF7FEFF 		bl	lv_obj_allocate_ext_attr
 525              	.LVL74:
  64:..\..\..\lvgl\version_6.1.2\lvgl\src\lv_objx/lv_win.c **** 
 526              		.loc 1 64 0
 527 0026 0546     		mov	r5, r0
 528 0028 0028     		cmp	r0, #0
 529 002a 00F02C81 		beq	.L56
  66:..\..\..\lvgl\version_6.1.2\lvgl\src\lv_objx/lv_win.c ****     ext->header        = NULL;
 530              		.loc 1 66 0
 531 002e 0024     		movs	r4, #0
  69:..\..\..\lvgl\version_6.1.2\lvgl\src\lv_objx/lv_win.c ****     ext->style_btn_pr  = &lv_style_btn_pr;
 532              		.loc 1 69 0
 533 0030 9749     		ldr	r1, .L80+4
  70:..\..\..\lvgl\version_6.1.2\lvgl\src\lv_objx/lv_win.c ****     ext->btn_size      = (LV_DPI) / 2;
 534              		.loc 1 70 0
ARM GAS  C:\Users\pearlstl\AppData\Local\Temp\ccI2fBBa.s 			page 24


 535 0032 984A     		ldr	r2, .L80+8
  66:..\..\..\lvgl\version_6.1.2\lvgl\src\lv_objx/lv_win.c ****     ext->header        = NULL;
 536              		.loc 1 66 0
 537 0034 0460     		str	r4, [r0]
  71:..\..\..\lvgl\version_6.1.2\lvgl\src\lv_objx/lv_win.c **** 
 538              		.loc 1 71 0
 539 0036 4B23     		movs	r3, #75
  67:..\..\..\lvgl\version_6.1.2\lvgl\src\lv_objx/lv_win.c ****     ext->title         = NULL;
 540              		.loc 1 67 0
 541 0038 4460     		str	r4, [r0, #4]
  68:..\..\..\lvgl\version_6.1.2\lvgl\src\lv_objx/lv_win.c ****     ext->style_btn_rel = &lv_style_btn_rel;
 542              		.loc 1 68 0
 543 003a 8460     		str	r4, [r0, #8]
  69:..\..\..\lvgl\version_6.1.2\lvgl\src\lv_objx/lv_win.c ****     ext->style_btn_pr  = &lv_style_btn_pr;
 544              		.loc 1 69 0
 545 003c C160     		str	r1, [r0, #12]
  70:..\..\..\lvgl\version_6.1.2\lvgl\src\lv_objx/lv_win.c ****     ext->btn_size      = (LV_DPI) / 2;
 546              		.loc 1 70 0
 547 003e 0261     		str	r2, [r0, #16]
  71:..\..\..\lvgl\version_6.1.2\lvgl\src\lv_objx/lv_win.c **** 
 548              		.loc 1 71 0
 549 0040 8382     		strh	r3, [r0, #20]	@ movhi
  74:..\..\..\lvgl\version_6.1.2\lvgl\src\lv_objx/lv_win.c ****         /* Set a size which fits into the parent.
 550              		.loc 1 74 0
 551 0042 002E     		cmp	r6, #0
 552 0044 45D0     		beq	.L79
 553              	.LBB73:
 126:..\..\..\lvgl\version_6.1.2\lvgl\src\lv_objx/lv_win.c ****         /*Create the objects*/
 554              		.loc 1 126 0
 555 0046 3046     		mov	r0, r6
 556              	.LVL75:
 557 0048 FFF7FEFF 		bl	lv_obj_get_ext_attr
 558              	.LVL76:
 559 004c 8046     		mov	r8, r0
 560              	.LVL77:
 128:..\..\..\lvgl\version_6.1.2\lvgl\src\lv_objx/lv_win.c ****         ext->title    = lv_label_create(ext->header, copy_ext->title);
 561              		.loc 1 128 0
 562 004e 3846     		mov	r0, r7
 563              	.LVL78:
 564 0050 D8F80410 		ldr	r1, [r8, #4]
 565 0054 FFF7FEFF 		bl	lv_obj_create
 566              	.LVL79:
 129:..\..\..\lvgl\version_6.1.2\lvgl\src\lv_objx/lv_win.c ****         ext->page     = lv_page_create(new_win, copy_ext->page);
 567              		.loc 1 129 0
 568 0058 D8F80810 		ldr	r1, [r8, #8]
 128:..\..\..\lvgl\version_6.1.2\lvgl\src\lv_objx/lv_win.c ****         ext->title    = lv_label_create(ext->header, copy_ext->title);
 569              		.loc 1 128 0
 570 005c 6860     		str	r0, [r5, #4]
 129:..\..\..\lvgl\version_6.1.2\lvgl\src\lv_objx/lv_win.c ****         ext->page     = lv_page_create(new_win, copy_ext->page);
 571              		.loc 1 129 0
 572 005e FFF7FEFF 		bl	lv_label_create
 573              	.LVL80:
 130:..\..\..\lvgl\version_6.1.2\lvgl\src\lv_objx/lv_win.c ****         ext->btn_size = copy_ext->btn_size;
 574              		.loc 1 130 0
 575 0062 D8F80010 		ldr	r1, [r8]
 129:..\..\..\lvgl\version_6.1.2\lvgl\src\lv_objx/lv_win.c ****         ext->page     = lv_page_create(new_win, copy_ext->page);
 576              		.loc 1 129 0
ARM GAS  C:\Users\pearlstl\AppData\Local\Temp\ccI2fBBa.s 			page 25


 577 0066 A860     		str	r0, [r5, #8]
 130:..\..\..\lvgl\version_6.1.2\lvgl\src\lv_objx/lv_win.c ****         ext->btn_size = copy_ext->btn_size;
 578              		.loc 1 130 0
 579 0068 3846     		mov	r0, r7
 580 006a FFF7FEFF 		bl	lv_page_create
 581              	.LVL81:
 131:..\..\..\lvgl\version_6.1.2\lvgl\src\lv_objx/lv_win.c **** 
 582              		.loc 1 131 0
 583 006e B8F91430 		ldrsh	r3, [r8, #20]
 584 0072 AB82     		strh	r3, [r5, #20]	@ movhi
 136:..\..\..\lvgl\version_6.1.2\lvgl\src\lv_objx/lv_win.c ****         child = lv_obj_get_child_back(copy_ext->header, child); /*Sip the title*/
 585              		.loc 1 136 0
 586 0074 2146     		mov	r1, r4
 130:..\..\..\lvgl\version_6.1.2\lvgl\src\lv_objx/lv_win.c ****         ext->btn_size = copy_ext->btn_size;
 587              		.loc 1 130 0
 588 0076 2860     		str	r0, [r5]
 136:..\..\..\lvgl\version_6.1.2\lvgl\src\lv_objx/lv_win.c ****         child = lv_obj_get_child_back(copy_ext->header, child); /*Sip the title*/
 589              		.loc 1 136 0
 590 0078 D8F80400 		ldr	r0, [r8, #4]
 591 007c FFF7FEFF 		bl	lv_obj_get_child_back
 592              	.LVL82:
 137:..\..\..\lvgl\version_6.1.2\lvgl\src\lv_objx/lv_win.c ****         while(child != NULL) {
 593              		.loc 1 137 0
 594 0080 0146     		mov	r1, r0
 595 0082 D8F80400 		ldr	r0, [r8, #4]
 596              	.LVL83:
 597 0086 FFF7FEFF 		bl	lv_obj_get_child_back
 598              	.LVL84:
 138:..\..\..\lvgl\version_6.1.2\lvgl\src\lv_objx/lv_win.c ****             cbtn = lv_btn_create(ext->header, child);
 599              		.loc 1 138 0
 600 008a 0446     		mov	r4, r0
 601 008c A0B1     		cbz	r0, .L70
 602              	.LVL85:
 603              	.L69:
 139:..\..\..\lvgl\version_6.1.2\lvgl\src\lv_objx/lv_win.c ****             lv_img_create(cbtn, lv_obj_get_child(child, NULL));
 604              		.loc 1 139 0
 605 008e 2146     		mov	r1, r4
 606 0090 6868     		ldr	r0, [r5, #4]
 607              	.LVL86:
 608 0092 FFF7FEFF 		bl	lv_btn_create
 609              	.LVL87:
 140:..\..\..\lvgl\version_6.1.2\lvgl\src\lv_objx/lv_win.c ****             child = lv_obj_get_child_back(copy_ext->header, child);
 610              		.loc 1 140 0
 611 0096 0021     		movs	r1, #0
 139:..\..\..\lvgl\version_6.1.2\lvgl\src\lv_objx/lv_win.c ****             lv_img_create(cbtn, lv_obj_get_child(child, NULL));
 612              		.loc 1 139 0
 613 0098 0646     		mov	r6, r0
 614              	.LVL88:
 140:..\..\..\lvgl\version_6.1.2\lvgl\src\lv_objx/lv_win.c ****             child = lv_obj_get_child_back(copy_ext->header, child);
 615              		.loc 1 140 0
 616 009a 2046     		mov	r0, r4
 617              	.LVL89:
 618 009c FFF7FEFF 		bl	lv_obj_get_child
 619              	.LVL90:
 620 00a0 0146     		mov	r1, r0
 621 00a2 3046     		mov	r0, r6
 622 00a4 FFF7FEFF 		bl	lv_img_create
ARM GAS  C:\Users\pearlstl\AppData\Local\Temp\ccI2fBBa.s 			page 26


 623              	.LVL91:
 141:..\..\..\lvgl\version_6.1.2\lvgl\src\lv_objx/lv_win.c ****         }
 624              		.loc 1 141 0
 625 00a8 2146     		mov	r1, r4
 626 00aa D8F80400 		ldr	r0, [r8, #4]
 627 00ae FFF7FEFF 		bl	lv_obj_get_child_back
 628              	.LVL92:
 138:..\..\..\lvgl\version_6.1.2\lvgl\src\lv_objx/lv_win.c ****             cbtn = lv_btn_create(ext->header, child);
 629              		.loc 1 138 0
 630 00b2 0446     		mov	r4, r0
 631 00b4 0028     		cmp	r0, #0
 632 00b6 EAD1     		bne	.L69
 633              	.LVL93:
 634              	.L70:
 144:..\..\..\lvgl\version_6.1.2\lvgl\src\lv_objx/lv_win.c ****     }
 635              		.loc 1 144 0
 636 00b8 7749     		ldr	r1, .L80+12
 637 00ba 3846     		mov	r0, r7
 638              	.LVL94:
 639 00bc FFF7FEFF 		bl	lv_obj_set_signal_cb
 640              	.LVL95:
 641              	.L66:
 642              	.LBE73:
 148:..\..\..\lvgl\version_6.1.2\lvgl\src\lv_objx/lv_win.c **** 
 643              		.loc 1 148 0
 644 00c0 3846     		mov	r0, r7
 645 00c2 FFF7FEFF 		bl	lv_obj_refresh_style
 646              	.LVL96:
 150:..\..\..\lvgl\version_6.1.2\lvgl\src\lv_objx/lv_win.c **** 
 647              		.loc 1 150 0
 648 00c6 3846     		mov	r0, r7
 649 00c8 FFF7FEFF 		bl	lv_win_realign
 650              	.LVL97:
 154:..\..\..\lvgl\version_6.1.2\lvgl\src\lv_objx/lv_win.c **** }
 651              		.loc 1 154 0
 652 00cc 3846     		mov	r0, r7
 155:..\..\..\lvgl\version_6.1.2\lvgl\src\lv_objx/lv_win.c **** 
 653              		.loc 1 155 0
 654 00ce BDE8F081 		pop	{r4, r5, r6, r7, r8, pc}
 655              	.LVL98:
 656              	.L79:
 657              	.LBB74:
  80:..\..\..\lvgl\version_6.1.2\lvgl\src\lv_objx/lv_win.c ****             w = lv_obj_get_width_fit(lv_obj_get_parent(new_win));
 658              		.loc 1 80 0
 659 00d2 B8F1000F 		cmp	r8, #0
 660 00d6 00F0CD80 		beq	.L58
  81:..\..\..\lvgl\version_6.1.2\lvgl\src\lv_objx/lv_win.c ****             h = lv_obj_get_height_fit(lv_obj_get_parent(new_win));
 661              		.loc 1 81 0
 662 00da 3846     		mov	r0, r7
 663              	.LVL99:
 664 00dc FFF7FEFF 		bl	lv_obj_get_parent
 665              	.LVL100:
 666 00e0 FFF7FEFF 		bl	lv_obj_get_width_fit
 667              	.LVL101:
 668 00e4 0446     		mov	r4, r0
 669              	.LVL102:
  82:..\..\..\lvgl\version_6.1.2\lvgl\src\lv_objx/lv_win.c ****         } else {
ARM GAS  C:\Users\pearlstl\AppData\Local\Temp\ccI2fBBa.s 			page 27


 670              		.loc 1 82 0
 671 00e6 3846     		mov	r0, r7
 672 00e8 FFF7FEFF 		bl	lv_obj_get_parent
 673              	.LVL103:
 674 00ec FFF7FEFF 		bl	lv_obj_get_height_fit
 675              	.LVL104:
 676 00f0 0246     		mov	r2, r0
 677              	.LVL105:
 678              	.L59:
  88:..\..\..\lvgl\version_6.1.2\lvgl\src\lv_objx/lv_win.c **** 
 679              		.loc 1 88 0
 680 00f2 2146     		mov	r1, r4
 681 00f4 3846     		mov	r0, r7
 682 00f6 FFF7FEFF 		bl	lv_obj_set_size
 683              	.LVL106:
  90:..\..\..\lvgl\version_6.1.2\lvgl\src\lv_objx/lv_win.c **** 
 684              		.loc 1 90 0
 685 00fa 6849     		ldr	r1, .L80+16
 686 00fc 3846     		mov	r0, r7
 687 00fe FFF7FEFF 		bl	lv_obj_set_style
 688              	.LVL107:
  92:..\..\..\lvgl\version_6.1.2\lvgl\src\lv_objx/lv_win.c ****         lv_obj_set_protect(ext->page, LV_PROTECT_PARENT);
 689              		.loc 1 92 0
 690 0102 0021     		movs	r1, #0
 691 0104 3846     		mov	r0, r7
 692 0106 FFF7FEFF 		bl	lv_page_create
 693              	.LVL108:
  93:..\..\..\lvgl\version_6.1.2\lvgl\src\lv_objx/lv_win.c ****         lv_page_set_sb_mode(ext->page, LV_SB_MODE_AUTO);
 694              		.loc 1 93 0
 695 010a 0221     		movs	r1, #2
  92:..\..\..\lvgl\version_6.1.2\lvgl\src\lv_objx/lv_win.c ****         lv_obj_set_protect(ext->page, LV_PROTECT_PARENT);
 696              		.loc 1 92 0
 697 010c 2860     		str	r0, [r5]
  93:..\..\..\lvgl\version_6.1.2\lvgl\src\lv_objx/lv_win.c ****         lv_page_set_sb_mode(ext->page, LV_SB_MODE_AUTO);
 698              		.loc 1 93 0
 699 010e FFF7FEFF 		bl	lv_obj_set_protect
 700              	.LVL109:
  94:..\..\..\lvgl\version_6.1.2\lvgl\src\lv_objx/lv_win.c ****         lv_page_set_style(ext->page, LV_PAGE_STYLE_BG, &lv_style_transp_fit);
 701              		.loc 1 94 0
 702 0112 2868     		ldr	r0, [r5]
 703 0114 0321     		movs	r1, #3
 704 0116 FFF7FEFF 		bl	lv_page_set_sb_mode
 705              	.LVL110:
  95:..\..\..\lvgl\version_6.1.2\lvgl\src\lv_objx/lv_win.c **** 
 706              		.loc 1 95 0
 707 011a 614A     		ldr	r2, .L80+20
 708 011c 2868     		ldr	r0, [r5]
 709 011e 0021     		movs	r1, #0
 710 0120 FFF7FEFF 		bl	lv_page_set_style
 711              	.LVL111:
  98:..\..\..\lvgl\version_6.1.2\lvgl\src\lv_objx/lv_win.c ****         /*Move back the header because it is automatically moved to the scrollable */
 712              		.loc 1 98 0
 713 0124 0021     		movs	r1, #0
 714 0126 3846     		mov	r0, r7
 715 0128 FFF7FEFF 		bl	lv_obj_create
 716              	.LVL112:
 100:..\..\..\lvgl\version_6.1.2\lvgl\src\lv_objx/lv_win.c ****         lv_obj_set_parent(ext->header, new_win);
ARM GAS  C:\Users\pearlstl\AppData\Local\Temp\ccI2fBBa.s 			page 28


 717              		.loc 1 100 0
 718 012c 0221     		movs	r1, #2
  98:..\..\..\lvgl\version_6.1.2\lvgl\src\lv_objx/lv_win.c ****         /*Move back the header because it is automatically moved to the scrollable */
 719              		.loc 1 98 0
 720 012e 6860     		str	r0, [r5, #4]
 100:..\..\..\lvgl\version_6.1.2\lvgl\src\lv_objx/lv_win.c ****         lv_obj_set_parent(ext->header, new_win);
 721              		.loc 1 100 0
 722 0130 FFF7FEFF 		bl	lv_obj_set_protect
 723              	.LVL113:
 101:..\..\..\lvgl\version_6.1.2\lvgl\src\lv_objx/lv_win.c **** 
 724              		.loc 1 101 0
 725 0134 6868     		ldr	r0, [r5, #4]
 726 0136 3946     		mov	r1, r7
 727 0138 FFF7FEFF 		bl	lv_obj_set_parent
 728              	.LVL114:
 104:..\..\..\lvgl\version_6.1.2\lvgl\src\lv_objx/lv_win.c ****         lv_label_set_text(ext->title, "My title");
 729              		.loc 1 104 0
 730 013c 0021     		movs	r1, #0
 731 013e 6868     		ldr	r0, [r5, #4]
 732 0140 FFF7FEFF 		bl	lv_label_create
 733              	.LVL115:
 105:..\..\..\lvgl\version_6.1.2\lvgl\src\lv_objx/lv_win.c **** 
 734              		.loc 1 105 0
 735 0144 5749     		ldr	r1, .L80+24
 104:..\..\..\lvgl\version_6.1.2\lvgl\src\lv_objx/lv_win.c ****         lv_label_set_text(ext->title, "My title");
 736              		.loc 1 104 0
 737 0146 A860     		str	r0, [r5, #8]
 105:..\..\..\lvgl\version_6.1.2\lvgl\src\lv_objx/lv_win.c **** 
 738              		.loc 1 105 0
 739 0148 FFF7FEFF 		bl	lv_label_set_text
 740              	.LVL116:
 107:..\..\..\lvgl\version_6.1.2\lvgl\src\lv_objx/lv_win.c **** 
 741              		.loc 1 107 0
 742 014c 5249     		ldr	r1, .L80+12
 743 014e 3846     		mov	r0, r7
 744 0150 FFF7FEFF 		bl	lv_obj_set_signal_cb
 745              	.LVL117:
 110:..\..\..\lvgl\version_6.1.2\lvgl\src\lv_objx/lv_win.c ****         if(th) {
 746              		.loc 1 110 0
 747 0154 FFF7FEFF 		bl	lv_theme_get_current
 748              	.LVL118:
 111:..\..\..\lvgl\version_6.1.2\lvgl\src\lv_objx/lv_win.c ****             lv_win_set_style(new_win, LV_WIN_STYLE_BG, th->style.win.bg);
 749              		.loc 1 111 0
 750 0158 0546     		mov	r5, r0
 751              	.LVL119:
 752 015a 0028     		cmp	r0, #0
 753 015c 6DD0     		beq	.L60
 112:..\..\..\lvgl\version_6.1.2\lvgl\src\lv_objx/lv_win.c ****             lv_win_set_style(new_win, LV_WIN_STYLE_SB, th->style.win.sb);
 754              		.loc 1 112 0
 755 015e D0F89041 		ldr	r4, [r0, #400]
 756              	.LVL120:
 757              	.LBB75:
 758              	.LBB76:
 316:..\..\..\lvgl\version_6.1.2\lvgl\src\lv_objx/lv_win.c **** 
 759              		.loc 1 316 0
 760 0162 3846     		mov	r0, r7
 761              	.LVL121:
ARM GAS  C:\Users\pearlstl\AppData\Local\Temp\ccI2fBBa.s 			page 29


 762 0164 FFF7FEFF 		bl	lv_obj_get_ext_attr
 763              	.LVL122:
 320:..\..\..\lvgl\version_6.1.2\lvgl\src\lv_objx/lv_win.c ****             lv_win_realign(win);
 764              		.loc 1 320 0
 765 0168 2146     		mov	r1, r4
 766 016a 3846     		mov	r0, r7
 767 016c FFF7FEFF 		bl	lv_obj_set_style
 768              	.LVL123:
 321:..\..\..\lvgl\version_6.1.2\lvgl\src\lv_objx/lv_win.c ****             break;
 769              		.loc 1 321 0
 770 0170 3846     		mov	r0, r7
 771 0172 FFF7FEFF 		bl	lv_win_realign
 772              	.LVL124:
 773              	.LBE76:
 774              	.LBE75:
 775              	.LBB77:
 776              	.LBB78:
 316:..\..\..\lvgl\version_6.1.2\lvgl\src\lv_objx/lv_win.c **** 
 777              		.loc 1 316 0
 778 0176 3846     		mov	r0, r7
 779              	.LBE78:
 780              	.LBE77:
 113:..\..\..\lvgl\version_6.1.2\lvgl\src\lv_objx/lv_win.c ****             lv_win_set_style(new_win, LV_WIN_STYLE_HEADER, th->style.win.header);
 781              		.loc 1 113 0
 782 0178 D5F89441 		ldr	r4, [r5, #404]
 783              	.LVL125:
 784              	.LBB80:
 785              	.LBB79:
 316:..\..\..\lvgl\version_6.1.2\lvgl\src\lv_objx/lv_win.c **** 
 786              		.loc 1 316 0
 787 017c FFF7FEFF 		bl	lv_obj_get_ext_attr
 788              	.LVL126:
 324:..\..\..\lvgl\version_6.1.2\lvgl\src\lv_objx/lv_win.c ****         case LV_WIN_STYLE_HEADER:
 789              		.loc 1 324 0
 790 0180 2246     		mov	r2, r4
 791 0182 0221     		movs	r1, #2
 792 0184 0068     		ldr	r0, [r0]
 793              	.LVL127:
 794 0186 FFF7FEFF 		bl	lv_page_set_style
 795              	.LVL128:
 796              	.LBE79:
 797              	.LBE80:
 798              	.LBB81:
 799              	.LBB82:
 316:..\..\..\lvgl\version_6.1.2\lvgl\src\lv_objx/lv_win.c **** 
 800              		.loc 1 316 0
 801 018a 3846     		mov	r0, r7
 802              	.LBE82:
 803              	.LBE81:
 114:..\..\..\lvgl\version_6.1.2\lvgl\src\lv_objx/lv_win.c ****             lv_win_set_style(new_win, LV_WIN_STYLE_CONTENT, th->style.win.content);
 804              		.loc 1 114 0
 805 018c D5F89841 		ldr	r4, [r5, #408]
 806              	.LVL129:
 807              	.LBB84:
 808              	.LBB83:
 316:..\..\..\lvgl\version_6.1.2\lvgl\src\lv_objx/lv_win.c **** 
 809              		.loc 1 316 0
ARM GAS  C:\Users\pearlstl\AppData\Local\Temp\ccI2fBBa.s 			page 30


 810 0190 FFF7FEFF 		bl	lv_obj_get_ext_attr
 811              	.LVL130:
 326:..\..\..\lvgl\version_6.1.2\lvgl\src\lv_objx/lv_win.c ****             lv_win_realign(win);
 812              		.loc 1 326 0
 813 0194 2146     		mov	r1, r4
 814 0196 4068     		ldr	r0, [r0, #4]
 815              	.LVL131:
 816 0198 FFF7FEFF 		bl	lv_obj_set_style
 817              	.LVL132:
 327:..\..\..\lvgl\version_6.1.2\lvgl\src\lv_objx/lv_win.c ****             break;
 818              		.loc 1 327 0
 819 019c 3846     		mov	r0, r7
 820 019e FFF7FEFF 		bl	lv_win_realign
 821              	.LVL133:
 822              	.LBE83:
 823              	.LBE84:
 824              	.LBB85:
 825              	.LBB86:
 316:..\..\..\lvgl\version_6.1.2\lvgl\src\lv_objx/lv_win.c **** 
 826              		.loc 1 316 0
 827 01a2 3846     		mov	r0, r7
 828              	.LBE86:
 829              	.LBE85:
 115:..\..\..\lvgl\version_6.1.2\lvgl\src\lv_objx/lv_win.c ****             lv_win_set_style(new_win, LV_WIN_STYLE_BTN_REL, th->style.win.btn.rel);
 830              		.loc 1 115 0
 831 01a4 D5F89C41 		ldr	r4, [r5, #412]
 832              	.LVL134:
 833              	.LBB88:
 834              	.LBB87:
 316:..\..\..\lvgl\version_6.1.2\lvgl\src\lv_objx/lv_win.c **** 
 835              		.loc 1 316 0
 836 01a8 FFF7FEFF 		bl	lv_obj_get_ext_attr
 837              	.LVL135:
 323:..\..\..\lvgl\version_6.1.2\lvgl\src\lv_objx/lv_win.c ****         case LV_WIN_STYLE_SB: lv_page_set_style(ext->page, LV_PAGE_STYLE_SB, style); break;
 838              		.loc 1 323 0
 839 01ac 2246     		mov	r2, r4
 840 01ae 0121     		movs	r1, #1
 841 01b0 0068     		ldr	r0, [r0]
 842              	.LVL136:
 843 01b2 FFF7FEFF 		bl	lv_page_set_style
 844              	.LVL137:
 845              	.LBE87:
 846              	.LBE88:
 847              	.LBB89:
 848              	.LBB90:
 316:..\..\..\lvgl\version_6.1.2\lvgl\src\lv_objx/lv_win.c **** 
 849              		.loc 1 316 0
 850 01b6 3846     		mov	r0, r7
 851              	.LBE90:
 852              	.LBE89:
 116:..\..\..\lvgl\version_6.1.2\lvgl\src\lv_objx/lv_win.c ****             lv_win_set_style(new_win, LV_WIN_STYLE_BTN_PR, th->style.win.btn.pr);
 853              		.loc 1 116 0
 854 01b8 D5F8A081 		ldr	r8, [r5, #416]
 855              	.LVL138:
 856              	.LBB94:
 857              	.LBB93:
 316:..\..\..\lvgl\version_6.1.2\lvgl\src\lv_objx/lv_win.c **** 
ARM GAS  C:\Users\pearlstl\AppData\Local\Temp\ccI2fBBa.s 			page 31


 858              		.loc 1 316 0
 859 01bc FFF7FEFF 		bl	lv_obj_get_ext_attr
 860              	.LVL139:
 861              	.LBB91:
 336:..\..\..\lvgl\version_6.1.2\lvgl\src\lv_objx/lv_win.c ****         btn = lv_obj_get_child_back(ext->header, btn); /*Skip the title*/
 862              		.loc 1 336 0
 863 01c0 0021     		movs	r1, #0
 864              	.LBE91:
 316:..\..\..\lvgl\version_6.1.2\lvgl\src\lv_objx/lv_win.c **** 
 865              		.loc 1 316 0
 866 01c2 0646     		mov	r6, r0
 867              	.LVL140:
 329:..\..\..\lvgl\version_6.1.2\lvgl\src\lv_objx/lv_win.c ****         case LV_WIN_STYLE_BTN_PR: ext->style_btn_pr = style; break;
 868              		.loc 1 329 0
 869 01c4 C0F80C80 		str	r8, [r0, #12]
 870              	.LBB92:
 336:..\..\..\lvgl\version_6.1.2\lvgl\src\lv_objx/lv_win.c ****         btn = lv_obj_get_child_back(ext->header, btn); /*Skip the title*/
 871              		.loc 1 336 0
 872 01c8 4068     		ldr	r0, [r0, #4]
 873              	.LVL141:
 874 01ca FFF7FEFF 		bl	lv_obj_get_child_back
 875              	.LVL142:
 337:..\..\..\lvgl\version_6.1.2\lvgl\src\lv_objx/lv_win.c ****         while(btn != NULL) {
 876              		.loc 1 337 0
 877 01ce 0146     		mov	r1, r0
 878 01d0 7068     		ldr	r0, [r6, #4]
 879              	.LVL143:
 880 01d2 FFF7FEFF 		bl	lv_obj_get_child_back
 881              	.LVL144:
 338:..\..\..\lvgl\version_6.1.2\lvgl\src\lv_objx/lv_win.c ****             if(type == LV_WIN_STYLE_BTN_REL)
 882              		.loc 1 338 0
 883 01d6 0446     		mov	r4, r0
 884 01d8 58B1     		cbz	r0, .L65
 885              	.L64:
 340:..\..\..\lvgl\version_6.1.2\lvgl\src\lv_objx/lv_win.c ****             else
 886              		.loc 1 340 0
 887 01da 2046     		mov	r0, r4
 888 01dc 4246     		mov	r2, r8
 889 01de 0021     		movs	r1, #0
 890 01e0 FFF7FEFF 		bl	lv_btn_set_style
 891              	.LVL145:
 343:..\..\..\lvgl\version_6.1.2\lvgl\src\lv_objx/lv_win.c ****         }
 892              		.loc 1 343 0
 893 01e4 2146     		mov	r1, r4
 894 01e6 7068     		ldr	r0, [r6, #4]
 895 01e8 FFF7FEFF 		bl	lv_obj_get_child_back
 896              	.LVL146:
 338:..\..\..\lvgl\version_6.1.2\lvgl\src\lv_objx/lv_win.c ****             if(type == LV_WIN_STYLE_BTN_REL)
 897              		.loc 1 338 0
 898 01ec 0446     		mov	r4, r0
 899 01ee 0028     		cmp	r0, #0
 900 01f0 F3D1     		bne	.L64
 901              	.L65:
 902              	.LVL147:
 903              	.LBE92:
 904              	.LBE93:
 905              	.LBE94:
ARM GAS  C:\Users\pearlstl\AppData\Local\Temp\ccI2fBBa.s 			page 32


 906              	.LBB95:
 907              	.LBB96:
 316:..\..\..\lvgl\version_6.1.2\lvgl\src\lv_objx/lv_win.c **** 
 908              		.loc 1 316 0
 909 01f2 3846     		mov	r0, r7
 910              	.LBE96:
 911              	.LBE95:
 117:..\..\..\lvgl\version_6.1.2\lvgl\src\lv_objx/lv_win.c ****         } else {
 912              		.loc 1 117 0
 913 01f4 D5F8A461 		ldr	r6, [r5, #420]
 914              	.LVL148:
 915              	.LBB100:
 916              	.LBB99:
 316:..\..\..\lvgl\version_6.1.2\lvgl\src\lv_objx/lv_win.c **** 
 917              		.loc 1 316 0
 918 01f8 FFF7FEFF 		bl	lv_obj_get_ext_attr
 919              	.LVL149:
 920              	.LBB97:
 336:..\..\..\lvgl\version_6.1.2\lvgl\src\lv_objx/lv_win.c ****         btn = lv_obj_get_child_back(ext->header, btn); /*Skip the title*/
 921              		.loc 1 336 0
 922 01fc 0021     		movs	r1, #0
 923              	.LBE97:
 316:..\..\..\lvgl\version_6.1.2\lvgl\src\lv_objx/lv_win.c **** 
 924              		.loc 1 316 0
 925 01fe 0546     		mov	r5, r0
 926              	.LVL150:
 330:..\..\..\lvgl\version_6.1.2\lvgl\src\lv_objx/lv_win.c ****     }
 927              		.loc 1 330 0
 928 0200 0661     		str	r6, [r0, #16]
 929              	.LBB98:
 336:..\..\..\lvgl\version_6.1.2\lvgl\src\lv_objx/lv_win.c ****         btn = lv_obj_get_child_back(ext->header, btn); /*Skip the title*/
 930              		.loc 1 336 0
 931 0202 4068     		ldr	r0, [r0, #4]
 932              	.LVL151:
 933 0204 FFF7FEFF 		bl	lv_obj_get_child_back
 934              	.LVL152:
 337:..\..\..\lvgl\version_6.1.2\lvgl\src\lv_objx/lv_win.c ****         while(btn != NULL) {
 935              		.loc 1 337 0
 936 0208 0146     		mov	r1, r0
 937 020a 6868     		ldr	r0, [r5, #4]
 938              	.LVL153:
 939 020c FFF7FEFF 		bl	lv_obj_get_child_back
 940              	.LVL154:
 338:..\..\..\lvgl\version_6.1.2\lvgl\src\lv_objx/lv_win.c ****             if(type == LV_WIN_STYLE_BTN_REL)
 941              		.loc 1 338 0
 942 0210 0446     		mov	r4, r0
 943 0212 0028     		cmp	r0, #0
 944 0214 3FF454AF 		beq	.L66
 945              	.L67:
 342:..\..\..\lvgl\version_6.1.2\lvgl\src\lv_objx/lv_win.c ****             btn = lv_obj_get_child_back(ext->header, btn);
 946              		.loc 1 342 0
 947 0218 2046     		mov	r0, r4
 948 021a 3246     		mov	r2, r6
 949 021c 0121     		movs	r1, #1
 950 021e FFF7FEFF 		bl	lv_btn_set_style
 951              	.LVL155:
 343:..\..\..\lvgl\version_6.1.2\lvgl\src\lv_objx/lv_win.c ****         }
ARM GAS  C:\Users\pearlstl\AppData\Local\Temp\ccI2fBBa.s 			page 33


 952              		.loc 1 343 0
 953 0222 2146     		mov	r1, r4
 954 0224 6868     		ldr	r0, [r5, #4]
 955 0226 FFF7FEFF 		bl	lv_obj_get_child_back
 956              	.LVL156:
 338:..\..\..\lvgl\version_6.1.2\lvgl\src\lv_objx/lv_win.c ****             if(type == LV_WIN_STYLE_BTN_REL)
 957              		.loc 1 338 0
 958 022a 0446     		mov	r4, r0
 959 022c 0028     		cmp	r0, #0
 960 022e F3D1     		bne	.L67
 961 0230 46E7     		b	.L66
 962              	.LVL157:
 963              	.L78:
 964              	.LBE98:
 965              	.LBE99:
 966              	.LBE100:
 967              	.LBE74:
  59:..\..\..\lvgl\version_6.1.2\lvgl\src\lv_objx/lv_win.c **** 
 968              		.loc 1 59 0 discriminator 1
 969 0232 FFF7FEFF 		bl	lv_obj_get_signal_cb
 970              	.LVL158:
 971 0236 2060     		str	r0, [r4]
 972 0238 F1E6     		b	.L55
 973              	.LVL159:
 974              	.L60:
 975              	.LBB107:
 976              	.LBB101:
 977              	.LBB102:
 316:..\..\..\lvgl\version_6.1.2\lvgl\src\lv_objx/lv_win.c **** 
 978              		.loc 1 316 0
 979 023a 3846     		mov	r0, r7
 980              	.LVL160:
 981 023c FFF7FEFF 		bl	lv_obj_get_ext_attr
 982              	.LVL161:
 320:..\..\..\lvgl\version_6.1.2\lvgl\src\lv_objx/lv_win.c ****             lv_win_realign(win);
 983              		.loc 1 320 0
 984 0240 1949     		ldr	r1, .L80+28
 985 0242 3846     		mov	r0, r7
 986 0244 FFF7FEFF 		bl	lv_obj_set_style
 987              	.LVL162:
 321:..\..\..\lvgl\version_6.1.2\lvgl\src\lv_objx/lv_win.c ****             break;
 988              		.loc 1 321 0
 989 0248 3846     		mov	r0, r7
 990 024a FFF7FEFF 		bl	lv_win_realign
 991              	.LVL163:
 992              	.LBE102:
 993              	.LBE101:
 994              	.LBB103:
 995              	.LBB104:
 316:..\..\..\lvgl\version_6.1.2\lvgl\src\lv_objx/lv_win.c **** 
 996              		.loc 1 316 0
 997 024e 3846     		mov	r0, r7
 998 0250 FFF7FEFF 		bl	lv_obj_get_ext_attr
 999              	.LVL164:
 323:..\..\..\lvgl\version_6.1.2\lvgl\src\lv_objx/lv_win.c ****         case LV_WIN_STYLE_SB: lv_page_set_style(ext->page, LV_PAGE_STYLE_SB, style); break;
 1000              		.loc 1 323 0
 1001 0254 154A     		ldr	r2, .L80+32
ARM GAS  C:\Users\pearlstl\AppData\Local\Temp\ccI2fBBa.s 			page 34


 1002 0256 0068     		ldr	r0, [r0]
 1003              	.LVL165:
 1004 0258 0121     		movs	r1, #1
 1005 025a FFF7FEFF 		bl	lv_page_set_style
 1006              	.LVL166:
 1007              	.LBE104:
 1008              	.LBE103:
 1009              	.LBB105:
 1010              	.LBB106:
 316:..\..\..\lvgl\version_6.1.2\lvgl\src\lv_objx/lv_win.c **** 
 1011              		.loc 1 316 0
 1012 025e 3846     		mov	r0, r7
 1013 0260 FFF7FEFF 		bl	lv_obj_get_ext_attr
 1014              	.LVL167:
 326:..\..\..\lvgl\version_6.1.2\lvgl\src\lv_objx/lv_win.c ****             lv_win_realign(win);
 1015              		.loc 1 326 0
 1016 0264 1249     		ldr	r1, .L80+36
 1017 0266 4068     		ldr	r0, [r0, #4]
 1018              	.LVL168:
 1019 0268 FFF7FEFF 		bl	lv_obj_set_style
 1020              	.LVL169:
 327:..\..\..\lvgl\version_6.1.2\lvgl\src\lv_objx/lv_win.c ****             break;
 1021              		.loc 1 327 0
 1022 026c 3846     		mov	r0, r7
 1023 026e FFF7FEFF 		bl	lv_win_realign
 1024              	.LVL170:
 1025 0272 25E7     		b	.L66
 1026              	.LVL171:
 1027              	.L58:
 1028              	.LBE106:
 1029              	.LBE105:
  84:..\..\..\lvgl\version_6.1.2\lvgl\src\lv_objx/lv_win.c ****             h = lv_disp_get_ver_res(NULL);
 1030              		.loc 1 84 0
 1031 0274 4046     		mov	r0, r8
 1032              	.LVL172:
 1033 0276 FFF7FEFF 		bl	lv_disp_get_hor_res
 1034              	.LVL173:
 1035 027a 0446     		mov	r4, r0
 1036              	.LVL174:
  85:..\..\..\lvgl\version_6.1.2\lvgl\src\lv_objx/lv_win.c ****         }
 1037              		.loc 1 85 0
 1038 027c 4046     		mov	r0, r8
 1039 027e FFF7FEFF 		bl	lv_disp_get_ver_res
 1040              	.LVL175:
 1041 0282 0246     		mov	r2, r0
 1042              	.LVL176:
 1043 0284 35E7     		b	.L59
 1044              	.LVL177:
 1045              	.L56:
 1046              	.LBE107:
  57:..\..\..\lvgl\version_6.1.2\lvgl\src\lv_objx/lv_win.c **** 
 1047              		.loc 1 57 0
 1048 0286 0020     		movs	r0, #0
 1049 0288 BDE8F081 		pop	{r4, r5, r6, r7, r8, pc}
 1050              	.LVL178:
 1051              	.L81:
 1052              		.align	2
ARM GAS  C:\Users\pearlstl\AppData\Local\Temp\ccI2fBBa.s 			page 35


 1053              	.L80:
 1054 028c 00000000 		.word	.LANCHOR0
 1055 0290 00000000 		.word	lv_style_btn_rel
 1056 0294 00000000 		.word	lv_style_btn_pr
 1057 0298 00000000 		.word	lv_win_signal
 1058 029c 00000000 		.word	lv_style_pretty
 1059 02a0 00000000 		.word	lv_style_transp_fit
 1060 02a4 08000000 		.word	.LC1
 1061 02a8 00000000 		.word	lv_style_plain
 1062 02ac 00000000 		.word	lv_style_transp
 1063 02b0 00000000 		.word	lv_style_plain_color
 1064              		.cfi_endproc
 1065              	.LFE68:
 1066              		.size	lv_win_create, .-lv_win_create
 1067              		.section	.text.lv_win_clean,"ax",%progbits
 1068              		.align	2
 1069              		.global	lv_win_clean
 1070              		.thumb
 1071              		.thumb_func
 1072              		.type	lv_win_clean, %function
 1073              	lv_win_clean:
 1074              	.LFB69:
 162:..\..\..\lvgl\version_6.1.2\lvgl\src\lv_objx/lv_win.c ****     LV_ASSERT_OBJ(win, LV_OBJX_NAME);
 1075              		.loc 1 162 0
 1076              		.cfi_startproc
 1077              		@ args = 0, pretend = 0, frame = 0
 1078              		@ frame_needed = 0, uses_anonymous_args = 0
 1079              	.LVL179:
 1080 0000 08B5     		push	{r3, lr}
 1081              		.cfi_def_cfa_offset 8
 1082              		.cfi_offset 3, -8
 1083              		.cfi_offset 14, -4
 165:..\..\..\lvgl\version_6.1.2\lvgl\src\lv_objx/lv_win.c ****     lv_obj_clean(scrl);
 1084              		.loc 1 165 0
 1085 0002 FFF7FEFF 		bl	lv_page_get_scrl
 1086              	.LVL180:
 167:..\..\..\lvgl\version_6.1.2\lvgl\src\lv_objx/lv_win.c **** 
 1087              		.loc 1 167 0
 1088 0006 BDE80840 		pop	{r3, lr}
 1089              		.cfi_restore 14
 1090              		.cfi_restore 3
 1091              		.cfi_def_cfa_offset 0
 166:..\..\..\lvgl\version_6.1.2\lvgl\src\lv_objx/lv_win.c **** }
 1092              		.loc 1 166 0
 1093 000a FFF7FEBF 		b	lv_obj_clean
 1094              	.LVL181:
 1095              		.cfi_endproc
 1096              	.LFE69:
 1097              		.size	lv_win_clean, .-lv_win_clean
 1098 000e 00BF     		.section	.text.lv_win_add_btn,"ax",%progbits
 1099              		.align	2
 1100              		.global	lv_win_add_btn
 1101              		.thumb
 1102              		.thumb_func
 1103              		.type	lv_win_add_btn, %function
 1104              	lv_win_add_btn:
 1105              	.LFB70:
ARM GAS  C:\Users\pearlstl\AppData\Local\Temp\ccI2fBBa.s 			page 36


 180:..\..\..\lvgl\version_6.1.2\lvgl\src\lv_objx/lv_win.c ****     LV_ASSERT_OBJ(win, LV_OBJX_NAME);
 1106              		.loc 1 180 0
 1107              		.cfi_startproc
 1108              		@ args = 0, pretend = 0, frame = 0
 1109              		@ frame_needed = 0, uses_anonymous_args = 0
 1110              	.LVL182:
 1111 0000 F8B5     		push	{r3, r4, r5, r6, r7, lr}
 1112              		.cfi_def_cfa_offset 24
 1113              		.cfi_offset 3, -24
 1114              		.cfi_offset 4, -20
 1115              		.cfi_offset 5, -16
 1116              		.cfi_offset 6, -12
 1117              		.cfi_offset 7, -8
 1118              		.cfi_offset 14, -4
 180:..\..\..\lvgl\version_6.1.2\lvgl\src\lv_objx/lv_win.c ****     LV_ASSERT_OBJ(win, LV_OBJX_NAME);
 1119              		.loc 1 180 0
 1120 0002 0F46     		mov	r7, r1
 1121 0004 0646     		mov	r6, r0
 184:..\..\..\lvgl\version_6.1.2\lvgl\src\lv_objx/lv_win.c **** 
 1122              		.loc 1 184 0
 1123 0006 FFF7FEFF 		bl	lv_obj_get_ext_attr
 1124              	.LVL183:
 186:..\..\..\lvgl\version_6.1.2\lvgl\src\lv_objx/lv_win.c ****     lv_btn_set_style(btn, LV_BTN_STYLE_REL, ext->style_btn_rel);
 1125              		.loc 1 186 0
 1126 000a 0021     		movs	r1, #0
 184:..\..\..\lvgl\version_6.1.2\lvgl\src\lv_objx/lv_win.c **** 
 1127              		.loc 1 184 0
 1128 000c 0546     		mov	r5, r0
 1129              	.LVL184:
 186:..\..\..\lvgl\version_6.1.2\lvgl\src\lv_objx/lv_win.c ****     lv_btn_set_style(btn, LV_BTN_STYLE_REL, ext->style_btn_rel);
 1130              		.loc 1 186 0
 1131 000e 4068     		ldr	r0, [r0, #4]
 1132              	.LVL185:
 1133 0010 FFF7FEFF 		bl	lv_btn_create
 1134              	.LVL186:
 187:..\..\..\lvgl\version_6.1.2\lvgl\src\lv_objx/lv_win.c ****     lv_btn_set_style(btn, LV_BTN_STYLE_PR, ext->style_btn_pr);
 1135              		.loc 1 187 0
 1136 0014 EA68     		ldr	r2, [r5, #12]
 186:..\..\..\lvgl\version_6.1.2\lvgl\src\lv_objx/lv_win.c ****     lv_btn_set_style(btn, LV_BTN_STYLE_REL, ext->style_btn_rel);
 1137              		.loc 1 186 0
 1138 0016 0446     		mov	r4, r0
 1139              	.LVL187:
 187:..\..\..\lvgl\version_6.1.2\lvgl\src\lv_objx/lv_win.c ****     lv_btn_set_style(btn, LV_BTN_STYLE_PR, ext->style_btn_pr);
 1140              		.loc 1 187 0
 1141 0018 0021     		movs	r1, #0
 1142 001a FFF7FEFF 		bl	lv_btn_set_style
 1143              	.LVL188:
 188:..\..\..\lvgl\version_6.1.2\lvgl\src\lv_objx/lv_win.c ****     lv_obj_set_size(btn, ext->btn_size, ext->btn_size);
 1144              		.loc 1 188 0
 1145 001e 2A69     		ldr	r2, [r5, #16]
 1146 0020 2046     		mov	r0, r4
 1147 0022 0121     		movs	r1, #1
 1148 0024 FFF7FEFF 		bl	lv_btn_set_style
 1149              	.LVL189:
 189:..\..\..\lvgl\version_6.1.2\lvgl\src\lv_objx/lv_win.c **** 
 1150              		.loc 1 189 0
 1151 0028 B5F91420 		ldrsh	r2, [r5, #20]
ARM GAS  C:\Users\pearlstl\AppData\Local\Temp\ccI2fBBa.s 			page 37


 1152 002c 2046     		mov	r0, r4
 1153 002e 1146     		mov	r1, r2
 1154 0030 FFF7FEFF 		bl	lv_obj_set_size
 1155              	.LVL190:
 191:..\..\..\lvgl\version_6.1.2\lvgl\src\lv_objx/lv_win.c ****     lv_obj_set_click(img, false);
 1156              		.loc 1 191 0
 1157 0034 2046     		mov	r0, r4
 1158 0036 0021     		movs	r1, #0
 1159 0038 FFF7FEFF 		bl	lv_img_create
 1160              	.LVL191:
 192:..\..\..\lvgl\version_6.1.2\lvgl\src\lv_objx/lv_win.c ****     lv_img_set_src(img, img_src);
 1161              		.loc 1 192 0
 1162 003c 0021     		movs	r1, #0
 191:..\..\..\lvgl\version_6.1.2\lvgl\src\lv_objx/lv_win.c ****     lv_obj_set_click(img, false);
 1163              		.loc 1 191 0
 1164 003e 0546     		mov	r5, r0
 1165              	.LVL192:
 192:..\..\..\lvgl\version_6.1.2\lvgl\src\lv_objx/lv_win.c ****     lv_img_set_src(img, img_src);
 1166              		.loc 1 192 0
 1167 0040 FFF7FEFF 		bl	lv_obj_set_click
 1168              	.LVL193:
 193:..\..\..\lvgl\version_6.1.2\lvgl\src\lv_objx/lv_win.c **** 
 1169              		.loc 1 193 0
 1170 0044 3946     		mov	r1, r7
 1171 0046 2846     		mov	r0, r5
 1172 0048 FFF7FEFF 		bl	lv_img_set_src
 1173              	.LVL194:
 195:..\..\..\lvgl\version_6.1.2\lvgl\src\lv_objx/lv_win.c **** 
 1174              		.loc 1 195 0
 1175 004c 3046     		mov	r0, r6
 1176 004e FFF7FEFF 		bl	lv_win_realign
 1177              	.LVL195:
 198:..\..\..\lvgl\version_6.1.2\lvgl\src\lv_objx/lv_win.c **** 
 1178              		.loc 1 198 0
 1179 0052 2046     		mov	r0, r4
 1180 0054 F8BD     		pop	{r3, r4, r5, r6, r7, pc}
 1181              		.cfi_endproc
 1182              	.LFE70:
 1183              		.size	lv_win_add_btn, .-lv_win_add_btn
 1184 0056 00BF     		.section	.text.lv_win_close_event_cb,"ax",%progbits
 1185              		.align	2
 1186              		.global	lv_win_close_event_cb
 1187              		.thumb
 1188              		.thumb_func
 1189              		.type	lv_win_close_event_cb, %function
 1190              	lv_win_close_event_cb:
 1191              	.LFB71:
 210:..\..\..\lvgl\version_6.1.2\lvgl\src\lv_objx/lv_win.c ****     LV_ASSERT_OBJ(btn, "lv_btn");
 1192              		.loc 1 210 0
 1193              		.cfi_startproc
 1194              		@ args = 0, pretend = 0, frame = 0
 1195              		@ frame_needed = 0, uses_anonymous_args = 0
 1196              	.LVL196:
 213:..\..\..\lvgl\version_6.1.2\lvgl\src\lv_objx/lv_win.c ****         lv_obj_t * win = lv_win_get_from_btn(btn);
 1197              		.loc 1 213 0
 1198 0000 0729     		cmp	r1, #7
 1199 0002 00D0     		beq	.L90
ARM GAS  C:\Users\pearlstl\AppData\Local\Temp\ccI2fBBa.s 			page 38


 1200 0004 7047     		bx	lr
 1201              	.L90:
 210:..\..\..\lvgl\version_6.1.2\lvgl\src\lv_objx/lv_win.c ****     LV_ASSERT_OBJ(btn, "lv_btn");
 1202              		.loc 1 210 0
 1203 0006 08B5     		push	{r3, lr}
 1204              		.cfi_def_cfa_offset 8
 1205              		.cfi_offset 3, -8
 1206              		.cfi_offset 14, -4
 1207              	.LBB108:
 1208              	.LBB109:
 1209              	.LBB110:
 416:..\..\..\lvgl\version_6.1.2\lvgl\src\lv_objx/lv_win.c ****     lv_obj_t * win    = lv_obj_get_parent(header);
 1210              		.loc 1 416 0
 1211 0008 FFF7FEFF 		bl	lv_obj_get_parent
 1212              	.LVL197:
 417:..\..\..\lvgl\version_6.1.2\lvgl\src\lv_objx/lv_win.c **** 
 1213              		.loc 1 417 0
 1214 000c FFF7FEFF 		bl	lv_obj_get_parent
 1215              	.LVL198:
 1216              	.LBE110:
 1217              	.LBE109:
 1218              	.LBE108:
 218:..\..\..\lvgl\version_6.1.2\lvgl\src\lv_objx/lv_win.c **** 
 1219              		.loc 1 218 0
 1220 0010 BDE80840 		pop	{r3, lr}
 1221              		.cfi_restore 14
 1222              		.cfi_restore 3
 1223              		.cfi_def_cfa_offset 0
 1224              	.LBB111:
 216:..\..\..\lvgl\version_6.1.2\lvgl\src\lv_objx/lv_win.c ****     }
 1225              		.loc 1 216 0
 1226 0014 FFF7FEBF 		b	lv_obj_del
 1227              	.LVL199:
 1228              	.LBE111:
 1229              		.cfi_endproc
 1230              	.LFE71:
 1231              		.size	lv_win_close_event_cb, .-lv_win_close_event_cb
 1232              		.section	.text.lv_win_set_title,"ax",%progbits
 1233              		.align	2
 1234              		.global	lv_win_set_title
 1235              		.thumb
 1236              		.thumb_func
 1237              		.type	lv_win_set_title, %function
 1238              	lv_win_set_title:
 1239              	.LFB72:
 226:..\..\..\lvgl\version_6.1.2\lvgl\src\lv_objx/lv_win.c ****     LV_ASSERT_OBJ(win, LV_OBJX_NAME);
 1240              		.loc 1 226 0
 1241              		.cfi_startproc
 1242              		@ args = 0, pretend = 0, frame = 0
 1243              		@ frame_needed = 0, uses_anonymous_args = 0
 1244              	.LVL200:
 1245 0000 38B5     		push	{r3, r4, r5, lr}
 1246              		.cfi_def_cfa_offset 16
 1247              		.cfi_offset 3, -16
 1248              		.cfi_offset 4, -12
 1249              		.cfi_offset 5, -8
 1250              		.cfi_offset 14, -4
ARM GAS  C:\Users\pearlstl\AppData\Local\Temp\ccI2fBBa.s 			page 39


 226:..\..\..\lvgl\version_6.1.2\lvgl\src\lv_objx/lv_win.c ****     LV_ASSERT_OBJ(win, LV_OBJX_NAME);
 1251              		.loc 1 226 0
 1252 0002 0D46     		mov	r5, r1
 1253 0004 0446     		mov	r4, r0
 230:..\..\..\lvgl\version_6.1.2\lvgl\src\lv_objx/lv_win.c **** 
 1254              		.loc 1 230 0
 1255 0006 FFF7FEFF 		bl	lv_obj_get_ext_attr
 1256              	.LVL201:
 232:..\..\..\lvgl\version_6.1.2\lvgl\src\lv_objx/lv_win.c ****     lv_win_realign(win);
 1257              		.loc 1 232 0
 1258 000a 2946     		mov	r1, r5
 1259 000c 8068     		ldr	r0, [r0, #8]
 1260              	.LVL202:
 1261 000e FFF7FEFF 		bl	lv_label_set_text
 1262              	.LVL203:
 233:..\..\..\lvgl\version_6.1.2\lvgl\src\lv_objx/lv_win.c **** }
 1263              		.loc 1 233 0
 1264 0012 2046     		mov	r0, r4
 234:..\..\..\lvgl\version_6.1.2\lvgl\src\lv_objx/lv_win.c **** 
 1265              		.loc 1 234 0
 1266 0014 BDE83840 		pop	{r3, r4, r5, lr}
 1267              		.cfi_restore 14
 1268              		.cfi_restore 5
 1269              		.cfi_restore 4
 1270              		.cfi_restore 3
 1271              		.cfi_def_cfa_offset 0
 1272              	.LVL204:
 233:..\..\..\lvgl\version_6.1.2\lvgl\src\lv_objx/lv_win.c **** }
 1273              		.loc 1 233 0
 1274 0018 FFF7FEBF 		b	lv_win_realign
 1275              	.LVL205:
 1276              		.cfi_endproc
 1277              	.LFE72:
 1278              		.size	lv_win_set_title, .-lv_win_set_title
 1279              		.section	.text.lv_win_set_btn_size,"ax",%progbits
 1280              		.align	2
 1281              		.global	lv_win_set_btn_size
 1282              		.thumb
 1283              		.thumb_func
 1284              		.type	lv_win_set_btn_size, %function
 1285              	lv_win_set_btn_size:
 1286              	.LFB73:
 242:..\..\..\lvgl\version_6.1.2\lvgl\src\lv_objx/lv_win.c ****     LV_ASSERT_OBJ(win, LV_OBJX_NAME);
 1287              		.loc 1 242 0
 1288              		.cfi_startproc
 1289              		@ args = 0, pretend = 0, frame = 0
 1290              		@ frame_needed = 0, uses_anonymous_args = 0
 1291              	.LVL206:
 1292 0000 38B5     		push	{r3, r4, r5, lr}
 1293              		.cfi_def_cfa_offset 16
 1294              		.cfi_offset 3, -16
 1295              		.cfi_offset 4, -12
 1296              		.cfi_offset 5, -8
 1297              		.cfi_offset 14, -4
 242:..\..\..\lvgl\version_6.1.2\lvgl\src\lv_objx/lv_win.c ****     LV_ASSERT_OBJ(win, LV_OBJX_NAME);
 1298              		.loc 1 242 0
 1299 0002 0C46     		mov	r4, r1
ARM GAS  C:\Users\pearlstl\AppData\Local\Temp\ccI2fBBa.s 			page 40


 1300 0004 0546     		mov	r5, r0
 245:..\..\..\lvgl\version_6.1.2\lvgl\src\lv_objx/lv_win.c ****     if(ext->btn_size == size) return;
 1301              		.loc 1 245 0
 1302 0006 FFF7FEFF 		bl	lv_obj_get_ext_attr
 1303              	.LVL207:
 246:..\..\..\lvgl\version_6.1.2\lvgl\src\lv_objx/lv_win.c **** 
 1304              		.loc 1 246 0
 1305 000a B0F91430 		ldrsh	r3, [r0, #20]
 1306 000e A342     		cmp	r3, r4
 1307 0010 05D0     		beq	.L93
 248:..\..\..\lvgl\version_6.1.2\lvgl\src\lv_objx/lv_win.c **** 
 1308              		.loc 1 248 0
 1309 0012 8482     		strh	r4, [r0, #20]	@ movhi
 250:..\..\..\lvgl\version_6.1.2\lvgl\src\lv_objx/lv_win.c **** }
 1310              		.loc 1 250 0
 1311 0014 2846     		mov	r0, r5
 1312              	.LVL208:
 251:..\..\..\lvgl\version_6.1.2\lvgl\src\lv_objx/lv_win.c **** 
 1313              		.loc 1 251 0
 1314 0016 BDE83840 		pop	{r3, r4, r5, lr}
 1315              		.cfi_remember_state
 1316              		.cfi_restore 14
 1317              		.cfi_restore 5
 1318              		.cfi_restore 4
 1319              		.cfi_restore 3
 1320              		.cfi_def_cfa_offset 0
 1321              	.LVL209:
 250:..\..\..\lvgl\version_6.1.2\lvgl\src\lv_objx/lv_win.c **** }
 1322              		.loc 1 250 0
 1323 001a FFF7FEBF 		b	lv_win_realign
 1324              	.LVL210:
 1325              	.L93:
 1326              		.cfi_restore_state
 1327 001e 38BD     		pop	{r3, r4, r5, pc}
 1328              		.cfi_endproc
 1329              	.LFE73:
 1330              		.size	lv_win_set_btn_size, .-lv_win_set_btn_size
 1331              		.section	.text.lv_win_set_content_size,"ax",%progbits
 1332              		.align	2
 1333              		.global	lv_win_set_content_size
 1334              		.thumb
 1335              		.thumb_func
 1336              		.type	lv_win_set_content_size, %function
 1337              	lv_win_set_content_size:
 1338              	.LFB74:
 260:..\..\..\lvgl\version_6.1.2\lvgl\src\lv_objx/lv_win.c ****     LV_ASSERT_OBJ(win, LV_OBJX_NAME);
 1339              		.loc 1 260 0
 1340              		.cfi_startproc
 1341              		@ args = 0, pretend = 0, frame = 0
 1342              		@ frame_needed = 0, uses_anonymous_args = 0
 1343              	.LVL211:
 1344 0000 70B5     		push	{r4, r5, r6, lr}
 1345              		.cfi_def_cfa_offset 16
 1346              		.cfi_offset 4, -16
 1347              		.cfi_offset 5, -12
 1348              		.cfi_offset 6, -8
 1349              		.cfi_offset 14, -4
ARM GAS  C:\Users\pearlstl\AppData\Local\Temp\ccI2fBBa.s 			page 41


 260:..\..\..\lvgl\version_6.1.2\lvgl\src\lv_objx/lv_win.c ****     LV_ASSERT_OBJ(win, LV_OBJX_NAME);
 1350              		.loc 1 260 0
 1351 0002 0E46     		mov	r6, r1
 1352 0004 1446     		mov	r4, r2
 1353 0006 0546     		mov	r5, r0
 263:..\..\..\lvgl\version_6.1.2\lvgl\src\lv_objx/lv_win.c ****     h += lv_obj_get_height(ext->header);
 1354              		.loc 1 263 0
 1355 0008 FFF7FEFF 		bl	lv_obj_get_ext_attr
 1356              	.LVL212:
 264:..\..\..\lvgl\version_6.1.2\lvgl\src\lv_objx/lv_win.c **** 
 1357              		.loc 1 264 0
 1358 000c 4068     		ldr	r0, [r0, #4]
 1359              	.LVL213:
 1360 000e FFF7FEFF 		bl	lv_obj_get_height
 1361              	.LVL214:
 1362 0012 0219     		adds	r2, r0, r4
 1363              	.LVL215:
 266:..\..\..\lvgl\version_6.1.2\lvgl\src\lv_objx/lv_win.c **** }
 1364              		.loc 1 266 0
 1365 0014 3146     		mov	r1, r6
 1366 0016 2846     		mov	r0, r5
 1367 0018 12B2     		sxth	r2, r2
 267:..\..\..\lvgl\version_6.1.2\lvgl\src\lv_objx/lv_win.c **** 
 1368              		.loc 1 267 0
 1369 001a BDE87040 		pop	{r4, r5, r6, lr}
 1370              		.cfi_restore 14
 1371              		.cfi_restore 6
 1372              		.cfi_restore 5
 1373              		.cfi_restore 4
 1374              		.cfi_def_cfa_offset 0
 1375              	.LVL216:
 266:..\..\..\lvgl\version_6.1.2\lvgl\src\lv_objx/lv_win.c **** }
 1376              		.loc 1 266 0
 1377 001e FFF7FEBF 		b	lv_obj_set_size
 1378              	.LVL217:
 1379              		.cfi_endproc
 1380              	.LFE74:
 1381              		.size	lv_win_set_content_size, .-lv_win_set_content_size
 1382 0022 00BF     		.section	.text.lv_win_set_layout,"ax",%progbits
 1383              		.align	2
 1384              		.global	lv_win_set_layout
 1385              		.thumb
 1386              		.thumb_func
 1387              		.type	lv_win_set_layout, %function
 1388              	lv_win_set_layout:
 1389              	.LFB75:
 275:..\..\..\lvgl\version_6.1.2\lvgl\src\lv_objx/lv_win.c ****     LV_ASSERT_OBJ(win, LV_OBJX_NAME);
 1390              		.loc 1 275 0
 1391              		.cfi_startproc
 1392              		@ args = 0, pretend = 0, frame = 0
 1393              		@ frame_needed = 0, uses_anonymous_args = 0
 1394              	.LVL218:
 1395 0000 10B5     		push	{r4, lr}
 1396              		.cfi_def_cfa_offset 8
 1397              		.cfi_offset 4, -8
 1398              		.cfi_offset 14, -4
 275:..\..\..\lvgl\version_6.1.2\lvgl\src\lv_objx/lv_win.c ****     LV_ASSERT_OBJ(win, LV_OBJX_NAME);
ARM GAS  C:\Users\pearlstl\AppData\Local\Temp\ccI2fBBa.s 			page 42


 1399              		.loc 1 275 0
 1400 0002 0C46     		mov	r4, r1
 278:..\..\..\lvgl\version_6.1.2\lvgl\src\lv_objx/lv_win.c ****     lv_page_set_scrl_layout(ext->page, layout);
 1401              		.loc 1 278 0
 1402 0004 FFF7FEFF 		bl	lv_obj_get_ext_attr
 1403              	.LVL219:
 1404              	.LBB112:
 1405              	.LBB113:
 1406              		.file 3 "..\\..\\..\\lvgl\\version_6.1.2\\lvgl\\src\\lv_objx\\lv_page.h"
   1:..\..\..\lvgl\version_6.1.2\lvgl\src\lv_objx/lv_page.h **** /**
   2:..\..\..\lvgl\version_6.1.2\lvgl\src\lv_objx/lv_page.h ****  * @file lv_page.h
   3:..\..\..\lvgl\version_6.1.2\lvgl\src\lv_objx/lv_page.h ****  *
   4:..\..\..\lvgl\version_6.1.2\lvgl\src\lv_objx/lv_page.h ****  */
   5:..\..\..\lvgl\version_6.1.2\lvgl\src\lv_objx/lv_page.h **** 
   6:..\..\..\lvgl\version_6.1.2\lvgl\src\lv_objx/lv_page.h **** #ifndef LV_PAGE_H
   7:..\..\..\lvgl\version_6.1.2\lvgl\src\lv_objx/lv_page.h **** #define LV_PAGE_H
   8:..\..\..\lvgl\version_6.1.2\lvgl\src\lv_objx/lv_page.h **** 
   9:..\..\..\lvgl\version_6.1.2\lvgl\src\lv_objx/lv_page.h **** #ifdef __cplusplus
  10:..\..\..\lvgl\version_6.1.2\lvgl\src\lv_objx/lv_page.h **** extern "C" {
  11:..\..\..\lvgl\version_6.1.2\lvgl\src\lv_objx/lv_page.h **** #endif
  12:..\..\..\lvgl\version_6.1.2\lvgl\src\lv_objx/lv_page.h **** 
  13:..\..\..\lvgl\version_6.1.2\lvgl\src\lv_objx/lv_page.h **** /*********************
  14:..\..\..\lvgl\version_6.1.2\lvgl\src\lv_objx/lv_page.h ****  *      INCLUDES
  15:..\..\..\lvgl\version_6.1.2\lvgl\src\lv_objx/lv_page.h ****  *********************/
  16:..\..\..\lvgl\version_6.1.2\lvgl\src\lv_objx/lv_page.h **** #ifdef LV_CONF_INCLUDE_SIMPLE
  17:..\..\..\lvgl\version_6.1.2\lvgl\src\lv_objx/lv_page.h **** #include "lv_conf.h"
  18:..\..\..\lvgl\version_6.1.2\lvgl\src\lv_objx/lv_page.h **** #else
  19:..\..\..\lvgl\version_6.1.2\lvgl\src\lv_objx/lv_page.h **** #include "../../../lv_conf.h"
  20:..\..\..\lvgl\version_6.1.2\lvgl\src\lv_objx/lv_page.h **** #endif
  21:..\..\..\lvgl\version_6.1.2\lvgl\src\lv_objx/lv_page.h **** 
  22:..\..\..\lvgl\version_6.1.2\lvgl\src\lv_objx/lv_page.h **** #if LV_USE_PAGE != 0
  23:..\..\..\lvgl\version_6.1.2\lvgl\src\lv_objx/lv_page.h **** 
  24:..\..\..\lvgl\version_6.1.2\lvgl\src\lv_objx/lv_page.h **** /*Testing of dependencies*/
  25:..\..\..\lvgl\version_6.1.2\lvgl\src\lv_objx/lv_page.h **** #if LV_USE_CONT == 0
  26:..\..\..\lvgl\version_6.1.2\lvgl\src\lv_objx/lv_page.h **** #error "lv_page: lv_cont is required. Enable it in lv_conf.h (LV_USE_CONT  1) "
  27:..\..\..\lvgl\version_6.1.2\lvgl\src\lv_objx/lv_page.h **** #endif
  28:..\..\..\lvgl\version_6.1.2\lvgl\src\lv_objx/lv_page.h **** 
  29:..\..\..\lvgl\version_6.1.2\lvgl\src\lv_objx/lv_page.h **** #include "lv_cont.h"
  30:..\..\..\lvgl\version_6.1.2\lvgl\src\lv_objx/lv_page.h **** #include "../lv_core/lv_indev.h"
  31:..\..\..\lvgl\version_6.1.2\lvgl\src\lv_objx/lv_page.h **** #include "../lv_misc/lv_anim.h"
  32:..\..\..\lvgl\version_6.1.2\lvgl\src\lv_objx/lv_page.h **** 
  33:..\..\..\lvgl\version_6.1.2\lvgl\src\lv_objx/lv_page.h **** /*********************
  34:..\..\..\lvgl\version_6.1.2\lvgl\src\lv_objx/lv_page.h ****  *      DEFINES
  35:..\..\..\lvgl\version_6.1.2\lvgl\src\lv_objx/lv_page.h ****  *********************/
  36:..\..\..\lvgl\version_6.1.2\lvgl\src\lv_objx/lv_page.h **** 
  37:..\..\..\lvgl\version_6.1.2\lvgl\src\lv_objx/lv_page.h **** /**********************
  38:..\..\..\lvgl\version_6.1.2\lvgl\src\lv_objx/lv_page.h ****  *      TYPEDEFS
  39:..\..\..\lvgl\version_6.1.2\lvgl\src\lv_objx/lv_page.h ****  **********************/
  40:..\..\..\lvgl\version_6.1.2\lvgl\src\lv_objx/lv_page.h **** 
  41:..\..\..\lvgl\version_6.1.2\lvgl\src\lv_objx/lv_page.h **** /** Scrollbar modes: shows when should the scrollbars be visible*/
  42:..\..\..\lvgl\version_6.1.2\lvgl\src\lv_objx/lv_page.h **** enum {
  43:..\..\..\lvgl\version_6.1.2\lvgl\src\lv_objx/lv_page.h ****     LV_SB_MODE_OFF    = 0x0, /**< Never show scrollbars*/
  44:..\..\..\lvgl\version_6.1.2\lvgl\src\lv_objx/lv_page.h ****     LV_SB_MODE_ON     = 0x1, /**< Always show scrollbars*/
  45:..\..\..\lvgl\version_6.1.2\lvgl\src\lv_objx/lv_page.h ****     LV_SB_MODE_DRAG   = 0x2, /**< Show scrollbars when page is being dragged*/
  46:..\..\..\lvgl\version_6.1.2\lvgl\src\lv_objx/lv_page.h ****     LV_SB_MODE_AUTO   = 0x3, /**< Show scrollbars when the scrollable container is large enough to 
  47:..\..\..\lvgl\version_6.1.2\lvgl\src\lv_objx/lv_page.h ****     LV_SB_MODE_HIDE   = 0x4, /**< Hide the scroll bar temporally*/
  48:..\..\..\lvgl\version_6.1.2\lvgl\src\lv_objx/lv_page.h ****     LV_SB_MODE_UNHIDE = 0x5, /**< Unhide the previously hidden scrollbar. Recover it's type too*/
ARM GAS  C:\Users\pearlstl\AppData\Local\Temp\ccI2fBBa.s 			page 43


  49:..\..\..\lvgl\version_6.1.2\lvgl\src\lv_objx/lv_page.h **** };
  50:..\..\..\lvgl\version_6.1.2\lvgl\src\lv_objx/lv_page.h **** typedef uint8_t lv_sb_mode_t;
  51:..\..\..\lvgl\version_6.1.2\lvgl\src\lv_objx/lv_page.h **** 
  52:..\..\..\lvgl\version_6.1.2\lvgl\src\lv_objx/lv_page.h **** /** Edges: describes the four edges of the page*/
  53:..\..\..\lvgl\version_6.1.2\lvgl\src\lv_objx/lv_page.h **** enum { LV_PAGE_EDGE_LEFT = 0x1, LV_PAGE_EDGE_TOP = 0x2, LV_PAGE_EDGE_RIGHT = 0x4, LV_PAGE_EDGE_BOTT
  54:..\..\..\lvgl\version_6.1.2\lvgl\src\lv_objx/lv_page.h **** typedef uint8_t lv_page_edge_t;
  55:..\..\..\lvgl\version_6.1.2\lvgl\src\lv_objx/lv_page.h **** 
  56:..\..\..\lvgl\version_6.1.2\lvgl\src\lv_objx/lv_page.h **** /*Data of page*/
  57:..\..\..\lvgl\version_6.1.2\lvgl\src\lv_objx/lv_page.h **** typedef struct
  58:..\..\..\lvgl\version_6.1.2\lvgl\src\lv_objx/lv_page.h **** {
  59:..\..\..\lvgl\version_6.1.2\lvgl\src\lv_objx/lv_page.h ****     lv_cont_ext_t bg; /*Ext. of ancestor*/
  60:..\..\..\lvgl\version_6.1.2\lvgl\src\lv_objx/lv_page.h ****     /*New data for this type */
  61:..\..\..\lvgl\version_6.1.2\lvgl\src\lv_objx/lv_page.h ****     lv_obj_t * scrl; /*The scrollable object on the background*/
  62:..\..\..\lvgl\version_6.1.2\lvgl\src\lv_objx/lv_page.h ****     struct
  63:..\..\..\lvgl\version_6.1.2\lvgl\src\lv_objx/lv_page.h ****     {
  64:..\..\..\lvgl\version_6.1.2\lvgl\src\lv_objx/lv_page.h ****         const lv_style_t * style; /*Style of scrollbars*/
  65:..\..\..\lvgl\version_6.1.2\lvgl\src\lv_objx/lv_page.h ****         lv_area_t hor_area;       /*Horizontal scrollbar area relative to the page. (Handled by the
  66:..\..\..\lvgl\version_6.1.2\lvgl\src\lv_objx/lv_page.h ****         lv_area_t ver_area;       /*Vertical scrollbar area relative to the page (Handled by the li
  67:..\..\..\lvgl\version_6.1.2\lvgl\src\lv_objx/lv_page.h ****         uint8_t hor_draw : 1;     /*1: horizontal scrollbar is visible now (Handled by the library)
  68:..\..\..\lvgl\version_6.1.2\lvgl\src\lv_objx/lv_page.h ****         uint8_t ver_draw : 1;     /*1: vertical scrollbar is visible now (Handled by the library)*/
  69:..\..\..\lvgl\version_6.1.2\lvgl\src\lv_objx/lv_page.h ****         lv_sb_mode_t mode : 3;    /*Scrollbar visibility from 'lv_page_sb_mode_t'*/
  70:..\..\..\lvgl\version_6.1.2\lvgl\src\lv_objx/lv_page.h ****     } sb;
  71:..\..\..\lvgl\version_6.1.2\lvgl\src\lv_objx/lv_page.h **** #if LV_USE_ANIMATION
  72:..\..\..\lvgl\version_6.1.2\lvgl\src\lv_objx/lv_page.h ****     struct
  73:..\..\..\lvgl\version_6.1.2\lvgl\src\lv_objx/lv_page.h ****     {
  74:..\..\..\lvgl\version_6.1.2\lvgl\src\lv_objx/lv_page.h ****         lv_anim_value_t state;    /*Store the current size of the edge flash effect*/
  75:..\..\..\lvgl\version_6.1.2\lvgl\src\lv_objx/lv_page.h ****         const lv_style_t * style; /*Style of edge flash effect (usually homogeneous circle)*/
  76:..\..\..\lvgl\version_6.1.2\lvgl\src\lv_objx/lv_page.h ****         uint8_t enabled : 1;      /*1: Show a flash animation on the edge*/
  77:..\..\..\lvgl\version_6.1.2\lvgl\src\lv_objx/lv_page.h ****         uint8_t top_ip : 1;       /*Used internally to show that top most position is reached (flas
  78:..\..\..\lvgl\version_6.1.2\lvgl\src\lv_objx/lv_page.h ****                                      Progress)*/
  79:..\..\..\lvgl\version_6.1.2\lvgl\src\lv_objx/lv_page.h ****         uint8_t bottom_ip : 1;    /*Used internally to show that bottom most position is reached (f
  80:..\..\..\lvgl\version_6.1.2\lvgl\src\lv_objx/lv_page.h ****                                      is In Progress)*/
  81:..\..\..\lvgl\version_6.1.2\lvgl\src\lv_objx/lv_page.h ****         uint8_t right_ip : 1;     /*Used internally to show that right most position is reached (fl
  82:..\..\..\lvgl\version_6.1.2\lvgl\src\lv_objx/lv_page.h ****                                      is In Progress)*/
  83:..\..\..\lvgl\version_6.1.2\lvgl\src\lv_objx/lv_page.h ****         uint8_t left_ip : 1;      /*Used internally to show that left most position is reached (fla
  84:..\..\..\lvgl\version_6.1.2\lvgl\src\lv_objx/lv_page.h ****                                      In Progress)*/
  85:..\..\..\lvgl\version_6.1.2\lvgl\src\lv_objx/lv_page.h ****     } edge_flash;
  86:..\..\..\lvgl\version_6.1.2\lvgl\src\lv_objx/lv_page.h **** 
  87:..\..\..\lvgl\version_6.1.2\lvgl\src\lv_objx/lv_page.h ****     uint16_t anim_time; /*Scroll animation time*/
  88:..\..\..\lvgl\version_6.1.2\lvgl\src\lv_objx/lv_page.h **** #endif
  89:..\..\..\lvgl\version_6.1.2\lvgl\src\lv_objx/lv_page.h **** 
  90:..\..\..\lvgl\version_6.1.2\lvgl\src\lv_objx/lv_page.h ****     uint8_t scroll_prop : 1;    /*1: Propagate the scrolling the the parent if the edge is reached*
  91:..\..\..\lvgl\version_6.1.2\lvgl\src\lv_objx/lv_page.h ****     uint8_t scroll_prop_ip : 1; /*1: Scroll propagation is in progress (used by the library)*/
  92:..\..\..\lvgl\version_6.1.2\lvgl\src\lv_objx/lv_page.h **** } lv_page_ext_t;
  93:..\..\..\lvgl\version_6.1.2\lvgl\src\lv_objx/lv_page.h **** 
  94:..\..\..\lvgl\version_6.1.2\lvgl\src\lv_objx/lv_page.h **** enum {
  95:..\..\..\lvgl\version_6.1.2\lvgl\src\lv_objx/lv_page.h ****     LV_PAGE_STYLE_BG,
  96:..\..\..\lvgl\version_6.1.2\lvgl\src\lv_objx/lv_page.h ****     LV_PAGE_STYLE_SCRL,
  97:..\..\..\lvgl\version_6.1.2\lvgl\src\lv_objx/lv_page.h ****     LV_PAGE_STYLE_SB,
  98:..\..\..\lvgl\version_6.1.2\lvgl\src\lv_objx/lv_page.h ****     LV_PAGE_STYLE_EDGE_FLASH,
  99:..\..\..\lvgl\version_6.1.2\lvgl\src\lv_objx/lv_page.h **** };
 100:..\..\..\lvgl\version_6.1.2\lvgl\src\lv_objx/lv_page.h **** typedef uint8_t lv_page_style_t;
 101:..\..\..\lvgl\version_6.1.2\lvgl\src\lv_objx/lv_page.h **** 
 102:..\..\..\lvgl\version_6.1.2\lvgl\src\lv_objx/lv_page.h **** /**********************
 103:..\..\..\lvgl\version_6.1.2\lvgl\src\lv_objx/lv_page.h ****  * GLOBAL PROTOTYPES
 104:..\..\..\lvgl\version_6.1.2\lvgl\src\lv_objx/lv_page.h ****  **********************/
 105:..\..\..\lvgl\version_6.1.2\lvgl\src\lv_objx/lv_page.h **** 
ARM GAS  C:\Users\pearlstl\AppData\Local\Temp\ccI2fBBa.s 			page 44


 106:..\..\..\lvgl\version_6.1.2\lvgl\src\lv_objx/lv_page.h **** /**
 107:..\..\..\lvgl\version_6.1.2\lvgl\src\lv_objx/lv_page.h ****  * Create a page objects
 108:..\..\..\lvgl\version_6.1.2\lvgl\src\lv_objx/lv_page.h ****  * @param par pointer to an object, it will be the parent of the new page
 109:..\..\..\lvgl\version_6.1.2\lvgl\src\lv_objx/lv_page.h ****  * @param copy pointer to a page object, if not NULL then the new object will be copied from it
 110:..\..\..\lvgl\version_6.1.2\lvgl\src\lv_objx/lv_page.h ****  * @return pointer to the created page
 111:..\..\..\lvgl\version_6.1.2\lvgl\src\lv_objx/lv_page.h ****  */
 112:..\..\..\lvgl\version_6.1.2\lvgl\src\lv_objx/lv_page.h **** lv_obj_t * lv_page_create(lv_obj_t * par, const lv_obj_t * copy);
 113:..\..\..\lvgl\version_6.1.2\lvgl\src\lv_objx/lv_page.h **** 
 114:..\..\..\lvgl\version_6.1.2\lvgl\src\lv_objx/lv_page.h **** /**
 115:..\..\..\lvgl\version_6.1.2\lvgl\src\lv_objx/lv_page.h ****  * Delete all children of the scrl object, without deleting scrl child.
 116:..\..\..\lvgl\version_6.1.2\lvgl\src\lv_objx/lv_page.h ****  * @param page pointer to an object
 117:..\..\..\lvgl\version_6.1.2\lvgl\src\lv_objx/lv_page.h ****  */
 118:..\..\..\lvgl\version_6.1.2\lvgl\src\lv_objx/lv_page.h **** void lv_page_clean(lv_obj_t * page);
 119:..\..\..\lvgl\version_6.1.2\lvgl\src\lv_objx/lv_page.h **** 
 120:..\..\..\lvgl\version_6.1.2\lvgl\src\lv_objx/lv_page.h **** /**
 121:..\..\..\lvgl\version_6.1.2\lvgl\src\lv_objx/lv_page.h ****  * Get the scrollable object of a page
 122:..\..\..\lvgl\version_6.1.2\lvgl\src\lv_objx/lv_page.h ****  * @param page pointer to a page object
 123:..\..\..\lvgl\version_6.1.2\lvgl\src\lv_objx/lv_page.h ****  * @return pointer to a container which is the scrollable part of the page
 124:..\..\..\lvgl\version_6.1.2\lvgl\src\lv_objx/lv_page.h ****  */
 125:..\..\..\lvgl\version_6.1.2\lvgl\src\lv_objx/lv_page.h **** lv_obj_t * lv_page_get_scrl(const lv_obj_t * page);
 126:..\..\..\lvgl\version_6.1.2\lvgl\src\lv_objx/lv_page.h **** 
 127:..\..\..\lvgl\version_6.1.2\lvgl\src\lv_objx/lv_page.h **** /**
 128:..\..\..\lvgl\version_6.1.2\lvgl\src\lv_objx/lv_page.h ****  * Get the animation time
 129:..\..\..\lvgl\version_6.1.2\lvgl\src\lv_objx/lv_page.h ****  * @param page pointer to a page object
 130:..\..\..\lvgl\version_6.1.2\lvgl\src\lv_objx/lv_page.h ****  * @return the animation time in milliseconds
 131:..\..\..\lvgl\version_6.1.2\lvgl\src\lv_objx/lv_page.h ****  */
 132:..\..\..\lvgl\version_6.1.2\lvgl\src\lv_objx/lv_page.h **** uint16_t lv_page_get_anim_time(const lv_obj_t * page);
 133:..\..\..\lvgl\version_6.1.2\lvgl\src\lv_objx/lv_page.h **** 
 134:..\..\..\lvgl\version_6.1.2\lvgl\src\lv_objx/lv_page.h **** /*=====================
 135:..\..\..\lvgl\version_6.1.2\lvgl\src\lv_objx/lv_page.h ****  * Setter functions
 136:..\..\..\lvgl\version_6.1.2\lvgl\src\lv_objx/lv_page.h ****  *====================*/
 137:..\..\..\lvgl\version_6.1.2\lvgl\src\lv_objx/lv_page.h **** 
 138:..\..\..\lvgl\version_6.1.2\lvgl\src\lv_objx/lv_page.h **** /**
 139:..\..\..\lvgl\version_6.1.2\lvgl\src\lv_objx/lv_page.h ****  * Set the scroll bar mode on a page
 140:..\..\..\lvgl\version_6.1.2\lvgl\src\lv_objx/lv_page.h ****  * @param page pointer to a page object
 141:..\..\..\lvgl\version_6.1.2\lvgl\src\lv_objx/lv_page.h ****  * @param sb_mode the new mode from 'lv_page_sb.mode_t' enum
 142:..\..\..\lvgl\version_6.1.2\lvgl\src\lv_objx/lv_page.h ****  */
 143:..\..\..\lvgl\version_6.1.2\lvgl\src\lv_objx/lv_page.h **** void lv_page_set_sb_mode(lv_obj_t * page, lv_sb_mode_t sb_mode);
 144:..\..\..\lvgl\version_6.1.2\lvgl\src\lv_objx/lv_page.h **** 
 145:..\..\..\lvgl\version_6.1.2\lvgl\src\lv_objx/lv_page.h **** /**
 146:..\..\..\lvgl\version_6.1.2\lvgl\src\lv_objx/lv_page.h ****  * Set the animation time for the page
 147:..\..\..\lvgl\version_6.1.2\lvgl\src\lv_objx/lv_page.h ****  * @param page pointer to a page object
 148:..\..\..\lvgl\version_6.1.2\lvgl\src\lv_objx/lv_page.h ****  * @param anim_time animation time in milliseconds
 149:..\..\..\lvgl\version_6.1.2\lvgl\src\lv_objx/lv_page.h ****  */
 150:..\..\..\lvgl\version_6.1.2\lvgl\src\lv_objx/lv_page.h **** void lv_page_set_anim_time(lv_obj_t * page, uint16_t anim_time);
 151:..\..\..\lvgl\version_6.1.2\lvgl\src\lv_objx/lv_page.h **** 
 152:..\..\..\lvgl\version_6.1.2\lvgl\src\lv_objx/lv_page.h **** /**
 153:..\..\..\lvgl\version_6.1.2\lvgl\src\lv_objx/lv_page.h ****  * Enable the scroll propagation feature. If enabled then the page will move its parent if there is
 154:..\..\..\lvgl\version_6.1.2\lvgl\src\lv_objx/lv_page.h ****  * no more space to scroll.
 155:..\..\..\lvgl\version_6.1.2\lvgl\src\lv_objx/lv_page.h ****  * @param page pointer to a Page
 156:..\..\..\lvgl\version_6.1.2\lvgl\src\lv_objx/lv_page.h ****  * @param en true or false to enable/disable scroll propagation
 157:..\..\..\lvgl\version_6.1.2\lvgl\src\lv_objx/lv_page.h ****  */
 158:..\..\..\lvgl\version_6.1.2\lvgl\src\lv_objx/lv_page.h **** void lv_page_set_scroll_propagation(lv_obj_t * page, bool en);
 159:..\..\..\lvgl\version_6.1.2\lvgl\src\lv_objx/lv_page.h **** 
 160:..\..\..\lvgl\version_6.1.2\lvgl\src\lv_objx/lv_page.h **** /**
 161:..\..\..\lvgl\version_6.1.2\lvgl\src\lv_objx/lv_page.h ****  * Enable the edge flash effect. (Show an arc when the an edge is reached)
 162:..\..\..\lvgl\version_6.1.2\lvgl\src\lv_objx/lv_page.h ****  * @param page pointer to a Page
ARM GAS  C:\Users\pearlstl\AppData\Local\Temp\ccI2fBBa.s 			page 45


 163:..\..\..\lvgl\version_6.1.2\lvgl\src\lv_objx/lv_page.h ****  * @param en true or false to enable/disable end flash
 164:..\..\..\lvgl\version_6.1.2\lvgl\src\lv_objx/lv_page.h ****  */
 165:..\..\..\lvgl\version_6.1.2\lvgl\src\lv_objx/lv_page.h **** void lv_page_set_edge_flash(lv_obj_t * page, bool en);
 166:..\..\..\lvgl\version_6.1.2\lvgl\src\lv_objx/lv_page.h **** 
 167:..\..\..\lvgl\version_6.1.2\lvgl\src\lv_objx/lv_page.h **** /**
 168:..\..\..\lvgl\version_6.1.2\lvgl\src\lv_objx/lv_page.h ****  * Set the fit policy in all 4 directions separately.
 169:..\..\..\lvgl\version_6.1.2\lvgl\src\lv_objx/lv_page.h ****  * It tell how to change the page size automatically.
 170:..\..\..\lvgl\version_6.1.2\lvgl\src\lv_objx/lv_page.h ****  * @param page pointer to a page object
 171:..\..\..\lvgl\version_6.1.2\lvgl\src\lv_objx/lv_page.h ****  * @param left left fit policy from `lv_fit_t`
 172:..\..\..\lvgl\version_6.1.2\lvgl\src\lv_objx/lv_page.h ****  * @param right right fit policy from `lv_fit_t`
 173:..\..\..\lvgl\version_6.1.2\lvgl\src\lv_objx/lv_page.h ****  * @param top bottom fit policy from `lv_fit_t`
 174:..\..\..\lvgl\version_6.1.2\lvgl\src\lv_objx/lv_page.h ****  * @param bottom bottom fit policy from `lv_fit_t`
 175:..\..\..\lvgl\version_6.1.2\lvgl\src\lv_objx/lv_page.h ****  */
 176:..\..\..\lvgl\version_6.1.2\lvgl\src\lv_objx/lv_page.h **** static inline void lv_page_set_scrl_fit4(lv_obj_t * page, lv_fit_t left, lv_fit_t right, lv_fit_t t
 177:..\..\..\lvgl\version_6.1.2\lvgl\src\lv_objx/lv_page.h **** {
 178:..\..\..\lvgl\version_6.1.2\lvgl\src\lv_objx/lv_page.h ****     lv_cont_set_fit4(lv_page_get_scrl(page), left, right, top, bottom);
 179:..\..\..\lvgl\version_6.1.2\lvgl\src\lv_objx/lv_page.h **** }
 180:..\..\..\lvgl\version_6.1.2\lvgl\src\lv_objx/lv_page.h **** 
 181:..\..\..\lvgl\version_6.1.2\lvgl\src\lv_objx/lv_page.h **** /**
 182:..\..\..\lvgl\version_6.1.2\lvgl\src\lv_objx/lv_page.h ****  * Set the fit policy horizontally and vertically separately.
 183:..\..\..\lvgl\version_6.1.2\lvgl\src\lv_objx/lv_page.h ****  * It tell how to change the page size automatically.
 184:..\..\..\lvgl\version_6.1.2\lvgl\src\lv_objx/lv_page.h ****  * @param page pointer to a page object
 185:..\..\..\lvgl\version_6.1.2\lvgl\src\lv_objx/lv_page.h ****  * @param hot horizontal fit policy from `lv_fit_t`
 186:..\..\..\lvgl\version_6.1.2\lvgl\src\lv_objx/lv_page.h ****  * @param ver vertical fit policy from `lv_fit_t`
 187:..\..\..\lvgl\version_6.1.2\lvgl\src\lv_objx/lv_page.h ****  */
 188:..\..\..\lvgl\version_6.1.2\lvgl\src\lv_objx/lv_page.h **** static inline void lv_page_set_scrl_fit2(lv_obj_t * page, lv_fit_t hor, lv_fit_t ver)
 189:..\..\..\lvgl\version_6.1.2\lvgl\src\lv_objx/lv_page.h **** {
 190:..\..\..\lvgl\version_6.1.2\lvgl\src\lv_objx/lv_page.h ****     lv_cont_set_fit2(lv_page_get_scrl(page), hor, ver);
 191:..\..\..\lvgl\version_6.1.2\lvgl\src\lv_objx/lv_page.h **** }
 192:..\..\..\lvgl\version_6.1.2\lvgl\src\lv_objx/lv_page.h **** 
 193:..\..\..\lvgl\version_6.1.2\lvgl\src\lv_objx/lv_page.h **** /**
 194:..\..\..\lvgl\version_6.1.2\lvgl\src\lv_objx/lv_page.h ****  * Set the fit policyin all 4 direction at once.
 195:..\..\..\lvgl\version_6.1.2\lvgl\src\lv_objx/lv_page.h ****  * It tell how to change the page size automatically.
 196:..\..\..\lvgl\version_6.1.2\lvgl\src\lv_objx/lv_page.h ****  * @param page pointer to a button object
 197:..\..\..\lvgl\version_6.1.2\lvgl\src\lv_objx/lv_page.h ****  * @param fit fit policy from `lv_fit_t`
 198:..\..\..\lvgl\version_6.1.2\lvgl\src\lv_objx/lv_page.h ****  */
 199:..\..\..\lvgl\version_6.1.2\lvgl\src\lv_objx/lv_page.h **** static inline void lv_page_set_scrl_fit(lv_obj_t * page, lv_fit_t fit)
 200:..\..\..\lvgl\version_6.1.2\lvgl\src\lv_objx/lv_page.h **** {
 201:..\..\..\lvgl\version_6.1.2\lvgl\src\lv_objx/lv_page.h ****     lv_cont_set_fit(lv_page_get_scrl(page), fit);
 202:..\..\..\lvgl\version_6.1.2\lvgl\src\lv_objx/lv_page.h **** }
 203:..\..\..\lvgl\version_6.1.2\lvgl\src\lv_objx/lv_page.h **** 
 204:..\..\..\lvgl\version_6.1.2\lvgl\src\lv_objx/lv_page.h **** /**
 205:..\..\..\lvgl\version_6.1.2\lvgl\src\lv_objx/lv_page.h ****  * Set width of the scrollable part of a page
 206:..\..\..\lvgl\version_6.1.2\lvgl\src\lv_objx/lv_page.h ****  * @param page pointer to a page object
 207:..\..\..\lvgl\version_6.1.2\lvgl\src\lv_objx/lv_page.h ****  * @param w the new width of the scrollable (it ha no effect is horizontal fit is enabled)
 208:..\..\..\lvgl\version_6.1.2\lvgl\src\lv_objx/lv_page.h ****  */
 209:..\..\..\lvgl\version_6.1.2\lvgl\src\lv_objx/lv_page.h **** static inline void lv_page_set_scrl_width(lv_obj_t * page, lv_coord_t w)
 210:..\..\..\lvgl\version_6.1.2\lvgl\src\lv_objx/lv_page.h **** {
 211:..\..\..\lvgl\version_6.1.2\lvgl\src\lv_objx/lv_page.h ****     lv_obj_set_width(lv_page_get_scrl(page), w);
 212:..\..\..\lvgl\version_6.1.2\lvgl\src\lv_objx/lv_page.h **** }
 213:..\..\..\lvgl\version_6.1.2\lvgl\src\lv_objx/lv_page.h **** 
 214:..\..\..\lvgl\version_6.1.2\lvgl\src\lv_objx/lv_page.h **** /**
 215:..\..\..\lvgl\version_6.1.2\lvgl\src\lv_objx/lv_page.h ****  * Set height of the scrollable part of a page
 216:..\..\..\lvgl\version_6.1.2\lvgl\src\lv_objx/lv_page.h ****  * @param page pointer to a page object
 217:..\..\..\lvgl\version_6.1.2\lvgl\src\lv_objx/lv_page.h ****  * @param h the new height of the scrollable (it ha no effect is vertical fit is enabled)
 218:..\..\..\lvgl\version_6.1.2\lvgl\src\lv_objx/lv_page.h ****  */
 219:..\..\..\lvgl\version_6.1.2\lvgl\src\lv_objx/lv_page.h **** static inline void lv_page_set_scrl_height(lv_obj_t * page, lv_coord_t h)
ARM GAS  C:\Users\pearlstl\AppData\Local\Temp\ccI2fBBa.s 			page 46


 220:..\..\..\lvgl\version_6.1.2\lvgl\src\lv_objx/lv_page.h **** {
 221:..\..\..\lvgl\version_6.1.2\lvgl\src\lv_objx/lv_page.h ****     lv_obj_set_height(lv_page_get_scrl(page), h);
 222:..\..\..\lvgl\version_6.1.2\lvgl\src\lv_objx/lv_page.h **** }
 223:..\..\..\lvgl\version_6.1.2\lvgl\src\lv_objx/lv_page.h **** 
 224:..\..\..\lvgl\version_6.1.2\lvgl\src\lv_objx/lv_page.h **** /**
 225:..\..\..\lvgl\version_6.1.2\lvgl\src\lv_objx/lv_page.h ****  * Set the layout of the scrollable part of the page
 226:..\..\..\lvgl\version_6.1.2\lvgl\src\lv_objx/lv_page.h ****  * @param page pointer to a page object
 227:..\..\..\lvgl\version_6.1.2\lvgl\src\lv_objx/lv_page.h ****  * @param layout a layout from 'lv_cont_layout_t'
 228:..\..\..\lvgl\version_6.1.2\lvgl\src\lv_objx/lv_page.h ****  */
 229:..\..\..\lvgl\version_6.1.2\lvgl\src\lv_objx/lv_page.h **** static inline void lv_page_set_scrl_layout(lv_obj_t * page, lv_layout_t layout)
 230:..\..\..\lvgl\version_6.1.2\lvgl\src\lv_objx/lv_page.h **** {
 231:..\..\..\lvgl\version_6.1.2\lvgl\src\lv_objx/lv_page.h ****     lv_cont_set_layout(lv_page_get_scrl(page), layout);
 1407              		.loc 3 231 0
 1408 0008 0068     		ldr	r0, [r0]
 1409              	.LVL220:
 1410 000a FFF7FEFF 		bl	lv_page_get_scrl
 1411              	.LVL221:
 1412 000e 2146     		mov	r1, r4
 1413              	.LBE113:
 1414              	.LBE112:
 280:..\..\..\lvgl\version_6.1.2\lvgl\src\lv_objx/lv_win.c **** 
 1415              		.loc 1 280 0
 1416 0010 BDE81040 		pop	{r4, lr}
 1417              		.cfi_restore 14
 1418              		.cfi_restore 4
 1419              		.cfi_def_cfa_offset 0
 1420              	.LVL222:
 1421              	.LBB115:
 1422              	.LBB114:
 1423              		.loc 3 231 0
 1424 0014 FFF7FEBF 		b	lv_cont_set_layout
 1425              	.LVL223:
 1426              	.LBE114:
 1427              	.LBE115:
 1428              		.cfi_endproc
 1429              	.LFE75:
 1430              		.size	lv_win_set_layout, .-lv_win_set_layout
 1431              		.section	.text.lv_win_set_sb_mode,"ax",%progbits
 1432              		.align	2
 1433              		.global	lv_win_set_sb_mode
 1434              		.thumb
 1435              		.thumb_func
 1436              		.type	lv_win_set_sb_mode, %function
 1437              	lv_win_set_sb_mode:
 1438              	.LFB76:
 288:..\..\..\lvgl\version_6.1.2\lvgl\src\lv_objx/lv_win.c ****     LV_ASSERT_OBJ(win, LV_OBJX_NAME);
 1439              		.loc 1 288 0
 1440              		.cfi_startproc
 1441              		@ args = 0, pretend = 0, frame = 0
 1442              		@ frame_needed = 0, uses_anonymous_args = 0
 1443              	.LVL224:
 1444 0000 10B5     		push	{r4, lr}
 1445              		.cfi_def_cfa_offset 8
 1446              		.cfi_offset 4, -8
 1447              		.cfi_offset 14, -4
 288:..\..\..\lvgl\version_6.1.2\lvgl\src\lv_objx/lv_win.c ****     LV_ASSERT_OBJ(win, LV_OBJX_NAME);
 1448              		.loc 1 288 0
ARM GAS  C:\Users\pearlstl\AppData\Local\Temp\ccI2fBBa.s 			page 47


 1449 0002 0C46     		mov	r4, r1
 291:..\..\..\lvgl\version_6.1.2\lvgl\src\lv_objx/lv_win.c ****     lv_page_set_sb_mode(ext->page, sb_mode);
 1450              		.loc 1 291 0
 1451 0004 FFF7FEFF 		bl	lv_obj_get_ext_attr
 1452              	.LVL225:
 292:..\..\..\lvgl\version_6.1.2\lvgl\src\lv_objx/lv_win.c **** }
 1453              		.loc 1 292 0
 1454 0008 2146     		mov	r1, r4
 1455 000a 0068     		ldr	r0, [r0]
 1456              	.LVL226:
 293:..\..\..\lvgl\version_6.1.2\lvgl\src\lv_objx/lv_win.c **** /**
 1457              		.loc 1 293 0
 1458 000c BDE81040 		pop	{r4, lr}
 1459              		.cfi_restore 14
 1460              		.cfi_restore 4
 1461              		.cfi_def_cfa_offset 0
 292:..\..\..\lvgl\version_6.1.2\lvgl\src\lv_objx/lv_win.c **** }
 1462              		.loc 1 292 0
 1463 0010 FFF7FEBF 		b	lv_page_set_sb_mode
 1464              	.LVL227:
 1465              		.cfi_endproc
 1466              	.LFE76:
 1467              		.size	lv_win_set_sb_mode, .-lv_win_set_sb_mode
 1468              		.section	.text.lv_win_set_anim_time,"ax",%progbits
 1469              		.align	2
 1470              		.global	lv_win_set_anim_time
 1471              		.thumb
 1472              		.thumb_func
 1473              		.type	lv_win_set_anim_time, %function
 1474              	lv_win_set_anim_time:
 1475              	.LFB77:
 300:..\..\..\lvgl\version_6.1.2\lvgl\src\lv_objx/lv_win.c ****     LV_ASSERT_OBJ(win, LV_OBJX_NAME);
 1476              		.loc 1 300 0
 1477              		.cfi_startproc
 1478              		@ args = 0, pretend = 0, frame = 0
 1479              		@ frame_needed = 0, uses_anonymous_args = 0
 1480              	.LVL228:
 1481 0000 10B5     		push	{r4, lr}
 1482              		.cfi_def_cfa_offset 8
 1483              		.cfi_offset 4, -8
 1484              		.cfi_offset 14, -4
 300:..\..\..\lvgl\version_6.1.2\lvgl\src\lv_objx/lv_win.c ****     LV_ASSERT_OBJ(win, LV_OBJX_NAME);
 1485              		.loc 1 300 0
 1486 0002 0C46     		mov	r4, r1
 1487              	.LBB116:
 1488              	.LBB117:
 389:..\..\..\lvgl\version_6.1.2\lvgl\src\lv_objx/lv_win.c ****     return ext->page;
 1489              		.loc 1 389 0
 1490 0004 FFF7FEFF 		bl	lv_obj_get_ext_attr
 1491              	.LVL229:
 1492              	.LBE117:
 1493              	.LBE116:
 303:..\..\..\lvgl\version_6.1.2\lvgl\src\lv_objx/lv_win.c **** }
 1494              		.loc 1 303 0
 1495 0008 2146     		mov	r1, r4
 1496 000a 0068     		ldr	r0, [r0]
 304:..\..\..\lvgl\version_6.1.2\lvgl\src\lv_objx/lv_win.c **** 
ARM GAS  C:\Users\pearlstl\AppData\Local\Temp\ccI2fBBa.s 			page 48


 1497              		.loc 1 304 0
 1498 000c BDE81040 		pop	{r4, lr}
 1499              		.cfi_restore 14
 1500              		.cfi_restore 4
 1501              		.cfi_def_cfa_offset 0
 303:..\..\..\lvgl\version_6.1.2\lvgl\src\lv_objx/lv_win.c **** }
 1502              		.loc 1 303 0
 1503 0010 FFF7FEBF 		b	lv_page_set_anim_time
 1504              	.LVL230:
 1505              		.cfi_endproc
 1506              	.LFE77:
 1507              		.size	lv_win_set_anim_time, .-lv_win_set_anim_time
 1508              		.section	.text.lv_win_set_style,"ax",%progbits
 1509              		.align	2
 1510              		.global	lv_win_set_style
 1511              		.thumb
 1512              		.thumb_func
 1513              		.type	lv_win_set_style, %function
 1514              	lv_win_set_style:
 1515              	.LFB78:
 313:..\..\..\lvgl\version_6.1.2\lvgl\src\lv_objx/lv_win.c ****     LV_ASSERT_OBJ(win, LV_OBJX_NAME);
 1516              		.loc 1 313 0
 1517              		.cfi_startproc
 1518              		@ args = 0, pretend = 0, frame = 0
 1519              		@ frame_needed = 0, uses_anonymous_args = 0
 1520              	.LVL231:
 1521 0000 F8B5     		push	{r3, r4, r5, r6, r7, lr}
 1522              		.cfi_def_cfa_offset 24
 1523              		.cfi_offset 3, -24
 1524              		.cfi_offset 4, -20
 1525              		.cfi_offset 5, -16
 1526              		.cfi_offset 6, -12
 1527              		.cfi_offset 7, -8
 1528              		.cfi_offset 14, -4
 313:..\..\..\lvgl\version_6.1.2\lvgl\src\lv_objx/lv_win.c ****     LV_ASSERT_OBJ(win, LV_OBJX_NAME);
 1529              		.loc 1 313 0
 1530 0002 0F46     		mov	r7, r1
 1531 0004 1646     		mov	r6, r2
 1532 0006 0446     		mov	r4, r0
 316:..\..\..\lvgl\version_6.1.2\lvgl\src\lv_objx/lv_win.c **** 
 1533              		.loc 1 316 0
 1534 0008 FFF7FEFF 		bl	lv_obj_get_ext_attr
 1535              	.LVL232:
 1536 000c 0546     		mov	r5, r0
 1537              	.LVL233:
 318:..\..\..\lvgl\version_6.1.2\lvgl\src\lv_objx/lv_win.c ****         case LV_WIN_STYLE_BG:
 1538              		.loc 1 318 0
 1539 000e 052F     		cmp	r7, #5
 1540 0010 49D8     		bhi	.L105
 1541 0012 DFE807F0 		tbb	[pc, r7]
 1542              	.L107:
 1543 0016 1C       		.byte	(.L106-.L107)/2
 1544 0017 25       		.byte	(.L108-.L107)/2
 1545 0018 2C       		.byte	(.L109-.L107)/2
 1546 0019 33       		.byte	(.L110-.L107)/2
 1547 001a 3C       		.byte	(.L111-.L107)/2
 1548 001b 03       		.byte	(.L112-.L107)/2
ARM GAS  C:\Users\pearlstl\AppData\Local\Temp\ccI2fBBa.s 			page 49


 1549              		.p2align 1
 1550              	.L112:
 330:..\..\..\lvgl\version_6.1.2\lvgl\src\lv_objx/lv_win.c ****     }
 1551              		.loc 1 330 0
 1552 001c 0661     		str	r6, [r0, #16]
 1553              	.LBB118:
 336:..\..\..\lvgl\version_6.1.2\lvgl\src\lv_objx/lv_win.c ****         btn = lv_obj_get_child_back(ext->header, btn); /*Skip the title*/
 1554              		.loc 1 336 0
 1555 001e 0021     		movs	r1, #0
 1556 0020 4068     		ldr	r0, [r0, #4]
 1557              	.LVL234:
 1558 0022 FFF7FEFF 		bl	lv_obj_get_child_back
 1559              	.LVL235:
 337:..\..\..\lvgl\version_6.1.2\lvgl\src\lv_objx/lv_win.c ****         while(btn != NULL) {
 1560              		.loc 1 337 0
 1561 0026 0146     		mov	r1, r0
 1562 0028 6868     		ldr	r0, [r5, #4]
 1563              	.LVL236:
 1564 002a FFF7FEFF 		bl	lv_obj_get_child_back
 1565              	.LVL237:
 338:..\..\..\lvgl\version_6.1.2\lvgl\src\lv_objx/lv_win.c ****             if(type == LV_WIN_STYLE_BTN_REL)
 1566              		.loc 1 338 0
 1567 002e 0446     		mov	r4, r0
 1568              	.LVL238:
 1569 0030 0028     		cmp	r0, #0
 1570 0032 55D0     		beq	.L127
 1571              	.L117:
 342:..\..\..\lvgl\version_6.1.2\lvgl\src\lv_objx/lv_win.c ****             btn = lv_obj_get_child_back(ext->header, btn);
 1572              		.loc 1 342 0
 1573 0034 2046     		mov	r0, r4
 1574 0036 3246     		mov	r2, r6
 1575 0038 0121     		movs	r1, #1
 1576 003a FFF7FEFF 		bl	lv_btn_set_style
 1577              	.LVL239:
 343:..\..\..\lvgl\version_6.1.2\lvgl\src\lv_objx/lv_win.c ****         }
 1578              		.loc 1 343 0
 1579 003e 2146     		mov	r1, r4
 1580 0040 6868     		ldr	r0, [r5, #4]
 1581 0042 FFF7FEFF 		bl	lv_obj_get_child_back
 1582              	.LVL240:
 338:..\..\..\lvgl\version_6.1.2\lvgl\src\lv_objx/lv_win.c ****             if(type == LV_WIN_STYLE_BTN_REL)
 1583              		.loc 1 338 0
 1584 0046 0446     		mov	r4, r0
 1585 0048 0028     		cmp	r0, #0
 1586 004a F3D1     		bne	.L117
 1587 004c F8BD     		pop	{r3, r4, r5, r6, r7, pc}
 1588              	.LVL241:
 1589              	.L106:
 1590              	.LBE118:
 320:..\..\..\lvgl\version_6.1.2\lvgl\src\lv_objx/lv_win.c ****             lv_win_realign(win);
 1591              		.loc 1 320 0
 1592 004e 2046     		mov	r0, r4
 1593              	.LVL242:
 1594 0050 3146     		mov	r1, r6
 1595 0052 FFF7FEFF 		bl	lv_obj_set_style
 1596              	.LVL243:
 321:..\..\..\lvgl\version_6.1.2\lvgl\src\lv_objx/lv_win.c ****             break;
ARM GAS  C:\Users\pearlstl\AppData\Local\Temp\ccI2fBBa.s 			page 50


 1597              		.loc 1 321 0
 1598 0056 2046     		mov	r0, r4
 346:..\..\..\lvgl\version_6.1.2\lvgl\src\lv_objx/lv_win.c **** 
 1599              		.loc 1 346 0
 1600 0058 BDE8F840 		pop	{r3, r4, r5, r6, r7, lr}
 1601              		.cfi_remember_state
 1602              		.cfi_restore 14
 1603              		.cfi_restore 7
 1604              		.cfi_restore 6
 1605              		.cfi_restore 5
 1606              		.cfi_restore 4
 1607              		.cfi_restore 3
 1608              		.cfi_def_cfa_offset 0
 1609              	.LVL244:
 321:..\..\..\lvgl\version_6.1.2\lvgl\src\lv_objx/lv_win.c ****             break;
 1610              		.loc 1 321 0
 1611 005c FFF7FEBF 		b	lv_win_realign
 1612              	.LVL245:
 1613              	.L108:
 1614              		.cfi_restore_state
 323:..\..\..\lvgl\version_6.1.2\lvgl\src\lv_objx/lv_win.c ****         case LV_WIN_STYLE_SB: lv_page_set_style(ext->page, LV_PAGE_STYLE_SB, style); break;
 1615              		.loc 1 323 0
 1616 0060 3246     		mov	r2, r6
 1617 0062 0068     		ldr	r0, [r0]
 1618              	.LVL246:
 1619 0064 0121     		movs	r1, #1
 346:..\..\..\lvgl\version_6.1.2\lvgl\src\lv_objx/lv_win.c **** 
 1620              		.loc 1 346 0
 1621 0066 BDE8F840 		pop	{r3, r4, r5, r6, r7, lr}
 1622              		.cfi_remember_state
 1623              		.cfi_restore 14
 1624              		.cfi_restore 7
 1625              		.cfi_restore 6
 1626              		.cfi_restore 5
 1627              		.cfi_restore 4
 1628              		.cfi_restore 3
 1629              		.cfi_def_cfa_offset 0
 1630              	.LVL247:
 323:..\..\..\lvgl\version_6.1.2\lvgl\src\lv_objx/lv_win.c ****         case LV_WIN_STYLE_SB: lv_page_set_style(ext->page, LV_PAGE_STYLE_SB, style); break;
 1631              		.loc 1 323 0
 1632 006a FFF7FEBF 		b	lv_page_set_style
 1633              	.LVL248:
 1634              	.L109:
 1635              		.cfi_restore_state
 324:..\..\..\lvgl\version_6.1.2\lvgl\src\lv_objx/lv_win.c ****         case LV_WIN_STYLE_HEADER:
 1636              		.loc 1 324 0
 1637 006e 3246     		mov	r2, r6
 1638 0070 0068     		ldr	r0, [r0]
 1639              	.LVL249:
 1640 0072 0221     		movs	r1, #2
 346:..\..\..\lvgl\version_6.1.2\lvgl\src\lv_objx/lv_win.c **** 
 1641              		.loc 1 346 0
 1642 0074 BDE8F840 		pop	{r3, r4, r5, r6, r7, lr}
 1643              		.cfi_remember_state
 1644              		.cfi_restore 14
 1645              		.cfi_restore 7
 1646              		.cfi_restore 6
ARM GAS  C:\Users\pearlstl\AppData\Local\Temp\ccI2fBBa.s 			page 51


 1647              		.cfi_restore 5
 1648              		.cfi_restore 4
 1649              		.cfi_restore 3
 1650              		.cfi_def_cfa_offset 0
 1651              	.LVL250:
 324:..\..\..\lvgl\version_6.1.2\lvgl\src\lv_objx/lv_win.c ****         case LV_WIN_STYLE_HEADER:
 1652              		.loc 1 324 0
 1653 0078 FFF7FEBF 		b	lv_page_set_style
 1654              	.LVL251:
 1655              	.L110:
 1656              		.cfi_restore_state
 326:..\..\..\lvgl\version_6.1.2\lvgl\src\lv_objx/lv_win.c ****             lv_win_realign(win);
 1657              		.loc 1 326 0
 1658 007c 3146     		mov	r1, r6
 1659 007e 4068     		ldr	r0, [r0, #4]
 1660              	.LVL252:
 1661 0080 FFF7FEFF 		bl	lv_obj_set_style
 1662              	.LVL253:
 327:..\..\..\lvgl\version_6.1.2\lvgl\src\lv_objx/lv_win.c ****             break;
 1663              		.loc 1 327 0
 1664 0084 2046     		mov	r0, r4
 346:..\..\..\lvgl\version_6.1.2\lvgl\src\lv_objx/lv_win.c **** 
 1665              		.loc 1 346 0
 1666 0086 BDE8F840 		pop	{r3, r4, r5, r6, r7, lr}
 1667              		.cfi_remember_state
 1668              		.cfi_restore 14
 1669              		.cfi_restore 7
 1670              		.cfi_restore 6
 1671              		.cfi_restore 5
 1672              		.cfi_restore 4
 1673              		.cfi_restore 3
 1674              		.cfi_def_cfa_offset 0
 1675              	.LVL254:
 327:..\..\..\lvgl\version_6.1.2\lvgl\src\lv_objx/lv_win.c ****             break;
 1676              		.loc 1 327 0
 1677 008a FFF7FEBF 		b	lv_win_realign
 1678              	.LVL255:
 1679              	.L111:
 1680              		.cfi_restore_state
 329:..\..\..\lvgl\version_6.1.2\lvgl\src\lv_objx/lv_win.c ****         case LV_WIN_STYLE_BTN_PR: ext->style_btn_pr = style; break;
 1681              		.loc 1 329 0
 1682 008e C660     		str	r6, [r0, #12]
 1683              	.LBB119:
 336:..\..\..\lvgl\version_6.1.2\lvgl\src\lv_objx/lv_win.c ****         btn = lv_obj_get_child_back(ext->header, btn); /*Skip the title*/
 1684              		.loc 1 336 0
 1685 0090 0021     		movs	r1, #0
 1686 0092 4068     		ldr	r0, [r0, #4]
 1687              	.LVL256:
 1688 0094 FFF7FEFF 		bl	lv_obj_get_child_back
 1689              	.LVL257:
 337:..\..\..\lvgl\version_6.1.2\lvgl\src\lv_objx/lv_win.c ****         while(btn != NULL) {
 1690              		.loc 1 337 0
 1691 0098 0146     		mov	r1, r0
 1692 009a 6868     		ldr	r0, [r5, #4]
 1693              	.LVL258:
 1694 009c FFF7FEFF 		bl	lv_obj_get_child_back
 1695              	.LVL259:
ARM GAS  C:\Users\pearlstl\AppData\Local\Temp\ccI2fBBa.s 			page 52


 338:..\..\..\lvgl\version_6.1.2\lvgl\src\lv_objx/lv_win.c ****             if(type == LV_WIN_STYLE_BTN_REL)
 1696              		.loc 1 338 0
 1697 00a0 0446     		mov	r4, r0
 1698              	.LVL260:
 1699 00a2 80B9     		cbnz	r0, .L118
 1700              	.LVL261:
 1701              	.L104:
 1702 00a4 F8BD     		pop	{r3, r4, r5, r6, r7, pc}
 1703              	.LVL262:
 1704              	.L105:
 1705              	.LBE119:
 334:..\..\..\lvgl\version_6.1.2\lvgl\src\lv_objx/lv_win.c ****         lv_obj_t * btn;
 1706              		.loc 1 334 0
 1707 00a6 3B1F     		subs	r3, r7, #4
 1708 00a8 012B     		cmp	r3, #1
 1709 00aa FBD8     		bhi	.L104
 1710              	.LBB120:
 336:..\..\..\lvgl\version_6.1.2\lvgl\src\lv_objx/lv_win.c ****         btn = lv_obj_get_child_back(ext->header, btn); /*Skip the title*/
 1711              		.loc 1 336 0
 1712 00ac 0021     		movs	r1, #0
 1713 00ae 4068     		ldr	r0, [r0, #4]
 1714              	.LVL263:
 1715 00b0 FFF7FEFF 		bl	lv_obj_get_child_back
 1716              	.LVL264:
 337:..\..\..\lvgl\version_6.1.2\lvgl\src\lv_objx/lv_win.c ****         while(btn != NULL) {
 1717              		.loc 1 337 0
 1718 00b4 0146     		mov	r1, r0
 1719 00b6 6868     		ldr	r0, [r5, #4]
 1720              	.LVL265:
 1721 00b8 FFF7FEFF 		bl	lv_obj_get_child_back
 1722              	.LVL266:
 338:..\..\..\lvgl\version_6.1.2\lvgl\src\lv_objx/lv_win.c ****             if(type == LV_WIN_STYLE_BTN_REL)
 1723              		.loc 1 338 0
 1724 00bc 0446     		mov	r4, r0
 1725              	.LVL267:
 1726 00be 0028     		cmp	r0, #0
 1727 00c0 F0D0     		beq	.L104
 1728 00c2 042F     		cmp	r7, #4
 1729 00c4 B6D1     		bne	.L117
 1730              	.L118:
 340:..\..\..\lvgl\version_6.1.2\lvgl\src\lv_objx/lv_win.c ****             else
 1731              		.loc 1 340 0
 1732 00c6 2046     		mov	r0, r4
 1733 00c8 3246     		mov	r2, r6
 1734 00ca 0021     		movs	r1, #0
 1735 00cc FFF7FEFF 		bl	lv_btn_set_style
 1736              	.LVL268:
 343:..\..\..\lvgl\version_6.1.2\lvgl\src\lv_objx/lv_win.c ****         }
 1737              		.loc 1 343 0
 1738 00d0 2146     		mov	r1, r4
 1739 00d2 6868     		ldr	r0, [r5, #4]
 1740 00d4 FFF7FEFF 		bl	lv_obj_get_child_back
 1741              	.LVL269:
 338:..\..\..\lvgl\version_6.1.2\lvgl\src\lv_objx/lv_win.c ****             if(type == LV_WIN_STYLE_BTN_REL)
 1742              		.loc 1 338 0
 1743 00d8 0446     		mov	r4, r0
 1744 00da 0028     		cmp	r0, #0
ARM GAS  C:\Users\pearlstl\AppData\Local\Temp\ccI2fBBa.s 			page 53


 1745 00dc F3D1     		bne	.L118
 1746 00de F8BD     		pop	{r3, r4, r5, r6, r7, pc}
 1747              	.LVL270:
 1748              	.L127:
 1749 00e0 F8BD     		pop	{r3, r4, r5, r6, r7, pc}
 1750              	.LBE120:
 1751              		.cfi_endproc
 1752              	.LFE78:
 1753              		.size	lv_win_set_style, .-lv_win_set_style
 1754 00e2 00BF     		.section	.text.lv_win_set_drag,"ax",%progbits
 1755              		.align	2
 1756              		.global	lv_win_set_drag
 1757              		.thumb
 1758              		.thumb_func
 1759              		.type	lv_win_set_drag, %function
 1760              	lv_win_set_drag:
 1761              	.LFB79:
 354:..\..\..\lvgl\version_6.1.2\lvgl\src\lv_objx/lv_win.c ****     LV_ASSERT_OBJ(win, LV_OBJX_NAME);
 1762              		.loc 1 354 0
 1763              		.cfi_startproc
 1764              		@ args = 0, pretend = 0, frame = 0
 1765              		@ frame_needed = 0, uses_anonymous_args = 0
 1766              	.LVL271:
 1767 0000 38B5     		push	{r3, r4, r5, lr}
 1768              		.cfi_def_cfa_offset 16
 1769              		.cfi_offset 3, -16
 1770              		.cfi_offset 4, -12
 1771              		.cfi_offset 5, -8
 1772              		.cfi_offset 14, -4
 354:..\..\..\lvgl\version_6.1.2\lvgl\src\lv_objx/lv_win.c ****     LV_ASSERT_OBJ(win, LV_OBJX_NAME);
 1773              		.loc 1 354 0
 1774 0002 0C46     		mov	r4, r1
 1775 0004 0546     		mov	r5, r0
 357:..\..\..\lvgl\version_6.1.2\lvgl\src\lv_objx/lv_win.c ****     lv_obj_t * win_header = ext->header;
 1776              		.loc 1 357 0
 1777 0006 FFF7FEFF 		bl	lv_obj_get_ext_attr
 1778              	.LVL272:
 359:..\..\..\lvgl\version_6.1.2\lvgl\src\lv_objx/lv_win.c ****     lv_obj_set_drag(win, en);
 1779              		.loc 1 359 0
 1780 000a 2146     		mov	r1, r4
 1781 000c 4068     		ldr	r0, [r0, #4]
 1782              	.LVL273:
 1783 000e FFF7FEFF 		bl	lv_obj_set_drag_parent
 1784              	.LVL274:
 360:..\..\..\lvgl\version_6.1.2\lvgl\src\lv_objx/lv_win.c **** }
 1785              		.loc 1 360 0
 1786 0012 2146     		mov	r1, r4
 1787 0014 2846     		mov	r0, r5
 361:..\..\..\lvgl\version_6.1.2\lvgl\src\lv_objx/lv_win.c **** 
 1788              		.loc 1 361 0
 1789 0016 BDE83840 		pop	{r3, r4, r5, lr}
 1790              		.cfi_restore 14
 1791              		.cfi_restore 5
 1792              		.cfi_restore 4
 1793              		.cfi_restore 3
 1794              		.cfi_def_cfa_offset 0
 1795              	.LVL275:
ARM GAS  C:\Users\pearlstl\AppData\Local\Temp\ccI2fBBa.s 			page 54


 360:..\..\..\lvgl\version_6.1.2\lvgl\src\lv_objx/lv_win.c **** }
 1796              		.loc 1 360 0
 1797 001a FFF7FEBF 		b	lv_obj_set_drag
 1798              	.LVL276:
 1799              		.cfi_endproc
 1800              	.LFE79:
 1801              		.size	lv_win_set_drag, .-lv_win_set_drag
 1802 001e 00BF     		.section	.text.lv_win_get_title,"ax",%progbits
 1803              		.align	2
 1804              		.global	lv_win_get_title
 1805              		.thumb
 1806              		.thumb_func
 1807              		.type	lv_win_get_title, %function
 1808              	lv_win_get_title:
 1809              	.LFB80:
 373:..\..\..\lvgl\version_6.1.2\lvgl\src\lv_objx/lv_win.c ****     LV_ASSERT_OBJ(win, LV_OBJX_NAME);
 1810              		.loc 1 373 0
 1811              		.cfi_startproc
 1812              		@ args = 0, pretend = 0, frame = 0
 1813              		@ frame_needed = 0, uses_anonymous_args = 0
 1814              	.LVL277:
 1815 0000 08B5     		push	{r3, lr}
 1816              		.cfi_def_cfa_offset 8
 1817              		.cfi_offset 3, -8
 1818              		.cfi_offset 14, -4
 376:..\..\..\lvgl\version_6.1.2\lvgl\src\lv_objx/lv_win.c ****     return lv_label_get_text(ext->title);
 1819              		.loc 1 376 0
 1820 0002 FFF7FEFF 		bl	lv_obj_get_ext_attr
 1821              	.LVL278:
 378:..\..\..\lvgl\version_6.1.2\lvgl\src\lv_objx/lv_win.c **** 
 1822              		.loc 1 378 0
 1823 0006 BDE80840 		pop	{r3, lr}
 1824              		.cfi_restore 14
 1825              		.cfi_restore 3
 1826              		.cfi_def_cfa_offset 0
 377:..\..\..\lvgl\version_6.1.2\lvgl\src\lv_objx/lv_win.c **** }
 1827              		.loc 1 377 0
 1828 000a 8068     		ldr	r0, [r0, #8]
 1829              	.LVL279:
 1830 000c FFF7FEBF 		b	lv_label_get_text
 1831              	.LVL280:
 1832              		.cfi_endproc
 1833              	.LFE80:
 1834              		.size	lv_win_get_title, .-lv_win_get_title
 1835              		.section	.text.lv_win_get_content,"ax",%progbits
 1836              		.align	2
 1837              		.global	lv_win_get_content
 1838              		.thumb
 1839              		.thumb_func
 1840              		.type	lv_win_get_content, %function
 1841              	lv_win_get_content:
 1842              	.LFB81:
 386:..\..\..\lvgl\version_6.1.2\lvgl\src\lv_objx/lv_win.c ****     LV_ASSERT_OBJ(win, LV_OBJX_NAME);
 1843              		.loc 1 386 0
 1844              		.cfi_startproc
 1845              		@ args = 0, pretend = 0, frame = 0
 1846              		@ frame_needed = 0, uses_anonymous_args = 0
ARM GAS  C:\Users\pearlstl\AppData\Local\Temp\ccI2fBBa.s 			page 55


 1847              	.LVL281:
 1848 0000 08B5     		push	{r3, lr}
 1849              		.cfi_def_cfa_offset 8
 1850              		.cfi_offset 3, -8
 1851              		.cfi_offset 14, -4
 389:..\..\..\lvgl\version_6.1.2\lvgl\src\lv_objx/lv_win.c ****     return ext->page;
 1852              		.loc 1 389 0
 1853 0002 FFF7FEFF 		bl	lv_obj_get_ext_attr
 1854              	.LVL282:
 391:..\..\..\lvgl\version_6.1.2\lvgl\src\lv_objx/lv_win.c **** 
 1855              		.loc 1 391 0
 1856 0006 0068     		ldr	r0, [r0]
 1857              	.LVL283:
 1858 0008 08BD     		pop	{r3, pc}
 1859              		.cfi_endproc
 1860              	.LFE81:
 1861              		.size	lv_win_get_content, .-lv_win_get_content
 1862 000a 00BF     		.section	.text.lv_win_get_btn_size,"ax",%progbits
 1863              		.align	2
 1864              		.global	lv_win_get_btn_size
 1865              		.thumb
 1866              		.thumb_func
 1867              		.type	lv_win_get_btn_size, %function
 1868              	lv_win_get_btn_size:
 1869              	.LFB82:
 399:..\..\..\lvgl\version_6.1.2\lvgl\src\lv_objx/lv_win.c ****     LV_ASSERT_OBJ(win, LV_OBJX_NAME);
 1870              		.loc 1 399 0
 1871              		.cfi_startproc
 1872              		@ args = 0, pretend = 0, frame = 0
 1873              		@ frame_needed = 0, uses_anonymous_args = 0
 1874              	.LVL284:
 1875 0000 08B5     		push	{r3, lr}
 1876              		.cfi_def_cfa_offset 8
 1877              		.cfi_offset 3, -8
 1878              		.cfi_offset 14, -4
 402:..\..\..\lvgl\version_6.1.2\lvgl\src\lv_objx/lv_win.c ****     return ext->btn_size;
 1879              		.loc 1 402 0
 1880 0002 FFF7FEFF 		bl	lv_obj_get_ext_attr
 1881              	.LVL285:
 404:..\..\..\lvgl\version_6.1.2\lvgl\src\lv_objx/lv_win.c **** 
 1882              		.loc 1 404 0
 1883 0006 B0F91400 		ldrsh	r0, [r0, #20]
 1884              	.LVL286:
 1885 000a 08BD     		pop	{r3, pc}
 1886              		.cfi_endproc
 1887              	.LFE82:
 1888              		.size	lv_win_get_btn_size, .-lv_win_get_btn_size
 1889              		.section	.text.lv_win_get_from_btn,"ax",%progbits
 1890              		.align	2
 1891              		.global	lv_win_get_from_btn
 1892              		.thumb
 1893              		.thumb_func
 1894              		.type	lv_win_get_from_btn, %function
 1895              	lv_win_get_from_btn:
 1896              	.LFB83:
 413:..\..\..\lvgl\version_6.1.2\lvgl\src\lv_objx/lv_win.c ****     LV_ASSERT_OBJ(ctrl_btn, "lv_btn");
 1897              		.loc 1 413 0
ARM GAS  C:\Users\pearlstl\AppData\Local\Temp\ccI2fBBa.s 			page 56


 1898              		.cfi_startproc
 1899              		@ args = 0, pretend = 0, frame = 0
 1900              		@ frame_needed = 0, uses_anonymous_args = 0
 1901              	.LVL287:
 1902 0000 08B5     		push	{r3, lr}
 1903              		.cfi_def_cfa_offset 8
 1904              		.cfi_offset 3, -8
 1905              		.cfi_offset 14, -4
 416:..\..\..\lvgl\version_6.1.2\lvgl\src\lv_objx/lv_win.c ****     lv_obj_t * win    = lv_obj_get_parent(header);
 1906              		.loc 1 416 0
 1907 0002 FFF7FEFF 		bl	lv_obj_get_parent
 1908              	.LVL288:
 420:..\..\..\lvgl\version_6.1.2\lvgl\src\lv_objx/lv_win.c **** 
 1909              		.loc 1 420 0
 1910 0006 BDE80840 		pop	{r3, lr}
 1911              		.cfi_restore 14
 1912              		.cfi_restore 3
 1913              		.cfi_def_cfa_offset 0
 417:..\..\..\lvgl\version_6.1.2\lvgl\src\lv_objx/lv_win.c **** 
 1914              		.loc 1 417 0
 1915 000a FFF7FEBF 		b	lv_obj_get_parent
 1916              	.LVL289:
 1917              		.cfi_endproc
 1918              	.LFE83:
 1919              		.size	lv_win_get_from_btn, .-lv_win_get_from_btn
 1920 000e 00BF     		.section	.text.lv_win_get_layout,"ax",%progbits
 1921              		.align	2
 1922              		.global	lv_win_get_layout
 1923              		.thumb
 1924              		.thumb_func
 1925              		.type	lv_win_get_layout, %function
 1926              	lv_win_get_layout:
 1927              	.LFB84:
 428:..\..\..\lvgl\version_6.1.2\lvgl\src\lv_objx/lv_win.c ****     LV_ASSERT_OBJ(win, LV_OBJX_NAME);
 1928              		.loc 1 428 0
 1929              		.cfi_startproc
 1930              		@ args = 0, pretend = 0, frame = 0
 1931              		@ frame_needed = 0, uses_anonymous_args = 0
 1932              	.LVL290:
 1933 0000 08B5     		push	{r3, lr}
 1934              		.cfi_def_cfa_offset 8
 1935              		.cfi_offset 3, -8
 1936              		.cfi_offset 14, -4
 431:..\..\..\lvgl\version_6.1.2\lvgl\src\lv_objx/lv_win.c ****     return lv_page_get_scrl_layout(ext->page);
 1937              		.loc 1 431 0
 1938 0002 FFF7FEFF 		bl	lv_obj_get_ext_attr
 1939              	.LVL291:
 1940              	.LBB121:
 1941              	.LBB122:
 232:..\..\..\lvgl\version_6.1.2\lvgl\src\lv_objx/lv_page.h **** }
 233:..\..\..\lvgl\version_6.1.2\lvgl\src\lv_objx/lv_page.h **** 
 234:..\..\..\lvgl\version_6.1.2\lvgl\src\lv_objx/lv_page.h **** /**
 235:..\..\..\lvgl\version_6.1.2\lvgl\src\lv_objx/lv_page.h ****  * Set a style of a page
 236:..\..\..\lvgl\version_6.1.2\lvgl\src\lv_objx/lv_page.h ****  * @param page pointer to a page object
 237:..\..\..\lvgl\version_6.1.2\lvgl\src\lv_objx/lv_page.h ****  * @param type which style should be set
 238:..\..\..\lvgl\version_6.1.2\lvgl\src\lv_objx/lv_page.h ****  * @param style pointer to a style
 239:..\..\..\lvgl\version_6.1.2\lvgl\src\lv_objx/lv_page.h ****  */
ARM GAS  C:\Users\pearlstl\AppData\Local\Temp\ccI2fBBa.s 			page 57


 240:..\..\..\lvgl\version_6.1.2\lvgl\src\lv_objx/lv_page.h **** void lv_page_set_style(lv_obj_t * page, lv_page_style_t type, const lv_style_t * style);
 241:..\..\..\lvgl\version_6.1.2\lvgl\src\lv_objx/lv_page.h **** 
 242:..\..\..\lvgl\version_6.1.2\lvgl\src\lv_objx/lv_page.h **** /*=====================
 243:..\..\..\lvgl\version_6.1.2\lvgl\src\lv_objx/lv_page.h ****  * Getter functions
 244:..\..\..\lvgl\version_6.1.2\lvgl\src\lv_objx/lv_page.h ****  *====================*/
 245:..\..\..\lvgl\version_6.1.2\lvgl\src\lv_objx/lv_page.h **** 
 246:..\..\..\lvgl\version_6.1.2\lvgl\src\lv_objx/lv_page.h **** /**
 247:..\..\..\lvgl\version_6.1.2\lvgl\src\lv_objx/lv_page.h ****  * Set the scroll bar mode on a page
 248:..\..\..\lvgl\version_6.1.2\lvgl\src\lv_objx/lv_page.h ****  * @param page pointer to a page object
 249:..\..\..\lvgl\version_6.1.2\lvgl\src\lv_objx/lv_page.h ****  * @return the mode from 'lv_page_sb.mode_t' enum
 250:..\..\..\lvgl\version_6.1.2\lvgl\src\lv_objx/lv_page.h ****  */
 251:..\..\..\lvgl\version_6.1.2\lvgl\src\lv_objx/lv_page.h **** lv_sb_mode_t lv_page_get_sb_mode(const lv_obj_t * page);
 252:..\..\..\lvgl\version_6.1.2\lvgl\src\lv_objx/lv_page.h **** 
 253:..\..\..\lvgl\version_6.1.2\lvgl\src\lv_objx/lv_page.h **** /**
 254:..\..\..\lvgl\version_6.1.2\lvgl\src\lv_objx/lv_page.h ****  * Get the scroll propagation property
 255:..\..\..\lvgl\version_6.1.2\lvgl\src\lv_objx/lv_page.h ****  * @param page pointer to a Page
 256:..\..\..\lvgl\version_6.1.2\lvgl\src\lv_objx/lv_page.h ****  * @return true or false
 257:..\..\..\lvgl\version_6.1.2\lvgl\src\lv_objx/lv_page.h ****  */
 258:..\..\..\lvgl\version_6.1.2\lvgl\src\lv_objx/lv_page.h **** bool lv_page_get_scroll_propagation(lv_obj_t * page);
 259:..\..\..\lvgl\version_6.1.2\lvgl\src\lv_objx/lv_page.h **** 
 260:..\..\..\lvgl\version_6.1.2\lvgl\src\lv_objx/lv_page.h **** /**
 261:..\..\..\lvgl\version_6.1.2\lvgl\src\lv_objx/lv_page.h ****  * Get the edge flash effect property.
 262:..\..\..\lvgl\version_6.1.2\lvgl\src\lv_objx/lv_page.h ****  * @param page pointer to a Page
 263:..\..\..\lvgl\version_6.1.2\lvgl\src\lv_objx/lv_page.h ****  * return true or false
 264:..\..\..\lvgl\version_6.1.2\lvgl\src\lv_objx/lv_page.h ****  */
 265:..\..\..\lvgl\version_6.1.2\lvgl\src\lv_objx/lv_page.h **** bool lv_page_get_edge_flash(lv_obj_t * page);
 266:..\..\..\lvgl\version_6.1.2\lvgl\src\lv_objx/lv_page.h **** 
 267:..\..\..\lvgl\version_6.1.2\lvgl\src\lv_objx/lv_page.h **** /**
 268:..\..\..\lvgl\version_6.1.2\lvgl\src\lv_objx/lv_page.h ****  * Get that width which can be set to the children to still not cause overflow (show scrollbars)
 269:..\..\..\lvgl\version_6.1.2\lvgl\src\lv_objx/lv_page.h ****  * @param page pointer to a page object
 270:..\..\..\lvgl\version_6.1.2\lvgl\src\lv_objx/lv_page.h ****  * @return the width which still fits into the page
 271:..\..\..\lvgl\version_6.1.2\lvgl\src\lv_objx/lv_page.h ****  */
 272:..\..\..\lvgl\version_6.1.2\lvgl\src\lv_objx/lv_page.h **** lv_coord_t lv_page_get_fit_width(lv_obj_t * page);
 273:..\..\..\lvgl\version_6.1.2\lvgl\src\lv_objx/lv_page.h **** 
 274:..\..\..\lvgl\version_6.1.2\lvgl\src\lv_objx/lv_page.h **** /**
 275:..\..\..\lvgl\version_6.1.2\lvgl\src\lv_objx/lv_page.h ****  * Get that height which can be set to the children to still not cause overflow (show scrollbars)
 276:..\..\..\lvgl\version_6.1.2\lvgl\src\lv_objx/lv_page.h ****  * @param page pointer to a page object
 277:..\..\..\lvgl\version_6.1.2\lvgl\src\lv_objx/lv_page.h ****  * @return the height which still fits into the page
 278:..\..\..\lvgl\version_6.1.2\lvgl\src\lv_objx/lv_page.h ****  */
 279:..\..\..\lvgl\version_6.1.2\lvgl\src\lv_objx/lv_page.h **** lv_coord_t lv_page_get_fit_height(lv_obj_t * page);
 280:..\..\..\lvgl\version_6.1.2\lvgl\src\lv_objx/lv_page.h **** 
 281:..\..\..\lvgl\version_6.1.2\lvgl\src\lv_objx/lv_page.h **** /**
 282:..\..\..\lvgl\version_6.1.2\lvgl\src\lv_objx/lv_page.h ****  * Get width of the scrollable part of a page
 283:..\..\..\lvgl\version_6.1.2\lvgl\src\lv_objx/lv_page.h ****  * @param page pointer to a page object
 284:..\..\..\lvgl\version_6.1.2\lvgl\src\lv_objx/lv_page.h ****  * @return the width of the scrollable
 285:..\..\..\lvgl\version_6.1.2\lvgl\src\lv_objx/lv_page.h ****  */
 286:..\..\..\lvgl\version_6.1.2\lvgl\src\lv_objx/lv_page.h **** static inline lv_coord_t lv_page_get_scrl_width(const lv_obj_t * page)
 287:..\..\..\lvgl\version_6.1.2\lvgl\src\lv_objx/lv_page.h **** {
 288:..\..\..\lvgl\version_6.1.2\lvgl\src\lv_objx/lv_page.h ****     return lv_obj_get_width(lv_page_get_scrl(page));
 289:..\..\..\lvgl\version_6.1.2\lvgl\src\lv_objx/lv_page.h **** }
 290:..\..\..\lvgl\version_6.1.2\lvgl\src\lv_objx/lv_page.h **** 
 291:..\..\..\lvgl\version_6.1.2\lvgl\src\lv_objx/lv_page.h **** /**
 292:..\..\..\lvgl\version_6.1.2\lvgl\src\lv_objx/lv_page.h ****  * Get height of the scrollable part of a page
 293:..\..\..\lvgl\version_6.1.2\lvgl\src\lv_objx/lv_page.h ****  * @param page pointer to a page object
 294:..\..\..\lvgl\version_6.1.2\lvgl\src\lv_objx/lv_page.h ****  * @return the height of the scrollable
 295:..\..\..\lvgl\version_6.1.2\lvgl\src\lv_objx/lv_page.h ****  */
 296:..\..\..\lvgl\version_6.1.2\lvgl\src\lv_objx/lv_page.h **** static inline lv_coord_t lv_page_get_scrl_height(const lv_obj_t * page)
ARM GAS  C:\Users\pearlstl\AppData\Local\Temp\ccI2fBBa.s 			page 58


 297:..\..\..\lvgl\version_6.1.2\lvgl\src\lv_objx/lv_page.h **** {
 298:..\..\..\lvgl\version_6.1.2\lvgl\src\lv_objx/lv_page.h ****     return lv_obj_get_height(lv_page_get_scrl(page));
 299:..\..\..\lvgl\version_6.1.2\lvgl\src\lv_objx/lv_page.h **** }
 300:..\..\..\lvgl\version_6.1.2\lvgl\src\lv_objx/lv_page.h **** 
 301:..\..\..\lvgl\version_6.1.2\lvgl\src\lv_objx/lv_page.h **** /**
 302:..\..\..\lvgl\version_6.1.2\lvgl\src\lv_objx/lv_page.h ****  * Get the layout of the scrollable part of a page
 303:..\..\..\lvgl\version_6.1.2\lvgl\src\lv_objx/lv_page.h ****  * @param page pointer to page object
 304:..\..\..\lvgl\version_6.1.2\lvgl\src\lv_objx/lv_page.h ****  * @return the layout from 'lv_cont_layout_t'
 305:..\..\..\lvgl\version_6.1.2\lvgl\src\lv_objx/lv_page.h ****  */
 306:..\..\..\lvgl\version_6.1.2\lvgl\src\lv_objx/lv_page.h **** static inline lv_layout_t lv_page_get_scrl_layout(const lv_obj_t * page)
 307:..\..\..\lvgl\version_6.1.2\lvgl\src\lv_objx/lv_page.h **** {
 308:..\..\..\lvgl\version_6.1.2\lvgl\src\lv_objx/lv_page.h ****     return lv_cont_get_layout(lv_page_get_scrl(page));
 1942              		.loc 3 308 0
 1943 0006 0068     		ldr	r0, [r0]
 1944              	.LVL292:
 1945 0008 FFF7FEFF 		bl	lv_page_get_scrl
 1946              	.LVL293:
 1947              	.LBE122:
 1948              	.LBE121:
 433:..\..\..\lvgl\version_6.1.2\lvgl\src\lv_objx/lv_win.c **** 
 1949              		.loc 1 433 0
 1950 000c BDE80840 		pop	{r3, lr}
 1951              		.cfi_restore 14
 1952              		.cfi_restore 3
 1953              		.cfi_def_cfa_offset 0
 1954              	.LBB124:
 1955              	.LBB123:
 1956              		.loc 3 308 0
 1957 0010 FFF7FEBF 		b	lv_cont_get_layout
 1958              	.LVL294:
 1959              	.LBE123:
 1960              	.LBE124:
 1961              		.cfi_endproc
 1962              	.LFE84:
 1963              		.size	lv_win_get_layout, .-lv_win_get_layout
 1964              		.section	.text.lv_win_get_sb_mode,"ax",%progbits
 1965              		.align	2
 1966              		.global	lv_win_get_sb_mode
 1967              		.thumb
 1968              		.thumb_func
 1969              		.type	lv_win_get_sb_mode, %function
 1970              	lv_win_get_sb_mode:
 1971              	.LFB85:
 441:..\..\..\lvgl\version_6.1.2\lvgl\src\lv_objx/lv_win.c ****     LV_ASSERT_OBJ(win, LV_OBJX_NAME);
 1972              		.loc 1 441 0
 1973              		.cfi_startproc
 1974              		@ args = 0, pretend = 0, frame = 0
 1975              		@ frame_needed = 0, uses_anonymous_args = 0
 1976              	.LVL295:
 1977 0000 08B5     		push	{r3, lr}
 1978              		.cfi_def_cfa_offset 8
 1979              		.cfi_offset 3, -8
 1980              		.cfi_offset 14, -4
 444:..\..\..\lvgl\version_6.1.2\lvgl\src\lv_objx/lv_win.c ****     return lv_page_get_sb_mode(ext->page);
 1981              		.loc 1 444 0
 1982 0002 FFF7FEFF 		bl	lv_obj_get_ext_attr
 1983              	.LVL296:
ARM GAS  C:\Users\pearlstl\AppData\Local\Temp\ccI2fBBa.s 			page 59


 446:..\..\..\lvgl\version_6.1.2\lvgl\src\lv_objx/lv_win.c **** 
 1984              		.loc 1 446 0
 1985 0006 BDE80840 		pop	{r3, lr}
 1986              		.cfi_restore 14
 1987              		.cfi_restore 3
 1988              		.cfi_def_cfa_offset 0
 445:..\..\..\lvgl\version_6.1.2\lvgl\src\lv_objx/lv_win.c **** }
 1989              		.loc 1 445 0
 1990 000a 0068     		ldr	r0, [r0]
 1991              	.LVL297:
 1992 000c FFF7FEBF 		b	lv_page_get_sb_mode
 1993              	.LVL298:
 1994              		.cfi_endproc
 1995              	.LFE85:
 1996              		.size	lv_win_get_sb_mode, .-lv_win_get_sb_mode
 1997              		.section	.text.lv_win_get_anim_time,"ax",%progbits
 1998              		.align	2
 1999              		.global	lv_win_get_anim_time
 2000              		.thumb
 2001              		.thumb_func
 2002              		.type	lv_win_get_anim_time, %function
 2003              	lv_win_get_anim_time:
 2004              	.LFB86:
 454:..\..\..\lvgl\version_6.1.2\lvgl\src\lv_objx/lv_win.c ****     LV_ASSERT_OBJ(win, LV_OBJX_NAME);
 2005              		.loc 1 454 0
 2006              		.cfi_startproc
 2007              		@ args = 0, pretend = 0, frame = 0
 2008              		@ frame_needed = 0, uses_anonymous_args = 0
 2009              	.LVL299:
 2010 0000 08B5     		push	{r3, lr}
 2011              		.cfi_def_cfa_offset 8
 2012              		.cfi_offset 3, -8
 2013              		.cfi_offset 14, -4
 2014              	.LBB125:
 2015              	.LBB126:
 389:..\..\..\lvgl\version_6.1.2\lvgl\src\lv_objx/lv_win.c ****     return ext->page;
 2016              		.loc 1 389 0
 2017 0002 FFF7FEFF 		bl	lv_obj_get_ext_attr
 2018              	.LVL300:
 2019              	.LBE126:
 2020              	.LBE125:
 458:..\..\..\lvgl\version_6.1.2\lvgl\src\lv_objx/lv_win.c **** 
 2021              		.loc 1 458 0
 2022 0006 BDE80840 		pop	{r3, lr}
 2023              		.cfi_restore 14
 2024              		.cfi_restore 3
 2025              		.cfi_def_cfa_offset 0
 457:..\..\..\lvgl\version_6.1.2\lvgl\src\lv_objx/lv_win.c **** }
 2026              		.loc 1 457 0
 2027 000a 0068     		ldr	r0, [r0]
 2028 000c FFF7FEBF 		b	lv_page_get_anim_time
 2029              	.LVL301:
 2030              		.cfi_endproc
 2031              	.LFE86:
 2032              		.size	lv_win_get_anim_time, .-lv_win_get_anim_time
 2033              		.section	.text.lv_win_get_width,"ax",%progbits
 2034              		.align	2
ARM GAS  C:\Users\pearlstl\AppData\Local\Temp\ccI2fBBa.s 			page 60


 2035              		.global	lv_win_get_width
 2036              		.thumb
 2037              		.thumb_func
 2038              		.type	lv_win_get_width, %function
 2039              	lv_win_get_width:
 2040              	.LFB87:
 466:..\..\..\lvgl\version_6.1.2\lvgl\src\lv_objx/lv_win.c ****     LV_ASSERT_OBJ(win, LV_OBJX_NAME);
 2041              		.loc 1 466 0
 2042              		.cfi_startproc
 2043              		@ args = 0, pretend = 0, frame = 0
 2044              		@ frame_needed = 0, uses_anonymous_args = 0
 2045              	.LVL302:
 2046 0000 38B5     		push	{r3, r4, r5, lr}
 2047              		.cfi_def_cfa_offset 16
 2048              		.cfi_offset 3, -16
 2049              		.cfi_offset 4, -12
 2050              		.cfi_offset 5, -8
 2051              		.cfi_offset 14, -4
 469:..\..\..\lvgl\version_6.1.2\lvgl\src\lv_objx/lv_win.c ****     lv_obj_t * scrl               = lv_page_get_scrl(ext->page);
 2052              		.loc 1 469 0
 2053 0002 FFF7FEFF 		bl	lv_obj_get_ext_attr
 2054              	.LVL303:
 470:..\..\..\lvgl\version_6.1.2\lvgl\src\lv_objx/lv_win.c ****     const lv_style_t * style_scrl = lv_obj_get_style(scrl);
 2055              		.loc 1 470 0
 2056 0006 0068     		ldr	r0, [r0]
 2057              	.LVL304:
 2058 0008 FFF7FEFF 		bl	lv_page_get_scrl
 2059              	.LVL305:
 2060 000c 0546     		mov	r5, r0
 2061              	.LVL306:
 471:..\..\..\lvgl\version_6.1.2\lvgl\src\lv_objx/lv_win.c **** 
 2062              		.loc 1 471 0
 2063 000e FFF7FEFF 		bl	lv_obj_get_style
 2064              	.LVL307:
 2065 0012 0446     		mov	r4, r0
 2066              	.LVL308:
 473:..\..\..\lvgl\version_6.1.2\lvgl\src\lv_objx/lv_win.c **** }
 2067              		.loc 1 473 0
 2068 0014 2846     		mov	r0, r5
 2069              	.LVL309:
 2070 0016 FFF7FEFF 		bl	lv_obj_get_width
 2071              	.LVL310:
 2072 001a A38C     		ldrh	r3, [r4, #36]
 2073 001c E28C     		ldrh	r2, [r4, #38]
 2074 001e C01A     		subs	r0, r0, r3
 2075 0020 801A     		subs	r0, r0, r2
 474:..\..\..\lvgl\version_6.1.2\lvgl\src\lv_objx/lv_win.c **** 
 2076              		.loc 1 474 0
 2077 0022 00B2     		sxth	r0, r0
 2078 0024 38BD     		pop	{r3, r4, r5, pc}
 2079              		.cfi_endproc
 2080              	.LFE87:
 2081              		.size	lv_win_get_width, .-lv_win_get_width
 2082 0026 00BF     		.section	.text.lv_win_get_style,"ax",%progbits
 2083              		.align	2
 2084              		.global	lv_win_get_style
 2085              		.thumb
ARM GAS  C:\Users\pearlstl\AppData\Local\Temp\ccI2fBBa.s 			page 61


 2086              		.thumb_func
 2087              		.type	lv_win_get_style, %function
 2088              	lv_win_get_style:
 2089              	.LFB88:
 483:..\..\..\lvgl\version_6.1.2\lvgl\src\lv_objx/lv_win.c ****     LV_ASSERT_OBJ(win, LV_OBJX_NAME);
 2090              		.loc 1 483 0
 2091              		.cfi_startproc
 2092              		@ args = 0, pretend = 0, frame = 0
 2093              		@ frame_needed = 0, uses_anonymous_args = 0
 2094              	.LVL311:
 2095 0000 38B5     		push	{r3, r4, r5, lr}
 2096              		.cfi_def_cfa_offset 16
 2097              		.cfi_offset 3, -16
 2098              		.cfi_offset 4, -12
 2099              		.cfi_offset 5, -8
 2100              		.cfi_offset 14, -4
 483:..\..\..\lvgl\version_6.1.2\lvgl\src\lv_objx/lv_win.c ****     LV_ASSERT_OBJ(win, LV_OBJX_NAME);
 2101              		.loc 1 483 0
 2102 0002 0C46     		mov	r4, r1
 2103 0004 0546     		mov	r5, r0
 487:..\..\..\lvgl\version_6.1.2\lvgl\src\lv_objx/lv_win.c **** 
 2104              		.loc 1 487 0
 2105 0006 FFF7FEFF 		bl	lv_obj_get_ext_attr
 2106              	.LVL312:
 489:..\..\..\lvgl\version_6.1.2\lvgl\src\lv_objx/lv_win.c ****         case LV_WIN_STYLE_BG: style = lv_obj_get_style(win); break;
 2107              		.loc 1 489 0
 2108 000a 052C     		cmp	r4, #5
 2109 000c 1ED8     		bhi	.L155
 2110 000e DFE804F0 		tbb	[pc, r4]
 2111              	.L149:
 2112 0012 05       		.byte	(.L148-.L149)/2
 2113 0013 0A       		.byte	(.L150-.L149)/2
 2114 0014 10       		.byte	(.L151-.L149)/2
 2115 0015 16       		.byte	(.L152-.L149)/2
 2116 0016 1B       		.byte	(.L153-.L149)/2
 2117 0017 03       		.byte	(.L154-.L149)/2
 2118              		.p2align 1
 2119              	.L154:
 495:..\..\..\lvgl\version_6.1.2\lvgl\src\lv_objx/lv_win.c ****         default: style = NULL; break;
 2120              		.loc 1 495 0
 2121 0018 0069     		ldr	r0, [r0, #16]
 2122              	.LVL313:
 2123 001a 38BD     		pop	{r3, r4, r5, pc}
 2124              	.LVL314:
 2125              	.L148:
 490:..\..\..\lvgl\version_6.1.2\lvgl\src\lv_objx/lv_win.c ****         case LV_WIN_STYLE_CONTENT: style = lv_page_get_style(ext->page, LV_PAGE_STYLE_SCRL); break;
 2126              		.loc 1 490 0
 2127 001c 2846     		mov	r0, r5
 2128              	.LVL315:
 500:..\..\..\lvgl\version_6.1.2\lvgl\src\lv_objx/lv_win.c **** 
 2129              		.loc 1 500 0
 2130 001e BDE83840 		pop	{r3, r4, r5, lr}
 2131              		.cfi_remember_state
 2132              		.cfi_restore 14
 2133              		.cfi_restore 5
 2134              		.cfi_restore 4
 2135              		.cfi_restore 3
ARM GAS  C:\Users\pearlstl\AppData\Local\Temp\ccI2fBBa.s 			page 62


 2136              		.cfi_def_cfa_offset 0
 2137              	.LVL316:
 490:..\..\..\lvgl\version_6.1.2\lvgl\src\lv_objx/lv_win.c ****         case LV_WIN_STYLE_CONTENT: style = lv_page_get_style(ext->page, LV_PAGE_STYLE_SCRL); break;
 2138              		.loc 1 490 0
 2139 0022 FFF7FEBF 		b	lv_obj_get_style
 2140              	.LVL317:
 2141              	.L150:
 2142              		.cfi_restore_state
 491:..\..\..\lvgl\version_6.1.2\lvgl\src\lv_objx/lv_win.c ****         case LV_WIN_STYLE_SB: style = lv_page_get_style(ext->page, LV_PAGE_STYLE_SB); break;
 2143              		.loc 1 491 0
 2144 0026 0068     		ldr	r0, [r0]
 2145              	.LVL318:
 2146 0028 0121     		movs	r1, #1
 500:..\..\..\lvgl\version_6.1.2\lvgl\src\lv_objx/lv_win.c **** 
 2147              		.loc 1 500 0
 2148 002a BDE83840 		pop	{r3, r4, r5, lr}
 2149              		.cfi_remember_state
 2150              		.cfi_restore 14
 2151              		.cfi_restore 5
 2152              		.cfi_restore 4
 2153              		.cfi_restore 3
 2154              		.cfi_def_cfa_offset 0
 2155              	.LVL319:
 491:..\..\..\lvgl\version_6.1.2\lvgl\src\lv_objx/lv_win.c ****         case LV_WIN_STYLE_SB: style = lv_page_get_style(ext->page, LV_PAGE_STYLE_SB); break;
 2156              		.loc 1 491 0
 2157 002e FFF7FEBF 		b	lv_page_get_style
 2158              	.LVL320:
 2159              	.L151:
 2160              		.cfi_restore_state
 492:..\..\..\lvgl\version_6.1.2\lvgl\src\lv_objx/lv_win.c ****         case LV_WIN_STYLE_HEADER: style = lv_obj_get_style(ext->header); break;
 2161              		.loc 1 492 0
 2162 0032 0068     		ldr	r0, [r0]
 2163              	.LVL321:
 2164 0034 0221     		movs	r1, #2
 500:..\..\..\lvgl\version_6.1.2\lvgl\src\lv_objx/lv_win.c **** 
 2165              		.loc 1 500 0
 2166 0036 BDE83840 		pop	{r3, r4, r5, lr}
 2167              		.cfi_remember_state
 2168              		.cfi_restore 14
 2169              		.cfi_restore 5
 2170              		.cfi_restore 4
 2171              		.cfi_restore 3
 2172              		.cfi_def_cfa_offset 0
 2173              	.LVL322:
 492:..\..\..\lvgl\version_6.1.2\lvgl\src\lv_objx/lv_win.c ****         case LV_WIN_STYLE_HEADER: style = lv_obj_get_style(ext->header); break;
 2174              		.loc 1 492 0
 2175 003a FFF7FEBF 		b	lv_page_get_style
 2176              	.LVL323:
 2177              	.L152:
 2178              		.cfi_restore_state
 493:..\..\..\lvgl\version_6.1.2\lvgl\src\lv_objx/lv_win.c ****         case LV_WIN_STYLE_BTN_REL: style = ext->style_btn_rel; break;
 2179              		.loc 1 493 0
 2180 003e 4068     		ldr	r0, [r0, #4]
 2181              	.LVL324:
 500:..\..\..\lvgl\version_6.1.2\lvgl\src\lv_objx/lv_win.c **** 
 2182              		.loc 1 500 0
 2183 0040 BDE83840 		pop	{r3, r4, r5, lr}
ARM GAS  C:\Users\pearlstl\AppData\Local\Temp\ccI2fBBa.s 			page 63


 2184              		.cfi_remember_state
 2185              		.cfi_restore 14
 2186              		.cfi_restore 5
 2187              		.cfi_restore 4
 2188              		.cfi_restore 3
 2189              		.cfi_def_cfa_offset 0
 2190              	.LVL325:
 493:..\..\..\lvgl\version_6.1.2\lvgl\src\lv_objx/lv_win.c ****         case LV_WIN_STYLE_BTN_REL: style = ext->style_btn_rel; break;
 2191              		.loc 1 493 0
 2192 0044 FFF7FEBF 		b	lv_obj_get_style
 2193              	.LVL326:
 2194              	.L153:
 2195              		.cfi_restore_state
 494:..\..\..\lvgl\version_6.1.2\lvgl\src\lv_objx/lv_win.c ****         case LV_WIN_STYLE_BTN_PR: style = ext->style_btn_pr; break;
 2196              		.loc 1 494 0
 2197 0048 C068     		ldr	r0, [r0, #12]
 2198              	.LVL327:
 2199 004a 38BD     		pop	{r3, r4, r5, pc}
 2200              	.LVL328:
 2201              	.L155:
 496:..\..\..\lvgl\version_6.1.2\lvgl\src\lv_objx/lv_win.c ****     }
 2202              		.loc 1 496 0
 2203 004c 0020     		movs	r0, #0
 2204              	.LVL329:
 500:..\..\..\lvgl\version_6.1.2\lvgl\src\lv_objx/lv_win.c **** 
 2205              		.loc 1 500 0
 2206 004e 38BD     		pop	{r3, r4, r5, pc}
 2207              		.cfi_endproc
 2208              	.LFE88:
 2209              		.size	lv_win_get_style, .-lv_win_get_style
 2210              		.section	.text.lv_win_focus,"ax",%progbits
 2211              		.align	2
 2212              		.global	lv_win_focus
 2213              		.thumb
 2214              		.thumb_func
 2215              		.type	lv_win_focus, %function
 2216              	lv_win_focus:
 2217              	.LFB89:
 513:..\..\..\lvgl\version_6.1.2\lvgl\src\lv_objx/lv_win.c ****     LV_ASSERT_OBJ(win, LV_OBJX_NAME);
 2218              		.loc 1 513 0
 2219              		.cfi_startproc
 2220              		@ args = 0, pretend = 0, frame = 0
 2221              		@ frame_needed = 0, uses_anonymous_args = 0
 2222              	.LVL330:
 2223 0000 38B5     		push	{r3, r4, r5, lr}
 2224              		.cfi_def_cfa_offset 16
 2225              		.cfi_offset 3, -16
 2226              		.cfi_offset 4, -12
 2227              		.cfi_offset 5, -8
 2228              		.cfi_offset 14, -4
 513:..\..\..\lvgl\version_6.1.2\lvgl\src\lv_objx/lv_win.c ****     LV_ASSERT_OBJ(win, LV_OBJX_NAME);
 2229              		.loc 1 513 0
 2230 0002 0C46     		mov	r4, r1
 2231 0004 1546     		mov	r5, r2
 518:..\..\..\lvgl\version_6.1.2\lvgl\src\lv_objx/lv_win.c ****     lv_page_focus(ext->page, obj, anim_en);
 2232              		.loc 1 518 0
 2233 0006 FFF7FEFF 		bl	lv_obj_get_ext_attr
ARM GAS  C:\Users\pearlstl\AppData\Local\Temp\ccI2fBBa.s 			page 64


 2234              	.LVL331:
 519:..\..\..\lvgl\version_6.1.2\lvgl\src\lv_objx/lv_win.c **** }
 2235              		.loc 1 519 0
 2236 000a 2A46     		mov	r2, r5
 2237 000c 2146     		mov	r1, r4
 2238 000e 0068     		ldr	r0, [r0]
 2239              	.LVL332:
 520:..\..\..\lvgl\version_6.1.2\lvgl\src\lv_objx/lv_win.c **** 
 2240              		.loc 1 520 0
 2241 0010 BDE83840 		pop	{r3, r4, r5, lr}
 2242              		.cfi_restore 14
 2243              		.cfi_restore 5
 2244              		.cfi_restore 4
 2245              		.cfi_restore 3
 2246              		.cfi_def_cfa_offset 0
 2247              	.LVL333:
 519:..\..\..\lvgl\version_6.1.2\lvgl\src\lv_objx/lv_win.c **** }
 2248              		.loc 1 519 0
 2249 0014 FFF7FEBF 		b	lv_page_focus
 2250              	.LVL334:
 2251              		.cfi_endproc
 2252              	.LFE89:
 2253              		.size	lv_win_focus, .-lv_win_focus
 2254              		.section	.rodata.str1.4,"aMS",%progbits,1
 2255              		.align	2
 2256              	.LC0:
 2257 0000 6C765F77 		.ascii	"lv_win\000"
 2257      696E00
 2258 0007 00       		.space	1
 2259              	.LC1:
 2260 0008 4D792074 		.ascii	"My title\000"
 2260      69746C65 
 2260      00
 2261              		.bss
 2262              		.align	2
 2263              		.set	.LANCHOR0,. + 0
 2264              		.type	ancestor_signal, %object
 2265              		.size	ancestor_signal, 4
 2266              	ancestor_signal:
 2267 0000 00000000 		.space	4
 2268              		.text
 2269              	.Letext0:
 2270              		.file 4 "c:\\program files (x86)\\cypress\\psoc creator\\4.2\\psoc creator\\import\\gnu\\arm\\5.4.
 2271              		.file 5 "c:\\program files (x86)\\cypress\\psoc creator\\4.2\\psoc creator\\import\\gnu\\arm\\5.4.
 2272              		.file 6 "..\\..\\..\\lvgl\\version_6.1.2\\lvgl\\src\\lv_objx\\../../../lv_conf.h"
 2273              		.file 7 "..\\..\\..\\lvgl\\version_6.1.2\\lvgl\\src\\lv_objx\\../lv_core/../lv_font/lv_font.h"
 2274              		.file 8 "..\\..\\..\\lvgl\\version_6.1.2\\lvgl\\src\\lv_objx\\../lv_core/../lv_misc/lv_color.h"
 2275              		.file 9 "..\\..\\..\\lvgl\\version_6.1.2\\lvgl\\src\\lv_objx\\../lv_core/../lv_misc/lv_anim.h"
 2276              		.file 10 "..\\..\\..\\lvgl\\version_6.1.2\\lvgl\\src\\lv_objx\\../lv_core/lv_style.h"
 2277              		.file 11 "..\\..\\..\\lvgl\\version_6.1.2\\lvgl\\src\\lv_objx\\../lv_core/../lv_misc/lv_types.h"
 2278              		.file 12 "..\\..\\..\\lvgl\\version_6.1.2\\lvgl\\src\\lv_objx\\../lv_core/../lv_misc/lv_ll.h"
 2279              		.file 13 "..\\..\\..\\lvgl\\version_6.1.2\\lvgl\\src\\lv_objx\\../lv_core/../lv_misc/lv_bidi.h"
 2280              		.file 14 "..\\..\\..\\lvgl\\version_6.1.2\\lvgl\\src\\lv_objx\\../lv_core/lv_obj.h"
 2281              		.file 15 "..\\..\\..\\lvgl\\version_6.1.2\\lvgl\\src\\lv_objx\\lv_cont.h"
 2282              		.file 16 "..\\..\\..\\lvgl\\version_6.1.2\\lvgl\\src\\lv_objx\\lv_btn.h"
 2283              		.file 17 "..\\..\\..\\lvgl\\version_6.1.2\\lvgl\\src\\lv_objx\\lv_win.h"
 2284              		.file 18 "..\\..\\..\\lvgl\\version_6.1.2\\lvgl\\src\\lv_objx\\../lv_themes/lv_theme.h"
ARM GAS  C:\Users\pearlstl\AppData\Local\Temp\ccI2fBBa.s 			page 65


 2285              		.file 19 "..\\..\\..\\lvgl\\version_6.1.2\\lvgl\\src\\lv_objx\\lv_label.h"
 2286              		.file 20 "..\\..\\..\\lvgl\\version_6.1.2\\lvgl\\src\\lv_objx\\lv_img.h"
 2287              		.file 21 "..\\..\\..\\lvgl\\version_6.1.2\\lvgl\\src\\lv_objx\\../lv_core/../lv_hal/lv_hal_disp.h"