ARM GAS  C:\Users\pearlstl\AppData\Local\Temp\ccGlZpXW.s 			page 1


   1              		.syntax unified
   2              		.cpu cortex-m4
   3              		.eabi_attribute 27, 1
   4              		.fpu fpv4-sp-d16
   5              		.eabi_attribute 20, 1
   6              		.eabi_attribute 21, 1
   7              		.eabi_attribute 23, 3
   8              		.eabi_attribute 24, 1
   9              		.eabi_attribute 25, 1
  10              		.eabi_attribute 26, 1
  11              		.eabi_attribute 30, 2
  12              		.eabi_attribute 34, 1
  13              		.eabi_attribute 18, 4
  14              		.thumb
  15              		.syntax unified
  16              		.file	"system_psoc6_cm4.c"
  17              		.text
  18              	.Ltext0:
  19              		.cfi_sections	.debug_frame
  20              		.section	.text.Cy_SysIpcPipeIsrCm4,"ax",%progbits
  21              		.align	2
  22              		.global	Cy_SysIpcPipeIsrCm4
  23              		.thumb
  24              		.thumb_func
  25              		.type	Cy_SysIpcPipeIsrCm4, %function
  26              	Cy_SysIpcPipeIsrCm4:
  27              	.LFB165:
  28              		.file 1 "system_psoc6_cm4.c"
   1:system_psoc6_cm4.c **** /***************************************************************************//**
   2:system_psoc6_cm4.c **** * \file system_psoc6_cm4.c
   3:system_psoc6_cm4.c **** * \version 2.20
   4:system_psoc6_cm4.c **** *
   5:system_psoc6_cm4.c **** * The device system-source file.
   6:system_psoc6_cm4.c **** *
   7:system_psoc6_cm4.c **** ********************************************************************************
   8:system_psoc6_cm4.c **** * \copyright
   9:system_psoc6_cm4.c **** * Copyright 2016-2018, Cypress Semiconductor Corporation.  All rights reserved.
  10:system_psoc6_cm4.c **** * You may use this file only in accordance with the license, terms, conditions,
  11:system_psoc6_cm4.c **** * disclaimers, and limitations in the end user license agreement accompanying
  12:system_psoc6_cm4.c **** * the software package with which this file was provided.
  13:system_psoc6_cm4.c **** *******************************************************************************/
  14:system_psoc6_cm4.c **** 
  15:system_psoc6_cm4.c **** #include <stdbool.h>
  16:system_psoc6_cm4.c **** #include "system_psoc6.h"
  17:system_psoc6_cm4.c **** #include "cy_device.h"
  18:system_psoc6_cm4.c **** #include "cy_device_headers.h"
  19:system_psoc6_cm4.c **** #include "cy_syslib.h"
  20:system_psoc6_cm4.c **** #include "cy_wdt.h"
  21:system_psoc6_cm4.c **** 
  22:system_psoc6_cm4.c **** #if !defined(CY_IPC_DEFAULT_CFG_DISABLE)
  23:system_psoc6_cm4.c ****     #include "cy_ipc_sema.h"
  24:system_psoc6_cm4.c ****     #include "cy_ipc_pipe.h"
  25:system_psoc6_cm4.c ****     #include "cy_ipc_drv.h"
  26:system_psoc6_cm4.c **** 
  27:system_psoc6_cm4.c ****     #if defined(CY_DEVICE_PSOC6ABLE2)
  28:system_psoc6_cm4.c ****         #include "cy_flash.h"
  29:system_psoc6_cm4.c ****     #endif /* defined(CY_DEVICE_PSOC6ABLE2) */
ARM GAS  C:\Users\pearlstl\AppData\Local\Temp\ccGlZpXW.s 			page 2


  30:system_psoc6_cm4.c **** #endif /* !defined(CY_IPC_DEFAULT_CFG_DISABLE) */
  31:system_psoc6_cm4.c **** 
  32:system_psoc6_cm4.c **** 
  33:system_psoc6_cm4.c **** /*******************************************************************************
  34:system_psoc6_cm4.c **** * SystemCoreClockUpdate()
  35:system_psoc6_cm4.c **** *******************************************************************************/
  36:system_psoc6_cm4.c **** 
  37:system_psoc6_cm4.c **** /** Default HFClk frequency in Hz */
  38:system_psoc6_cm4.c **** #define CY_CLK_HFCLK0_FREQ_HZ_DEFAULT       (8000000UL)
  39:system_psoc6_cm4.c **** 
  40:system_psoc6_cm4.c **** /** Default PeriClk frequency in Hz */
  41:system_psoc6_cm4.c **** #define CY_CLK_PERICLK_FREQ_HZ_DEFAULT      (4000000UL)
  42:system_psoc6_cm4.c **** 
  43:system_psoc6_cm4.c **** /** Default SlowClk system core frequency in Hz */
  44:system_psoc6_cm4.c **** #define CY_CLK_SYSTEM_FREQ_HZ_DEFAULT       (8000000UL)
  45:system_psoc6_cm4.c **** 
  46:system_psoc6_cm4.c **** /** IMO frequency in Hz */
  47:system_psoc6_cm4.c **** #define CY_CLK_IMO_FREQ_HZ                  (8000000UL)
  48:system_psoc6_cm4.c **** 
  49:system_psoc6_cm4.c **** /** HVILO frequency in Hz */
  50:system_psoc6_cm4.c **** #define CY_CLK_HVILO_FREQ_HZ                (32000UL)
  51:system_psoc6_cm4.c **** 
  52:system_psoc6_cm4.c **** /** PILO frequency in Hz */
  53:system_psoc6_cm4.c **** #define CY_CLK_PILO_FREQ_HZ                 (32768UL)
  54:system_psoc6_cm4.c **** 
  55:system_psoc6_cm4.c **** /** WCO frequency in Hz */
  56:system_psoc6_cm4.c **** #define CY_CLK_WCO_FREQ_HZ                  (32768UL)
  57:system_psoc6_cm4.c **** 
  58:system_psoc6_cm4.c **** /** ALTLF frequency in Hz */
  59:system_psoc6_cm4.c **** #define CY_CLK_ALTLF_FREQ_HZ                (32768UL)
  60:system_psoc6_cm4.c **** 
  61:system_psoc6_cm4.c **** 
  62:system_psoc6_cm4.c **** /**
  63:system_psoc6_cm4.c **** * Holds the SlowClk (Cortex-M0+) or FastClk (Cortex-M4) system core clock,
  64:system_psoc6_cm4.c **** * which is the system clock frequency supplied to the SysTick timer and the
  65:system_psoc6_cm4.c **** * processor core clock.
  66:system_psoc6_cm4.c **** * This variable implements CMSIS Core global variable.
  67:system_psoc6_cm4.c **** * Refer to the [CMSIS documentation]
  68:system_psoc6_cm4.c **** * (http://www.keil.com/pack/doc/CMSIS/Core/html/group__system__init__gr.html "System and Clock Conf
  69:system_psoc6_cm4.c **** * for more details.
  70:system_psoc6_cm4.c **** * This variable can be used by debuggers to query the frequency
  71:system_psoc6_cm4.c **** * of the debug timer or to configure the trace clock speed.
  72:system_psoc6_cm4.c **** *
  73:system_psoc6_cm4.c **** * \attention Compilers must be configured to avoid removing this variable in case
  74:system_psoc6_cm4.c **** * the application program is not using it. Debugging systems require the variable
  75:system_psoc6_cm4.c **** * to be physically present in memory so that it can be examined to configure the debugger. */
  76:system_psoc6_cm4.c **** uint32_t SystemCoreClock = CY_CLK_SYSTEM_FREQ_HZ_DEFAULT;
  77:system_psoc6_cm4.c **** 
  78:system_psoc6_cm4.c **** /** Holds the HFClk0 clock frequency. Updated by \ref SystemCoreClockUpdate(). */
  79:system_psoc6_cm4.c **** uint32_t cy_Hfclk0FreqHz  = CY_CLK_HFCLK0_FREQ_HZ_DEFAULT;
  80:system_psoc6_cm4.c **** 
  81:system_psoc6_cm4.c **** /** Holds the PeriClk clock frequency. Updated by \ref SystemCoreClockUpdate(). */
  82:system_psoc6_cm4.c **** uint32_t cy_PeriClkFreqHz = CY_CLK_PERICLK_FREQ_HZ_DEFAULT;
  83:system_psoc6_cm4.c **** 
  84:system_psoc6_cm4.c **** /** Holds the Alternate high frequency clock in Hz. Updated by \ref SystemCoreClockUpdate(). */
  85:system_psoc6_cm4.c **** #if (defined (CY_IP_MXBLESS) && (CY_IP_MXBLESS == 1UL)) || defined (CY_DOXYGEN)
  86:system_psoc6_cm4.c ****     uint32_t cy_BleEcoClockFreqHz = CY_CLK_ALTHF_FREQ_HZ;
ARM GAS  C:\Users\pearlstl\AppData\Local\Temp\ccGlZpXW.s 			page 3


  87:system_psoc6_cm4.c **** #endif /* (defined (CY_IP_MXBLESS) && (CY_IP_MXBLESS == 1UL)) || defined (CY_DOXYGEN) */
  88:system_psoc6_cm4.c **** 
  89:system_psoc6_cm4.c **** /* SCB->CPACR */
  90:system_psoc6_cm4.c **** #define SCB_CPACR_CP10_CP11_ENABLE      (0xFUL << 20u)
  91:system_psoc6_cm4.c **** 
  92:system_psoc6_cm4.c **** 
  93:system_psoc6_cm4.c **** /*******************************************************************************
  94:system_psoc6_cm4.c **** * SystemInit()
  95:system_psoc6_cm4.c **** *******************************************************************************/
  96:system_psoc6_cm4.c **** 
  97:system_psoc6_cm4.c **** /* CLK_FLL_CONFIG default values */
  98:system_psoc6_cm4.c **** #define CY_FB_CLK_FLL_CONFIG_VALUE      (0x01000000u)
  99:system_psoc6_cm4.c **** #define CY_FB_CLK_FLL_CONFIG2_VALUE     (0x00020001u)
 100:system_psoc6_cm4.c **** #define CY_FB_CLK_FLL_CONFIG3_VALUE     (0x00002800u)
 101:system_psoc6_cm4.c **** #define CY_FB_CLK_FLL_CONFIG4_VALUE     (0x000000FFu)
 102:system_psoc6_cm4.c **** 
 103:system_psoc6_cm4.c **** 
 104:system_psoc6_cm4.c **** /*******************************************************************************
 105:system_psoc6_cm4.c **** * SystemCoreClockUpdate (void)
 106:system_psoc6_cm4.c **** *******************************************************************************/
 107:system_psoc6_cm4.c **** 
 108:system_psoc6_cm4.c **** /* Do not use these definitions directly in your application */
 109:system_psoc6_cm4.c **** #define CY_DELAY_MS_OVERFLOW_THRESHOLD  (0x8000u)
 110:system_psoc6_cm4.c **** #define CY_DELAY_1K_THRESHOLD           (1000u)
 111:system_psoc6_cm4.c **** #define CY_DELAY_1K_MINUS_1_THRESHOLD   (CY_DELAY_1K_THRESHOLD - 1u)
 112:system_psoc6_cm4.c **** #define CY_DELAY_1M_THRESHOLD           (1000000u)
 113:system_psoc6_cm4.c **** #define CY_DELAY_1M_MINUS_1_THRESHOLD   (CY_DELAY_1M_THRESHOLD - 1u)
 114:system_psoc6_cm4.c **** uint32_t cy_delayFreqHz   = CY_CLK_SYSTEM_FREQ_HZ_DEFAULT;
 115:system_psoc6_cm4.c **** 
 116:system_psoc6_cm4.c **** uint32_t cy_delayFreqKhz  = (CY_CLK_SYSTEM_FREQ_HZ_DEFAULT + CY_DELAY_1K_MINUS_1_THRESHOLD) /
 117:system_psoc6_cm4.c ****                             CY_DELAY_1K_THRESHOLD;
 118:system_psoc6_cm4.c **** 
 119:system_psoc6_cm4.c **** uint8_t cy_delayFreqMhz  = (uint8_t)((CY_CLK_SYSTEM_FREQ_HZ_DEFAULT + CY_DELAY_1M_MINUS_1_THRESHOLD
 120:system_psoc6_cm4.c ****                             CY_DELAY_1M_THRESHOLD);
 121:system_psoc6_cm4.c **** 
 122:system_psoc6_cm4.c **** uint32_t cy_delay32kMs    = CY_DELAY_MS_OVERFLOW_THRESHOLD *
 123:system_psoc6_cm4.c ****                             ((CY_CLK_SYSTEM_FREQ_HZ_DEFAULT + CY_DELAY_1K_MINUS_1_THRESHOLD) / CY_D
 124:system_psoc6_cm4.c **** 
 125:system_psoc6_cm4.c **** #define CY_ROOT_PATH_SRC_IMO                (0UL)
 126:system_psoc6_cm4.c **** #define CY_ROOT_PATH_SRC_EXT                (1UL)
 127:system_psoc6_cm4.c **** #if (SRSS_ECO_PRESENT == 1U)
 128:system_psoc6_cm4.c ****     #define CY_ROOT_PATH_SRC_ECO            (2UL)
 129:system_psoc6_cm4.c **** #endif /* (SRSS_ECO_PRESENT == 1U) */
 130:system_psoc6_cm4.c **** #if (SRSS_ALTHF_PRESENT == 1U)
 131:system_psoc6_cm4.c ****     #define CY_ROOT_PATH_SRC_ALTHF          (3UL)
 132:system_psoc6_cm4.c **** #endif /* (SRSS_ALTHF_PRESENT == 1U) */
 133:system_psoc6_cm4.c **** #define CY_ROOT_PATH_SRC_DSI_MUX            (4UL)
 134:system_psoc6_cm4.c **** #define CY_ROOT_PATH_SRC_DSI_MUX_HVILO      (16UL)
 135:system_psoc6_cm4.c **** #define CY_ROOT_PATH_SRC_DSI_MUX_WCO        (17UL)
 136:system_psoc6_cm4.c **** #if (SRSS_ALTLF_PRESENT == 1U)
 137:system_psoc6_cm4.c ****     #define CY_ROOT_PATH_SRC_DSI_MUX_ALTLF  (18UL)
 138:system_psoc6_cm4.c **** #endif /* (SRSS_ALTLF_PRESENT == 1U) */
 139:system_psoc6_cm4.c **** #if (SRSS_PILO_PRESENT == 1U)
 140:system_psoc6_cm4.c ****     #define CY_ROOT_PATH_SRC_DSI_MUX_PILO   (19UL)
 141:system_psoc6_cm4.c **** #endif /* (SRSS_PILO_PRESENT == 1U) */
 142:system_psoc6_cm4.c **** 
 143:system_psoc6_cm4.c **** 
ARM GAS  C:\Users\pearlstl\AppData\Local\Temp\ccGlZpXW.s 			page 4


 144:system_psoc6_cm4.c **** /*******************************************************************************
 145:system_psoc6_cm4.c **** * Function Name: SystemInit
 146:system_psoc6_cm4.c **** ****************************************************************************//**
 147:system_psoc6_cm4.c **** * \cond
 148:system_psoc6_cm4.c **** * Initializes the system:
 149:system_psoc6_cm4.c **** * - Restores FLL registers to the default state for single core devices.
 150:system_psoc6_cm4.c **** * - Unlocks and disables WDT.
 151:system_psoc6_cm4.c **** * - Calls Cy_PDL_Init() function to define the driver library.
 152:system_psoc6_cm4.c **** * - Calls the Cy_SystemInit() function, if compiled from PSoC Creator.
 153:system_psoc6_cm4.c **** * - Calls \ref SystemCoreClockUpdate().
 154:system_psoc6_cm4.c **** * \endcond
 155:system_psoc6_cm4.c **** *******************************************************************************/
 156:system_psoc6_cm4.c **** void SystemInit(void)
 157:system_psoc6_cm4.c **** {
 158:system_psoc6_cm4.c ****     Cy_PDL_Init(CY_DEVICE_CFG);
 159:system_psoc6_cm4.c **** 
 160:system_psoc6_cm4.c **** #ifdef __CM0P_PRESENT
 161:system_psoc6_cm4.c ****     #if (__CM0P_PRESENT == 0)
 162:system_psoc6_cm4.c ****         /* Restore FLL registers to the default state as they are not restored by the ROM code */
 163:system_psoc6_cm4.c ****         uint32_t copy = SRSS->CLK_FLL_CONFIG;
 164:system_psoc6_cm4.c ****         copy &= ~SRSS_CLK_FLL_CONFIG_FLL_ENABLE_Msk;
 165:system_psoc6_cm4.c ****         SRSS->CLK_FLL_CONFIG = copy;
 166:system_psoc6_cm4.c **** 
 167:system_psoc6_cm4.c ****         copy = SRSS->CLK_ROOT_SELECT[0u];
 168:system_psoc6_cm4.c ****         copy &= ~SRSS_CLK_ROOT_SELECT_ROOT_DIV_Msk; /* Set ROOT_DIV = 0*/
 169:system_psoc6_cm4.c ****         SRSS->CLK_ROOT_SELECT[0u] = copy;
 170:system_psoc6_cm4.c **** 
 171:system_psoc6_cm4.c ****         SRSS->CLK_FLL_CONFIG  = CY_FB_CLK_FLL_CONFIG_VALUE;
 172:system_psoc6_cm4.c ****         SRSS->CLK_FLL_CONFIG2 = CY_FB_CLK_FLL_CONFIG2_VALUE;
 173:system_psoc6_cm4.c ****         SRSS->CLK_FLL_CONFIG3 = CY_FB_CLK_FLL_CONFIG3_VALUE;
 174:system_psoc6_cm4.c ****         SRSS->CLK_FLL_CONFIG4 = CY_FB_CLK_FLL_CONFIG4_VALUE;
 175:system_psoc6_cm4.c ****         
 176:system_psoc6_cm4.c ****         /* Unlock and disable WDT */
 177:system_psoc6_cm4.c ****         Cy_WDT_Unlock();
 178:system_psoc6_cm4.c ****         Cy_WDT_Disable();    
 179:system_psoc6_cm4.c ****     #endif /* (__CM0P_PRESENT == 0) */
 180:system_psoc6_cm4.c **** #endif /* __CM0P_PRESENT */
 181:system_psoc6_cm4.c ****     
 182:system_psoc6_cm4.c ****     Cy_SystemInit();
 183:system_psoc6_cm4.c ****     SystemCoreClockUpdate();
 184:system_psoc6_cm4.c **** 
 185:system_psoc6_cm4.c **** #if !defined(CY_IPC_DEFAULT_CFG_DISABLE)
 186:system_psoc6_cm4.c **** 
 187:system_psoc6_cm4.c **** #ifdef __CM0P_PRESENT
 188:system_psoc6_cm4.c ****     #if (__CM0P_PRESENT == 0)
 189:system_psoc6_cm4.c ****         /* Allocate and initialize semaphores for the system operations. */
 190:system_psoc6_cm4.c ****         static uint32_t ipcSemaArray[CY_IPC_SEMA_COUNT / CY_IPC_SEMA_PER_WORD];
 191:system_psoc6_cm4.c ****         (void) Cy_IPC_Sema_Init(CY_IPC_CHAN_SEMA, CY_IPC_SEMA_COUNT, ipcSemaArray);
 192:system_psoc6_cm4.c ****     #else
 193:system_psoc6_cm4.c ****         (void) Cy_IPC_Sema_Init(CY_IPC_CHAN_SEMA, 0ul, NULL);
 194:system_psoc6_cm4.c ****     #endif /* (__CM0P_PRESENT) */
 195:system_psoc6_cm4.c **** #else
 196:system_psoc6_cm4.c ****     (void) Cy_IPC_Sema_Init(CY_IPC_CHAN_SEMA, 0ul, NULL);
 197:system_psoc6_cm4.c **** #endif /* __CM0P_PRESENT */
 198:system_psoc6_cm4.c **** 
 199:system_psoc6_cm4.c **** 
 200:system_psoc6_cm4.c ****     /********************************************************************************
ARM GAS  C:\Users\pearlstl\AppData\Local\Temp\ccGlZpXW.s 			page 5


 201:system_psoc6_cm4.c ****     *
 202:system_psoc6_cm4.c ****     * Initializes the system pipes. The system pipes are used by BLE and Flash.
 203:system_psoc6_cm4.c ****     *
 204:system_psoc6_cm4.c ****     * If the default startup file is not used, or SystemInit() is not called in your 
 205:system_psoc6_cm4.c ****     * project, call the following three functions prior to executing any flash or 
 206:system_psoc6_cm4.c ****     * EmEEPROM write or erase operation:
 207:system_psoc6_cm4.c ****     *  -# Cy_IPC_Sema_Init()
 208:system_psoc6_cm4.c ****     *  -# Cy_IPC_Pipe_Config()
 209:system_psoc6_cm4.c ****     *  -# Cy_IPC_Pipe_Init()
 210:system_psoc6_cm4.c ****     *  -# Cy_Flash_Init()
 211:system_psoc6_cm4.c ****     *
 212:system_psoc6_cm4.c ****     *******************************************************************************/
 213:system_psoc6_cm4.c ****     /* Create an array of endpoint structures */
 214:system_psoc6_cm4.c ****     static cy_stc_ipc_pipe_ep_t systemIpcPipeEpArray[CY_IPC_MAX_ENDPOINTS];
 215:system_psoc6_cm4.c **** 
 216:system_psoc6_cm4.c ****     Cy_IPC_Pipe_Config(systemIpcPipeEpArray);
 217:system_psoc6_cm4.c **** 
 218:system_psoc6_cm4.c ****     static cy_ipc_pipe_callback_ptr_t systemIpcPipeSysCbArray[CY_SYS_CYPIPE_CLIENT_CNT];
 219:system_psoc6_cm4.c **** 
 220:system_psoc6_cm4.c ****     static const cy_stc_ipc_pipe_config_t systemIpcPipeConfigCm4 =
 221:system_psoc6_cm4.c ****     {
 222:system_psoc6_cm4.c ****     /* .ep0ConfigData */
 223:system_psoc6_cm4.c ****         {
 224:system_psoc6_cm4.c ****             /* .ipcNotifierNumber    */  CY_IPC_INTR_CYPIPE_EP0,
 225:system_psoc6_cm4.c ****             /* .ipcNotifierPriority  */  CY_SYS_INTR_CYPIPE_PRIOR_EP0,
 226:system_psoc6_cm4.c ****             /* .ipcNotifierMuxNumber */  CY_SYS_INTR_CYPIPE_MUX_EP0,
 227:system_psoc6_cm4.c ****             /* .epAddress            */  CY_IPC_EP_CYPIPE_CM0_ADDR,
 228:system_psoc6_cm4.c ****             /* .epConfig             */  CY_SYS_CYPIPE_CONFIG_EP0
 229:system_psoc6_cm4.c ****         },
 230:system_psoc6_cm4.c ****     /* .ep1ConfigData */
 231:system_psoc6_cm4.c ****         {
 232:system_psoc6_cm4.c ****             /* .ipcNotifierNumber    */  CY_IPC_INTR_CYPIPE_EP1,
 233:system_psoc6_cm4.c ****             /* .ipcNotifierPriority  */  CY_SYS_INTR_CYPIPE_PRIOR_EP1,
 234:system_psoc6_cm4.c ****             /* .ipcNotifierMuxNumber */  0u,
 235:system_psoc6_cm4.c ****             /* .epAddress            */  CY_IPC_EP_CYPIPE_CM4_ADDR,
 236:system_psoc6_cm4.c ****             /* .epConfig             */  CY_SYS_CYPIPE_CONFIG_EP1
 237:system_psoc6_cm4.c ****         },
 238:system_psoc6_cm4.c ****     /* .endpointClientsCount     */  CY_SYS_CYPIPE_CLIENT_CNT,
 239:system_psoc6_cm4.c ****     /* .endpointsCallbacksArray  */  systemIpcPipeSysCbArray,
 240:system_psoc6_cm4.c ****     /* .userPipeIsrHandler       */  &Cy_SysIpcPipeIsrCm4
 241:system_psoc6_cm4.c ****     };
 242:system_psoc6_cm4.c **** 
 243:system_psoc6_cm4.c ****     if (cy_device->flashPipeRequired != 0u)
 244:system_psoc6_cm4.c ****     {
 245:system_psoc6_cm4.c ****         Cy_IPC_Pipe_Init(&systemIpcPipeConfigCm4);
 246:system_psoc6_cm4.c ****     }
 247:system_psoc6_cm4.c **** 
 248:system_psoc6_cm4.c **** #if defined(CY_DEVICE_PSOC6ABLE2)
 249:system_psoc6_cm4.c ****     Cy_Flash_Init();
 250:system_psoc6_cm4.c **** #endif /* defined(CY_DEVICE_PSOC6ABLE2) */
 251:system_psoc6_cm4.c **** 
 252:system_psoc6_cm4.c **** #endif /* !defined(CY_IPC_DEFAULT_CFG_DISABLE) */
 253:system_psoc6_cm4.c **** }
 254:system_psoc6_cm4.c **** 
 255:system_psoc6_cm4.c **** 
 256:system_psoc6_cm4.c **** /*******************************************************************************
 257:system_psoc6_cm4.c **** * Function Name: Cy_SystemInit
ARM GAS  C:\Users\pearlstl\AppData\Local\Temp\ccGlZpXW.s 			page 6


 258:system_psoc6_cm4.c **** ****************************************************************************//**
 259:system_psoc6_cm4.c **** *
 260:system_psoc6_cm4.c **** * The function is called during device startup. Once project compiled as part of
 261:system_psoc6_cm4.c **** * the PSoC Creator project, the Cy_SystemInit() function is generated by the
 262:system_psoc6_cm4.c **** * PSoC Creator.
 263:system_psoc6_cm4.c **** *
 264:system_psoc6_cm4.c **** * The function generated by PSoC Creator performs all of the necessary device
 265:system_psoc6_cm4.c **** * configuration based on the design settings.  This includes settings from the
 266:system_psoc6_cm4.c **** * Design Wide Resources (DWR) such as Clocks and Pins as well as any component
 267:system_psoc6_cm4.c **** * configuration that is necessary.
 268:system_psoc6_cm4.c **** *
 269:system_psoc6_cm4.c **** *******************************************************************************/
 270:system_psoc6_cm4.c **** __WEAK void Cy_SystemInit(void)
 271:system_psoc6_cm4.c **** {
 272:system_psoc6_cm4.c ****      /* Empty weak function. The actual implementation to be in the PSoC Creator
 273:system_psoc6_cm4.c ****       * generated strong function.
 274:system_psoc6_cm4.c ****      */
 275:system_psoc6_cm4.c **** }
 276:system_psoc6_cm4.c **** 
 277:system_psoc6_cm4.c **** 
 278:system_psoc6_cm4.c **** /*******************************************************************************
 279:system_psoc6_cm4.c **** * Function Name: SystemCoreClockUpdate
 280:system_psoc6_cm4.c **** ****************************************************************************//**
 281:system_psoc6_cm4.c **** *
 282:system_psoc6_cm4.c **** * Gets core clock frequency and updates \ref SystemCoreClock, \ref
 283:system_psoc6_cm4.c **** * cy_Hfclk0FreqHz, and \ref cy_PeriClkFreqHz.
 284:system_psoc6_cm4.c **** *
 285:system_psoc6_cm4.c **** * Updates global variables used by the \ref Cy_SysLib_Delay(), \ref
 286:system_psoc6_cm4.c **** * Cy_SysLib_DelayUs(), and \ref Cy_SysLib_DelayCycles().
 287:system_psoc6_cm4.c **** *
 288:system_psoc6_cm4.c **** *******************************************************************************/
 289:system_psoc6_cm4.c **** void SystemCoreClockUpdate (void)
 290:system_psoc6_cm4.c **** {
 291:system_psoc6_cm4.c ****     uint32_t srcFreqHz;
 292:system_psoc6_cm4.c ****     uint32_t pathFreqHz;
 293:system_psoc6_cm4.c ****     uint32_t fastClkDiv;
 294:system_psoc6_cm4.c ****     uint32_t periClkDiv;
 295:system_psoc6_cm4.c ****     uint32_t rootPath;
 296:system_psoc6_cm4.c ****     uint32_t srcClk;
 297:system_psoc6_cm4.c **** 
 298:system_psoc6_cm4.c ****     /* Get root path clock for the high-frequency clock # 0 */
 299:system_psoc6_cm4.c ****     rootPath = _FLD2VAL(SRSS_CLK_ROOT_SELECT_ROOT_MUX, SRSS->CLK_ROOT_SELECT[0u]);
 300:system_psoc6_cm4.c **** 
 301:system_psoc6_cm4.c ****     /* Get source of the root path clock */
 302:system_psoc6_cm4.c ****     srcClk = _FLD2VAL(SRSS_CLK_PATH_SELECT_PATH_MUX, SRSS->CLK_PATH_SELECT[rootPath]);
 303:system_psoc6_cm4.c **** 
 304:system_psoc6_cm4.c ****     /* Get frequency of the source */
 305:system_psoc6_cm4.c ****     switch (srcClk)
 306:system_psoc6_cm4.c ****     {
 307:system_psoc6_cm4.c ****     case CY_ROOT_PATH_SRC_IMO:
 308:system_psoc6_cm4.c ****         srcFreqHz = CY_CLK_IMO_FREQ_HZ;
 309:system_psoc6_cm4.c ****     break;
 310:system_psoc6_cm4.c **** 
 311:system_psoc6_cm4.c ****     case CY_ROOT_PATH_SRC_EXT:
 312:system_psoc6_cm4.c ****         srcFreqHz = CY_CLK_EXT_FREQ_HZ;
 313:system_psoc6_cm4.c ****     break;
 314:system_psoc6_cm4.c **** 
ARM GAS  C:\Users\pearlstl\AppData\Local\Temp\ccGlZpXW.s 			page 7


 315:system_psoc6_cm4.c ****     #if (SRSS_ECO_PRESENT == 1U)
 316:system_psoc6_cm4.c ****         case CY_ROOT_PATH_SRC_ECO:
 317:system_psoc6_cm4.c ****             srcFreqHz = CY_CLK_ECO_FREQ_HZ;
 318:system_psoc6_cm4.c ****         break;
 319:system_psoc6_cm4.c ****     #endif /* (SRSS_ECO_PRESENT == 1U) */
 320:system_psoc6_cm4.c **** 
 321:system_psoc6_cm4.c **** #if defined (CY_IP_MXBLESS) && (CY_IP_MXBLESS == 1UL) && (SRSS_ALTHF_PRESENT == 1U)
 322:system_psoc6_cm4.c ****     case CY_ROOT_PATH_SRC_ALTHF:
 323:system_psoc6_cm4.c ****         srcFreqHz = cy_BleEcoClockFreqHz;
 324:system_psoc6_cm4.c ****     break;
 325:system_psoc6_cm4.c **** #endif /* defined (CY_IP_MXBLESS) && (CY_IP_MXBLESS == 1UL) && (SRSS_ALTHF_PRESENT == 1U) */
 326:system_psoc6_cm4.c **** 
 327:system_psoc6_cm4.c ****     case CY_ROOT_PATH_SRC_DSI_MUX:
 328:system_psoc6_cm4.c ****     {
 329:system_psoc6_cm4.c ****         uint32_t dsi_src;
 330:system_psoc6_cm4.c ****         dsi_src = _FLD2VAL(SRSS_CLK_DSI_SELECT_DSI_MUX,  SRSS->CLK_DSI_SELECT[rootPath]);
 331:system_psoc6_cm4.c ****         switch (dsi_src)
 332:system_psoc6_cm4.c ****         {
 333:system_psoc6_cm4.c ****         case CY_ROOT_PATH_SRC_DSI_MUX_HVILO:
 334:system_psoc6_cm4.c ****             srcFreqHz = CY_CLK_HVILO_FREQ_HZ;
 335:system_psoc6_cm4.c ****         break;
 336:system_psoc6_cm4.c **** 
 337:system_psoc6_cm4.c ****         case CY_ROOT_PATH_SRC_DSI_MUX_WCO:
 338:system_psoc6_cm4.c ****             srcFreqHz = CY_CLK_WCO_FREQ_HZ;
 339:system_psoc6_cm4.c ****         break;
 340:system_psoc6_cm4.c **** 
 341:system_psoc6_cm4.c ****         #if (SRSS_ALTLF_PRESENT == 1U)
 342:system_psoc6_cm4.c ****             case CY_ROOT_PATH_SRC_DSI_MUX_ALTLF:
 343:system_psoc6_cm4.c ****                 srcFreqHz = CY_CLK_ALTLF_FREQ_HZ;
 344:system_psoc6_cm4.c ****             break;
 345:system_psoc6_cm4.c ****         #endif /* (SRSS_ALTLF_PRESENT == 1U) */
 346:system_psoc6_cm4.c **** 
 347:system_psoc6_cm4.c ****         #if (SRSS_PILO_PRESENT == 1U)
 348:system_psoc6_cm4.c ****             case CY_ROOT_PATH_SRC_DSI_MUX_PILO:
 349:system_psoc6_cm4.c ****                 srcFreqHz = CY_CLK_PILO_FREQ_HZ;
 350:system_psoc6_cm4.c ****             break;
 351:system_psoc6_cm4.c ****         #endif /* (SRSS_PILO_PRESENT == 1U) */
 352:system_psoc6_cm4.c **** 
 353:system_psoc6_cm4.c ****         default:
 354:system_psoc6_cm4.c ****             srcFreqHz = CY_CLK_HVILO_FREQ_HZ;
 355:system_psoc6_cm4.c ****         break;
 356:system_psoc6_cm4.c ****         }
 357:system_psoc6_cm4.c ****     }
 358:system_psoc6_cm4.c ****     break;
 359:system_psoc6_cm4.c **** 
 360:system_psoc6_cm4.c ****     default:
 361:system_psoc6_cm4.c ****         srcFreqHz = CY_CLK_EXT_FREQ_HZ;
 362:system_psoc6_cm4.c ****     break;
 363:system_psoc6_cm4.c ****     }
 364:system_psoc6_cm4.c **** 
 365:system_psoc6_cm4.c ****     if (rootPath == 0UL)
 366:system_psoc6_cm4.c ****     {
 367:system_psoc6_cm4.c ****         /* FLL */
 368:system_psoc6_cm4.c ****         bool fllLocked       = ( 0UL != _FLD2VAL(SRSS_CLK_FLL_STATUS_LOCKED, SRSS->CLK_FLL_STATUS))
 369:system_psoc6_cm4.c ****         bool fllOutputOutput = ( 3UL == _FLD2VAL(SRSS_CLK_FLL_CONFIG3_BYPASS_SEL, SRSS->CLK_FLL_CON
 370:system_psoc6_cm4.c ****         bool fllOutputAuto   = ((0UL == _FLD2VAL(SRSS_CLK_FLL_CONFIG3_BYPASS_SEL, SRSS->CLK_FLL_CON
 371:system_psoc6_cm4.c ****                                 (1UL == _FLD2VAL(SRSS_CLK_FLL_CONFIG3_BYPASS_SEL, SRSS->CLK_FLL_CON
ARM GAS  C:\Users\pearlstl\AppData\Local\Temp\ccGlZpXW.s 			page 8


 372:system_psoc6_cm4.c ****         if ((fllOutputAuto && fllLocked) || fllOutputOutput)
 373:system_psoc6_cm4.c ****         {
 374:system_psoc6_cm4.c ****             uint32_t fllMult;
 375:system_psoc6_cm4.c ****             uint32_t refDiv;
 376:system_psoc6_cm4.c ****             uint32_t outputDiv;
 377:system_psoc6_cm4.c **** 
 378:system_psoc6_cm4.c ****             fllMult = _FLD2VAL(SRSS_CLK_FLL_CONFIG_FLL_MULT, SRSS->CLK_FLL_CONFIG);
 379:system_psoc6_cm4.c ****             refDiv  = _FLD2VAL(SRSS_CLK_FLL_CONFIG2_FLL_REF_DIV, SRSS->CLK_FLL_CONFIG2);
 380:system_psoc6_cm4.c ****             outputDiv = _FLD2VAL(SRSS_CLK_FLL_CONFIG_FLL_OUTPUT_DIV, SRSS->CLK_FLL_CONFIG) + 1UL;
 381:system_psoc6_cm4.c **** 
 382:system_psoc6_cm4.c ****             pathFreqHz = ((srcFreqHz / refDiv) * fllMult) / outputDiv;
 383:system_psoc6_cm4.c ****         }
 384:system_psoc6_cm4.c ****         else
 385:system_psoc6_cm4.c ****         {
 386:system_psoc6_cm4.c ****             pathFreqHz = srcFreqHz;
 387:system_psoc6_cm4.c ****         }
 388:system_psoc6_cm4.c ****     }
 389:system_psoc6_cm4.c ****     else if (rootPath == 1UL)
 390:system_psoc6_cm4.c ****     {
 391:system_psoc6_cm4.c ****         /* PLL */
 392:system_psoc6_cm4.c ****         bool pllLocked       = ( 0UL != _FLD2VAL(SRSS_CLK_PLL_STATUS_LOCKED,     SRSS->CLK_PLL_STAT
 393:system_psoc6_cm4.c ****         bool pllOutputOutput = ( 3UL == _FLD2VAL(SRSS_CLK_PLL_CONFIG_BYPASS_SEL, SRSS->CLK_PLL_CONF
 394:system_psoc6_cm4.c ****         bool pllOutputAuto   = ((0UL == _FLD2VAL(SRSS_CLK_PLL_CONFIG_BYPASS_SEL, SRSS->CLK_PLL_CONF
 395:system_psoc6_cm4.c ****                                 (1UL == _FLD2VAL(SRSS_CLK_PLL_CONFIG_BYPASS_SEL, SRSS->CLK_PLL_CONF
 396:system_psoc6_cm4.c ****         if ((pllOutputAuto && pllLocked) || pllOutputOutput)
 397:system_psoc6_cm4.c ****         {
 398:system_psoc6_cm4.c ****             uint32_t feedbackDiv;
 399:system_psoc6_cm4.c ****             uint32_t referenceDiv;
 400:system_psoc6_cm4.c ****             uint32_t outputDiv;
 401:system_psoc6_cm4.c **** 
 402:system_psoc6_cm4.c ****             feedbackDiv  = _FLD2VAL(SRSS_CLK_PLL_CONFIG_FEEDBACK_DIV,  SRSS->CLK_PLL_CONFIG[0UL]);
 403:system_psoc6_cm4.c ****             referenceDiv = _FLD2VAL(SRSS_CLK_PLL_CONFIG_REFERENCE_DIV, SRSS->CLK_PLL_CONFIG[0UL]);
 404:system_psoc6_cm4.c ****             outputDiv    = _FLD2VAL(SRSS_CLK_PLL_CONFIG_OUTPUT_DIV,    SRSS->CLK_PLL_CONFIG[0UL]);
 405:system_psoc6_cm4.c **** 
 406:system_psoc6_cm4.c ****             pathFreqHz = ((srcFreqHz * feedbackDiv) / referenceDiv) / outputDiv;
 407:system_psoc6_cm4.c **** 
 408:system_psoc6_cm4.c ****         }
 409:system_psoc6_cm4.c ****         else
 410:system_psoc6_cm4.c ****         {
 411:system_psoc6_cm4.c ****             pathFreqHz = srcFreqHz;
 412:system_psoc6_cm4.c ****         }
 413:system_psoc6_cm4.c ****     }
 414:system_psoc6_cm4.c ****     else
 415:system_psoc6_cm4.c ****     {
 416:system_psoc6_cm4.c ****         /* Direct */
 417:system_psoc6_cm4.c ****         pathFreqHz = srcFreqHz;
 418:system_psoc6_cm4.c ****     }
 419:system_psoc6_cm4.c **** 
 420:system_psoc6_cm4.c ****     /* Get frequency after hf_clk pre-divider */
 421:system_psoc6_cm4.c ****     pathFreqHz = pathFreqHz >> _FLD2VAL(SRSS_CLK_ROOT_SELECT_ROOT_DIV, SRSS->CLK_ROOT_SELECT[0u]);
 422:system_psoc6_cm4.c ****     cy_Hfclk0FreqHz = pathFreqHz;
 423:system_psoc6_cm4.c **** 
 424:system_psoc6_cm4.c ****     /* Fast Clock Divider */
 425:system_psoc6_cm4.c ****     fastClkDiv = 1u + _FLD2VAL(CPUSS_CM4_CLOCK_CTL_FAST_INT_DIV, CPUSS->CM4_CLOCK_CTL);
 426:system_psoc6_cm4.c **** 
 427:system_psoc6_cm4.c ****     /* Peripheral Clock Divider */
 428:system_psoc6_cm4.c ****     periClkDiv = 1u + _FLD2VAL(CPUSS_CM0_CLOCK_CTL_PERI_INT_DIV, CPUSS->CM0_CLOCK_CTL);
ARM GAS  C:\Users\pearlstl\AppData\Local\Temp\ccGlZpXW.s 			page 9


 429:system_psoc6_cm4.c ****     cy_PeriClkFreqHz = pathFreqHz / periClkDiv;
 430:system_psoc6_cm4.c **** 
 431:system_psoc6_cm4.c ****     pathFreqHz = pathFreqHz / fastClkDiv;
 432:system_psoc6_cm4.c ****     SystemCoreClock = pathFreqHz;
 433:system_psoc6_cm4.c **** 
 434:system_psoc6_cm4.c ****     /* Sets clock frequency for Delay API */
 435:system_psoc6_cm4.c ****     cy_delayFreqHz = SystemCoreClock;
 436:system_psoc6_cm4.c ****     cy_delayFreqMhz = (uint8_t)((cy_delayFreqHz + CY_DELAY_1M_MINUS_1_THRESHOLD) / CY_DELAY_1M_THRE
 437:system_psoc6_cm4.c ****     cy_delayFreqKhz = (cy_delayFreqHz + CY_DELAY_1K_MINUS_1_THRESHOLD) / CY_DELAY_1K_THRESHOLD;
 438:system_psoc6_cm4.c ****     cy_delay32kMs   = CY_DELAY_MS_OVERFLOW_THRESHOLD * cy_delayFreqKhz;
 439:system_psoc6_cm4.c **** }
 440:system_psoc6_cm4.c **** 
 441:system_psoc6_cm4.c **** 
 442:system_psoc6_cm4.c **** /*******************************************************************************
 443:system_psoc6_cm4.c **** * Function Name: Cy_SystemInitFpuEnable
 444:system_psoc6_cm4.c **** ****************************************************************************//**
 445:system_psoc6_cm4.c **** *
 446:system_psoc6_cm4.c **** * Enables the FPU if it is used. The function is called from the startup file.
 447:system_psoc6_cm4.c **** *
 448:system_psoc6_cm4.c **** *******************************************************************************/
 449:system_psoc6_cm4.c **** void Cy_SystemInitFpuEnable(void)
 450:system_psoc6_cm4.c **** {
 451:system_psoc6_cm4.c ****     #if defined (__FPU_USED) && (__FPU_USED == 1U)
 452:system_psoc6_cm4.c ****         uint32_t  interruptState;
 453:system_psoc6_cm4.c ****         interruptState = Cy_SysLib_EnterCriticalSection();
 454:system_psoc6_cm4.c ****         SCB->CPACR |= SCB_CPACR_CP10_CP11_ENABLE;
 455:system_psoc6_cm4.c ****         __DSB();
 456:system_psoc6_cm4.c ****         __ISB();
 457:system_psoc6_cm4.c ****         Cy_SysLib_ExitCriticalSection(interruptState);
 458:system_psoc6_cm4.c ****     #endif /* (__FPU_USED) && (__FPU_USED == 1U) */
 459:system_psoc6_cm4.c **** }
 460:system_psoc6_cm4.c **** 
 461:system_psoc6_cm4.c **** 
 462:system_psoc6_cm4.c **** #if !defined(CY_IPC_DEFAULT_CFG_DISABLE)
 463:system_psoc6_cm4.c **** /*******************************************************************************
 464:system_psoc6_cm4.c **** * Function Name: Cy_SysIpcPipeIsrCm4
 465:system_psoc6_cm4.c **** ****************************************************************************//**
 466:system_psoc6_cm4.c **** *
 467:system_psoc6_cm4.c **** * This is the interrupt service routine for the system pipe.
 468:system_psoc6_cm4.c **** *
 469:system_psoc6_cm4.c **** *******************************************************************************/
 470:system_psoc6_cm4.c **** void Cy_SysIpcPipeIsrCm4(void)
 471:system_psoc6_cm4.c **** {
  29              		.loc 1 471 0
  30              		.cfi_startproc
  31              		@ args = 0, pretend = 0, frame = 0
  32              		@ frame_needed = 0, uses_anonymous_args = 0
  33              		@ link register save eliminated.
 472:system_psoc6_cm4.c ****     Cy_IPC_Pipe_ExecuteCallback(CY_IPC_EP_CYPIPE_CM4_ADDR);
  34              		.loc 1 472 0
  35 0000 0120     		movs	r0, #1
  36 0002 FFF7FEBF 		b	Cy_IPC_Pipe_ExecuteCallback
  37              	.LVL0:
  38              		.cfi_endproc
  39              	.LFE165:
  40              		.size	Cy_SysIpcPipeIsrCm4, .-Cy_SysIpcPipeIsrCm4
  41 0006 00BF     		.section	.text.Cy_SystemInit,"ax",%progbits
ARM GAS  C:\Users\pearlstl\AppData\Local\Temp\ccGlZpXW.s 			page 10


  42              		.align	2
  43              		.weak	Cy_SystemInit
  44              		.thumb
  45              		.thumb_func
  46              		.type	Cy_SystemInit, %function
  47              	Cy_SystemInit:
  48              	.LFB162:
 271:system_psoc6_cm4.c ****      /* Empty weak function. The actual implementation to be in the PSoC Creator
  49              		.loc 1 271 0
  50              		.cfi_startproc
  51              		@ args = 0, pretend = 0, frame = 0
  52              		@ frame_needed = 0, uses_anonymous_args = 0
  53              		@ link register save eliminated.
  54 0000 7047     		bx	lr
  55              		.cfi_endproc
  56              	.LFE162:
  57              		.size	Cy_SystemInit, .-Cy_SystemInit
  58 0002 00BF     		.section	.text.SystemCoreClockUpdate,"ax",%progbits
  59              		.align	2
  60              		.global	SystemCoreClockUpdate
  61              		.thumb
  62              		.thumb_func
  63              		.type	SystemCoreClockUpdate, %function
  64              	SystemCoreClockUpdate:
  65              	.LFB163:
 290:system_psoc6_cm4.c ****     uint32_t srcFreqHz;
  66              		.loc 1 290 0
  67              		.cfi_startproc
  68              		@ args = 0, pretend = 0, frame = 0
  69              		@ frame_needed = 0, uses_anonymous_args = 0
  70              		@ link register save eliminated.
 299:system_psoc6_cm4.c **** 
  71              		.loc 1 299 0
  72 0000 5A4B     		ldr	r3, .L42
  73 0002 D3F88013 		ldr	r1, [r3, #896]
  74 0006 01F00F01 		and	r1, r1, #15
  75              	.LVL1:
  76 000a 8B00     		lsls	r3, r1, #2
  77 000c 03F18043 		add	r3, r3, #1073741824
  78 0010 03F51813 		add	r3, r3, #2490368
 290:system_psoc6_cm4.c ****     uint32_t srcFreqHz;
  79              		.loc 1 290 0
  80 0014 F0B4     		push	{r4, r5, r6, r7}
  81              		.cfi_def_cfa_offset 16
  82              		.cfi_offset 4, -16
  83              		.cfi_offset 5, -12
  84              		.cfi_offset 6, -8
  85              		.cfi_offset 7, -4
 302:system_psoc6_cm4.c **** 
  86              		.loc 1 302 0
  87 0016 D3F84003 		ldr	r0, [r3, #832]
  88              	.LVL2:
 305:system_psoc6_cm4.c ****     {
  89              		.loc 1 305 0
  90 001a 00F00700 		and	r0, r0, #7
  91              	.LVL3:
  92 001e 0328     		cmp	r0, #3
ARM GAS  C:\Users\pearlstl\AppData\Local\Temp\ccGlZpXW.s 			page 11


  93 0020 00F08D80 		beq	.L5
  94 0024 0428     		cmp	r0, #4
  95 0026 00F08D80 		beq	.L6
 312:system_psoc6_cm4.c ****     break;
  96              		.loc 1 312 0
  97 002a 514A     		ldr	r2, .L42+4
  98 002c 514B     		ldr	r3, .L42+8
  99 002e 524C     		ldr	r4, .L42+12
 100 0030 0028     		cmp	r0, #0
 101 0032 18BF     		it	ne
 102 0034 1A46     		movne	r2, r3
 103              	.L7:
 104              	.LVL4:
 365:system_psoc6_cm4.c ****     {
 105              		.loc 1 365 0
 106 0036 0029     		cmp	r1, #0
 107 0038 3AD1     		bne	.L9
 108              	.LBB6:
 368:system_psoc6_cm4.c ****         bool fllOutputOutput = ( 3UL == _FLD2VAL(SRSS_CLK_FLL_CONFIG3_BYPASS_SEL, SRSS->CLK_FLL_CON
 109              		.loc 1 368 0
 110 003a 4C4B     		ldr	r3, .L42
 111 003c D3F89055 		ldr	r5, [r3, #1424]
 112              	.LVL5:
 369:system_psoc6_cm4.c ****         bool fllOutputAuto   = ((0UL == _FLD2VAL(SRSS_CLK_FLL_CONFIG3_BYPASS_SEL, SRSS->CLK_FLL_CON
 113              		.loc 1 369 0
 114 0040 D3F88815 		ldr	r1, [r3, #1416]
 115              	.LVL6:
 370:system_psoc6_cm4.c ****                                 (1UL == _FLD2VAL(SRSS_CLK_FLL_CONFIG3_BYPASS_SEL, SRSS->CLK_FLL_CON
 116              		.loc 1 370 0
 117 0044 D3F88805 		ldr	r0, [r3, #1416]
 118              	.LVL7:
 119 0048 10F0405F 		tst	r0, #805306368
 369:system_psoc6_cm4.c ****         bool fllOutputAuto   = ((0UL == _FLD2VAL(SRSS_CLK_FLL_CONFIG3_BYPASS_SEL, SRSS->CLK_FLL_CON
 120              		.loc 1 369 0
 121 004c C1F30171 		ubfx	r1, r1, #28, #2
 122              	.LVL8:
 370:system_psoc6_cm4.c ****                                 (1UL == _FLD2VAL(SRSS_CLK_FLL_CONFIG3_BYPASS_SEL, SRSS->CLK_FLL_CON
 123              		.loc 1 370 0
 124 0050 58D1     		bne	.L41
 125              	.L10:
 126              	.LVL9:
 372:system_psoc6_cm4.c ****         {
 127              		.loc 1 372 0
 128 0052 E807     		lsls	r0, r5, #31
 129 0054 5ED4     		bmi	.L13
 372:system_psoc6_cm4.c ****         {
 130              		.loc 1 372 0 is_stmt 0 discriminator 3
 131 0056 0329     		cmp	r1, #3
 132 0058 5CD0     		beq	.L13
 133              	.LVL10:
 134              	.L11:
 135              	.LBE6:
 421:system_psoc6_cm4.c ****     cy_Hfclk0FreqHz = pathFreqHz;
 136              		.loc 1 421 0 is_stmt 1
 137 005a 444B     		ldr	r3, .L42
 425:system_psoc6_cm4.c **** 
 138              		.loc 1 425 0
ARM GAS  C:\Users\pearlstl\AppData\Local\Temp\ccGlZpXW.s 			page 12


 139 005c 4749     		ldr	r1, .L42+16
 421:system_psoc6_cm4.c ****     cy_Hfclk0FreqHz = pathFreqHz;
 140              		.loc 1 421 0
 141 005e D3F88033 		ldr	r3, [r3, #896]
 437:system_psoc6_cm4.c ****     cy_delay32kMs   = CY_DELAY_MS_OVERFLOW_THRESHOLD * cy_delayFreqKhz;
 142              		.loc 1 437 0
 143 0062 474F     		ldr	r7, .L42+20
 436:system_psoc6_cm4.c ****     cy_delayFreqKhz = (cy_delayFreqHz + CY_DELAY_1K_MINUS_1_THRESHOLD) / CY_DELAY_1K_THRESHOLD;
 144              		.loc 1 436 0
 145 0064 474E     		ldr	r6, .L42+24
 421:system_psoc6_cm4.c ****     cy_Hfclk0FreqHz = pathFreqHz;
 146              		.loc 1 421 0
 147 0066 C3F30113 		ubfx	r3, r3, #4, #2
 148 006a DA40     		lsrs	r2, r2, r3
 149              	.LVL11:
 422:system_psoc6_cm4.c **** 
 150              		.loc 1 422 0
 151 006c 6260     		str	r2, [r4, #4]
 425:system_psoc6_cm4.c **** 
 152              		.loc 1 425 0
 153 006e D1F89030 		ldr	r3, [r1, #144]
 154              	.LVL12:
 428:system_psoc6_cm4.c ****     cy_PeriClkFreqHz = pathFreqHz / periClkDiv;
 155              		.loc 1 428 0
 156 0072 0D69     		ldr	r5, [r1, #16]
 157              	.LVL13:
 431:system_psoc6_cm4.c ****     SystemCoreClock = pathFreqHz;
 158              		.loc 1 431 0
 159 0074 C3F30723 		ubfx	r3, r3, #8, #8
 160              	.LVL14:
 161 0078 0133     		adds	r3, r3, #1
 162 007a B2FBF3F3 		udiv	r3, r2, r3
 163              	.LVL15:
 436:system_psoc6_cm4.c ****     cy_delayFreqKhz = (cy_delayFreqHz + CY_DELAY_1K_MINUS_1_THRESHOLD) / CY_DELAY_1K_THRESHOLD;
 164              		.loc 1 436 0
 165 007e 03F57421 		add	r1, r3, #999424
 437:system_psoc6_cm4.c ****     cy_delay32kMs   = CY_DELAY_MS_OVERFLOW_THRESHOLD * cy_delayFreqKhz;
 166              		.loc 1 437 0
 167 0082 03F2E730 		addw	r0, r3, #999
 168 0086 A7FB0070 		umull	r7, r0, r7, r0
 436:system_psoc6_cm4.c ****     cy_delayFreqKhz = (cy_delayFreqHz + CY_DELAY_1K_MINUS_1_THRESHOLD) / CY_DELAY_1K_THRESHOLD;
 169              		.loc 1 436 0
 170 008a 01F23F21 		addw	r1, r1, #575
 171 008e A6FB0161 		umull	r6, r1, r6, r1
 437:system_psoc6_cm4.c ****     cy_delay32kMs   = CY_DELAY_MS_OVERFLOW_THRESHOLD * cy_delayFreqKhz;
 172              		.loc 1 437 0
 173 0092 8009     		lsrs	r0, r0, #6
 429:system_psoc6_cm4.c **** 
 174              		.loc 1 429 0
 175 0094 2D0E     		lsrs	r5, r5, #24
 176              	.LVL16:
 438:system_psoc6_cm4.c **** }
 177              		.loc 1 438 0
 178 0096 C603     		lsls	r6, r0, #15
 436:system_psoc6_cm4.c ****     cy_delayFreqKhz = (cy_delayFreqHz + CY_DELAY_1K_MINUS_1_THRESHOLD) / CY_DELAY_1K_THRESHOLD;
 179              		.loc 1 436 0
 180 0098 890C     		lsrs	r1, r1, #18
ARM GAS  C:\Users\pearlstl\AppData\Local\Temp\ccGlZpXW.s 			page 13


 432:system_psoc6_cm4.c **** 
 181              		.loc 1 432 0
 182 009a E360     		str	r3, [r4, #12]
 435:system_psoc6_cm4.c ****     cy_delayFreqMhz = (uint8_t)((cy_delayFreqHz + CY_DELAY_1M_MINUS_1_THRESHOLD) / CY_DELAY_1M_THRE
 183              		.loc 1 435 0
 184 009c 2361     		str	r3, [r4, #16]
 436:system_psoc6_cm4.c ****     cy_delayFreqKhz = (cy_delayFreqHz + CY_DELAY_1K_MINUS_1_THRESHOLD) / CY_DELAY_1K_THRESHOLD;
 185              		.loc 1 436 0
 186 009e 2175     		strb	r1, [r4, #20]
 429:system_psoc6_cm4.c **** 
 187              		.loc 1 429 0
 188 00a0 6B1C     		adds	r3, r5, #1
 189              	.LVL17:
 437:system_psoc6_cm4.c ****     cy_delay32kMs   = CY_DELAY_MS_OVERFLOW_THRESHOLD * cy_delayFreqKhz;
 190              		.loc 1 437 0
 191 00a2 A061     		str	r0, [r4, #24]
 429:system_psoc6_cm4.c **** 
 192              		.loc 1 429 0
 193 00a4 B2FBF3F2 		udiv	r2, r2, r3
 438:system_psoc6_cm4.c **** }
 194              		.loc 1 438 0
 195 00a8 E661     		str	r6, [r4, #28]
 429:system_psoc6_cm4.c **** 
 196              		.loc 1 429 0
 197 00aa A260     		str	r2, [r4, #8]
 439:system_psoc6_cm4.c **** 
 198              		.loc 1 439 0
 199 00ac F0BC     		pop	{r4, r5, r6, r7}
 200              		.cfi_remember_state
 201              		.cfi_restore 7
 202              		.cfi_restore 6
 203              		.cfi_restore 5
 204              		.cfi_restore 4
 205              		.cfi_def_cfa_offset 0
 206 00ae 7047     		bx	lr
 207              	.LVL18:
 208              	.L9:
 209              		.cfi_restore_state
 389:system_psoc6_cm4.c ****     {
 210              		.loc 1 389 0
 211 00b0 0129     		cmp	r1, #1
 212 00b2 D2D1     		bne	.L11
 213              	.LBB8:
 392:system_psoc6_cm4.c ****         bool pllOutputOutput = ( 3UL == _FLD2VAL(SRSS_CLK_PLL_CONFIG_BYPASS_SEL, SRSS->CLK_PLL_CONF
 214              		.loc 1 392 0
 215 00b4 2D4B     		ldr	r3, .L42
 216 00b6 D3F84056 		ldr	r5, [r3, #1600]
 217              	.LVL19:
 393:system_psoc6_cm4.c ****         bool pllOutputAuto   = ((0UL == _FLD2VAL(SRSS_CLK_PLL_CONFIG_BYPASS_SEL, SRSS->CLK_PLL_CONF
 218              		.loc 1 393 0
 219 00ba D3F80016 		ldr	r1, [r3, #1536]
 220              	.LVL20:
 394:system_psoc6_cm4.c ****                                 (1UL == _FLD2VAL(SRSS_CLK_PLL_CONFIG_BYPASS_SEL, SRSS->CLK_PLL_CONF
 221              		.loc 1 394 0
 222 00be D3F80006 		ldr	r0, [r3, #1536]
 223              	.LVL21:
 224 00c2 10F0405F 		tst	r0, #805306368
ARM GAS  C:\Users\pearlstl\AppData\Local\Temp\ccGlZpXW.s 			page 14


 225 00c6 49D0     		beq	.L12
 395:system_psoc6_cm4.c ****         if ((pllOutputAuto && pllLocked) || pllOutputOutput)
 226              		.loc 1 395 0 discriminator 2
 227 00c8 D3F80036 		ldr	r3, [r3, #1536]
 394:system_psoc6_cm4.c ****                                 (1UL == _FLD2VAL(SRSS_CLK_PLL_CONFIG_BYPASS_SEL, SRSS->CLK_PLL_CONF
 228              		.loc 1 394 0 discriminator 2
 229 00cc C3F30173 		ubfx	r3, r3, #28, #2
 230 00d0 012B     		cmp	r3, #1
 231 00d2 43D0     		beq	.L12
 232              	.L16:
 396:system_psoc6_cm4.c ****         {
 233              		.loc 1 396 0 discriminator 3
 234 00d4 C1F30171 		ubfx	r1, r1, #28, #2
 235              	.LVL22:
 236 00d8 0329     		cmp	r1, #3
 237 00da BED1     		bne	.L11
 238              	.L15:
 239              	.LBB9:
 402:system_psoc6_cm4.c ****             referenceDiv = _FLD2VAL(SRSS_CLK_PLL_CONFIG_REFERENCE_DIV, SRSS->CLK_PLL_CONFIG[0UL]);
 240              		.loc 1 402 0
 241 00dc 2348     		ldr	r0, .L42
 242 00de D0F80036 		ldr	r3, [r0, #1536]
 243              	.LVL23:
 403:system_psoc6_cm4.c ****             outputDiv    = _FLD2VAL(SRSS_CLK_PLL_CONFIG_OUTPUT_DIV,    SRSS->CLK_PLL_CONFIG[0UL]);
 244              		.loc 1 403 0
 245 00e2 D0F80016 		ldr	r1, [r0, #1536]
 246              	.LVL24:
 404:system_psoc6_cm4.c **** 
 247              		.loc 1 404 0
 248 00e6 D0F80006 		ldr	r0, [r0, #1536]
 249              	.LVL25:
 406:system_psoc6_cm4.c **** 
 250              		.loc 1 406 0
 251 00ea 03F07F03 		and	r3, r3, #127
 252              	.LVL26:
 253 00ee 02FB03F3 		mul	r3, r2, r3
 254              	.LVL27:
 255 00f2 C0F30440 		ubfx	r0, r0, #16, #5
 256              	.LVL28:
 257 00f6 C1F30422 		ubfx	r2, r1, #8, #5
 258              	.LVL29:
 259 00fa B3FBF2F2 		udiv	r2, r3, r2
 260 00fe B2FBF0F2 		udiv	r2, r2, r0
 261              	.LVL30:
 262              	.LBE9:
 397:system_psoc6_cm4.c ****             uint32_t feedbackDiv;
 263              		.loc 1 397 0
 264 0102 AAE7     		b	.L11
 265              	.LVL31:
 266              	.L41:
 267              	.LBE8:
 268              	.LBB10:
 371:system_psoc6_cm4.c ****         if ((fllOutputAuto && fllLocked) || fllOutputOutput)
 269              		.loc 1 371 0 discriminator 2
 270 0104 D3F88835 		ldr	r3, [r3, #1416]
 370:system_psoc6_cm4.c ****                                 (1UL == _FLD2VAL(SRSS_CLK_FLL_CONFIG3_BYPASS_SEL, SRSS->CLK_FLL_CON
 271              		.loc 1 370 0 discriminator 2
ARM GAS  C:\Users\pearlstl\AppData\Local\Temp\ccGlZpXW.s 			page 15


 272 0108 C3F30173 		ubfx	r3, r3, #28, #2
 273 010c 012B     		cmp	r3, #1
 274 010e A0D0     		beq	.L10
 372:system_psoc6_cm4.c ****         {
 275              		.loc 1 372 0
 276 0110 0329     		cmp	r1, #3
 277 0112 A2D1     		bne	.L11
 278              	.L13:
 279              	.LBB7:
 378:system_psoc6_cm4.c ****             refDiv  = _FLD2VAL(SRSS_CLK_FLL_CONFIG2_FLL_REF_DIV, SRSS->CLK_FLL_CONFIG2);
 280              		.loc 1 378 0
 281 0114 154B     		ldr	r3, .L42
 282 0116 D3F88015 		ldr	r1, [r3, #1408]
 283              	.LVL32:
 379:system_psoc6_cm4.c ****             outputDiv = _FLD2VAL(SRSS_CLK_FLL_CONFIG_FLL_OUTPUT_DIV, SRSS->CLK_FLL_CONFIG) + 1UL;
 284              		.loc 1 379 0
 285 011a D3F88405 		ldr	r0, [r3, #1412]
 286              	.LVL33:
 380:system_psoc6_cm4.c **** 
 287              		.loc 1 380 0
 288 011e D3F88035 		ldr	r3, [r3, #1408]
 289              	.LVL34:
 382:system_psoc6_cm4.c ****         }
 290              		.loc 1 382 0
 291 0122 C1F31101 		ubfx	r1, r1, #0, #18
 292              	.LVL35:
 293 0126 C3F30063 		ubfx	r3, r3, #24, #1
 294              	.LVL36:
 295 012a C0F30C00 		ubfx	r0, r0, #0, #13
 296              	.LVL37:
 297 012e 0133     		adds	r3, r3, #1
 298 0130 B2FBF0F2 		udiv	r2, r2, r0
 299              	.LVL38:
 300 0134 01FB02F2 		mul	r2, r1, r2
 301 0138 B2FBF3F2 		udiv	r2, r2, r3
 302              	.LVL39:
 303              	.LBE7:
 373:system_psoc6_cm4.c ****             uint32_t fllMult;
 304              		.loc 1 373 0
 305 013c 8DE7     		b	.L11
 306              	.LVL40:
 307              	.L5:
 308              	.LBE10:
 323:system_psoc6_cm4.c ****     break;
 309              		.loc 1 323 0
 310 013e 0E4C     		ldr	r4, .L42+12
 311 0140 2268     		ldr	r2, [r4]
 312              	.LVL41:
 324:system_psoc6_cm4.c **** #endif /* defined (CY_IP_MXBLESS) && (CY_IP_MXBLESS == 1UL) && (SRSS_ALTHF_PRESENT == 1U) */
 313              		.loc 1 324 0
 314 0142 78E7     		b	.L7
 315              	.LVL42:
 316              	.L6:
 317              	.LBB11:
 330:system_psoc6_cm4.c ****         switch (dsi_src)
 318              		.loc 1 330 0
 319 0144 D3F80033 		ldr	r3, [r3, #768]
ARM GAS  C:\Users\pearlstl\AppData\Local\Temp\ccGlZpXW.s 			page 16


 320              	.LVL43:
 331:system_psoc6_cm4.c ****         {
 321              		.loc 1 331 0
 322 0148 03F01F03 		and	r3, r3, #31
 323              	.LVL44:
 324 014c 112B     		cmp	r3, #17
 325 014e 08D0     		beq	.L8
 326 0150 132B     		cmp	r3, #19
 327 0152 06D0     		beq	.L8
 328 0154 084C     		ldr	r4, .L42+12
 334:system_psoc6_cm4.c ****         break;
 329              		.loc 1 334 0
 330 0156 4FF4FA42 		mov	r2, #32000
 331 015a 6CE7     		b	.L7
 332              	.LVL45:
 333              	.L12:
 334              	.LBE11:
 335              	.LBB12:
 396:system_psoc6_cm4.c ****         {
 336              		.loc 1 396 0
 337 015c EB07     		lsls	r3, r5, #31
 338 015e BDD4     		bmi	.L15
 339 0160 B8E7     		b	.L16
 340              	.LVL46:
 341              	.L8:
 342              	.LBE12:
 343              	.LBB13:
 338:system_psoc6_cm4.c ****         break;
 344              		.loc 1 338 0
 345 0162 4FF40042 		mov	r2, #32768
 346 0166 044C     		ldr	r4, .L42+12
 347 0168 65E7     		b	.L7
 348              	.L43:
 349 016a 00BF     		.align	2
 350              	.L42:
 351 016c 00002640 		.word	1076232192
 352 0170 00127A00 		.word	8000000
 353 0174 00366E01 		.word	24000000
 354 0178 00000000 		.word	.LANCHOR0
 355 017c 00002140 		.word	1075904512
 356 0180 D34D6210 		.word	274877907
 357 0184 83DE1B43 		.word	1125899907
 358              	.LBE13:
 359              		.cfi_endproc
 360              	.LFE163:
 361              		.size	SystemCoreClockUpdate, .-SystemCoreClockUpdate
 362              		.section	.text.SystemInit,"ax",%progbits
 363              		.align	2
 364              		.global	SystemInit
 365              		.thumb
 366              		.thumb_func
 367              		.type	SystemInit, %function
 368              	SystemInit:
 369              	.LFB161:
 157:system_psoc6_cm4.c ****     Cy_PDL_Init(CY_DEVICE_CFG);
 370              		.loc 1 157 0
 371              		.cfi_startproc
ARM GAS  C:\Users\pearlstl\AppData\Local\Temp\ccGlZpXW.s 			page 17


 372              		@ args = 0, pretend = 0, frame = 0
 373              		@ frame_needed = 0, uses_anonymous_args = 0
 374 0000 08B5     		push	{r3, lr}
 375              		.cfi_def_cfa_offset 8
 376              		.cfi_offset 3, -8
 377              		.cfi_offset 14, -4
 158:system_psoc6_cm4.c **** 
 378              		.loc 1 158 0
 379 0002 0D48     		ldr	r0, .L50
 380 0004 FFF7FEFF 		bl	Cy_PDL_Init
 381              	.LVL47:
 182:system_psoc6_cm4.c ****     SystemCoreClockUpdate();
 382              		.loc 1 182 0
 383 0008 FFF7FEFF 		bl	Cy_SystemInit
 384              	.LVL48:
 183:system_psoc6_cm4.c **** 
 385              		.loc 1 183 0
 386 000c FFF7FEFF 		bl	SystemCoreClockUpdate
 387              	.LVL49:
 193:system_psoc6_cm4.c ****     #endif /* (__CM0P_PRESENT) */
 388              		.loc 1 193 0
 389 0010 0022     		movs	r2, #0
 390 0012 1146     		mov	r1, r2
 391 0014 0420     		movs	r0, #4
 392 0016 FFF7FEFF 		bl	Cy_IPC_Sema_Init
 393              	.LVL50:
 216:system_psoc6_cm4.c **** 
 394              		.loc 1 216 0
 395 001a 0848     		ldr	r0, .L50+4
 396 001c FFF7FEFF 		bl	Cy_IPC_Pipe_Config
 397              	.LVL51:
 243:system_psoc6_cm4.c ****     {
 398              		.loc 1 243 0
 399 0020 074B     		ldr	r3, .L50+8
 400 0022 1B68     		ldr	r3, [r3]
 401 0024 93F85130 		ldrb	r3, [r3, #81]	@ zero_extendqisi2
 402 0028 13B1     		cbz	r3, .L45
 245:system_psoc6_cm4.c ****     }
 403              		.loc 1 245 0
 404 002a 0648     		ldr	r0, .L50+12
 405 002c FFF7FEFF 		bl	Cy_IPC_Pipe_Init
 406              	.LVL52:
 407              	.L45:
 253:system_psoc6_cm4.c **** 
 408              		.loc 1 253 0
 409 0030 BDE80840 		pop	{r3, lr}
 410              		.cfi_restore 14
 411              		.cfi_restore 3
 412              		.cfi_def_cfa_offset 0
 249:system_psoc6_cm4.c **** #endif /* defined(CY_DEVICE_PSOC6ABLE2) */
 413              		.loc 1 249 0
 414 0034 FFF7FEBF 		b	Cy_Flash_Init
 415              	.LVL53:
 416              	.L51:
 417              		.align	2
 418              	.L50:
 419 0038 00000000 		.word	cy_deviceIpBlockCfgPSoC6_01
ARM GAS  C:\Users\pearlstl\AppData\Local\Temp\ccGlZpXW.s 			page 18


 420 003c 00000000 		.word	.LANCHOR1
 421 0040 00000000 		.word	cy_device
 422 0044 00000000 		.word	.LANCHOR2
 423              		.cfi_endproc
 424              	.LFE161:
 425              		.size	SystemInit, .-SystemInit
 426              		.section	.text.Cy_SystemInitFpuEnable,"ax",%progbits
 427              		.align	2
 428              		.global	Cy_SystemInitFpuEnable
 429              		.thumb
 430              		.thumb_func
 431              		.type	Cy_SystemInitFpuEnable, %function
 432              	Cy_SystemInitFpuEnable:
 433              	.LFB164:
 450:system_psoc6_cm4.c ****     #if defined (__FPU_USED) && (__FPU_USED == 1U)
 434              		.loc 1 450 0
 435              		.cfi_startproc
 436              		@ args = 0, pretend = 0, frame = 0
 437              		@ frame_needed = 0, uses_anonymous_args = 0
 438 0000 08B5     		push	{r3, lr}
 439              		.cfi_def_cfa_offset 8
 440              		.cfi_offset 3, -8
 441              		.cfi_offset 14, -4
 453:system_psoc6_cm4.c ****         SCB->CPACR |= SCB_CPACR_CP10_CP11_ENABLE;
 442              		.loc 1 453 0
 443 0002 FFF7FEFF 		bl	Cy_SysLib_EnterCriticalSection
 444              	.LVL54:
 454:system_psoc6_cm4.c ****         __DSB();
 445              		.loc 1 454 0
 446 0006 074A     		ldr	r2, .L54
 447 0008 D2F88830 		ldr	r3, [r2, #136]
 448 000c 43F47003 		orr	r3, r3, #15728640
 449 0010 C2F88830 		str	r3, [r2, #136]
 450              	.LBB14:
 451              	.LBB15:
 452              		.file 2 "Generated_Source\\PSoC6\\pdl\\cmsis/include/cmsis_gcc.h"
   1:Generated_Source\PSoC6\pdl\cmsis/include/cmsis_gcc.h **** /**************************************************************************//**
   2:Generated_Source\PSoC6\pdl\cmsis/include/cmsis_gcc.h ****  * @file     cmsis_gcc.h
   3:Generated_Source\PSoC6\pdl\cmsis/include/cmsis_gcc.h ****  * @brief    CMSIS compiler GCC header file
   4:Generated_Source\PSoC6\pdl\cmsis/include/cmsis_gcc.h ****  * @version  V5.0.3
   5:Generated_Source\PSoC6\pdl\cmsis/include/cmsis_gcc.h ****  * @date     16. January 2018
   6:Generated_Source\PSoC6\pdl\cmsis/include/cmsis_gcc.h ****  ******************************************************************************/
   7:Generated_Source\PSoC6\pdl\cmsis/include/cmsis_gcc.h **** /*
   8:Generated_Source\PSoC6\pdl\cmsis/include/cmsis_gcc.h ****  * Copyright (c) 2009-2017 ARM Limited. All rights reserved.
   9:Generated_Source\PSoC6\pdl\cmsis/include/cmsis_gcc.h ****  *
  10:Generated_Source\PSoC6\pdl\cmsis/include/cmsis_gcc.h ****  * SPDX-License-Identifier: Apache-2.0
  11:Generated_Source\PSoC6\pdl\cmsis/include/cmsis_gcc.h ****  *
  12:Generated_Source\PSoC6\pdl\cmsis/include/cmsis_gcc.h ****  * Licensed under the Apache License, Version 2.0 (the License); you may
  13:Generated_Source\PSoC6\pdl\cmsis/include/cmsis_gcc.h ****  * not use this file except in compliance with the License.
  14:Generated_Source\PSoC6\pdl\cmsis/include/cmsis_gcc.h ****  * You may obtain a copy of the License at
  15:Generated_Source\PSoC6\pdl\cmsis/include/cmsis_gcc.h ****  *
  16:Generated_Source\PSoC6\pdl\cmsis/include/cmsis_gcc.h ****  * www.apache.org/licenses/LICENSE-2.0
  17:Generated_Source\PSoC6\pdl\cmsis/include/cmsis_gcc.h ****  *
  18:Generated_Source\PSoC6\pdl\cmsis/include/cmsis_gcc.h ****  * Unless required by applicable law or agreed to in writing, software
  19:Generated_Source\PSoC6\pdl\cmsis/include/cmsis_gcc.h ****  * distributed under the License is distributed on an AS IS BASIS, WITHOUT
  20:Generated_Source\PSoC6\pdl\cmsis/include/cmsis_gcc.h ****  * WARRANTIES OR CONDITIONS OF ANY KIND, either express or implied.
  21:Generated_Source\PSoC6\pdl\cmsis/include/cmsis_gcc.h ****  * See the License for the specific language governing permissions and
ARM GAS  C:\Users\pearlstl\AppData\Local\Temp\ccGlZpXW.s 			page 19


  22:Generated_Source\PSoC6\pdl\cmsis/include/cmsis_gcc.h ****  * limitations under the License.
  23:Generated_Source\PSoC6\pdl\cmsis/include/cmsis_gcc.h ****  */
  24:Generated_Source\PSoC6\pdl\cmsis/include/cmsis_gcc.h **** 
  25:Generated_Source\PSoC6\pdl\cmsis/include/cmsis_gcc.h **** #ifndef __CMSIS_GCC_H
  26:Generated_Source\PSoC6\pdl\cmsis/include/cmsis_gcc.h **** #define __CMSIS_GCC_H
  27:Generated_Source\PSoC6\pdl\cmsis/include/cmsis_gcc.h **** 
  28:Generated_Source\PSoC6\pdl\cmsis/include/cmsis_gcc.h **** /* ignore some GCC warnings */
  29:Generated_Source\PSoC6\pdl\cmsis/include/cmsis_gcc.h **** #pragma GCC diagnostic push
  30:Generated_Source\PSoC6\pdl\cmsis/include/cmsis_gcc.h **** #pragma GCC diagnostic ignored "-Wsign-conversion"
  31:Generated_Source\PSoC6\pdl\cmsis/include/cmsis_gcc.h **** #pragma GCC diagnostic ignored "-Wconversion"
  32:Generated_Source\PSoC6\pdl\cmsis/include/cmsis_gcc.h **** #pragma GCC diagnostic ignored "-Wunused-parameter"
  33:Generated_Source\PSoC6\pdl\cmsis/include/cmsis_gcc.h **** 
  34:Generated_Source\PSoC6\pdl\cmsis/include/cmsis_gcc.h **** /* Fallback for __has_builtin */
  35:Generated_Source\PSoC6\pdl\cmsis/include/cmsis_gcc.h **** #ifndef __has_builtin
  36:Generated_Source\PSoC6\pdl\cmsis/include/cmsis_gcc.h ****   #define __has_builtin(x) (0)
  37:Generated_Source\PSoC6\pdl\cmsis/include/cmsis_gcc.h **** #endif
  38:Generated_Source\PSoC6\pdl\cmsis/include/cmsis_gcc.h **** 
  39:Generated_Source\PSoC6\pdl\cmsis/include/cmsis_gcc.h **** /* CMSIS compiler specific defines */
  40:Generated_Source\PSoC6\pdl\cmsis/include/cmsis_gcc.h **** #ifndef   __ASM
  41:Generated_Source\PSoC6\pdl\cmsis/include/cmsis_gcc.h ****   #define __ASM                                  __asm
  42:Generated_Source\PSoC6\pdl\cmsis/include/cmsis_gcc.h **** #endif
  43:Generated_Source\PSoC6\pdl\cmsis/include/cmsis_gcc.h **** #ifndef   __INLINE
  44:Generated_Source\PSoC6\pdl\cmsis/include/cmsis_gcc.h ****   #define __INLINE                               inline
  45:Generated_Source\PSoC6\pdl\cmsis/include/cmsis_gcc.h **** #endif
  46:Generated_Source\PSoC6\pdl\cmsis/include/cmsis_gcc.h **** #ifndef   __STATIC_INLINE
  47:Generated_Source\PSoC6\pdl\cmsis/include/cmsis_gcc.h ****   #define __STATIC_INLINE                        static inline
  48:Generated_Source\PSoC6\pdl\cmsis/include/cmsis_gcc.h **** #endif
  49:Generated_Source\PSoC6\pdl\cmsis/include/cmsis_gcc.h **** #ifndef   __STATIC_FORCEINLINE                 
  50:Generated_Source\PSoC6\pdl\cmsis/include/cmsis_gcc.h ****   #define __STATIC_FORCEINLINE                   __attribute__((always_inline)) static inline
  51:Generated_Source\PSoC6\pdl\cmsis/include/cmsis_gcc.h **** #endif                                           
  52:Generated_Source\PSoC6\pdl\cmsis/include/cmsis_gcc.h **** #ifndef   __NO_RETURN
  53:Generated_Source\PSoC6\pdl\cmsis/include/cmsis_gcc.h ****   #define __NO_RETURN                            __attribute__((__noreturn__))
  54:Generated_Source\PSoC6\pdl\cmsis/include/cmsis_gcc.h **** #endif
  55:Generated_Source\PSoC6\pdl\cmsis/include/cmsis_gcc.h **** #ifndef   __USED
  56:Generated_Source\PSoC6\pdl\cmsis/include/cmsis_gcc.h ****   #define __USED                                 __attribute__((used))
  57:Generated_Source\PSoC6\pdl\cmsis/include/cmsis_gcc.h **** #endif
  58:Generated_Source\PSoC6\pdl\cmsis/include/cmsis_gcc.h **** #ifndef   __WEAK
  59:Generated_Source\PSoC6\pdl\cmsis/include/cmsis_gcc.h ****   #define __WEAK                                 __attribute__((weak))
  60:Generated_Source\PSoC6\pdl\cmsis/include/cmsis_gcc.h **** #endif
  61:Generated_Source\PSoC6\pdl\cmsis/include/cmsis_gcc.h **** #ifndef   __PACKED
  62:Generated_Source\PSoC6\pdl\cmsis/include/cmsis_gcc.h ****   #define __PACKED                               __attribute__((packed, aligned(1)))
  63:Generated_Source\PSoC6\pdl\cmsis/include/cmsis_gcc.h **** #endif
  64:Generated_Source\PSoC6\pdl\cmsis/include/cmsis_gcc.h **** #ifndef   __PACKED_STRUCT
  65:Generated_Source\PSoC6\pdl\cmsis/include/cmsis_gcc.h ****   #define __PACKED_STRUCT                        struct __attribute__((packed, aligned(1)))
  66:Generated_Source\PSoC6\pdl\cmsis/include/cmsis_gcc.h **** #endif
  67:Generated_Source\PSoC6\pdl\cmsis/include/cmsis_gcc.h **** #ifndef   __PACKED_UNION
  68:Generated_Source\PSoC6\pdl\cmsis/include/cmsis_gcc.h ****   #define __PACKED_UNION                         union __attribute__((packed, aligned(1)))
  69:Generated_Source\PSoC6\pdl\cmsis/include/cmsis_gcc.h **** #endif
  70:Generated_Source\PSoC6\pdl\cmsis/include/cmsis_gcc.h **** #ifndef   __UNALIGNED_UINT32        /* deprecated */
  71:Generated_Source\PSoC6\pdl\cmsis/include/cmsis_gcc.h ****   #pragma GCC diagnostic push
  72:Generated_Source\PSoC6\pdl\cmsis/include/cmsis_gcc.h ****   #pragma GCC diagnostic ignored "-Wpacked"
  73:Generated_Source\PSoC6\pdl\cmsis/include/cmsis_gcc.h ****   #pragma GCC diagnostic ignored "-Wattributes"
  74:Generated_Source\PSoC6\pdl\cmsis/include/cmsis_gcc.h ****   struct __attribute__((packed)) T_UINT32 { uint32_t v; };
  75:Generated_Source\PSoC6\pdl\cmsis/include/cmsis_gcc.h ****   #pragma GCC diagnostic pop
  76:Generated_Source\PSoC6\pdl\cmsis/include/cmsis_gcc.h ****   #define __UNALIGNED_UINT32(x)                  (((struct T_UINT32 *)(x))->v)
  77:Generated_Source\PSoC6\pdl\cmsis/include/cmsis_gcc.h **** #endif
  78:Generated_Source\PSoC6\pdl\cmsis/include/cmsis_gcc.h **** #ifndef   __UNALIGNED_UINT16_WRITE
ARM GAS  C:\Users\pearlstl\AppData\Local\Temp\ccGlZpXW.s 			page 20


  79:Generated_Source\PSoC6\pdl\cmsis/include/cmsis_gcc.h ****   #pragma GCC diagnostic push
  80:Generated_Source\PSoC6\pdl\cmsis/include/cmsis_gcc.h ****   #pragma GCC diagnostic ignored "-Wpacked"
  81:Generated_Source\PSoC6\pdl\cmsis/include/cmsis_gcc.h ****   #pragma GCC diagnostic ignored "-Wattributes"
  82:Generated_Source\PSoC6\pdl\cmsis/include/cmsis_gcc.h ****   __PACKED_STRUCT T_UINT16_WRITE { uint16_t v; };
  83:Generated_Source\PSoC6\pdl\cmsis/include/cmsis_gcc.h ****   #pragma GCC diagnostic pop
  84:Generated_Source\PSoC6\pdl\cmsis/include/cmsis_gcc.h ****   #define __UNALIGNED_UINT16_WRITE(addr, val)    (void)((((struct T_UINT16_WRITE *)(void *)(addr))-
  85:Generated_Source\PSoC6\pdl\cmsis/include/cmsis_gcc.h **** #endif
  86:Generated_Source\PSoC6\pdl\cmsis/include/cmsis_gcc.h **** #ifndef   __UNALIGNED_UINT16_READ
  87:Generated_Source\PSoC6\pdl\cmsis/include/cmsis_gcc.h ****   #pragma GCC diagnostic push
  88:Generated_Source\PSoC6\pdl\cmsis/include/cmsis_gcc.h ****   #pragma GCC diagnostic ignored "-Wpacked"
  89:Generated_Source\PSoC6\pdl\cmsis/include/cmsis_gcc.h ****   #pragma GCC diagnostic ignored "-Wattributes"
  90:Generated_Source\PSoC6\pdl\cmsis/include/cmsis_gcc.h ****   __PACKED_STRUCT T_UINT16_READ { uint16_t v; };
  91:Generated_Source\PSoC6\pdl\cmsis/include/cmsis_gcc.h ****   #pragma GCC diagnostic pop
  92:Generated_Source\PSoC6\pdl\cmsis/include/cmsis_gcc.h ****   #define __UNALIGNED_UINT16_READ(addr)          (((const struct T_UINT16_READ *)(const void *)(add
  93:Generated_Source\PSoC6\pdl\cmsis/include/cmsis_gcc.h **** #endif
  94:Generated_Source\PSoC6\pdl\cmsis/include/cmsis_gcc.h **** #ifndef   __UNALIGNED_UINT32_WRITE
  95:Generated_Source\PSoC6\pdl\cmsis/include/cmsis_gcc.h ****   #pragma GCC diagnostic push
  96:Generated_Source\PSoC6\pdl\cmsis/include/cmsis_gcc.h ****   #pragma GCC diagnostic ignored "-Wpacked"
  97:Generated_Source\PSoC6\pdl\cmsis/include/cmsis_gcc.h ****   #pragma GCC diagnostic ignored "-Wattributes"
  98:Generated_Source\PSoC6\pdl\cmsis/include/cmsis_gcc.h ****   __PACKED_STRUCT T_UINT32_WRITE { uint32_t v; };
  99:Generated_Source\PSoC6\pdl\cmsis/include/cmsis_gcc.h ****   #pragma GCC diagnostic pop
 100:Generated_Source\PSoC6\pdl\cmsis/include/cmsis_gcc.h ****   #define __UNALIGNED_UINT32_WRITE(addr, val)    (void)((((struct T_UINT32_WRITE *)(void *)(addr))-
 101:Generated_Source\PSoC6\pdl\cmsis/include/cmsis_gcc.h **** #endif
 102:Generated_Source\PSoC6\pdl\cmsis/include/cmsis_gcc.h **** #ifndef   __UNALIGNED_UINT32_READ
 103:Generated_Source\PSoC6\pdl\cmsis/include/cmsis_gcc.h ****   #pragma GCC diagnostic push
 104:Generated_Source\PSoC6\pdl\cmsis/include/cmsis_gcc.h ****   #pragma GCC diagnostic ignored "-Wpacked"
 105:Generated_Source\PSoC6\pdl\cmsis/include/cmsis_gcc.h ****   #pragma GCC diagnostic ignored "-Wattributes"
 106:Generated_Source\PSoC6\pdl\cmsis/include/cmsis_gcc.h ****   __PACKED_STRUCT T_UINT32_READ { uint32_t v; };
 107:Generated_Source\PSoC6\pdl\cmsis/include/cmsis_gcc.h ****   #pragma GCC diagnostic pop
 108:Generated_Source\PSoC6\pdl\cmsis/include/cmsis_gcc.h ****   #define __UNALIGNED_UINT32_READ(addr)          (((const struct T_UINT32_READ *)(const void *)(add
 109:Generated_Source\PSoC6\pdl\cmsis/include/cmsis_gcc.h **** #endif
 110:Generated_Source\PSoC6\pdl\cmsis/include/cmsis_gcc.h **** #ifndef   __ALIGNED
 111:Generated_Source\PSoC6\pdl\cmsis/include/cmsis_gcc.h ****   #define __ALIGNED(x)                           __attribute__((aligned(x)))
 112:Generated_Source\PSoC6\pdl\cmsis/include/cmsis_gcc.h **** #endif
 113:Generated_Source\PSoC6\pdl\cmsis/include/cmsis_gcc.h **** #ifndef   __RESTRICT
 114:Generated_Source\PSoC6\pdl\cmsis/include/cmsis_gcc.h ****   #define __RESTRICT                             __restrict
 115:Generated_Source\PSoC6\pdl\cmsis/include/cmsis_gcc.h **** #endif
 116:Generated_Source\PSoC6\pdl\cmsis/include/cmsis_gcc.h **** 
 117:Generated_Source\PSoC6\pdl\cmsis/include/cmsis_gcc.h **** 
 118:Generated_Source\PSoC6\pdl\cmsis/include/cmsis_gcc.h **** /* ###########################  Core Function Access  ########################### */
 119:Generated_Source\PSoC6\pdl\cmsis/include/cmsis_gcc.h **** /** \ingroup  CMSIS_Core_FunctionInterface
 120:Generated_Source\PSoC6\pdl\cmsis/include/cmsis_gcc.h ****     \defgroup CMSIS_Core_RegAccFunctions CMSIS Core Register Access Functions
 121:Generated_Source\PSoC6\pdl\cmsis/include/cmsis_gcc.h ****   @{
 122:Generated_Source\PSoC6\pdl\cmsis/include/cmsis_gcc.h ****  */
 123:Generated_Source\PSoC6\pdl\cmsis/include/cmsis_gcc.h **** 
 124:Generated_Source\PSoC6\pdl\cmsis/include/cmsis_gcc.h **** /**
 125:Generated_Source\PSoC6\pdl\cmsis/include/cmsis_gcc.h ****   \brief   Enable IRQ Interrupts
 126:Generated_Source\PSoC6\pdl\cmsis/include/cmsis_gcc.h ****   \details Enables IRQ interrupts by clearing the I-bit in the CPSR.
 127:Generated_Source\PSoC6\pdl\cmsis/include/cmsis_gcc.h ****            Can only be executed in Privileged modes.
 128:Generated_Source\PSoC6\pdl\cmsis/include/cmsis_gcc.h ****  */
 129:Generated_Source\PSoC6\pdl\cmsis/include/cmsis_gcc.h **** __STATIC_FORCEINLINE void __enable_irq(void)
 130:Generated_Source\PSoC6\pdl\cmsis/include/cmsis_gcc.h **** {
 131:Generated_Source\PSoC6\pdl\cmsis/include/cmsis_gcc.h ****   __ASM volatile ("cpsie i" : : : "memory");
 132:Generated_Source\PSoC6\pdl\cmsis/include/cmsis_gcc.h **** }
 133:Generated_Source\PSoC6\pdl\cmsis/include/cmsis_gcc.h **** 
 134:Generated_Source\PSoC6\pdl\cmsis/include/cmsis_gcc.h **** 
 135:Generated_Source\PSoC6\pdl\cmsis/include/cmsis_gcc.h **** /**
ARM GAS  C:\Users\pearlstl\AppData\Local\Temp\ccGlZpXW.s 			page 21


 136:Generated_Source\PSoC6\pdl\cmsis/include/cmsis_gcc.h ****   \brief   Disable IRQ Interrupts
 137:Generated_Source\PSoC6\pdl\cmsis/include/cmsis_gcc.h ****   \details Disables IRQ interrupts by setting the I-bit in the CPSR.
 138:Generated_Source\PSoC6\pdl\cmsis/include/cmsis_gcc.h ****            Can only be executed in Privileged modes.
 139:Generated_Source\PSoC6\pdl\cmsis/include/cmsis_gcc.h ****  */
 140:Generated_Source\PSoC6\pdl\cmsis/include/cmsis_gcc.h **** __STATIC_FORCEINLINE void __disable_irq(void)
 141:Generated_Source\PSoC6\pdl\cmsis/include/cmsis_gcc.h **** {
 142:Generated_Source\PSoC6\pdl\cmsis/include/cmsis_gcc.h ****   __ASM volatile ("cpsid i" : : : "memory");
 143:Generated_Source\PSoC6\pdl\cmsis/include/cmsis_gcc.h **** }
 144:Generated_Source\PSoC6\pdl\cmsis/include/cmsis_gcc.h **** 
 145:Generated_Source\PSoC6\pdl\cmsis/include/cmsis_gcc.h **** 
 146:Generated_Source\PSoC6\pdl\cmsis/include/cmsis_gcc.h **** /**
 147:Generated_Source\PSoC6\pdl\cmsis/include/cmsis_gcc.h ****   \brief   Get Control Register
 148:Generated_Source\PSoC6\pdl\cmsis/include/cmsis_gcc.h ****   \details Returns the content of the Control Register.
 149:Generated_Source\PSoC6\pdl\cmsis/include/cmsis_gcc.h ****   \return               Control Register value
 150:Generated_Source\PSoC6\pdl\cmsis/include/cmsis_gcc.h ****  */
 151:Generated_Source\PSoC6\pdl\cmsis/include/cmsis_gcc.h **** __STATIC_FORCEINLINE uint32_t __get_CONTROL(void)
 152:Generated_Source\PSoC6\pdl\cmsis/include/cmsis_gcc.h **** {
 153:Generated_Source\PSoC6\pdl\cmsis/include/cmsis_gcc.h ****   uint32_t result;
 154:Generated_Source\PSoC6\pdl\cmsis/include/cmsis_gcc.h **** 
 155:Generated_Source\PSoC6\pdl\cmsis/include/cmsis_gcc.h ****   __ASM volatile ("MRS %0, control" : "=r" (result) );
 156:Generated_Source\PSoC6\pdl\cmsis/include/cmsis_gcc.h ****   return(result);
 157:Generated_Source\PSoC6\pdl\cmsis/include/cmsis_gcc.h **** }
 158:Generated_Source\PSoC6\pdl\cmsis/include/cmsis_gcc.h **** 
 159:Generated_Source\PSoC6\pdl\cmsis/include/cmsis_gcc.h **** 
 160:Generated_Source\PSoC6\pdl\cmsis/include/cmsis_gcc.h **** #if (defined (__ARM_FEATURE_CMSE ) && (__ARM_FEATURE_CMSE == 3))
 161:Generated_Source\PSoC6\pdl\cmsis/include/cmsis_gcc.h **** /**
 162:Generated_Source\PSoC6\pdl\cmsis/include/cmsis_gcc.h ****   \brief   Get Control Register (non-secure)
 163:Generated_Source\PSoC6\pdl\cmsis/include/cmsis_gcc.h ****   \details Returns the content of the non-secure Control Register when in secure mode.
 164:Generated_Source\PSoC6\pdl\cmsis/include/cmsis_gcc.h ****   \return               non-secure Control Register value
 165:Generated_Source\PSoC6\pdl\cmsis/include/cmsis_gcc.h ****  */
 166:Generated_Source\PSoC6\pdl\cmsis/include/cmsis_gcc.h **** __STATIC_FORCEINLINE uint32_t __TZ_get_CONTROL_NS(void)
 167:Generated_Source\PSoC6\pdl\cmsis/include/cmsis_gcc.h **** {
 168:Generated_Source\PSoC6\pdl\cmsis/include/cmsis_gcc.h ****   uint32_t result;
 169:Generated_Source\PSoC6\pdl\cmsis/include/cmsis_gcc.h **** 
 170:Generated_Source\PSoC6\pdl\cmsis/include/cmsis_gcc.h ****   __ASM volatile ("MRS %0, control_ns" : "=r" (result) );
 171:Generated_Source\PSoC6\pdl\cmsis/include/cmsis_gcc.h ****   return(result);
 172:Generated_Source\PSoC6\pdl\cmsis/include/cmsis_gcc.h **** }
 173:Generated_Source\PSoC6\pdl\cmsis/include/cmsis_gcc.h **** #endif
 174:Generated_Source\PSoC6\pdl\cmsis/include/cmsis_gcc.h **** 
 175:Generated_Source\PSoC6\pdl\cmsis/include/cmsis_gcc.h **** 
 176:Generated_Source\PSoC6\pdl\cmsis/include/cmsis_gcc.h **** /**
 177:Generated_Source\PSoC6\pdl\cmsis/include/cmsis_gcc.h ****   \brief   Set Control Register
 178:Generated_Source\PSoC6\pdl\cmsis/include/cmsis_gcc.h ****   \details Writes the given value to the Control Register.
 179:Generated_Source\PSoC6\pdl\cmsis/include/cmsis_gcc.h ****   \param [in]    control  Control Register value to set
 180:Generated_Source\PSoC6\pdl\cmsis/include/cmsis_gcc.h ****  */
 181:Generated_Source\PSoC6\pdl\cmsis/include/cmsis_gcc.h **** __STATIC_FORCEINLINE void __set_CONTROL(uint32_t control)
 182:Generated_Source\PSoC6\pdl\cmsis/include/cmsis_gcc.h **** {
 183:Generated_Source\PSoC6\pdl\cmsis/include/cmsis_gcc.h ****   __ASM volatile ("MSR control, %0" : : "r" (control) : "memory");
 184:Generated_Source\PSoC6\pdl\cmsis/include/cmsis_gcc.h **** }
 185:Generated_Source\PSoC6\pdl\cmsis/include/cmsis_gcc.h **** 
 186:Generated_Source\PSoC6\pdl\cmsis/include/cmsis_gcc.h **** 
 187:Generated_Source\PSoC6\pdl\cmsis/include/cmsis_gcc.h **** #if (defined (__ARM_FEATURE_CMSE ) && (__ARM_FEATURE_CMSE == 3))
 188:Generated_Source\PSoC6\pdl\cmsis/include/cmsis_gcc.h **** /**
 189:Generated_Source\PSoC6\pdl\cmsis/include/cmsis_gcc.h ****   \brief   Set Control Register (non-secure)
 190:Generated_Source\PSoC6\pdl\cmsis/include/cmsis_gcc.h ****   \details Writes the given value to the non-secure Control Register when in secure state.
 191:Generated_Source\PSoC6\pdl\cmsis/include/cmsis_gcc.h ****   \param [in]    control  Control Register value to set
 192:Generated_Source\PSoC6\pdl\cmsis/include/cmsis_gcc.h ****  */
ARM GAS  C:\Users\pearlstl\AppData\Local\Temp\ccGlZpXW.s 			page 22


 193:Generated_Source\PSoC6\pdl\cmsis/include/cmsis_gcc.h **** __STATIC_FORCEINLINE void __TZ_set_CONTROL_NS(uint32_t control)
 194:Generated_Source\PSoC6\pdl\cmsis/include/cmsis_gcc.h **** {
 195:Generated_Source\PSoC6\pdl\cmsis/include/cmsis_gcc.h ****   __ASM volatile ("MSR control_ns, %0" : : "r" (control) : "memory");
 196:Generated_Source\PSoC6\pdl\cmsis/include/cmsis_gcc.h **** }
 197:Generated_Source\PSoC6\pdl\cmsis/include/cmsis_gcc.h **** #endif
 198:Generated_Source\PSoC6\pdl\cmsis/include/cmsis_gcc.h **** 
 199:Generated_Source\PSoC6\pdl\cmsis/include/cmsis_gcc.h **** 
 200:Generated_Source\PSoC6\pdl\cmsis/include/cmsis_gcc.h **** /**
 201:Generated_Source\PSoC6\pdl\cmsis/include/cmsis_gcc.h ****   \brief   Get IPSR Register
 202:Generated_Source\PSoC6\pdl\cmsis/include/cmsis_gcc.h ****   \details Returns the content of the IPSR Register.
 203:Generated_Source\PSoC6\pdl\cmsis/include/cmsis_gcc.h ****   \return               IPSR Register value
 204:Generated_Source\PSoC6\pdl\cmsis/include/cmsis_gcc.h ****  */
 205:Generated_Source\PSoC6\pdl\cmsis/include/cmsis_gcc.h **** __STATIC_FORCEINLINE uint32_t __get_IPSR(void)
 206:Generated_Source\PSoC6\pdl\cmsis/include/cmsis_gcc.h **** {
 207:Generated_Source\PSoC6\pdl\cmsis/include/cmsis_gcc.h ****   uint32_t result;
 208:Generated_Source\PSoC6\pdl\cmsis/include/cmsis_gcc.h **** 
 209:Generated_Source\PSoC6\pdl\cmsis/include/cmsis_gcc.h ****   __ASM volatile ("MRS %0, ipsr" : "=r" (result) );
 210:Generated_Source\PSoC6\pdl\cmsis/include/cmsis_gcc.h ****   return(result);
 211:Generated_Source\PSoC6\pdl\cmsis/include/cmsis_gcc.h **** }
 212:Generated_Source\PSoC6\pdl\cmsis/include/cmsis_gcc.h **** 
 213:Generated_Source\PSoC6\pdl\cmsis/include/cmsis_gcc.h **** 
 214:Generated_Source\PSoC6\pdl\cmsis/include/cmsis_gcc.h **** /**
 215:Generated_Source\PSoC6\pdl\cmsis/include/cmsis_gcc.h ****   \brief   Get APSR Register
 216:Generated_Source\PSoC6\pdl\cmsis/include/cmsis_gcc.h ****   \details Returns the content of the APSR Register.
 217:Generated_Source\PSoC6\pdl\cmsis/include/cmsis_gcc.h ****   \return               APSR Register value
 218:Generated_Source\PSoC6\pdl\cmsis/include/cmsis_gcc.h ****  */
 219:Generated_Source\PSoC6\pdl\cmsis/include/cmsis_gcc.h **** __STATIC_FORCEINLINE uint32_t __get_APSR(void)
 220:Generated_Source\PSoC6\pdl\cmsis/include/cmsis_gcc.h **** {
 221:Generated_Source\PSoC6\pdl\cmsis/include/cmsis_gcc.h ****   uint32_t result;
 222:Generated_Source\PSoC6\pdl\cmsis/include/cmsis_gcc.h **** 
 223:Generated_Source\PSoC6\pdl\cmsis/include/cmsis_gcc.h ****   __ASM volatile ("MRS %0, apsr" : "=r" (result) );
 224:Generated_Source\PSoC6\pdl\cmsis/include/cmsis_gcc.h ****   return(result);
 225:Generated_Source\PSoC6\pdl\cmsis/include/cmsis_gcc.h **** }
 226:Generated_Source\PSoC6\pdl\cmsis/include/cmsis_gcc.h **** 
 227:Generated_Source\PSoC6\pdl\cmsis/include/cmsis_gcc.h **** 
 228:Generated_Source\PSoC6\pdl\cmsis/include/cmsis_gcc.h **** /**
 229:Generated_Source\PSoC6\pdl\cmsis/include/cmsis_gcc.h ****   \brief   Get xPSR Register
 230:Generated_Source\PSoC6\pdl\cmsis/include/cmsis_gcc.h ****   \details Returns the content of the xPSR Register.
 231:Generated_Source\PSoC6\pdl\cmsis/include/cmsis_gcc.h ****   \return               xPSR Register value
 232:Generated_Source\PSoC6\pdl\cmsis/include/cmsis_gcc.h ****  */
 233:Generated_Source\PSoC6\pdl\cmsis/include/cmsis_gcc.h **** __STATIC_FORCEINLINE uint32_t __get_xPSR(void)
 234:Generated_Source\PSoC6\pdl\cmsis/include/cmsis_gcc.h **** {
 235:Generated_Source\PSoC6\pdl\cmsis/include/cmsis_gcc.h ****   uint32_t result;
 236:Generated_Source\PSoC6\pdl\cmsis/include/cmsis_gcc.h **** 
 237:Generated_Source\PSoC6\pdl\cmsis/include/cmsis_gcc.h ****   __ASM volatile ("MRS %0, xpsr" : "=r" (result) );
 238:Generated_Source\PSoC6\pdl\cmsis/include/cmsis_gcc.h ****   return(result);
 239:Generated_Source\PSoC6\pdl\cmsis/include/cmsis_gcc.h **** }
 240:Generated_Source\PSoC6\pdl\cmsis/include/cmsis_gcc.h **** 
 241:Generated_Source\PSoC6\pdl\cmsis/include/cmsis_gcc.h **** 
 242:Generated_Source\PSoC6\pdl\cmsis/include/cmsis_gcc.h **** /**
 243:Generated_Source\PSoC6\pdl\cmsis/include/cmsis_gcc.h ****   \brief   Get Process Stack Pointer
 244:Generated_Source\PSoC6\pdl\cmsis/include/cmsis_gcc.h ****   \details Returns the current value of the Process Stack Pointer (PSP).
 245:Generated_Source\PSoC6\pdl\cmsis/include/cmsis_gcc.h ****   \return               PSP Register value
 246:Generated_Source\PSoC6\pdl\cmsis/include/cmsis_gcc.h ****  */
 247:Generated_Source\PSoC6\pdl\cmsis/include/cmsis_gcc.h **** __STATIC_FORCEINLINE uint32_t __get_PSP(void)
 248:Generated_Source\PSoC6\pdl\cmsis/include/cmsis_gcc.h **** {
 249:Generated_Source\PSoC6\pdl\cmsis/include/cmsis_gcc.h ****   register uint32_t result;
ARM GAS  C:\Users\pearlstl\AppData\Local\Temp\ccGlZpXW.s 			page 23


 250:Generated_Source\PSoC6\pdl\cmsis/include/cmsis_gcc.h **** 
 251:Generated_Source\PSoC6\pdl\cmsis/include/cmsis_gcc.h ****   __ASM volatile ("MRS %0, psp"  : "=r" (result) );
 252:Generated_Source\PSoC6\pdl\cmsis/include/cmsis_gcc.h ****   return(result);
 253:Generated_Source\PSoC6\pdl\cmsis/include/cmsis_gcc.h **** }
 254:Generated_Source\PSoC6\pdl\cmsis/include/cmsis_gcc.h **** 
 255:Generated_Source\PSoC6\pdl\cmsis/include/cmsis_gcc.h **** 
 256:Generated_Source\PSoC6\pdl\cmsis/include/cmsis_gcc.h **** #if (defined (__ARM_FEATURE_CMSE ) && (__ARM_FEATURE_CMSE == 3))
 257:Generated_Source\PSoC6\pdl\cmsis/include/cmsis_gcc.h **** /**
 258:Generated_Source\PSoC6\pdl\cmsis/include/cmsis_gcc.h ****   \brief   Get Process Stack Pointer (non-secure)
 259:Generated_Source\PSoC6\pdl\cmsis/include/cmsis_gcc.h ****   \details Returns the current value of the non-secure Process Stack Pointer (PSP) when in secure s
 260:Generated_Source\PSoC6\pdl\cmsis/include/cmsis_gcc.h ****   \return               PSP Register value
 261:Generated_Source\PSoC6\pdl\cmsis/include/cmsis_gcc.h ****  */
 262:Generated_Source\PSoC6\pdl\cmsis/include/cmsis_gcc.h **** __STATIC_FORCEINLINE uint32_t __TZ_get_PSP_NS(void)
 263:Generated_Source\PSoC6\pdl\cmsis/include/cmsis_gcc.h **** {
 264:Generated_Source\PSoC6\pdl\cmsis/include/cmsis_gcc.h ****   register uint32_t result;
 265:Generated_Source\PSoC6\pdl\cmsis/include/cmsis_gcc.h **** 
 266:Generated_Source\PSoC6\pdl\cmsis/include/cmsis_gcc.h ****   __ASM volatile ("MRS %0, psp_ns"  : "=r" (result) );
 267:Generated_Source\PSoC6\pdl\cmsis/include/cmsis_gcc.h ****   return(result);
 268:Generated_Source\PSoC6\pdl\cmsis/include/cmsis_gcc.h **** }
 269:Generated_Source\PSoC6\pdl\cmsis/include/cmsis_gcc.h **** #endif
 270:Generated_Source\PSoC6\pdl\cmsis/include/cmsis_gcc.h **** 
 271:Generated_Source\PSoC6\pdl\cmsis/include/cmsis_gcc.h **** 
 272:Generated_Source\PSoC6\pdl\cmsis/include/cmsis_gcc.h **** /**
 273:Generated_Source\PSoC6\pdl\cmsis/include/cmsis_gcc.h ****   \brief   Set Process Stack Pointer
 274:Generated_Source\PSoC6\pdl\cmsis/include/cmsis_gcc.h ****   \details Assigns the given value to the Process Stack Pointer (PSP).
 275:Generated_Source\PSoC6\pdl\cmsis/include/cmsis_gcc.h ****   \param [in]    topOfProcStack  Process Stack Pointer value to set
 276:Generated_Source\PSoC6\pdl\cmsis/include/cmsis_gcc.h ****  */
 277:Generated_Source\PSoC6\pdl\cmsis/include/cmsis_gcc.h **** __STATIC_FORCEINLINE void __set_PSP(uint32_t topOfProcStack)
 278:Generated_Source\PSoC6\pdl\cmsis/include/cmsis_gcc.h **** {
 279:Generated_Source\PSoC6\pdl\cmsis/include/cmsis_gcc.h ****   __ASM volatile ("MSR psp, %0" : : "r" (topOfProcStack) : );
 280:Generated_Source\PSoC6\pdl\cmsis/include/cmsis_gcc.h **** }
 281:Generated_Source\PSoC6\pdl\cmsis/include/cmsis_gcc.h **** 
 282:Generated_Source\PSoC6\pdl\cmsis/include/cmsis_gcc.h **** 
 283:Generated_Source\PSoC6\pdl\cmsis/include/cmsis_gcc.h **** #if (defined (__ARM_FEATURE_CMSE ) && (__ARM_FEATURE_CMSE == 3))
 284:Generated_Source\PSoC6\pdl\cmsis/include/cmsis_gcc.h **** /**
 285:Generated_Source\PSoC6\pdl\cmsis/include/cmsis_gcc.h ****   \brief   Set Process Stack Pointer (non-secure)
 286:Generated_Source\PSoC6\pdl\cmsis/include/cmsis_gcc.h ****   \details Assigns the given value to the non-secure Process Stack Pointer (PSP) when in secure sta
 287:Generated_Source\PSoC6\pdl\cmsis/include/cmsis_gcc.h ****   \param [in]    topOfProcStack  Process Stack Pointer value to set
 288:Generated_Source\PSoC6\pdl\cmsis/include/cmsis_gcc.h ****  */
 289:Generated_Source\PSoC6\pdl\cmsis/include/cmsis_gcc.h **** __STATIC_FORCEINLINE void __TZ_set_PSP_NS(uint32_t topOfProcStack)
 290:Generated_Source\PSoC6\pdl\cmsis/include/cmsis_gcc.h **** {
 291:Generated_Source\PSoC6\pdl\cmsis/include/cmsis_gcc.h ****   __ASM volatile ("MSR psp_ns, %0" : : "r" (topOfProcStack) : );
 292:Generated_Source\PSoC6\pdl\cmsis/include/cmsis_gcc.h **** }
 293:Generated_Source\PSoC6\pdl\cmsis/include/cmsis_gcc.h **** #endif
 294:Generated_Source\PSoC6\pdl\cmsis/include/cmsis_gcc.h **** 
 295:Generated_Source\PSoC6\pdl\cmsis/include/cmsis_gcc.h **** 
 296:Generated_Source\PSoC6\pdl\cmsis/include/cmsis_gcc.h **** /**
 297:Generated_Source\PSoC6\pdl\cmsis/include/cmsis_gcc.h ****   \brief   Get Main Stack Pointer
 298:Generated_Source\PSoC6\pdl\cmsis/include/cmsis_gcc.h ****   \details Returns the current value of the Main Stack Pointer (MSP).
 299:Generated_Source\PSoC6\pdl\cmsis/include/cmsis_gcc.h ****   \return               MSP Register value
 300:Generated_Source\PSoC6\pdl\cmsis/include/cmsis_gcc.h ****  */
 301:Generated_Source\PSoC6\pdl\cmsis/include/cmsis_gcc.h **** __STATIC_FORCEINLINE uint32_t __get_MSP(void)
 302:Generated_Source\PSoC6\pdl\cmsis/include/cmsis_gcc.h **** {
 303:Generated_Source\PSoC6\pdl\cmsis/include/cmsis_gcc.h ****   register uint32_t result;
 304:Generated_Source\PSoC6\pdl\cmsis/include/cmsis_gcc.h **** 
 305:Generated_Source\PSoC6\pdl\cmsis/include/cmsis_gcc.h ****   __ASM volatile ("MRS %0, msp" : "=r" (result) );
 306:Generated_Source\PSoC6\pdl\cmsis/include/cmsis_gcc.h ****   return(result);
ARM GAS  C:\Users\pearlstl\AppData\Local\Temp\ccGlZpXW.s 			page 24


 307:Generated_Source\PSoC6\pdl\cmsis/include/cmsis_gcc.h **** }
 308:Generated_Source\PSoC6\pdl\cmsis/include/cmsis_gcc.h **** 
 309:Generated_Source\PSoC6\pdl\cmsis/include/cmsis_gcc.h **** 
 310:Generated_Source\PSoC6\pdl\cmsis/include/cmsis_gcc.h **** #if (defined (__ARM_FEATURE_CMSE ) && (__ARM_FEATURE_CMSE == 3))
 311:Generated_Source\PSoC6\pdl\cmsis/include/cmsis_gcc.h **** /**
 312:Generated_Source\PSoC6\pdl\cmsis/include/cmsis_gcc.h ****   \brief   Get Main Stack Pointer (non-secure)
 313:Generated_Source\PSoC6\pdl\cmsis/include/cmsis_gcc.h ****   \details Returns the current value of the non-secure Main Stack Pointer (MSP) when in secure stat
 314:Generated_Source\PSoC6\pdl\cmsis/include/cmsis_gcc.h ****   \return               MSP Register value
 315:Generated_Source\PSoC6\pdl\cmsis/include/cmsis_gcc.h ****  */
 316:Generated_Source\PSoC6\pdl\cmsis/include/cmsis_gcc.h **** __STATIC_FORCEINLINE uint32_t __TZ_get_MSP_NS(void)
 317:Generated_Source\PSoC6\pdl\cmsis/include/cmsis_gcc.h **** {
 318:Generated_Source\PSoC6\pdl\cmsis/include/cmsis_gcc.h ****   register uint32_t result;
 319:Generated_Source\PSoC6\pdl\cmsis/include/cmsis_gcc.h **** 
 320:Generated_Source\PSoC6\pdl\cmsis/include/cmsis_gcc.h ****   __ASM volatile ("MRS %0, msp_ns" : "=r" (result) );
 321:Generated_Source\PSoC6\pdl\cmsis/include/cmsis_gcc.h ****   return(result);
 322:Generated_Source\PSoC6\pdl\cmsis/include/cmsis_gcc.h **** }
 323:Generated_Source\PSoC6\pdl\cmsis/include/cmsis_gcc.h **** #endif
 324:Generated_Source\PSoC6\pdl\cmsis/include/cmsis_gcc.h **** 
 325:Generated_Source\PSoC6\pdl\cmsis/include/cmsis_gcc.h **** 
 326:Generated_Source\PSoC6\pdl\cmsis/include/cmsis_gcc.h **** /**
 327:Generated_Source\PSoC6\pdl\cmsis/include/cmsis_gcc.h ****   \brief   Set Main Stack Pointer
 328:Generated_Source\PSoC6\pdl\cmsis/include/cmsis_gcc.h ****   \details Assigns the given value to the Main Stack Pointer (MSP).
 329:Generated_Source\PSoC6\pdl\cmsis/include/cmsis_gcc.h ****   \param [in]    topOfMainStack  Main Stack Pointer value to set
 330:Generated_Source\PSoC6\pdl\cmsis/include/cmsis_gcc.h ****  */
 331:Generated_Source\PSoC6\pdl\cmsis/include/cmsis_gcc.h **** __STATIC_FORCEINLINE void __set_MSP(uint32_t topOfMainStack)
 332:Generated_Source\PSoC6\pdl\cmsis/include/cmsis_gcc.h **** {
 333:Generated_Source\PSoC6\pdl\cmsis/include/cmsis_gcc.h ****   __ASM volatile ("MSR msp, %0" : : "r" (topOfMainStack) : );
 334:Generated_Source\PSoC6\pdl\cmsis/include/cmsis_gcc.h **** }
 335:Generated_Source\PSoC6\pdl\cmsis/include/cmsis_gcc.h **** 
 336:Generated_Source\PSoC6\pdl\cmsis/include/cmsis_gcc.h **** 
 337:Generated_Source\PSoC6\pdl\cmsis/include/cmsis_gcc.h **** #if (defined (__ARM_FEATURE_CMSE ) && (__ARM_FEATURE_CMSE == 3))
 338:Generated_Source\PSoC6\pdl\cmsis/include/cmsis_gcc.h **** /**
 339:Generated_Source\PSoC6\pdl\cmsis/include/cmsis_gcc.h ****   \brief   Set Main Stack Pointer (non-secure)
 340:Generated_Source\PSoC6\pdl\cmsis/include/cmsis_gcc.h ****   \details Assigns the given value to the non-secure Main Stack Pointer (MSP) when in secure state.
 341:Generated_Source\PSoC6\pdl\cmsis/include/cmsis_gcc.h ****   \param [in]    topOfMainStack  Main Stack Pointer value to set
 342:Generated_Source\PSoC6\pdl\cmsis/include/cmsis_gcc.h ****  */
 343:Generated_Source\PSoC6\pdl\cmsis/include/cmsis_gcc.h **** __STATIC_FORCEINLINE void __TZ_set_MSP_NS(uint32_t topOfMainStack)
 344:Generated_Source\PSoC6\pdl\cmsis/include/cmsis_gcc.h **** {
 345:Generated_Source\PSoC6\pdl\cmsis/include/cmsis_gcc.h ****   __ASM volatile ("MSR msp_ns, %0" : : "r" (topOfMainStack) : );
 346:Generated_Source\PSoC6\pdl\cmsis/include/cmsis_gcc.h **** }
 347:Generated_Source\PSoC6\pdl\cmsis/include/cmsis_gcc.h **** #endif
 348:Generated_Source\PSoC6\pdl\cmsis/include/cmsis_gcc.h **** 
 349:Generated_Source\PSoC6\pdl\cmsis/include/cmsis_gcc.h **** 
 350:Generated_Source\PSoC6\pdl\cmsis/include/cmsis_gcc.h **** #if (defined (__ARM_FEATURE_CMSE ) && (__ARM_FEATURE_CMSE == 3))
 351:Generated_Source\PSoC6\pdl\cmsis/include/cmsis_gcc.h **** /**
 352:Generated_Source\PSoC6\pdl\cmsis/include/cmsis_gcc.h ****   \brief   Get Stack Pointer (non-secure)
 353:Generated_Source\PSoC6\pdl\cmsis/include/cmsis_gcc.h ****   \details Returns the current value of the non-secure Stack Pointer (SP) when in secure state.
 354:Generated_Source\PSoC6\pdl\cmsis/include/cmsis_gcc.h ****   \return               SP Register value
 355:Generated_Source\PSoC6\pdl\cmsis/include/cmsis_gcc.h ****  */
 356:Generated_Source\PSoC6\pdl\cmsis/include/cmsis_gcc.h **** __STATIC_FORCEINLINE uint32_t __TZ_get_SP_NS(void)
 357:Generated_Source\PSoC6\pdl\cmsis/include/cmsis_gcc.h **** {
 358:Generated_Source\PSoC6\pdl\cmsis/include/cmsis_gcc.h ****   register uint32_t result;
 359:Generated_Source\PSoC6\pdl\cmsis/include/cmsis_gcc.h **** 
 360:Generated_Source\PSoC6\pdl\cmsis/include/cmsis_gcc.h ****   __ASM volatile ("MRS %0, sp_ns" : "=r" (result) );
 361:Generated_Source\PSoC6\pdl\cmsis/include/cmsis_gcc.h ****   return(result);
 362:Generated_Source\PSoC6\pdl\cmsis/include/cmsis_gcc.h **** }
 363:Generated_Source\PSoC6\pdl\cmsis/include/cmsis_gcc.h **** 
ARM GAS  C:\Users\pearlstl\AppData\Local\Temp\ccGlZpXW.s 			page 25


 364:Generated_Source\PSoC6\pdl\cmsis/include/cmsis_gcc.h **** 
 365:Generated_Source\PSoC6\pdl\cmsis/include/cmsis_gcc.h **** /**
 366:Generated_Source\PSoC6\pdl\cmsis/include/cmsis_gcc.h ****   \brief   Set Stack Pointer (non-secure)
 367:Generated_Source\PSoC6\pdl\cmsis/include/cmsis_gcc.h ****   \details Assigns the given value to the non-secure Stack Pointer (SP) when in secure state.
 368:Generated_Source\PSoC6\pdl\cmsis/include/cmsis_gcc.h ****   \param [in]    topOfStack  Stack Pointer value to set
 369:Generated_Source\PSoC6\pdl\cmsis/include/cmsis_gcc.h ****  */
 370:Generated_Source\PSoC6\pdl\cmsis/include/cmsis_gcc.h **** __STATIC_FORCEINLINE void __TZ_set_SP_NS(uint32_t topOfStack)
 371:Generated_Source\PSoC6\pdl\cmsis/include/cmsis_gcc.h **** {
 372:Generated_Source\PSoC6\pdl\cmsis/include/cmsis_gcc.h ****   __ASM volatile ("MSR sp_ns, %0" : : "r" (topOfStack) : );
 373:Generated_Source\PSoC6\pdl\cmsis/include/cmsis_gcc.h **** }
 374:Generated_Source\PSoC6\pdl\cmsis/include/cmsis_gcc.h **** #endif
 375:Generated_Source\PSoC6\pdl\cmsis/include/cmsis_gcc.h **** 
 376:Generated_Source\PSoC6\pdl\cmsis/include/cmsis_gcc.h **** 
 377:Generated_Source\PSoC6\pdl\cmsis/include/cmsis_gcc.h **** /**
 378:Generated_Source\PSoC6\pdl\cmsis/include/cmsis_gcc.h ****   \brief   Get Priority Mask
 379:Generated_Source\PSoC6\pdl\cmsis/include/cmsis_gcc.h ****   \details Returns the current state of the priority mask bit from the Priority Mask Register.
 380:Generated_Source\PSoC6\pdl\cmsis/include/cmsis_gcc.h ****   \return               Priority Mask value
 381:Generated_Source\PSoC6\pdl\cmsis/include/cmsis_gcc.h ****  */
 382:Generated_Source\PSoC6\pdl\cmsis/include/cmsis_gcc.h **** __STATIC_FORCEINLINE uint32_t __get_PRIMASK(void)
 383:Generated_Source\PSoC6\pdl\cmsis/include/cmsis_gcc.h **** {
 384:Generated_Source\PSoC6\pdl\cmsis/include/cmsis_gcc.h ****   uint32_t result;
 385:Generated_Source\PSoC6\pdl\cmsis/include/cmsis_gcc.h **** 
 386:Generated_Source\PSoC6\pdl\cmsis/include/cmsis_gcc.h ****   __ASM volatile ("MRS %0, primask" : "=r" (result) :: "memory");
 387:Generated_Source\PSoC6\pdl\cmsis/include/cmsis_gcc.h ****   return(result);
 388:Generated_Source\PSoC6\pdl\cmsis/include/cmsis_gcc.h **** }
 389:Generated_Source\PSoC6\pdl\cmsis/include/cmsis_gcc.h **** 
 390:Generated_Source\PSoC6\pdl\cmsis/include/cmsis_gcc.h **** 
 391:Generated_Source\PSoC6\pdl\cmsis/include/cmsis_gcc.h **** #if (defined (__ARM_FEATURE_CMSE ) && (__ARM_FEATURE_CMSE == 3))
 392:Generated_Source\PSoC6\pdl\cmsis/include/cmsis_gcc.h **** /**
 393:Generated_Source\PSoC6\pdl\cmsis/include/cmsis_gcc.h ****   \brief   Get Priority Mask (non-secure)
 394:Generated_Source\PSoC6\pdl\cmsis/include/cmsis_gcc.h ****   \details Returns the current state of the non-secure priority mask bit from the Priority Mask Reg
 395:Generated_Source\PSoC6\pdl\cmsis/include/cmsis_gcc.h ****   \return               Priority Mask value
 396:Generated_Source\PSoC6\pdl\cmsis/include/cmsis_gcc.h ****  */
 397:Generated_Source\PSoC6\pdl\cmsis/include/cmsis_gcc.h **** __STATIC_FORCEINLINE uint32_t __TZ_get_PRIMASK_NS(void)
 398:Generated_Source\PSoC6\pdl\cmsis/include/cmsis_gcc.h **** {
 399:Generated_Source\PSoC6\pdl\cmsis/include/cmsis_gcc.h ****   uint32_t result;
 400:Generated_Source\PSoC6\pdl\cmsis/include/cmsis_gcc.h **** 
 401:Generated_Source\PSoC6\pdl\cmsis/include/cmsis_gcc.h ****   __ASM volatile ("MRS %0, primask_ns" : "=r" (result) :: "memory");
 402:Generated_Source\PSoC6\pdl\cmsis/include/cmsis_gcc.h ****   return(result);
 403:Generated_Source\PSoC6\pdl\cmsis/include/cmsis_gcc.h **** }
 404:Generated_Source\PSoC6\pdl\cmsis/include/cmsis_gcc.h **** #endif
 405:Generated_Source\PSoC6\pdl\cmsis/include/cmsis_gcc.h **** 
 406:Generated_Source\PSoC6\pdl\cmsis/include/cmsis_gcc.h **** 
 407:Generated_Source\PSoC6\pdl\cmsis/include/cmsis_gcc.h **** /**
 408:Generated_Source\PSoC6\pdl\cmsis/include/cmsis_gcc.h ****   \brief   Set Priority Mask
 409:Generated_Source\PSoC6\pdl\cmsis/include/cmsis_gcc.h ****   \details Assigns the given value to the Priority Mask Register.
 410:Generated_Source\PSoC6\pdl\cmsis/include/cmsis_gcc.h ****   \param [in]    priMask  Priority Mask
 411:Generated_Source\PSoC6\pdl\cmsis/include/cmsis_gcc.h ****  */
 412:Generated_Source\PSoC6\pdl\cmsis/include/cmsis_gcc.h **** __STATIC_FORCEINLINE void __set_PRIMASK(uint32_t priMask)
 413:Generated_Source\PSoC6\pdl\cmsis/include/cmsis_gcc.h **** {
 414:Generated_Source\PSoC6\pdl\cmsis/include/cmsis_gcc.h ****   __ASM volatile ("MSR primask, %0" : : "r" (priMask) : "memory");
 415:Generated_Source\PSoC6\pdl\cmsis/include/cmsis_gcc.h **** }
 416:Generated_Source\PSoC6\pdl\cmsis/include/cmsis_gcc.h **** 
 417:Generated_Source\PSoC6\pdl\cmsis/include/cmsis_gcc.h **** 
 418:Generated_Source\PSoC6\pdl\cmsis/include/cmsis_gcc.h **** #if (defined (__ARM_FEATURE_CMSE ) && (__ARM_FEATURE_CMSE == 3))
 419:Generated_Source\PSoC6\pdl\cmsis/include/cmsis_gcc.h **** /**
 420:Generated_Source\PSoC6\pdl\cmsis/include/cmsis_gcc.h ****   \brief   Set Priority Mask (non-secure)
ARM GAS  C:\Users\pearlstl\AppData\Local\Temp\ccGlZpXW.s 			page 26


 421:Generated_Source\PSoC6\pdl\cmsis/include/cmsis_gcc.h ****   \details Assigns the given value to the non-secure Priority Mask Register when in secure state.
 422:Generated_Source\PSoC6\pdl\cmsis/include/cmsis_gcc.h ****   \param [in]    priMask  Priority Mask
 423:Generated_Source\PSoC6\pdl\cmsis/include/cmsis_gcc.h ****  */
 424:Generated_Source\PSoC6\pdl\cmsis/include/cmsis_gcc.h **** __STATIC_FORCEINLINE void __TZ_set_PRIMASK_NS(uint32_t priMask)
 425:Generated_Source\PSoC6\pdl\cmsis/include/cmsis_gcc.h **** {
 426:Generated_Source\PSoC6\pdl\cmsis/include/cmsis_gcc.h ****   __ASM volatile ("MSR primask_ns, %0" : : "r" (priMask) : "memory");
 427:Generated_Source\PSoC6\pdl\cmsis/include/cmsis_gcc.h **** }
 428:Generated_Source\PSoC6\pdl\cmsis/include/cmsis_gcc.h **** #endif
 429:Generated_Source\PSoC6\pdl\cmsis/include/cmsis_gcc.h **** 
 430:Generated_Source\PSoC6\pdl\cmsis/include/cmsis_gcc.h **** 
 431:Generated_Source\PSoC6\pdl\cmsis/include/cmsis_gcc.h **** #if ((defined (__ARM_ARCH_7M__      ) && (__ARM_ARCH_7M__      == 1)) || \
 432:Generated_Source\PSoC6\pdl\cmsis/include/cmsis_gcc.h ****      (defined (__ARM_ARCH_7EM__     ) && (__ARM_ARCH_7EM__     == 1)) || \
 433:Generated_Source\PSoC6\pdl\cmsis/include/cmsis_gcc.h ****      (defined (__ARM_ARCH_8M_MAIN__ ) && (__ARM_ARCH_8M_MAIN__ == 1))    )
 434:Generated_Source\PSoC6\pdl\cmsis/include/cmsis_gcc.h **** /**
 435:Generated_Source\PSoC6\pdl\cmsis/include/cmsis_gcc.h ****   \brief   Enable FIQ
 436:Generated_Source\PSoC6\pdl\cmsis/include/cmsis_gcc.h ****   \details Enables FIQ interrupts by clearing the F-bit in the CPSR.
 437:Generated_Source\PSoC6\pdl\cmsis/include/cmsis_gcc.h ****            Can only be executed in Privileged modes.
 438:Generated_Source\PSoC6\pdl\cmsis/include/cmsis_gcc.h ****  */
 439:Generated_Source\PSoC6\pdl\cmsis/include/cmsis_gcc.h **** __STATIC_FORCEINLINE void __enable_fault_irq(void)
 440:Generated_Source\PSoC6\pdl\cmsis/include/cmsis_gcc.h **** {
 441:Generated_Source\PSoC6\pdl\cmsis/include/cmsis_gcc.h ****   __ASM volatile ("cpsie f" : : : "memory");
 442:Generated_Source\PSoC6\pdl\cmsis/include/cmsis_gcc.h **** }
 443:Generated_Source\PSoC6\pdl\cmsis/include/cmsis_gcc.h **** 
 444:Generated_Source\PSoC6\pdl\cmsis/include/cmsis_gcc.h **** 
 445:Generated_Source\PSoC6\pdl\cmsis/include/cmsis_gcc.h **** /**
 446:Generated_Source\PSoC6\pdl\cmsis/include/cmsis_gcc.h ****   \brief   Disable FIQ
 447:Generated_Source\PSoC6\pdl\cmsis/include/cmsis_gcc.h ****   \details Disables FIQ interrupts by setting the F-bit in the CPSR.
 448:Generated_Source\PSoC6\pdl\cmsis/include/cmsis_gcc.h ****            Can only be executed in Privileged modes.
 449:Generated_Source\PSoC6\pdl\cmsis/include/cmsis_gcc.h ****  */
 450:Generated_Source\PSoC6\pdl\cmsis/include/cmsis_gcc.h **** __STATIC_FORCEINLINE void __disable_fault_irq(void)
 451:Generated_Source\PSoC6\pdl\cmsis/include/cmsis_gcc.h **** {
 452:Generated_Source\PSoC6\pdl\cmsis/include/cmsis_gcc.h ****   __ASM volatile ("cpsid f" : : : "memory");
 453:Generated_Source\PSoC6\pdl\cmsis/include/cmsis_gcc.h **** }
 454:Generated_Source\PSoC6\pdl\cmsis/include/cmsis_gcc.h **** 
 455:Generated_Source\PSoC6\pdl\cmsis/include/cmsis_gcc.h **** 
 456:Generated_Source\PSoC6\pdl\cmsis/include/cmsis_gcc.h **** /**
 457:Generated_Source\PSoC6\pdl\cmsis/include/cmsis_gcc.h ****   \brief   Get Base Priority
 458:Generated_Source\PSoC6\pdl\cmsis/include/cmsis_gcc.h ****   \details Returns the current value of the Base Priority register.
 459:Generated_Source\PSoC6\pdl\cmsis/include/cmsis_gcc.h ****   \return               Base Priority register value
 460:Generated_Source\PSoC6\pdl\cmsis/include/cmsis_gcc.h ****  */
 461:Generated_Source\PSoC6\pdl\cmsis/include/cmsis_gcc.h **** __STATIC_FORCEINLINE uint32_t __get_BASEPRI(void)
 462:Generated_Source\PSoC6\pdl\cmsis/include/cmsis_gcc.h **** {
 463:Generated_Source\PSoC6\pdl\cmsis/include/cmsis_gcc.h ****   uint32_t result;
 464:Generated_Source\PSoC6\pdl\cmsis/include/cmsis_gcc.h **** 
 465:Generated_Source\PSoC6\pdl\cmsis/include/cmsis_gcc.h ****   __ASM volatile ("MRS %0, basepri" : "=r" (result) );
 466:Generated_Source\PSoC6\pdl\cmsis/include/cmsis_gcc.h ****   return(result);
 467:Generated_Source\PSoC6\pdl\cmsis/include/cmsis_gcc.h **** }
 468:Generated_Source\PSoC6\pdl\cmsis/include/cmsis_gcc.h **** 
 469:Generated_Source\PSoC6\pdl\cmsis/include/cmsis_gcc.h **** 
 470:Generated_Source\PSoC6\pdl\cmsis/include/cmsis_gcc.h **** #if (defined (__ARM_FEATURE_CMSE ) && (__ARM_FEATURE_CMSE == 3))
 471:Generated_Source\PSoC6\pdl\cmsis/include/cmsis_gcc.h **** /**
 472:Generated_Source\PSoC6\pdl\cmsis/include/cmsis_gcc.h ****   \brief   Get Base Priority (non-secure)
 473:Generated_Source\PSoC6\pdl\cmsis/include/cmsis_gcc.h ****   \details Returns the current value of the non-secure Base Priority register when in secure state.
 474:Generated_Source\PSoC6\pdl\cmsis/include/cmsis_gcc.h ****   \return               Base Priority register value
 475:Generated_Source\PSoC6\pdl\cmsis/include/cmsis_gcc.h ****  */
 476:Generated_Source\PSoC6\pdl\cmsis/include/cmsis_gcc.h **** __STATIC_FORCEINLINE uint32_t __TZ_get_BASEPRI_NS(void)
 477:Generated_Source\PSoC6\pdl\cmsis/include/cmsis_gcc.h **** {
ARM GAS  C:\Users\pearlstl\AppData\Local\Temp\ccGlZpXW.s 			page 27


 478:Generated_Source\PSoC6\pdl\cmsis/include/cmsis_gcc.h ****   uint32_t result;
 479:Generated_Source\PSoC6\pdl\cmsis/include/cmsis_gcc.h **** 
 480:Generated_Source\PSoC6\pdl\cmsis/include/cmsis_gcc.h ****   __ASM volatile ("MRS %0, basepri_ns" : "=r" (result) );
 481:Generated_Source\PSoC6\pdl\cmsis/include/cmsis_gcc.h ****   return(result);
 482:Generated_Source\PSoC6\pdl\cmsis/include/cmsis_gcc.h **** }
 483:Generated_Source\PSoC6\pdl\cmsis/include/cmsis_gcc.h **** #endif
 484:Generated_Source\PSoC6\pdl\cmsis/include/cmsis_gcc.h **** 
 485:Generated_Source\PSoC6\pdl\cmsis/include/cmsis_gcc.h **** 
 486:Generated_Source\PSoC6\pdl\cmsis/include/cmsis_gcc.h **** /**
 487:Generated_Source\PSoC6\pdl\cmsis/include/cmsis_gcc.h ****   \brief   Set Base Priority
 488:Generated_Source\PSoC6\pdl\cmsis/include/cmsis_gcc.h ****   \details Assigns the given value to the Base Priority register.
 489:Generated_Source\PSoC6\pdl\cmsis/include/cmsis_gcc.h ****   \param [in]    basePri  Base Priority value to set
 490:Generated_Source\PSoC6\pdl\cmsis/include/cmsis_gcc.h ****  */
 491:Generated_Source\PSoC6\pdl\cmsis/include/cmsis_gcc.h **** __STATIC_FORCEINLINE void __set_BASEPRI(uint32_t basePri)
 492:Generated_Source\PSoC6\pdl\cmsis/include/cmsis_gcc.h **** {
 493:Generated_Source\PSoC6\pdl\cmsis/include/cmsis_gcc.h ****   __ASM volatile ("MSR basepri, %0" : : "r" (basePri) : "memory");
 494:Generated_Source\PSoC6\pdl\cmsis/include/cmsis_gcc.h **** }
 495:Generated_Source\PSoC6\pdl\cmsis/include/cmsis_gcc.h **** 
 496:Generated_Source\PSoC6\pdl\cmsis/include/cmsis_gcc.h **** 
 497:Generated_Source\PSoC6\pdl\cmsis/include/cmsis_gcc.h **** #if (defined (__ARM_FEATURE_CMSE ) && (__ARM_FEATURE_CMSE == 3))
 498:Generated_Source\PSoC6\pdl\cmsis/include/cmsis_gcc.h **** /**
 499:Generated_Source\PSoC6\pdl\cmsis/include/cmsis_gcc.h ****   \brief   Set Base Priority (non-secure)
 500:Generated_Source\PSoC6\pdl\cmsis/include/cmsis_gcc.h ****   \details Assigns the given value to the non-secure Base Priority register when in secure state.
 501:Generated_Source\PSoC6\pdl\cmsis/include/cmsis_gcc.h ****   \param [in]    basePri  Base Priority value to set
 502:Generated_Source\PSoC6\pdl\cmsis/include/cmsis_gcc.h ****  */
 503:Generated_Source\PSoC6\pdl\cmsis/include/cmsis_gcc.h **** __STATIC_FORCEINLINE void __TZ_set_BASEPRI_NS(uint32_t basePri)
 504:Generated_Source\PSoC6\pdl\cmsis/include/cmsis_gcc.h **** {
 505:Generated_Source\PSoC6\pdl\cmsis/include/cmsis_gcc.h ****   __ASM volatile ("MSR basepri_ns, %0" : : "r" (basePri) : "memory");
 506:Generated_Source\PSoC6\pdl\cmsis/include/cmsis_gcc.h **** }
 507:Generated_Source\PSoC6\pdl\cmsis/include/cmsis_gcc.h **** #endif
 508:Generated_Source\PSoC6\pdl\cmsis/include/cmsis_gcc.h **** 
 509:Generated_Source\PSoC6\pdl\cmsis/include/cmsis_gcc.h **** 
 510:Generated_Source\PSoC6\pdl\cmsis/include/cmsis_gcc.h **** /**
 511:Generated_Source\PSoC6\pdl\cmsis/include/cmsis_gcc.h ****   \brief   Set Base Priority with condition
 512:Generated_Source\PSoC6\pdl\cmsis/include/cmsis_gcc.h ****   \details Assigns the given value to the Base Priority register only if BASEPRI masking is disable
 513:Generated_Source\PSoC6\pdl\cmsis/include/cmsis_gcc.h ****            or the new value increases the BASEPRI priority level.
 514:Generated_Source\PSoC6\pdl\cmsis/include/cmsis_gcc.h ****   \param [in]    basePri  Base Priority value to set
 515:Generated_Source\PSoC6\pdl\cmsis/include/cmsis_gcc.h ****  */
 516:Generated_Source\PSoC6\pdl\cmsis/include/cmsis_gcc.h **** __STATIC_FORCEINLINE void __set_BASEPRI_MAX(uint32_t basePri)
 517:Generated_Source\PSoC6\pdl\cmsis/include/cmsis_gcc.h **** {
 518:Generated_Source\PSoC6\pdl\cmsis/include/cmsis_gcc.h ****   __ASM volatile ("MSR basepri_max, %0" : : "r" (basePri) : "memory");
 519:Generated_Source\PSoC6\pdl\cmsis/include/cmsis_gcc.h **** }
 520:Generated_Source\PSoC6\pdl\cmsis/include/cmsis_gcc.h **** 
 521:Generated_Source\PSoC6\pdl\cmsis/include/cmsis_gcc.h **** 
 522:Generated_Source\PSoC6\pdl\cmsis/include/cmsis_gcc.h **** /**
 523:Generated_Source\PSoC6\pdl\cmsis/include/cmsis_gcc.h ****   \brief   Get Fault Mask
 524:Generated_Source\PSoC6\pdl\cmsis/include/cmsis_gcc.h ****   \details Returns the current value of the Fault Mask register.
 525:Generated_Source\PSoC6\pdl\cmsis/include/cmsis_gcc.h ****   \return               Fault Mask register value
 526:Generated_Source\PSoC6\pdl\cmsis/include/cmsis_gcc.h ****  */
 527:Generated_Source\PSoC6\pdl\cmsis/include/cmsis_gcc.h **** __STATIC_FORCEINLINE uint32_t __get_FAULTMASK(void)
 528:Generated_Source\PSoC6\pdl\cmsis/include/cmsis_gcc.h **** {
 529:Generated_Source\PSoC6\pdl\cmsis/include/cmsis_gcc.h ****   uint32_t result;
 530:Generated_Source\PSoC6\pdl\cmsis/include/cmsis_gcc.h **** 
 531:Generated_Source\PSoC6\pdl\cmsis/include/cmsis_gcc.h ****   __ASM volatile ("MRS %0, faultmask" : "=r" (result) );
 532:Generated_Source\PSoC6\pdl\cmsis/include/cmsis_gcc.h ****   return(result);
 533:Generated_Source\PSoC6\pdl\cmsis/include/cmsis_gcc.h **** }
 534:Generated_Source\PSoC6\pdl\cmsis/include/cmsis_gcc.h **** 
ARM GAS  C:\Users\pearlstl\AppData\Local\Temp\ccGlZpXW.s 			page 28


 535:Generated_Source\PSoC6\pdl\cmsis/include/cmsis_gcc.h **** 
 536:Generated_Source\PSoC6\pdl\cmsis/include/cmsis_gcc.h **** #if (defined (__ARM_FEATURE_CMSE ) && (__ARM_FEATURE_CMSE == 3))
 537:Generated_Source\PSoC6\pdl\cmsis/include/cmsis_gcc.h **** /**
 538:Generated_Source\PSoC6\pdl\cmsis/include/cmsis_gcc.h ****   \brief   Get Fault Mask (non-secure)
 539:Generated_Source\PSoC6\pdl\cmsis/include/cmsis_gcc.h ****   \details Returns the current value of the non-secure Fault Mask register when in secure state.
 540:Generated_Source\PSoC6\pdl\cmsis/include/cmsis_gcc.h ****   \return               Fault Mask register value
 541:Generated_Source\PSoC6\pdl\cmsis/include/cmsis_gcc.h ****  */
 542:Generated_Source\PSoC6\pdl\cmsis/include/cmsis_gcc.h **** __STATIC_FORCEINLINE uint32_t __TZ_get_FAULTMASK_NS(void)
 543:Generated_Source\PSoC6\pdl\cmsis/include/cmsis_gcc.h **** {
 544:Generated_Source\PSoC6\pdl\cmsis/include/cmsis_gcc.h ****   uint32_t result;
 545:Generated_Source\PSoC6\pdl\cmsis/include/cmsis_gcc.h **** 
 546:Generated_Source\PSoC6\pdl\cmsis/include/cmsis_gcc.h ****   __ASM volatile ("MRS %0, faultmask_ns" : "=r" (result) );
 547:Generated_Source\PSoC6\pdl\cmsis/include/cmsis_gcc.h ****   return(result);
 548:Generated_Source\PSoC6\pdl\cmsis/include/cmsis_gcc.h **** }
 549:Generated_Source\PSoC6\pdl\cmsis/include/cmsis_gcc.h **** #endif
 550:Generated_Source\PSoC6\pdl\cmsis/include/cmsis_gcc.h **** 
 551:Generated_Source\PSoC6\pdl\cmsis/include/cmsis_gcc.h **** 
 552:Generated_Source\PSoC6\pdl\cmsis/include/cmsis_gcc.h **** /**
 553:Generated_Source\PSoC6\pdl\cmsis/include/cmsis_gcc.h ****   \brief   Set Fault Mask
 554:Generated_Source\PSoC6\pdl\cmsis/include/cmsis_gcc.h ****   \details Assigns the given value to the Fault Mask register.
 555:Generated_Source\PSoC6\pdl\cmsis/include/cmsis_gcc.h ****   \param [in]    faultMask  Fault Mask value to set
 556:Generated_Source\PSoC6\pdl\cmsis/include/cmsis_gcc.h ****  */
 557:Generated_Source\PSoC6\pdl\cmsis/include/cmsis_gcc.h **** __STATIC_FORCEINLINE void __set_FAULTMASK(uint32_t faultMask)
 558:Generated_Source\PSoC6\pdl\cmsis/include/cmsis_gcc.h **** {
 559:Generated_Source\PSoC6\pdl\cmsis/include/cmsis_gcc.h ****   __ASM volatile ("MSR faultmask, %0" : : "r" (faultMask) : "memory");
 560:Generated_Source\PSoC6\pdl\cmsis/include/cmsis_gcc.h **** }
 561:Generated_Source\PSoC6\pdl\cmsis/include/cmsis_gcc.h **** 
 562:Generated_Source\PSoC6\pdl\cmsis/include/cmsis_gcc.h **** 
 563:Generated_Source\PSoC6\pdl\cmsis/include/cmsis_gcc.h **** #if (defined (__ARM_FEATURE_CMSE ) && (__ARM_FEATURE_CMSE == 3))
 564:Generated_Source\PSoC6\pdl\cmsis/include/cmsis_gcc.h **** /**
 565:Generated_Source\PSoC6\pdl\cmsis/include/cmsis_gcc.h ****   \brief   Set Fault Mask (non-secure)
 566:Generated_Source\PSoC6\pdl\cmsis/include/cmsis_gcc.h ****   \details Assigns the given value to the non-secure Fault Mask register when in secure state.
 567:Generated_Source\PSoC6\pdl\cmsis/include/cmsis_gcc.h ****   \param [in]    faultMask  Fault Mask value to set
 568:Generated_Source\PSoC6\pdl\cmsis/include/cmsis_gcc.h ****  */
 569:Generated_Source\PSoC6\pdl\cmsis/include/cmsis_gcc.h **** __STATIC_FORCEINLINE void __TZ_set_FAULTMASK_NS(uint32_t faultMask)
 570:Generated_Source\PSoC6\pdl\cmsis/include/cmsis_gcc.h **** {
 571:Generated_Source\PSoC6\pdl\cmsis/include/cmsis_gcc.h ****   __ASM volatile ("MSR faultmask_ns, %0" : : "r" (faultMask) : "memory");
 572:Generated_Source\PSoC6\pdl\cmsis/include/cmsis_gcc.h **** }
 573:Generated_Source\PSoC6\pdl\cmsis/include/cmsis_gcc.h **** #endif
 574:Generated_Source\PSoC6\pdl\cmsis/include/cmsis_gcc.h **** 
 575:Generated_Source\PSoC6\pdl\cmsis/include/cmsis_gcc.h **** #endif /* ((defined (__ARM_ARCH_7M__      ) && (__ARM_ARCH_7M__      == 1)) || \
 576:Generated_Source\PSoC6\pdl\cmsis/include/cmsis_gcc.h ****            (defined (__ARM_ARCH_7EM__     ) && (__ARM_ARCH_7EM__     == 1)) || \
 577:Generated_Source\PSoC6\pdl\cmsis/include/cmsis_gcc.h ****            (defined (__ARM_ARCH_8M_MAIN__ ) && (__ARM_ARCH_8M_MAIN__ == 1))    ) */
 578:Generated_Source\PSoC6\pdl\cmsis/include/cmsis_gcc.h **** 
 579:Generated_Source\PSoC6\pdl\cmsis/include/cmsis_gcc.h **** 
 580:Generated_Source\PSoC6\pdl\cmsis/include/cmsis_gcc.h **** #if ((defined (__ARM_ARCH_8M_MAIN__ ) && (__ARM_ARCH_8M_MAIN__ == 1)) || \
 581:Generated_Source\PSoC6\pdl\cmsis/include/cmsis_gcc.h ****      (defined (__ARM_ARCH_8M_BASE__ ) && (__ARM_ARCH_8M_BASE__ == 1))    )
 582:Generated_Source\PSoC6\pdl\cmsis/include/cmsis_gcc.h **** 
 583:Generated_Source\PSoC6\pdl\cmsis/include/cmsis_gcc.h **** /**
 584:Generated_Source\PSoC6\pdl\cmsis/include/cmsis_gcc.h ****   \brief   Get Process Stack Pointer Limit
 585:Generated_Source\PSoC6\pdl\cmsis/include/cmsis_gcc.h ****   Devices without ARMv8-M Main Extensions (i.e. Cortex-M23) lack the non-secure
 586:Generated_Source\PSoC6\pdl\cmsis/include/cmsis_gcc.h ****   Stack Pointer Limit register hence zero is returned always in non-secure
 587:Generated_Source\PSoC6\pdl\cmsis/include/cmsis_gcc.h ****   mode.
 588:Generated_Source\PSoC6\pdl\cmsis/include/cmsis_gcc.h ****   
 589:Generated_Source\PSoC6\pdl\cmsis/include/cmsis_gcc.h ****   \details Returns the current value of the Process Stack Pointer Limit (PSPLIM).
 590:Generated_Source\PSoC6\pdl\cmsis/include/cmsis_gcc.h ****   \return               PSPLIM Register value
 591:Generated_Source\PSoC6\pdl\cmsis/include/cmsis_gcc.h ****  */
ARM GAS  C:\Users\pearlstl\AppData\Local\Temp\ccGlZpXW.s 			page 29


 592:Generated_Source\PSoC6\pdl\cmsis/include/cmsis_gcc.h **** __STATIC_FORCEINLINE uint32_t __get_PSPLIM(void)
 593:Generated_Source\PSoC6\pdl\cmsis/include/cmsis_gcc.h **** {
 594:Generated_Source\PSoC6\pdl\cmsis/include/cmsis_gcc.h **** #if (!(defined (__ARM_ARCH_8M_MAIN__ ) && (__ARM_ARCH_8M_MAIN__ == 1)) && \
 595:Generated_Source\PSoC6\pdl\cmsis/include/cmsis_gcc.h ****     (!defined (__ARM_FEATURE_CMSE) || (__ARM_FEATURE_CMSE < 3)))
 596:Generated_Source\PSoC6\pdl\cmsis/include/cmsis_gcc.h ****     // without main extensions, the non-secure PSPLIM is RAZ/WI
 597:Generated_Source\PSoC6\pdl\cmsis/include/cmsis_gcc.h ****   return 0U;
 598:Generated_Source\PSoC6\pdl\cmsis/include/cmsis_gcc.h **** #else
 599:Generated_Source\PSoC6\pdl\cmsis/include/cmsis_gcc.h ****   register uint32_t result;
 600:Generated_Source\PSoC6\pdl\cmsis/include/cmsis_gcc.h ****   __ASM volatile ("MRS %0, psplim"  : "=r" (result) );
 601:Generated_Source\PSoC6\pdl\cmsis/include/cmsis_gcc.h ****   return result;
 602:Generated_Source\PSoC6\pdl\cmsis/include/cmsis_gcc.h **** #endif
 603:Generated_Source\PSoC6\pdl\cmsis/include/cmsis_gcc.h **** }
 604:Generated_Source\PSoC6\pdl\cmsis/include/cmsis_gcc.h **** 
 605:Generated_Source\PSoC6\pdl\cmsis/include/cmsis_gcc.h **** #if (defined (__ARM_FEATURE_CMSE) && (__ARM_FEATURE_CMSE == 3))
 606:Generated_Source\PSoC6\pdl\cmsis/include/cmsis_gcc.h **** /**
 607:Generated_Source\PSoC6\pdl\cmsis/include/cmsis_gcc.h ****   \brief   Get Process Stack Pointer Limit (non-secure)
 608:Generated_Source\PSoC6\pdl\cmsis/include/cmsis_gcc.h ****   Devices without ARMv8-M Main Extensions (i.e. Cortex-M23) lack the non-secure
 609:Generated_Source\PSoC6\pdl\cmsis/include/cmsis_gcc.h ****   Stack Pointer Limit register hence zero is returned always.
 610:Generated_Source\PSoC6\pdl\cmsis/include/cmsis_gcc.h **** 
 611:Generated_Source\PSoC6\pdl\cmsis/include/cmsis_gcc.h ****   \details Returns the current value of the non-secure Process Stack Pointer Limit (PSPLIM) when in
 612:Generated_Source\PSoC6\pdl\cmsis/include/cmsis_gcc.h ****   \return               PSPLIM Register value
 613:Generated_Source\PSoC6\pdl\cmsis/include/cmsis_gcc.h ****  */
 614:Generated_Source\PSoC6\pdl\cmsis/include/cmsis_gcc.h **** __STATIC_FORCEINLINE uint32_t __TZ_get_PSPLIM_NS(void)
 615:Generated_Source\PSoC6\pdl\cmsis/include/cmsis_gcc.h **** {
 616:Generated_Source\PSoC6\pdl\cmsis/include/cmsis_gcc.h **** #if (!(defined (__ARM_ARCH_8M_MAIN__ ) && (__ARM_ARCH_8M_MAIN__ == 1)))
 617:Generated_Source\PSoC6\pdl\cmsis/include/cmsis_gcc.h ****   // without main extensions, the non-secure PSPLIM is RAZ/WI
 618:Generated_Source\PSoC6\pdl\cmsis/include/cmsis_gcc.h ****   return 0U;
 619:Generated_Source\PSoC6\pdl\cmsis/include/cmsis_gcc.h **** #else
 620:Generated_Source\PSoC6\pdl\cmsis/include/cmsis_gcc.h ****   register uint32_t result;
 621:Generated_Source\PSoC6\pdl\cmsis/include/cmsis_gcc.h ****   __ASM volatile ("MRS %0, psplim_ns"  : "=r" (result) );
 622:Generated_Source\PSoC6\pdl\cmsis/include/cmsis_gcc.h ****   return result;
 623:Generated_Source\PSoC6\pdl\cmsis/include/cmsis_gcc.h **** #endif
 624:Generated_Source\PSoC6\pdl\cmsis/include/cmsis_gcc.h **** }
 625:Generated_Source\PSoC6\pdl\cmsis/include/cmsis_gcc.h **** #endif
 626:Generated_Source\PSoC6\pdl\cmsis/include/cmsis_gcc.h **** 
 627:Generated_Source\PSoC6\pdl\cmsis/include/cmsis_gcc.h **** 
 628:Generated_Source\PSoC6\pdl\cmsis/include/cmsis_gcc.h **** /**
 629:Generated_Source\PSoC6\pdl\cmsis/include/cmsis_gcc.h ****   \brief   Set Process Stack Pointer Limit
 630:Generated_Source\PSoC6\pdl\cmsis/include/cmsis_gcc.h ****   Devices without ARMv8-M Main Extensions (i.e. Cortex-M23) lack the non-secure
 631:Generated_Source\PSoC6\pdl\cmsis/include/cmsis_gcc.h ****   Stack Pointer Limit register hence the write is silently ignored in non-secure
 632:Generated_Source\PSoC6\pdl\cmsis/include/cmsis_gcc.h ****   mode.
 633:Generated_Source\PSoC6\pdl\cmsis/include/cmsis_gcc.h ****   
 634:Generated_Source\PSoC6\pdl\cmsis/include/cmsis_gcc.h ****   \details Assigns the given value to the Process Stack Pointer Limit (PSPLIM).
 635:Generated_Source\PSoC6\pdl\cmsis/include/cmsis_gcc.h ****   \param [in]    ProcStackPtrLimit  Process Stack Pointer Limit value to set
 636:Generated_Source\PSoC6\pdl\cmsis/include/cmsis_gcc.h ****  */
 637:Generated_Source\PSoC6\pdl\cmsis/include/cmsis_gcc.h **** __STATIC_FORCEINLINE void __set_PSPLIM(uint32_t ProcStackPtrLimit)
 638:Generated_Source\PSoC6\pdl\cmsis/include/cmsis_gcc.h **** {
 639:Generated_Source\PSoC6\pdl\cmsis/include/cmsis_gcc.h **** #if (!(defined (__ARM_ARCH_8M_MAIN__ ) && (__ARM_ARCH_8M_MAIN__ == 1)) && \
 640:Generated_Source\PSoC6\pdl\cmsis/include/cmsis_gcc.h ****     (!defined (__ARM_FEATURE_CMSE) || (__ARM_FEATURE_CMSE < 3)))
 641:Generated_Source\PSoC6\pdl\cmsis/include/cmsis_gcc.h ****   // without main extensions, the non-secure PSPLIM is RAZ/WI
 642:Generated_Source\PSoC6\pdl\cmsis/include/cmsis_gcc.h ****   (void)ProcStackPtrLimit;
 643:Generated_Source\PSoC6\pdl\cmsis/include/cmsis_gcc.h **** #else
 644:Generated_Source\PSoC6\pdl\cmsis/include/cmsis_gcc.h ****   __ASM volatile ("MSR psplim, %0" : : "r" (ProcStackPtrLimit));
 645:Generated_Source\PSoC6\pdl\cmsis/include/cmsis_gcc.h **** #endif
 646:Generated_Source\PSoC6\pdl\cmsis/include/cmsis_gcc.h **** }
 647:Generated_Source\PSoC6\pdl\cmsis/include/cmsis_gcc.h **** 
 648:Generated_Source\PSoC6\pdl\cmsis/include/cmsis_gcc.h **** 
ARM GAS  C:\Users\pearlstl\AppData\Local\Temp\ccGlZpXW.s 			page 30


 649:Generated_Source\PSoC6\pdl\cmsis/include/cmsis_gcc.h **** #if (defined (__ARM_FEATURE_CMSE  ) && (__ARM_FEATURE_CMSE   == 3))
 650:Generated_Source\PSoC6\pdl\cmsis/include/cmsis_gcc.h **** /**
 651:Generated_Source\PSoC6\pdl\cmsis/include/cmsis_gcc.h ****   \brief   Set Process Stack Pointer (non-secure)
 652:Generated_Source\PSoC6\pdl\cmsis/include/cmsis_gcc.h ****   Devices without ARMv8-M Main Extensions (i.e. Cortex-M23) lack the non-secure
 653:Generated_Source\PSoC6\pdl\cmsis/include/cmsis_gcc.h ****   Stack Pointer Limit register hence the write is silently ignored.
 654:Generated_Source\PSoC6\pdl\cmsis/include/cmsis_gcc.h **** 
 655:Generated_Source\PSoC6\pdl\cmsis/include/cmsis_gcc.h ****   \details Assigns the given value to the non-secure Process Stack Pointer Limit (PSPLIM) when in s
 656:Generated_Source\PSoC6\pdl\cmsis/include/cmsis_gcc.h ****   \param [in]    ProcStackPtrLimit  Process Stack Pointer Limit value to set
 657:Generated_Source\PSoC6\pdl\cmsis/include/cmsis_gcc.h ****  */
 658:Generated_Source\PSoC6\pdl\cmsis/include/cmsis_gcc.h **** __STATIC_FORCEINLINE void __TZ_set_PSPLIM_NS(uint32_t ProcStackPtrLimit)
 659:Generated_Source\PSoC6\pdl\cmsis/include/cmsis_gcc.h **** {
 660:Generated_Source\PSoC6\pdl\cmsis/include/cmsis_gcc.h **** #if (!(defined (__ARM_ARCH_8M_MAIN__ ) && (__ARM_ARCH_8M_MAIN__ == 1)))
 661:Generated_Source\PSoC6\pdl\cmsis/include/cmsis_gcc.h ****   // without main extensions, the non-secure PSPLIM is RAZ/WI
 662:Generated_Source\PSoC6\pdl\cmsis/include/cmsis_gcc.h ****   (void)ProcStackPtrLimit;
 663:Generated_Source\PSoC6\pdl\cmsis/include/cmsis_gcc.h **** #else
 664:Generated_Source\PSoC6\pdl\cmsis/include/cmsis_gcc.h ****   __ASM volatile ("MSR psplim_ns, %0\n" : : "r" (ProcStackPtrLimit));
 665:Generated_Source\PSoC6\pdl\cmsis/include/cmsis_gcc.h **** #endif
 666:Generated_Source\PSoC6\pdl\cmsis/include/cmsis_gcc.h **** }
 667:Generated_Source\PSoC6\pdl\cmsis/include/cmsis_gcc.h **** #endif
 668:Generated_Source\PSoC6\pdl\cmsis/include/cmsis_gcc.h **** 
 669:Generated_Source\PSoC6\pdl\cmsis/include/cmsis_gcc.h **** 
 670:Generated_Source\PSoC6\pdl\cmsis/include/cmsis_gcc.h **** /**
 671:Generated_Source\PSoC6\pdl\cmsis/include/cmsis_gcc.h ****   \brief   Get Main Stack Pointer Limit
 672:Generated_Source\PSoC6\pdl\cmsis/include/cmsis_gcc.h ****   Devices without ARMv8-M Main Extensions (i.e. Cortex-M23) lack the non-secure
 673:Generated_Source\PSoC6\pdl\cmsis/include/cmsis_gcc.h ****   Stack Pointer Limit register hence zero is returned always in non-secure
 674:Generated_Source\PSoC6\pdl\cmsis/include/cmsis_gcc.h ****   mode.
 675:Generated_Source\PSoC6\pdl\cmsis/include/cmsis_gcc.h **** 
 676:Generated_Source\PSoC6\pdl\cmsis/include/cmsis_gcc.h ****   \details Returns the current value of the Main Stack Pointer Limit (MSPLIM).
 677:Generated_Source\PSoC6\pdl\cmsis/include/cmsis_gcc.h ****   \return               MSPLIM Register value
 678:Generated_Source\PSoC6\pdl\cmsis/include/cmsis_gcc.h ****  */
 679:Generated_Source\PSoC6\pdl\cmsis/include/cmsis_gcc.h **** __STATIC_FORCEINLINE uint32_t __get_MSPLIM(void)
 680:Generated_Source\PSoC6\pdl\cmsis/include/cmsis_gcc.h **** {
 681:Generated_Source\PSoC6\pdl\cmsis/include/cmsis_gcc.h **** #if (!(defined (__ARM_ARCH_8M_MAIN__ ) && (__ARM_ARCH_8M_MAIN__ == 1)) && \
 682:Generated_Source\PSoC6\pdl\cmsis/include/cmsis_gcc.h ****     (!defined (__ARM_FEATURE_CMSE) || (__ARM_FEATURE_CMSE < 3)))
 683:Generated_Source\PSoC6\pdl\cmsis/include/cmsis_gcc.h ****   // without main extensions, the non-secure MSPLIM is RAZ/WI
 684:Generated_Source\PSoC6\pdl\cmsis/include/cmsis_gcc.h ****   return 0U;
 685:Generated_Source\PSoC6\pdl\cmsis/include/cmsis_gcc.h **** #else
 686:Generated_Source\PSoC6\pdl\cmsis/include/cmsis_gcc.h ****   register uint32_t result;
 687:Generated_Source\PSoC6\pdl\cmsis/include/cmsis_gcc.h ****   __ASM volatile ("MRS %0, msplim" : "=r" (result) );
 688:Generated_Source\PSoC6\pdl\cmsis/include/cmsis_gcc.h ****   return result;
 689:Generated_Source\PSoC6\pdl\cmsis/include/cmsis_gcc.h **** #endif
 690:Generated_Source\PSoC6\pdl\cmsis/include/cmsis_gcc.h **** }
 691:Generated_Source\PSoC6\pdl\cmsis/include/cmsis_gcc.h **** 
 692:Generated_Source\PSoC6\pdl\cmsis/include/cmsis_gcc.h **** 
 693:Generated_Source\PSoC6\pdl\cmsis/include/cmsis_gcc.h **** #if (defined (__ARM_FEATURE_CMSE  ) && (__ARM_FEATURE_CMSE   == 3))
 694:Generated_Source\PSoC6\pdl\cmsis/include/cmsis_gcc.h **** /**
 695:Generated_Source\PSoC6\pdl\cmsis/include/cmsis_gcc.h ****   \brief   Get Main Stack Pointer Limit (non-secure)
 696:Generated_Source\PSoC6\pdl\cmsis/include/cmsis_gcc.h ****   Devices without ARMv8-M Main Extensions (i.e. Cortex-M23) lack the non-secure
 697:Generated_Source\PSoC6\pdl\cmsis/include/cmsis_gcc.h ****   Stack Pointer Limit register hence zero is returned always.
 698:Generated_Source\PSoC6\pdl\cmsis/include/cmsis_gcc.h **** 
 699:Generated_Source\PSoC6\pdl\cmsis/include/cmsis_gcc.h ****   \details Returns the current value of the non-secure Main Stack Pointer Limit(MSPLIM) when in sec
 700:Generated_Source\PSoC6\pdl\cmsis/include/cmsis_gcc.h ****   \return               MSPLIM Register value
 701:Generated_Source\PSoC6\pdl\cmsis/include/cmsis_gcc.h ****  */
 702:Generated_Source\PSoC6\pdl\cmsis/include/cmsis_gcc.h **** __STATIC_FORCEINLINE uint32_t __TZ_get_MSPLIM_NS(void)
 703:Generated_Source\PSoC6\pdl\cmsis/include/cmsis_gcc.h **** {
 704:Generated_Source\PSoC6\pdl\cmsis/include/cmsis_gcc.h **** #if (!(defined (__ARM_ARCH_8M_MAIN__ ) && (__ARM_ARCH_8M_MAIN__ == 1)))
 705:Generated_Source\PSoC6\pdl\cmsis/include/cmsis_gcc.h ****   // without main extensions, the non-secure MSPLIM is RAZ/WI
ARM GAS  C:\Users\pearlstl\AppData\Local\Temp\ccGlZpXW.s 			page 31


 706:Generated_Source\PSoC6\pdl\cmsis/include/cmsis_gcc.h ****   return 0U;
 707:Generated_Source\PSoC6\pdl\cmsis/include/cmsis_gcc.h **** #else
 708:Generated_Source\PSoC6\pdl\cmsis/include/cmsis_gcc.h ****   register uint32_t result;
 709:Generated_Source\PSoC6\pdl\cmsis/include/cmsis_gcc.h ****   __ASM volatile ("MRS %0, msplim_ns" : "=r" (result) );
 710:Generated_Source\PSoC6\pdl\cmsis/include/cmsis_gcc.h ****   return result;
 711:Generated_Source\PSoC6\pdl\cmsis/include/cmsis_gcc.h **** #endif
 712:Generated_Source\PSoC6\pdl\cmsis/include/cmsis_gcc.h **** }
 713:Generated_Source\PSoC6\pdl\cmsis/include/cmsis_gcc.h **** #endif
 714:Generated_Source\PSoC6\pdl\cmsis/include/cmsis_gcc.h **** 
 715:Generated_Source\PSoC6\pdl\cmsis/include/cmsis_gcc.h **** 
 716:Generated_Source\PSoC6\pdl\cmsis/include/cmsis_gcc.h **** /**
 717:Generated_Source\PSoC6\pdl\cmsis/include/cmsis_gcc.h ****   \brief   Set Main Stack Pointer Limit
 718:Generated_Source\PSoC6\pdl\cmsis/include/cmsis_gcc.h ****   Devices without ARMv8-M Main Extensions (i.e. Cortex-M23) lack the non-secure
 719:Generated_Source\PSoC6\pdl\cmsis/include/cmsis_gcc.h ****   Stack Pointer Limit register hence the write is silently ignored in non-secure
 720:Generated_Source\PSoC6\pdl\cmsis/include/cmsis_gcc.h ****   mode.
 721:Generated_Source\PSoC6\pdl\cmsis/include/cmsis_gcc.h **** 
 722:Generated_Source\PSoC6\pdl\cmsis/include/cmsis_gcc.h ****   \details Assigns the given value to the Main Stack Pointer Limit (MSPLIM).
 723:Generated_Source\PSoC6\pdl\cmsis/include/cmsis_gcc.h ****   \param [in]    MainStackPtrLimit  Main Stack Pointer Limit value to set
 724:Generated_Source\PSoC6\pdl\cmsis/include/cmsis_gcc.h ****  */
 725:Generated_Source\PSoC6\pdl\cmsis/include/cmsis_gcc.h **** __STATIC_FORCEINLINE void __set_MSPLIM(uint32_t MainStackPtrLimit)
 726:Generated_Source\PSoC6\pdl\cmsis/include/cmsis_gcc.h **** {
 727:Generated_Source\PSoC6\pdl\cmsis/include/cmsis_gcc.h **** #if (!(defined (__ARM_ARCH_8M_MAIN__ ) && (__ARM_ARCH_8M_MAIN__ == 1)) && \
 728:Generated_Source\PSoC6\pdl\cmsis/include/cmsis_gcc.h ****     (!defined (__ARM_FEATURE_CMSE) || (__ARM_FEATURE_CMSE < 3)))
 729:Generated_Source\PSoC6\pdl\cmsis/include/cmsis_gcc.h ****   // without main extensions, the non-secure MSPLIM is RAZ/WI
 730:Generated_Source\PSoC6\pdl\cmsis/include/cmsis_gcc.h ****   (void)MainStackPtrLimit;
 731:Generated_Source\PSoC6\pdl\cmsis/include/cmsis_gcc.h **** #else
 732:Generated_Source\PSoC6\pdl\cmsis/include/cmsis_gcc.h ****   __ASM volatile ("MSR msplim, %0" : : "r" (MainStackPtrLimit));
 733:Generated_Source\PSoC6\pdl\cmsis/include/cmsis_gcc.h **** #endif
 734:Generated_Source\PSoC6\pdl\cmsis/include/cmsis_gcc.h **** }
 735:Generated_Source\PSoC6\pdl\cmsis/include/cmsis_gcc.h **** 
 736:Generated_Source\PSoC6\pdl\cmsis/include/cmsis_gcc.h **** 
 737:Generated_Source\PSoC6\pdl\cmsis/include/cmsis_gcc.h **** #if (defined (__ARM_FEATURE_CMSE  ) && (__ARM_FEATURE_CMSE   == 3))
 738:Generated_Source\PSoC6\pdl\cmsis/include/cmsis_gcc.h **** /**
 739:Generated_Source\PSoC6\pdl\cmsis/include/cmsis_gcc.h ****   \brief   Set Main Stack Pointer Limit (non-secure)
 740:Generated_Source\PSoC6\pdl\cmsis/include/cmsis_gcc.h ****   Devices without ARMv8-M Main Extensions (i.e. Cortex-M23) lack the non-secure
 741:Generated_Source\PSoC6\pdl\cmsis/include/cmsis_gcc.h ****   Stack Pointer Limit register hence the write is silently ignored.
 742:Generated_Source\PSoC6\pdl\cmsis/include/cmsis_gcc.h **** 
 743:Generated_Source\PSoC6\pdl\cmsis/include/cmsis_gcc.h ****   \details Assigns the given value to the non-secure Main Stack Pointer Limit (MSPLIM) when in secu
 744:Generated_Source\PSoC6\pdl\cmsis/include/cmsis_gcc.h ****   \param [in]    MainStackPtrLimit  Main Stack Pointer value to set
 745:Generated_Source\PSoC6\pdl\cmsis/include/cmsis_gcc.h ****  */
 746:Generated_Source\PSoC6\pdl\cmsis/include/cmsis_gcc.h **** __STATIC_FORCEINLINE void __TZ_set_MSPLIM_NS(uint32_t MainStackPtrLimit)
 747:Generated_Source\PSoC6\pdl\cmsis/include/cmsis_gcc.h **** {
 748:Generated_Source\PSoC6\pdl\cmsis/include/cmsis_gcc.h **** #if (!(defined (__ARM_ARCH_8M_MAIN__ ) && (__ARM_ARCH_8M_MAIN__ == 1)))
 749:Generated_Source\PSoC6\pdl\cmsis/include/cmsis_gcc.h ****   // without main extensions, the non-secure MSPLIM is RAZ/WI
 750:Generated_Source\PSoC6\pdl\cmsis/include/cmsis_gcc.h ****   (void)MainStackPtrLimit;
 751:Generated_Source\PSoC6\pdl\cmsis/include/cmsis_gcc.h **** #else
 752:Generated_Source\PSoC6\pdl\cmsis/include/cmsis_gcc.h ****   __ASM volatile ("MSR msplim_ns, %0" : : "r" (MainStackPtrLimit));
 753:Generated_Source\PSoC6\pdl\cmsis/include/cmsis_gcc.h **** #endif
 754:Generated_Source\PSoC6\pdl\cmsis/include/cmsis_gcc.h **** }
 755:Generated_Source\PSoC6\pdl\cmsis/include/cmsis_gcc.h **** #endif
 756:Generated_Source\PSoC6\pdl\cmsis/include/cmsis_gcc.h **** 
 757:Generated_Source\PSoC6\pdl\cmsis/include/cmsis_gcc.h **** #endif /* ((defined (__ARM_ARCH_8M_MAIN__ ) && (__ARM_ARCH_8M_MAIN__ == 1)) || \
 758:Generated_Source\PSoC6\pdl\cmsis/include/cmsis_gcc.h ****            (defined (__ARM_ARCH_8M_BASE__ ) && (__ARM_ARCH_8M_BASE__ == 1))    ) */
 759:Generated_Source\PSoC6\pdl\cmsis/include/cmsis_gcc.h **** 
 760:Generated_Source\PSoC6\pdl\cmsis/include/cmsis_gcc.h **** 
 761:Generated_Source\PSoC6\pdl\cmsis/include/cmsis_gcc.h **** #if ((defined (__ARM_ARCH_7EM__     ) && (__ARM_ARCH_7EM__     == 1)) || \
 762:Generated_Source\PSoC6\pdl\cmsis/include/cmsis_gcc.h ****      (defined (__ARM_ARCH_8M_MAIN__ ) && (__ARM_ARCH_8M_MAIN__ == 1))    )
ARM GAS  C:\Users\pearlstl\AppData\Local\Temp\ccGlZpXW.s 			page 32


 763:Generated_Source\PSoC6\pdl\cmsis/include/cmsis_gcc.h **** 
 764:Generated_Source\PSoC6\pdl\cmsis/include/cmsis_gcc.h **** /**
 765:Generated_Source\PSoC6\pdl\cmsis/include/cmsis_gcc.h ****   \brief   Get FPSCR
 766:Generated_Source\PSoC6\pdl\cmsis/include/cmsis_gcc.h ****   \details Returns the current value of the Floating Point Status/Control register.
 767:Generated_Source\PSoC6\pdl\cmsis/include/cmsis_gcc.h ****   \return               Floating Point Status/Control register value
 768:Generated_Source\PSoC6\pdl\cmsis/include/cmsis_gcc.h ****  */
 769:Generated_Source\PSoC6\pdl\cmsis/include/cmsis_gcc.h **** __STATIC_FORCEINLINE uint32_t __get_FPSCR(void)
 770:Generated_Source\PSoC6\pdl\cmsis/include/cmsis_gcc.h **** {
 771:Generated_Source\PSoC6\pdl\cmsis/include/cmsis_gcc.h **** #if ((defined (__FPU_PRESENT) && (__FPU_PRESENT == 1U)) && \
 772:Generated_Source\PSoC6\pdl\cmsis/include/cmsis_gcc.h ****      (defined (__FPU_USED   ) && (__FPU_USED    == 1U))     )
 773:Generated_Source\PSoC6\pdl\cmsis/include/cmsis_gcc.h **** #if __has_builtin(__builtin_arm_get_fpscr) || (__GNUC__ > 7) || (__GNUC__ == 7 && __GNUC_MINOR__ >=
 774:Generated_Source\PSoC6\pdl\cmsis/include/cmsis_gcc.h ****   /* see https://gcc.gnu.org/ml/gcc-patches/2017-04/msg00443.html */
 775:Generated_Source\PSoC6\pdl\cmsis/include/cmsis_gcc.h ****   return __builtin_arm_get_fpscr();
 776:Generated_Source\PSoC6\pdl\cmsis/include/cmsis_gcc.h **** #else
 777:Generated_Source\PSoC6\pdl\cmsis/include/cmsis_gcc.h ****   uint32_t result;
 778:Generated_Source\PSoC6\pdl\cmsis/include/cmsis_gcc.h **** 
 779:Generated_Source\PSoC6\pdl\cmsis/include/cmsis_gcc.h ****   __ASM volatile ("VMRS %0, fpscr" : "=r" (result) );
 780:Generated_Source\PSoC6\pdl\cmsis/include/cmsis_gcc.h ****   return(result);
 781:Generated_Source\PSoC6\pdl\cmsis/include/cmsis_gcc.h **** #endif
 782:Generated_Source\PSoC6\pdl\cmsis/include/cmsis_gcc.h **** #else
 783:Generated_Source\PSoC6\pdl\cmsis/include/cmsis_gcc.h ****   return(0U);
 784:Generated_Source\PSoC6\pdl\cmsis/include/cmsis_gcc.h **** #endif
 785:Generated_Source\PSoC6\pdl\cmsis/include/cmsis_gcc.h **** }
 786:Generated_Source\PSoC6\pdl\cmsis/include/cmsis_gcc.h **** 
 787:Generated_Source\PSoC6\pdl\cmsis/include/cmsis_gcc.h **** 
 788:Generated_Source\PSoC6\pdl\cmsis/include/cmsis_gcc.h **** /**
 789:Generated_Source\PSoC6\pdl\cmsis/include/cmsis_gcc.h ****   \brief   Set FPSCR
 790:Generated_Source\PSoC6\pdl\cmsis/include/cmsis_gcc.h ****   \details Assigns the given value to the Floating Point Status/Control register.
 791:Generated_Source\PSoC6\pdl\cmsis/include/cmsis_gcc.h ****   \param [in]    fpscr  Floating Point Status/Control value to set
 792:Generated_Source\PSoC6\pdl\cmsis/include/cmsis_gcc.h ****  */
 793:Generated_Source\PSoC6\pdl\cmsis/include/cmsis_gcc.h **** __STATIC_FORCEINLINE void __set_FPSCR(uint32_t fpscr)
 794:Generated_Source\PSoC6\pdl\cmsis/include/cmsis_gcc.h **** {
 795:Generated_Source\PSoC6\pdl\cmsis/include/cmsis_gcc.h **** #if ((defined (__FPU_PRESENT) && (__FPU_PRESENT == 1U)) && \
 796:Generated_Source\PSoC6\pdl\cmsis/include/cmsis_gcc.h ****      (defined (__FPU_USED   ) && (__FPU_USED    == 1U))     )
 797:Generated_Source\PSoC6\pdl\cmsis/include/cmsis_gcc.h **** #if __has_builtin(__builtin_arm_set_fpscr) || (__GNUC__ > 7) || (__GNUC__ == 7 && __GNUC_MINOR__ >=
 798:Generated_Source\PSoC6\pdl\cmsis/include/cmsis_gcc.h ****   /* see https://gcc.gnu.org/ml/gcc-patches/2017-04/msg00443.html */
 799:Generated_Source\PSoC6\pdl\cmsis/include/cmsis_gcc.h ****   __builtin_arm_set_fpscr(fpscr);
 800:Generated_Source\PSoC6\pdl\cmsis/include/cmsis_gcc.h **** #else
 801:Generated_Source\PSoC6\pdl\cmsis/include/cmsis_gcc.h ****   __ASM volatile ("VMSR fpscr, %0" : : "r" (fpscr) : "vfpcc", "memory");
 802:Generated_Source\PSoC6\pdl\cmsis/include/cmsis_gcc.h **** #endif
 803:Generated_Source\PSoC6\pdl\cmsis/include/cmsis_gcc.h **** #else
 804:Generated_Source\PSoC6\pdl\cmsis/include/cmsis_gcc.h ****   (void)fpscr;
 805:Generated_Source\PSoC6\pdl\cmsis/include/cmsis_gcc.h **** #endif
 806:Generated_Source\PSoC6\pdl\cmsis/include/cmsis_gcc.h **** }
 807:Generated_Source\PSoC6\pdl\cmsis/include/cmsis_gcc.h **** 
 808:Generated_Source\PSoC6\pdl\cmsis/include/cmsis_gcc.h **** #endif /* ((defined (__ARM_ARCH_7EM__     ) && (__ARM_ARCH_7EM__     == 1)) || \
 809:Generated_Source\PSoC6\pdl\cmsis/include/cmsis_gcc.h ****            (defined (__ARM_ARCH_8M_MAIN__ ) && (__ARM_ARCH_8M_MAIN__ == 1))    ) */
 810:Generated_Source\PSoC6\pdl\cmsis/include/cmsis_gcc.h **** 
 811:Generated_Source\PSoC6\pdl\cmsis/include/cmsis_gcc.h **** 
 812:Generated_Source\PSoC6\pdl\cmsis/include/cmsis_gcc.h **** 
 813:Generated_Source\PSoC6\pdl\cmsis/include/cmsis_gcc.h **** /*@} end of CMSIS_Core_RegAccFunctions */
 814:Generated_Source\PSoC6\pdl\cmsis/include/cmsis_gcc.h **** 
 815:Generated_Source\PSoC6\pdl\cmsis/include/cmsis_gcc.h **** 
 816:Generated_Source\PSoC6\pdl\cmsis/include/cmsis_gcc.h **** /* ##########################  Core Instruction Access  ######################### */
 817:Generated_Source\PSoC6\pdl\cmsis/include/cmsis_gcc.h **** /** \defgroup CMSIS_Core_InstructionInterface CMSIS Core Instruction Interface
 818:Generated_Source\PSoC6\pdl\cmsis/include/cmsis_gcc.h ****   Access to dedicated instructions
 819:Generated_Source\PSoC6\pdl\cmsis/include/cmsis_gcc.h ****   @{
ARM GAS  C:\Users\pearlstl\AppData\Local\Temp\ccGlZpXW.s 			page 33


 820:Generated_Source\PSoC6\pdl\cmsis/include/cmsis_gcc.h **** */
 821:Generated_Source\PSoC6\pdl\cmsis/include/cmsis_gcc.h **** 
 822:Generated_Source\PSoC6\pdl\cmsis/include/cmsis_gcc.h **** /* Define macros for porting to both thumb1 and thumb2.
 823:Generated_Source\PSoC6\pdl\cmsis/include/cmsis_gcc.h ****  * For thumb1, use low register (r0-r7), specified by constraint "l"
 824:Generated_Source\PSoC6\pdl\cmsis/include/cmsis_gcc.h ****  * Otherwise, use general registers, specified by constraint "r" */
 825:Generated_Source\PSoC6\pdl\cmsis/include/cmsis_gcc.h **** #if defined (__thumb__) && !defined (__thumb2__)
 826:Generated_Source\PSoC6\pdl\cmsis/include/cmsis_gcc.h **** #define __CMSIS_GCC_OUT_REG(r) "=l" (r)
 827:Generated_Source\PSoC6\pdl\cmsis/include/cmsis_gcc.h **** #define __CMSIS_GCC_RW_REG(r) "+l" (r)
 828:Generated_Source\PSoC6\pdl\cmsis/include/cmsis_gcc.h **** #define __CMSIS_GCC_USE_REG(r) "l" (r)
 829:Generated_Source\PSoC6\pdl\cmsis/include/cmsis_gcc.h **** #else
 830:Generated_Source\PSoC6\pdl\cmsis/include/cmsis_gcc.h **** #define __CMSIS_GCC_OUT_REG(r) "=r" (r)
 831:Generated_Source\PSoC6\pdl\cmsis/include/cmsis_gcc.h **** #define __CMSIS_GCC_RW_REG(r) "+r" (r)
 832:Generated_Source\PSoC6\pdl\cmsis/include/cmsis_gcc.h **** #define __CMSIS_GCC_USE_REG(r) "r" (r)
 833:Generated_Source\PSoC6\pdl\cmsis/include/cmsis_gcc.h **** #endif
 834:Generated_Source\PSoC6\pdl\cmsis/include/cmsis_gcc.h **** 
 835:Generated_Source\PSoC6\pdl\cmsis/include/cmsis_gcc.h **** /**
 836:Generated_Source\PSoC6\pdl\cmsis/include/cmsis_gcc.h ****   \brief   No Operation
 837:Generated_Source\PSoC6\pdl\cmsis/include/cmsis_gcc.h ****   \details No Operation does nothing. This instruction can be used for code alignment purposes.
 838:Generated_Source\PSoC6\pdl\cmsis/include/cmsis_gcc.h ****  */
 839:Generated_Source\PSoC6\pdl\cmsis/include/cmsis_gcc.h **** #define __NOP()                             __ASM volatile ("nop")
 840:Generated_Source\PSoC6\pdl\cmsis/include/cmsis_gcc.h **** 
 841:Generated_Source\PSoC6\pdl\cmsis/include/cmsis_gcc.h **** /**
 842:Generated_Source\PSoC6\pdl\cmsis/include/cmsis_gcc.h ****   \brief   Wait For Interrupt
 843:Generated_Source\PSoC6\pdl\cmsis/include/cmsis_gcc.h ****   \details Wait For Interrupt is a hint instruction that suspends execution until one of a number o
 844:Generated_Source\PSoC6\pdl\cmsis/include/cmsis_gcc.h ****  */
 845:Generated_Source\PSoC6\pdl\cmsis/include/cmsis_gcc.h **** #define __WFI()                             __ASM volatile ("wfi")
 846:Generated_Source\PSoC6\pdl\cmsis/include/cmsis_gcc.h **** 
 847:Generated_Source\PSoC6\pdl\cmsis/include/cmsis_gcc.h **** 
 848:Generated_Source\PSoC6\pdl\cmsis/include/cmsis_gcc.h **** /**
 849:Generated_Source\PSoC6\pdl\cmsis/include/cmsis_gcc.h ****   \brief   Wait For Event
 850:Generated_Source\PSoC6\pdl\cmsis/include/cmsis_gcc.h ****   \details Wait For Event is a hint instruction that permits the processor to enter
 851:Generated_Source\PSoC6\pdl\cmsis/include/cmsis_gcc.h ****            a low-power state until one of a number of events occurs.
 852:Generated_Source\PSoC6\pdl\cmsis/include/cmsis_gcc.h ****  */
 853:Generated_Source\PSoC6\pdl\cmsis/include/cmsis_gcc.h **** #define __WFE()                             __ASM volatile ("wfe")
 854:Generated_Source\PSoC6\pdl\cmsis/include/cmsis_gcc.h **** 
 855:Generated_Source\PSoC6\pdl\cmsis/include/cmsis_gcc.h **** 
 856:Generated_Source\PSoC6\pdl\cmsis/include/cmsis_gcc.h **** /**
 857:Generated_Source\PSoC6\pdl\cmsis/include/cmsis_gcc.h ****   \brief   Send Event
 858:Generated_Source\PSoC6\pdl\cmsis/include/cmsis_gcc.h ****   \details Send Event is a hint instruction. It causes an event to be signaled to the CPU.
 859:Generated_Source\PSoC6\pdl\cmsis/include/cmsis_gcc.h ****  */
 860:Generated_Source\PSoC6\pdl\cmsis/include/cmsis_gcc.h **** #define __SEV()                             __ASM volatile ("sev")
 861:Generated_Source\PSoC6\pdl\cmsis/include/cmsis_gcc.h **** 
 862:Generated_Source\PSoC6\pdl\cmsis/include/cmsis_gcc.h **** 
 863:Generated_Source\PSoC6\pdl\cmsis/include/cmsis_gcc.h **** /**
 864:Generated_Source\PSoC6\pdl\cmsis/include/cmsis_gcc.h ****   \brief   Instruction Synchronization Barrier
 865:Generated_Source\PSoC6\pdl\cmsis/include/cmsis_gcc.h ****   \details Instruction Synchronization Barrier flushes the pipeline in the processor,
 866:Generated_Source\PSoC6\pdl\cmsis/include/cmsis_gcc.h ****            so that all instructions following the ISB are fetched from cache or memory,
 867:Generated_Source\PSoC6\pdl\cmsis/include/cmsis_gcc.h ****            after the instruction has been completed.
 868:Generated_Source\PSoC6\pdl\cmsis/include/cmsis_gcc.h ****  */
 869:Generated_Source\PSoC6\pdl\cmsis/include/cmsis_gcc.h **** __STATIC_FORCEINLINE void __ISB(void)
 870:Generated_Source\PSoC6\pdl\cmsis/include/cmsis_gcc.h **** {
 871:Generated_Source\PSoC6\pdl\cmsis/include/cmsis_gcc.h ****   __ASM volatile ("isb 0xF":::"memory");
 872:Generated_Source\PSoC6\pdl\cmsis/include/cmsis_gcc.h **** }
 873:Generated_Source\PSoC6\pdl\cmsis/include/cmsis_gcc.h **** 
 874:Generated_Source\PSoC6\pdl\cmsis/include/cmsis_gcc.h **** 
 875:Generated_Source\PSoC6\pdl\cmsis/include/cmsis_gcc.h **** /**
 876:Generated_Source\PSoC6\pdl\cmsis/include/cmsis_gcc.h ****   \brief   Data Synchronization Barrier
ARM GAS  C:\Users\pearlstl\AppData\Local\Temp\ccGlZpXW.s 			page 34


 877:Generated_Source\PSoC6\pdl\cmsis/include/cmsis_gcc.h ****   \details Acts as a special kind of Data Memory Barrier.
 878:Generated_Source\PSoC6\pdl\cmsis/include/cmsis_gcc.h ****            It completes when all explicit memory accesses before this instruction complete.
 879:Generated_Source\PSoC6\pdl\cmsis/include/cmsis_gcc.h ****  */
 880:Generated_Source\PSoC6\pdl\cmsis/include/cmsis_gcc.h **** __STATIC_FORCEINLINE void __DSB(void)
 881:Generated_Source\PSoC6\pdl\cmsis/include/cmsis_gcc.h **** {
 882:Generated_Source\PSoC6\pdl\cmsis/include/cmsis_gcc.h ****   __ASM volatile ("dsb 0xF":::"memory");
 453              		.loc 2 882 0
 454              		.syntax unified
 455              	@ 882 "Generated_Source\PSoC6\pdl\cmsis/include/cmsis_gcc.h" 1
 456 0014 BFF34F8F 		dsb 0xF
 457              	@ 0 "" 2
 458              		.thumb
 459              		.syntax unified
 460              	.LBE15:
 461              	.LBE14:
 462              	.LBB16:
 463              	.LBB17:
 871:Generated_Source\PSoC6\pdl\cmsis/include/cmsis_gcc.h **** }
 464              		.loc 2 871 0
 465              		.syntax unified
 466              	@ 871 "Generated_Source\PSoC6\pdl\cmsis/include/cmsis_gcc.h" 1
 467 0018 BFF36F8F 		isb 0xF
 468              	@ 0 "" 2
 469              		.thumb
 470              		.syntax unified
 471              	.LBE17:
 472              	.LBE16:
 459:system_psoc6_cm4.c **** 
 473              		.loc 1 459 0
 474 001c BDE80840 		pop	{r3, lr}
 475              		.cfi_restore 14
 476              		.cfi_restore 3
 477              		.cfi_def_cfa_offset 0
 457:system_psoc6_cm4.c ****     #endif /* (__FPU_USED) && (__FPU_USED == 1U) */
 478              		.loc 1 457 0
 479 0020 FFF7FEBF 		b	Cy_SysLib_ExitCriticalSection
 480              	.LVL55:
 481              	.L55:
 482              		.align	2
 483              	.L54:
 484 0024 00ED00E0 		.word	-536810240
 485              		.cfi_endproc
 486              	.LFE164:
 487              		.size	Cy_SystemInitFpuEnable, .-Cy_SystemInitFpuEnable
 488              		.global	cy_delay32kMs
 489              		.global	cy_delayFreqMhz
 490              		.global	cy_delayFreqKhz
 491              		.global	cy_delayFreqHz
 492              		.global	cy_BleEcoClockFreqHz
 493              		.global	cy_PeriClkFreqHz
 494              		.global	cy_Hfclk0FreqHz
 495              		.global	SystemCoreClock
 496              		.section	.rodata
 497              		.align	2
 498              		.set	.LANCHOR2,. + 0
 499              		.type	systemIpcPipeConfigCm4.10509, %object
 500              		.size	systemIpcPipeConfigCm4.10509, 52
ARM GAS  C:\Users\pearlstl\AppData\Local\Temp\ccGlZpXW.s 			page 35


 501              	systemIpcPipeConfigCm4.10509:
 502 0000 03000000 		.word	3
 503 0004 01000000 		.word	1
 504 0008 01000000 		.word	1
 505 000c 00000000 		.word	0
 506 0010 05036000 		.word	6292229
 507 0014 04000000 		.word	4
 508 0018 01000000 		.word	1
 509 001c 00000000 		.word	0
 510 0020 01000000 		.word	1
 511 0024 06046000 		.word	6292486
 512 0028 08000000 		.word	8
 513 002c 60010000 		.word	systemIpcPipeSysCbArray.10508
 514 0030 00000000 		.word	Cy_SysIpcPipeIsrCm4
 515              		.data
 516              		.align	2
 517              		.set	.LANCHOR0,. + 0
 518              		.type	cy_BleEcoClockFreqHz, %object
 519              		.size	cy_BleEcoClockFreqHz, 4
 520              	cy_BleEcoClockFreqHz:
 521 0000 0048E801 		.word	32000000
 522              		.type	cy_Hfclk0FreqHz, %object
 523              		.size	cy_Hfclk0FreqHz, 4
 524              	cy_Hfclk0FreqHz:
 525 0004 00127A00 		.word	8000000
 526              		.type	cy_PeriClkFreqHz, %object
 527              		.size	cy_PeriClkFreqHz, 4
 528              	cy_PeriClkFreqHz:
 529 0008 00093D00 		.word	4000000
 530              		.type	SystemCoreClock, %object
 531              		.size	SystemCoreClock, 4
 532              	SystemCoreClock:
 533 000c 00127A00 		.word	8000000
 534              		.type	cy_delayFreqHz, %object
 535              		.size	cy_delayFreqHz, 4
 536              	cy_delayFreqHz:
 537 0010 00127A00 		.word	8000000
 538              		.type	cy_delayFreqMhz, %object
 539              		.size	cy_delayFreqMhz, 1
 540              	cy_delayFreqMhz:
 541 0014 08       		.byte	8
 542 0015 000000   		.space	3
 543              		.type	cy_delayFreqKhz, %object
 544              		.size	cy_delayFreqKhz, 4
 545              	cy_delayFreqKhz:
 546 0018 401F0000 		.word	8000
 547              		.type	cy_delay32kMs, %object
 548              		.size	cy_delay32kMs, 4
 549              	cy_delay32kMs:
 550 001c 0000A00F 		.word	262144000
 551              		.bss
 552              		.align	2
 553              		.set	.LANCHOR1,. + 0
 554              		.type	systemIpcPipeEpArray.10507, %object
 555              		.size	systemIpcPipeEpArray.10507, 352
 556              	systemIpcPipeEpArray.10507:
 557 0000 00000000 		.space	352
ARM GAS  C:\Users\pearlstl\AppData\Local\Temp\ccGlZpXW.s 			page 36


 557      00000000 
 557      00000000 
 557      00000000 
 557      00000000 
 558              		.type	systemIpcPipeSysCbArray.10508, %object
 559              		.size	systemIpcPipeSysCbArray.10508, 32
 560              	systemIpcPipeSysCbArray.10508:
 561 0160 00000000 		.space	32
 561      00000000 
 561      00000000 
 561      00000000 
 561      00000000 
 562              		.text
 563              	.Letext0:
 564              		.file 3 "c:\\program files (x86)\\cypress\\psoc creator\\4.2\\psoc creator\\import\\gnu\\arm\\5.4.
 565              		.file 4 "c:\\program files (x86)\\cypress\\psoc creator\\4.2\\psoc creator\\import\\gnu\\arm\\5.4.
 566              		.file 5 "Generated_Source\\PSoC6\\pdl\\devices/psoc6/include/cyble_416045_02.h"
 567              		.file 6 "Generated_Source\\PSoC6\\pdl\\cmsis/include/core_cm4.h"
 568              		.file 7 "Generated_Source\\PSoC6\\pdl\\devices/psoc6/include/ip/cyip_cpuss.h"
 569              		.file 8 "Generated_Source\\PSoC6\\pdl\\devices/psoc6/include/ip/cyip_ipc.h"
 570              		.file 9 "Generated_Source\\PSoC6\\pdl\\devices/psoc6/include/ip/cyip_srss.h"
 571              		.file 10 "Generated_Source\\PSoC6\\pdl\\devices/psoc6/include/psoc6_01_config.h"
 572              		.file 11 "Generated_Source\\PSoC6\\pdl\\drivers/peripheral/device/cy_device.h"
 573              		.file 12 "Generated_Source\\PSoC6\\pdl\\drivers/peripheral/syslib/cy_syslib.h"
 574              		.file 13 "Generated_Source\\PSoC6\\pdl\\drivers/peripheral/ipc/cy_ipc_pipe.h"
 575              		.file 14 "Generated_Source\\PSoC6\\pdl\\drivers/peripheral/ipc/cy_ipc_sema.h"
 576              		.file 15 "Generated_Source\\PSoC6\\pdl\\drivers/peripheral/flash/cy_flash.h"